; Listing generated by Microsoft (R) Optimizing Compiler Version 12.00.9044.0 

	TITLE	Source/appfat.cpp
	.386P
include listing.inc
if @Version gt 510
.model FLAT
else
_TEXT	SEGMENT PARA USE32 PUBLIC 'CODE'
_TEXT	ENDS
_DATA	SEGMENT DWORD USE32 PUBLIC 'DATA'
_DATA	ENDS
CONST	SEGMENT DWORD USE32 PUBLIC 'CONST'
CONST	ENDS
_BSS	SEGMENT DWORD USE32 PUBLIC 'BSS'
_BSS	ENDS
$$SYMBOLS	SEGMENT BYTE USE32 'DEBSYM'
$$SYMBOLS	ENDS
$$TYPES	SEGMENT BYTE USE32 'DEBTYP'
$$TYPES	ENDS
_TLS	SEGMENT DWORD USE32 PUBLIC 'TLS'
_TLS	ENDS
;	COMDAT ??_C@_0BF@GHLP@unknown?5error?50x?$CF08x?$AA@
_DATA	SEGMENT DWORD USE32 PUBLIC 'DATA'
_DATA	ENDS
;	COMDAT ??_C@_0BF@LLCF@DDERR_CANTPAGEUNLOCK?$AA@
_DATA	SEGMENT DWORD USE32 PUBLIC 'DATA'
_DATA	ENDS
;	COMDAT ??_C@_0BE@PHHK@DDERR_NOTPAGELOCKED?$AA@
_DATA	SEGMENT DWORD USE32 PUBLIC 'DATA'
_DATA	ENDS
;	COMDAT ??_C@_05LCHN@DD_OK?$AA@
_DATA	SEGMENT DWORD USE32 PUBLIC 'DATA'
_DATA	ENDS
;	COMDAT ??_C@_0BD@OCPI@DDERR_CANTPAGELOCK?$AA@
_DATA	SEGMENT DWORD USE32 PUBLIC 'DATA'
_DATA	ENDS
;	COMDAT ??_C@_0BG@MIGH@DDERR_BLTFASTCANTCLIP?$AA@
_DATA	SEGMENT DWORD USE32 PUBLIC 'DATA'
_DATA	ENDS
;	COMDAT ??_C@_0O@DCPD@DDERR_NOBLTHW?$AA@
_DATA	SEGMENT DWORD USE32 PUBLIC 'DATA'
_DATA	ENDS
;	COMDAT ??_C@_0BB@LKO@DDERR_NODDROPSHW?$AA@
_DATA	SEGMENT DWORD USE32 PUBLIC 'DATA'
_DATA	ENDS
;	COMDAT ??_C@_0BI@MEJA@DDERR_OVERLAYNOTVISIBLE?$AA@
_DATA	SEGMENT DWORD USE32 PUBLIC 'DATA'
_DATA	ENDS
;	COMDAT ??_C@_0BE@DDHB@DDERR_NOOVERLAYDEST?$AA@
_DATA	SEGMENT DWORD USE32 PUBLIC 'DATA'
_DATA	ENDS
;	COMDAT ??_C@_0BG@MKKH@DDERR_INVALIDPOSITION?$AA@
_DATA	SEGMENT DWORD USE32 PUBLIC 'DATA'
_DATA	ENDS
;	COMDAT ??_C@_0BJ@OGJB@DDERR_NOTAOVERLAYSURFACE?$AA@
_DATA	SEGMENT DWORD USE32 PUBLIC 'DATA'
_DATA	ENDS
;	COMDAT ??_C@_0BO@IOJH@DDERR_EXCLUSIVEMODEALREADYSET?$AA@
_DATA	SEGMENT DWORD USE32 PUBLIC 'DATA'
_DATA	ENDS
;	COMDAT ??_C@_0BD@CJKH@DDERR_NOTFLIPPABLE?$AA@
_DATA	SEGMENT DWORD USE32 PUBLIC 'DATA'
_DATA	ENDS
;	COMDAT ??_C@_0BE@PLOG@DDERR_CANTDUPLICATE?$AA@
_DATA	SEGMENT DWORD USE32 PUBLIC 'DATA'
_DATA	ENDS
;	COMDAT ??_C@_0BA@IHOJ@DDERR_NOTLOCKED?$AA@
_DATA	SEGMENT DWORD USE32 PUBLIC 'DATA'
_DATA	ENDS
;	COMDAT ??_C@_0BD@PHJH@DDERR_CANTCREATEDC?$AA@
_DATA	SEGMENT DWORD USE32 PUBLIC 'DATA'
_DATA	ENDS
;	COMDAT ??_C@_0L@PFPD@DDERR_NODC?$AA@
_DATA	SEGMENT DWORD USE32 PUBLIC 'DATA'
_DATA	ENDS
;	COMDAT ??_C@_0BA@BNFD@DDERR_WRONGMODE?$AA@
_DATA	SEGMENT DWORD USE32 PUBLIC 'DATA'
_DATA	ENDS
;	COMDAT ??_C@_0BI@CFBP@DDERR_IMPLICITLYCREATED?$AA@
_DATA	SEGMENT DWORD USE32 PUBLIC 'DATA'
_DATA	ENDS
;	COMDAT ??_C@_0BE@GJCG@DDERR_NOTPALETTIZED?$AA@
_DATA	SEGMENT DWORD USE32 PUBLIC 'DATA'
_DATA	ENDS
;	COMDAT ??_C@_0BB@PNI@DDERR_NOMIPMAPHW?$AA@
_DATA	SEGMENT DWORD USE32 PUBLIC 'DATA'
_DATA	ENDS
;	COMDAT ??_C@_0BJ@CODF@DDERR_INVALIDSURFACETYPE?$AA@
_DATA	SEGMENT DWORD USE32 PUBLIC 'DATA'
_DATA	ENDS
;	COMDAT ??_C@_0BH@MJAO@DDERR_DCALREADYCREATED?$AA@
_DATA	SEGMENT DWORD USE32 PUBLIC 'DATA'
_DATA	ENDS
;	COMDAT ??_C@_0BC@GBNJ@DDERR_NOPALETTEHW?$AA@
_DATA	SEGMENT DWORD USE32 PUBLIC 'DATA'
_DATA	ENDS
;	COMDAT ??_C@_0BP@HCLN@DDERR_DIRECTDRAWALREADYCREATED?$AA@
_DATA	SEGMENT DWORD USE32 PUBLIC 'DATA'
_DATA	ENDS
;	COMDAT ??_C@_0BF@LDPJ@DDERR_NODIRECTDRAWHW?$AA@
_DATA	SEGMENT DWORD USE32 PUBLIC 'DATA'
_DATA	ENDS
;	COMDAT ??_C@_0CC@GOKD@DDERR_PRIMARYSURFACEALREADYEXIST@
_DATA	SEGMENT DWORD USE32 PUBLIC 'DATA'
_DATA	ENDS
;	COMDAT ??_C@_0BC@KIDO@DDERR_NOEMULATION?$AA@
_DATA	SEGMENT DWORD USE32 PUBLIC 'DATA'
_DATA	ENDS
;	COMDAT ??_C@_0BF@MBHN@DDERR_REGIONTOOSMALL?$AA@
_DATA	SEGMENT DWORD USE32 PUBLIC 'DATA'
_DATA	ENDS
;	COMDAT ??_C@_0BJ@MFMC@DDERR_CLIPPERISUSINGHWND?$AA@
_DATA	SEGMENT DWORD USE32 PUBLIC 'DATA'
_DATA	ENDS
;	COMDAT ??_C@_0BI@NMMO@DDERR_NOCLIPPERATTACHED?$AA@
_DATA	SEGMENT DWORD USE32 PUBLIC 'DATA'
_DATA	ENDS
;	COMDAT ??_C@_0N@INIK@DDERR_NOHWND?$AA@
_DATA	SEGMENT DWORD USE32 PUBLIC 'DATA'
_DATA	ENDS
;	COMDAT ??_C@_0BF@DLEF@DDERR_HWNDSUBCLASSED?$AA@
_DATA	SEGMENT DWORD USE32 PUBLIC 'DATA'
_DATA	ENDS
;	COMDAT ??_C@_0BF@MOCP@DDERR_HWNDALREADYSET?$AA@
_DATA	SEGMENT DWORD USE32 PUBLIC 'DATA'
_DATA	ENDS
;	COMDAT ??_C@_0BI@DACF@DDERR_NOPALETTEATTACHED?$AA@
_DATA	SEGMENT DWORD USE32 PUBLIC 'DATA'
_DATA	ENDS
;	COMDAT ??_C@_0BM@OPAM@DDERR_INVALIDDIRECTDRAWGUID?$AA@
_DATA	SEGMENT DWORD USE32 PUBLIC 'DATA'
_DATA	ENDS
;	COMDAT ??_C@_0BI@BECN@DDERR_UNSUPPORTEDFORMAT?$AA@
_DATA	SEGMENT DWORD USE32 PUBLIC 'DATA'
_DATA	ENDS
;	COMDAT ??_C@_0BG@LKKP@DDERR_UNSUPPORTEDMASK?$AA@
_DATA	SEGMENT DWORD USE32 PUBLIC 'DATA'
_DATA	ENDS
;	COMDAT ??_C@_0BO@MNN@DDERR_VERTICALBLANKINPROGRESS?$AA@
_DATA	SEGMENT DWORD USE32 PUBLIC 'DATA'
_DATA	ENDS
;	COMDAT ??_C@_0BG@BBPF@DDERR_WASSTILLDRAWING?$AA@
_DATA	SEGMENT DWORD USE32 PUBLIC 'DATA'
_DATA	ENDS
;	COMDAT ??_C@_0N@BDF@DDERR_XALIGN?$AA@
_DATA	SEGMENT DWORD USE32 PUBLIC 'DATA'
_DATA	ENDS
;	COMDAT ??_C@_0BC@GCH@DDERR_TOOBIGWIDTH?$AA@
_DATA	SEGMENT DWORD USE32 PUBLIC 'DATA'
_DATA	ENDS
;	COMDAT ??_C@_0BG@KGKE@DDERR_CANTLOCKSURFACE?$AA@
_DATA	SEGMENT DWORD USE32 PUBLIC 'DATA'
_DATA	ENDS
;	COMDAT ??_C@_0BI@KAAK@DDERR_SURFACEISOBSCURED?$AA@
_DATA	SEGMENT DWORD USE32 PUBLIC 'DATA'
_DATA	ENDS
;	COMDAT ??_C@_0BC@FDEM@DDERR_SURFACELOST?$AA@
_DATA	SEGMENT DWORD USE32 PUBLIC 'DATA'
_DATA	ENDS
;	COMDAT ??_C@_0BJ@OMKO@DDERR_SURFACENOTATTACHED?$AA@
_DATA	SEGMENT DWORD USE32 PUBLIC 'DATA'
_DATA	ENDS
;	COMDAT ??_C@_0BD@BPON@DDERR_TOOBIGHEIGHT?$AA@
_DATA	SEGMENT DWORD USE32 PUBLIC 'DATA'
_DATA	ENDS
;	COMDAT ??_C@_0BB@GBAJ@DDERR_TOOBIGSIZE?$AA@
_DATA	SEGMENT DWORD USE32 PUBLIC 'DATA'
_DATA	ENDS
;	COMDAT ??_C@_0BC@OHLB@DDERR_SURFACEBUSY?$AA@
_DATA	SEGMENT DWORD USE32 PUBLIC 'DATA'
_DATA	ENDS
;	COMDAT ??_C@_0CD@IKFB@DDERR_OVERLAYCOLORKEYONLYONEACTI@
_DATA	SEGMENT DWORD USE32 PUBLIC 'DATA'
_DATA	ENDS
;	COMDAT ??_C@_0BC@LHPH@DDERR_PALETTEBUSY?$AA@
_DATA	SEGMENT DWORD USE32 PUBLIC 'DATA'
_DATA	ENDS
;	COMDAT ??_C@_0BF@EBGI@DDERR_COLORKEYNOTSET?$AA@
_DATA	SEGMENT DWORD USE32 PUBLIC 'DATA'
_DATA	ENDS
;	COMDAT ??_C@_0BN@HBEC@DDERR_SURFACEALREADYATTACHED?$AA@
_DATA	SEGMENT DWORD USE32 PUBLIC 'DATA'
_DATA	ENDS
;	COMDAT ??_C@_0BO@PJKH@DDERR_SURFACEALREADYDEPENDENT?$AA@
_DATA	SEGMENT DWORD USE32 PUBLIC 'DATA'
_DATA	ENDS
;	COMDAT ??_C@_0BG@FCIN@DDERR_OVERLAYCANTCLIP?$AA@
_DATA	SEGMENT DWORD USE32 PUBLIC 'DATA'
_DATA	ENDS
;	COMDAT ??_C@_0BA@KCIJ@DDERR_NOVSYNCHW?$AA@
_DATA	SEGMENT DWORD USE32 PUBLIC 'DATA'
_DATA	ENDS
;	COMDAT ??_C@_0BC@IPJO@DDERR_NOZBUFFERHW?$AA@
_DATA	SEGMENT DWORD USE32 PUBLIC 'DATA'
_DATA	ENDS
;	COMDAT ??_C@_0BD@HDLA@DDERR_NOZOVERLAYHW?$AA@
_DATA	SEGMENT DWORD USE32 PUBLIC 'DATA'
_DATA	ENDS
;	COMDAT ??_C@_0BA@OHCK@DDERR_OUTOFCAPS?$AA@
_DATA	SEGMENT DWORD USE32 PUBLIC 'DATA'
_DATA	ENDS
;	COMDAT ??_C@_0BH@GLCM@DDERR_OUTOFVIDEOMEMORY?$AA@
_DATA	SEGMENT DWORD USE32 PUBLIC 'DATA'
_DATA	ENDS
;	COMDAT ??_C@_0BC@KLCE@DDERR_NOTEXTUREHW?$AA@
_DATA	SEGMENT DWORD USE32 PUBLIC 'DATA'
_DATA	ENDS
;	COMDAT ??_C@_0BD@BAKO@DDERR_NOROTATIONHW?$AA@
_DATA	SEGMENT DWORD USE32 PUBLIC 'DATA'
_DATA	ENDS
;	COMDAT ??_C@_0BC@JCJA@DDERR_NOSTRETCHHW?$AA@
_DATA	SEGMENT DWORD USE32 PUBLIC 'DATA'
_DATA	ENDS
;	COMDAT ??_C@_0BD@FJEG@DDERR_NOT4BITCOLOR?$AA@
_DATA	SEGMENT DWORD USE32 PUBLIC 'DATA'
_DATA	ENDS
;	COMDAT ??_C@_0BI@NPCF@DDERR_NOT4BITCOLORINDEX?$AA@
_DATA	SEGMENT DWORD USE32 PUBLIC 'DATA'
_DATA	ENDS
;	COMDAT ??_C@_0BD@ECCH@DDERR_NOT8BITCOLOR?$AA@
_DATA	SEGMENT DWORD USE32 PUBLIC 'DATA'
_DATA	ENDS
;	COMDAT ??_C@_0BD@HLBF@DDERR_NORASTEROPHW?$AA@
_DATA	SEGMENT DWORD USE32 PUBLIC 'DATA'
_DATA	ENDS
;	COMDAT ??_C@_0BG@GHJG@DDERR_NOEXCLUSIVEMODE?$AA@
_DATA	SEGMENT DWORD USE32 PUBLIC 'DATA'
_DATA	ENDS
;	COMDAT ??_C@_0P@MLDL@DDERR_NOFLIPHW?$AA@
_DATA	SEGMENT DWORD USE32 PUBLIC 'DATA'
_DATA	ENDS
;	COMDAT ??_C@_0M@DMHE@DDERR_NOGDI?$AA@
_DATA	SEGMENT DWORD USE32 PUBLIC 'DATA'
_DATA	ENDS
;	COMDAT ??_C@_0BB@BGEM@DDERR_NOMIRRORHW?$AA@
_DATA	SEGMENT DWORD USE32 PUBLIC 'DATA'
_DATA	ENDS
;	COMDAT ??_C@_0P@BPIP@DDERR_NOTFOUND?$AA@
_DATA	SEGMENT DWORD USE32 PUBLIC 'DATA'
_DATA	ENDS
;	COMDAT ??_C@_0BC@JFFJ@DDERR_NOOVERLAYHW?$AA@
_DATA	SEGMENT DWORD USE32 PUBLIC 'DATA'
_DATA	ENDS
;	COMDAT ??_C@_0BD@PBLA@DDERR_NOCOLORKEYHW?$AA@
_DATA	SEGMENT DWORD USE32 PUBLIC 'DATA'
_DATA	ENDS
;	COMDAT ??_C@_0BA@EHJG@DDERR_NOALPHAHW?$AA@
_DATA	SEGMENT DWORD USE32 PUBLIC 'DATA'
_DATA	ENDS
;	COMDAT ??_C@_0BB@EJBM@DDERR_NOCLIPLIST?$AA@
_DATA	SEGMENT DWORD USE32 PUBLIC 'DATA'
_DATA	ENDS
;	COMDAT ??_C@_0BE@IEFK@DDERR_NOCOLORCONVHW?$AA@
_DATA	SEGMENT DWORD USE32 PUBLIC 'DATA'
_DATA	ENDS
;	COMDAT ??_C@_0BM@INCD@DDERR_NOCOOPERATIVELEVELSET?$AA@
_DATA	SEGMENT DWORD USE32 PUBLIC 'DATA'
_DATA	ENDS
;	COMDAT ??_C@_0BB@NHFC@DDERR_NOCOLORKEY?$AA@
_DATA	SEGMENT DWORD USE32 PUBLIC 'DATA'
_DATA	ENDS
;	COMDAT ??_C@_0L@NEBN@DDERR_NO3D?$AA@
_DATA	SEGMENT DWORD USE32 PUBLIC 'DATA'
_DATA	ENDS
;	COMDAT ??_C@_0BC@HCAL@DDERR_INVALIDMODE?$AA@
_DATA	SEGMENT DWORD USE32 PUBLIC 'DATA'
_DATA	ENDS
;	COMDAT ??_C@_0BE@LOLC@DDERR_INVALIDOBJECT?$AA@
_DATA	SEGMENT DWORD USE32 PUBLIC 'DATA'
_DATA	ENDS
;	COMDAT ??_C@_0BJ@EJCO@DDERR_INVALIDPIXELFORMAT?$AA@
_DATA	SEGMENT DWORD USE32 PUBLIC 'DATA'
_DATA	ENDS
;	COMDAT ??_C@_0BC@KBCO@DDERR_INVALIDRECT?$AA@
_DATA	SEGMENT DWORD USE32 PUBLIC 'DATA'
_DATA	ENDS
;	COMDAT ??_C@_0BF@IFLE@DDERR_LOCKEDSURFACES?$AA@
_DATA	SEGMENT DWORD USE32 PUBLIC 'DATA'
_DATA	ENDS
;	COMDAT ??_C@_0BG@MOJK@DDERR_INVALIDCLIPLIST?$AA@
_DATA	SEGMENT DWORD USE32 PUBLIC 'DATA'
_DATA	ENDS
;	COMDAT ??_C@_0BI@PBAE@DDERR_CURRENTLYNOTAVAIL?$AA@
_DATA	SEGMENT DWORD USE32 PUBLIC 'DATA'
_DATA	ENDS
;	COMDAT ??_C@_0BA@EAOD@DDERR_EXCEPTION?$AA@
_DATA	SEGMENT DWORD USE32 PUBLIC 'DATA'
_DATA	ENDS
;	COMDAT ??_C@_0BC@EIBC@DDERR_HEIGHTALIGN?$AA@
_DATA	SEGMENT DWORD USE32 PUBLIC 'DATA'
_DATA	ENDS
;	COMDAT ??_C@_0BK@BLOA@DDERR_INCOMPATIBLEPRIMARY?$AA@
_DATA	SEGMENT DWORD USE32 PUBLIC 'DATA'
_DATA	ENDS
;	COMDAT ??_C@_0BC@JNLE@DDERR_INVALIDCAPS?$AA@
_DATA	SEGMENT DWORD USE32 PUBLIC 'DATA'
_DATA	ENDS
;	COMDAT ??_C@_0BK@JIOM@DDERR_CANNOTDETACHSURFACE?$AA@
_DATA	SEGMENT DWORD USE32 PUBLIC 'DATA'
_DATA	ENDS
;	COMDAT ??_C@_0BC@JHBM@DDERR_UNSUPPORTED?$AA@
_DATA	SEGMENT DWORD USE32 PUBLIC 'DATA'
_DATA	ENDS
;	COMDAT ??_C@_0O@JJAG@DDERR_GENERIC?$AA@
_DATA	SEGMENT DWORD USE32 PUBLIC 'DATA'
_DATA	ENDS
;	COMDAT ??_C@_0BC@PPLJ@DDERR_OUTOFMEMORY?$AA@
_DATA	SEGMENT DWORD USE32 PUBLIC 'DATA'
_DATA	ENDS
;	COMDAT ??_C@_0BE@OBBL@DDERR_INVALIDPARAMS?$AA@
_DATA	SEGMENT DWORD USE32 PUBLIC 'DATA'
_DATA	ENDS
;	COMDAT ??_C@_0BJ@CBME@DDERR_ALREADYINITIALIZED?$AA@
_DATA	SEGMENT DWORD USE32 PUBLIC 'DATA'
_DATA	ENDS
;	COMDAT ??_C@_0BK@DPHE@DDERR_CANNOTATTACHSURFACE?$AA@
_DATA	SEGMENT DWORD USE32 PUBLIC 'DATA'
_DATA	ENDS
;	COMDAT ??_C@_0BD@BFML@DDERR?5unknown?50x?$CFx?$AA@
_DATA	SEGMENT DWORD USE32 PUBLIC 'DATA'
_DATA	ENDS
;	COMDAT ??_C@_0BG@MDBD@DSERR_PRIOLEVELNEEDED?$AA@
_DATA	SEGMENT DWORD USE32 PUBLIC 'DATA'
_DATA	ENDS
;	COMDAT ??_C@_0BA@JHO@DSERR_BADFORMAT?$AA@
_DATA	SEGMENT DWORD USE32 PUBLIC 'DATA'
_DATA	ENDS
;	COMDAT ??_C@_0P@JGOM@DSERR_NODRIVER?$AA@
_DATA	SEGMENT DWORD USE32 PUBLIC 'DATA'
_DATA	ENDS
;	COMDAT ??_C@_0BJ@LHGI@DSERR_ALREADYINITIALIZED?$AA@
_DATA	SEGMENT DWORD USE32 PUBLIC 'DATA'
_DATA	ENDS
;	COMDAT ??_C@_0BB@MLJO@DSERR_BUFFERLOST?$AA@
_DATA	SEGMENT DWORD USE32 PUBLIC 'DATA'
_DATA	ENDS
;	COMDAT ??_C@_05BNOC@DS_OK?$AA@
_DATA	SEGMENT DWORD USE32 PUBLIC 'DATA'
_DATA	ENDS
;	COMDAT ??_C@_0BC@EJKJ@DSERR_INVALIDCALL?$AA@
_DATA	SEGMENT DWORD USE32 PUBLIC 'DATA'
_DATA	ENDS
;	COMDAT ??_C@_0O@OKLN@E_NOINTERFACE?$AA@
_DATA	SEGMENT DWORD USE32 PUBLIC 'DATA'
_DATA	ENDS
;	COMDAT ??_C@_0BE@FNCP@DSERR_NOAGGREGATION?$AA@
_DATA	SEGMENT DWORD USE32 PUBLIC 'DATA'
_DATA	ENDS
;	COMDAT ??_C@_0BC@GNO@DSERR_OUTOFMEMORY?$AA@
_DATA	SEGMENT DWORD USE32 PUBLIC 'DATA'
_DATA	ENDS
;	COMDAT ??_C@_0BD@JMDM@DSERR_INVALIDPARAM?$AA@
_DATA	SEGMENT DWORD USE32 PUBLIC 'DATA'
_DATA	ENDS
;	COMDAT ??_C@_0BA@IBDB@DSERR_ALLOCATED?$AA@
_DATA	SEGMENT DWORD USE32 PUBLIC 'DATA'
_DATA	ENDS
;	COMDAT ??_C@_0BF@JADI@DSERR_CONTROLUNAVAIL?$AA@
_DATA	SEGMENT DWORD USE32 PUBLIC 'DATA'
_DATA	ENDS
;	COMDAT ??_C@_0BD@JLDC@DSERR?5unknown?50x?$CFx?$AA@
_DATA	SEGMENT DWORD USE32 PUBLIC 'DATA'
_DATA	ENDS
;	COMDAT ??_C@_05EFDD@ERROR?$AA@
_DATA	SEGMENT DWORD USE32 PUBLIC 'DATA'
_DATA	ENDS
;	COMDAT ??_C@_06EMML@Diablo?$AA@
_DATA	SEGMENT DWORD USE32 PUBLIC 'DATA'
_DATA	ENDS
;	COMDAT ??_C@_0BN@IGJA@Direct?5draw?5error?5?$CI?$CFs?3?$CFd?$CJ?6?$CFs?$AA@
_DATA	SEGMENT DWORD USE32 PUBLIC 'DATA'
_DATA	ENDS
;	COMDAT ??_C@_0BO@NPAA@Direct?5sound?5error?5?$CI?$CFs?3?$CFd?$CJ?6?$CFs?$AA@
_DATA	SEGMENT DWORD USE32 PUBLIC 'DATA'
_DATA	ENDS
;	COMDAT ??_C@_0BC@JJHE@center_window?3?5?$CFs?$AA@
_DATA	SEGMENT DWORD USE32 PUBLIC 'DATA'
_DATA	ENDS
;	COMDAT ??_C@_0BC@LGOG@?$CFs?6at?3?5?$CFs?5line?5?$CFd?$AA@
_DATA	SEGMENT DWORD USE32 PUBLIC 'DATA'
_DATA	ENDS
;	COMDAT ??_C@_0L@GLJM@ErrDlg?3?5?$CFd?$AA@
_DATA	SEGMENT DWORD USE32 PUBLIC 'DATA'
_DATA	ENDS
;	COMDAT ??_C@_00A@?$AA@
_DATA	SEGMENT DWORD USE32 PUBLIC 'DATA'
_DATA	ENDS
;	COMDAT ??_C@_0L@KNAI@FileErrDlg?$AA@
_DATA	SEGMENT DWORD USE32 PUBLIC 'DATA'
_DATA	ENDS
;	COMDAT ??_C@_0M@KNBF@DiskFreeDlg?$AA@
_DATA	SEGMENT DWORD USE32 PUBLIC 'DATA'
_DATA	ENDS
;	COMDAT ??_C@_0M@FABK@InsertCDDlg?$AA@
_DATA	SEGMENT DWORD USE32 PUBLIC 'DATA'
_DATA	ENDS
;	COMDAT ??_C@_0M@PEFL@DirErrorDlg?$AA@
_DATA	SEGMENT DWORD USE32 PUBLIC 'DATA'
_DATA	ENDS
CRT$XCU	SEGMENT DWORD USE32 PUBLIC ''
CRT$XCU	ENDS
;	COMDAT @GetErrorStr@4
_TEXT	SEGMENT PARA USE32 PUBLIC 'CODE'
_TEXT	ENDS
;	COMDAT @TraceErrorDD@12
_TEXT	SEGMENT PARA USE32 PUBLIC 'CODE'
_TEXT	ENDS
;	COMDAT @TraceErrorDS@12
_TEXT	SEGMENT PARA USE32 PUBLIC 'CODE'
_TEXT	ENDS
;	COMDAT _TraceLastError
_TEXT	SEGMENT PARA USE32 PUBLIC 'CODE'
_TEXT	ENDS
;	COMDAT _TermMsg
_TEXT	SEGMENT PARA USE32 PUBLIC 'CODE'
_TEXT	ENDS
;	COMDAT @MsgBox@8
_TEXT	SEGMENT PARA USE32 PUBLIC 'CODE'
_TEXT	ENDS
;	COMDAT _FreeDlg
_TEXT	SEGMENT PARA USE32 PUBLIC 'CODE'
_TEXT	ENDS
;	COMDAT _DrawDlg
_TEXT	SEGMENT PARA USE32 PUBLIC 'CODE'
_TEXT	ENDS
;	COMDAT @DDErrMsg@12
_TEXT	SEGMENT PARA USE32 PUBLIC 'CODE'
_TEXT	ENDS
;	COMDAT @DSErrMsg@12
_TEXT	SEGMENT PARA USE32 PUBLIC 'CODE'
_TEXT	ENDS
;	COMDAT @center_window@4
_TEXT	SEGMENT PARA USE32 PUBLIC 'CODE'
_TEXT	ENDS
;	COMDAT @ErrDlg@16
_TEXT	SEGMENT PARA USE32 PUBLIC 'CODE'
_TEXT	ENDS
;	COMDAT _FuncDlg@16
_TEXT	SEGMENT PARA USE32 PUBLIC 'CODE'
_TEXT	ENDS
;	COMDAT @TextDlg@8
_TEXT	SEGMENT PARA USE32 PUBLIC 'CODE'
_TEXT	ENDS
;	COMDAT @ErrOkDlg@16
_TEXT	SEGMENT PARA USE32 PUBLIC 'CODE'
_TEXT	ENDS
;	COMDAT @FileErrDlg@4
_TEXT	SEGMENT PARA USE32 PUBLIC 'CODE'
_TEXT	ENDS
;	COMDAT @DiskFreeDlg@4
_TEXT	SEGMENT PARA USE32 PUBLIC 'CODE'
_TEXT	ENDS
;	COMDAT _InsertCDDlg
_TEXT	SEGMENT PARA USE32 PUBLIC 'CODE'
_TEXT	ENDS
;	COMDAT @DirErrorDlg@4
_TEXT	SEGMENT PARA USE32 PUBLIC 'CODE'
_TEXT	ENDS
FLAT	GROUP _DATA, CONST, _BSS, CRT$XCU
	ASSUME	CS: FLAT, DS: FLAT, SS: FLAT
endif

INCLUDELIB LIBCMT
INCLUDELIB OLDNAMES

_DATA	SEGMENT
COMM	_sz_error_buf:BYTE:0100H
COMM	_terminating:DWORD
COMM	_cleanup_thread_id:DWORD
_DATA	ENDS
PUBLIC	??_C@_0BF@GHLP@unknown?5error?50x?$CF08x?$AA@	; `string'
PUBLIC	@GetErrorStr@4
PUBLIC	@TraceErrorDD@12
PUBLIC	@TraceErrorDS@12
EXTRN	__imp__wsprintfA:NEAR
EXTRN	_SErrGetErrorStr@12:NEAR
EXTRN	__imp__FormatMessageA@28:NEAR
EXTRN	_strlen:NEAR
;	COMDAT ??_C@_0BF@GHLP@unknown?5error?50x?$CF08x?$AA@
; File Source/appfat.cpp
_DATA	SEGMENT
??_C@_0BF@GHLP@unknown?5error?50x?$CF08x?$AA@ DB 'unknown error 0x%08x', 00H ; `string'
; Function compile flags: /Ogsy
_DATA	ENDS
;	COMDAT @GetErrorStr@4
_TEXT	SEGMENT
@GetErrorStr@4 PROC NEAR				; COMDAT
; _error_code$ = ecx
; Line 18
	push	ebx
	push	esi
	push	edi
	mov	edi, ecx
; Line 23
	mov	eax, edi
; Line 25
	mov	esi, OFFSET FLAT:_sz_error_buf
	shr	eax, 16					; 00000010H
	and	eax, 8191				; 00001fffH
	cmp	eax, 2168				; 00000878H
	jne	SHORT $L84987
	push	256					; 00000100H
	mov	edx, esi
	call	@TraceErrorDS@12
; Line 26
	jmp	SHORT $L84993
$L84987:
	cmp	eax, 2166				; 00000876H
	jne	SHORT $L84989
; Line 27
	push	256					; 00000100H
	mov	edx, esi
	mov	ecx, edi
	call	@TraceErrorDD@12
; Line 28
	jmp	SHORT $L84993
$L84989:
; Line 29
	mov	ebx, 256				; 00000100H
	push	ebx
	push	esi
	push	edi
	call	_SErrGetErrorStr@12
	test	eax, eax
	jne	SHORT $L84993
	push	eax
	push	ebx
	push	esi
	push	1024					; 00000400H
	push	edi
	push	eax
	push	4096					; 00001000H
	call	DWORD PTR __imp__FormatMessageA@28
	test	eax, eax
	jne	SHORT $L84993
; Line 30
	push	edi
	push	OFFSET FLAT:??_C@_0BF@GHLP@unknown?5error?50x?$CF08x?$AA@ ; `string'
	push	esi
	call	DWORD PTR __imp__wsprintfA
	add	esp, 12					; 0000000cH
$L84993:
; Line 33
	push	esi
	call	_strlen
	pop	ecx
; Line 35
	lea	ecx, DWORD PTR _sz_error_buf[eax-1]
	jmp	SHORT $L86119
$L84996:
; Line 37
	dec	eax
; Line 38
	dec	ecx
; Line 40
	mov	dl, BYTE PTR [ecx]
	cmp	dl, 13					; 0000000dH
	je	SHORT $L84998
	cmp	dl, 10					; 0000000aH
	jne	SHORT $L86117
$L84998:
; Line 43
	and	BYTE PTR [ecx], 0
$L86119:
; Line 36
	test	eax, eax
	jg	SHORT $L84996
$L86117:
; Line 46
	mov	eax, esi
	pop	edi
	pop	esi
	pop	ebx
; Line 47
	ret	0
@GetErrorStr@4 ENDP
_TEXT	ENDS
PUBLIC	??_C@_0BC@OHLB@DDERR_SURFACEBUSY?$AA@		; `string'
PUBLIC	??_C@_0CD@IKFB@DDERR_OVERLAYCOLORKEYONLYONEACTI@ ; `string'
PUBLIC	??_C@_0BC@LHPH@DDERR_PALETTEBUSY?$AA@		; `string'
PUBLIC	??_C@_0BF@EBGI@DDERR_COLORKEYNOTSET?$AA@	; `string'
PUBLIC	??_C@_0BN@HBEC@DDERR_SURFACEALREADYATTACHED?$AA@ ; `string'
PUBLIC	??_C@_0BO@PJKH@DDERR_SURFACEALREADYDEPENDENT?$AA@ ; `string'
PUBLIC	??_C@_0BG@FCIN@DDERR_OVERLAYCANTCLIP?$AA@	; `string'
PUBLIC	??_C@_0BA@KCIJ@DDERR_NOVSYNCHW?$AA@		; `string'
PUBLIC	??_C@_0BC@IPJO@DDERR_NOZBUFFERHW?$AA@		; `string'
PUBLIC	??_C@_0BD@HDLA@DDERR_NOZOVERLAYHW?$AA@		; `string'
PUBLIC	??_C@_0BA@OHCK@DDERR_OUTOFCAPS?$AA@		; `string'
PUBLIC	??_C@_0BH@GLCM@DDERR_OUTOFVIDEOMEMORY?$AA@	; `string'
PUBLIC	??_C@_0BC@KLCE@DDERR_NOTEXTUREHW?$AA@		; `string'
PUBLIC	??_C@_0BD@BAKO@DDERR_NOROTATIONHW?$AA@		; `string'
PUBLIC	??_C@_0BC@JCJA@DDERR_NOSTRETCHHW?$AA@		; `string'
PUBLIC	??_C@_0BD@FJEG@DDERR_NOT4BITCOLOR?$AA@		; `string'
PUBLIC	??_C@_0BI@NPCF@DDERR_NOT4BITCOLORINDEX?$AA@	; `string'
PUBLIC	??_C@_0BD@ECCH@DDERR_NOT8BITCOLOR?$AA@		; `string'
PUBLIC	??_C@_0BD@HLBF@DDERR_NORASTEROPHW?$AA@		; `string'
PUBLIC	??_C@_0BG@GHJG@DDERR_NOEXCLUSIVEMODE?$AA@	; `string'
PUBLIC	??_C@_0P@MLDL@DDERR_NOFLIPHW?$AA@		; `string'
PUBLIC	??_C@_0M@DMHE@DDERR_NOGDI?$AA@			; `string'
PUBLIC	??_C@_0BB@BGEM@DDERR_NOMIRRORHW?$AA@		; `string'
PUBLIC	??_C@_0P@BPIP@DDERR_NOTFOUND?$AA@		; `string'
PUBLIC	??_C@_0BC@JFFJ@DDERR_NOOVERLAYHW?$AA@		; `string'
PUBLIC	??_C@_0BD@PBLA@DDERR_NOCOLORKEYHW?$AA@		; `string'
PUBLIC	??_C@_0BA@EHJG@DDERR_NOALPHAHW?$AA@		; `string'
PUBLIC	??_C@_0BB@EJBM@DDERR_NOCLIPLIST?$AA@		; `string'
PUBLIC	??_C@_0BE@IEFK@DDERR_NOCOLORCONVHW?$AA@		; `string'
PUBLIC	??_C@_0BM@INCD@DDERR_NOCOOPERATIVELEVELSET?$AA@	; `string'
PUBLIC	??_C@_0BB@NHFC@DDERR_NOCOLORKEY?$AA@		; `string'
PUBLIC	??_C@_0L@NEBN@DDERR_NO3D?$AA@			; `string'
PUBLIC	??_C@_0BC@HCAL@DDERR_INVALIDMODE?$AA@		; `string'
PUBLIC	??_C@_0BE@LOLC@DDERR_INVALIDOBJECT?$AA@		; `string'
PUBLIC	??_C@_0BJ@EJCO@DDERR_INVALIDPIXELFORMAT?$AA@	; `string'
PUBLIC	??_C@_0BC@KBCO@DDERR_INVALIDRECT?$AA@		; `string'
PUBLIC	??_C@_0BF@IFLE@DDERR_LOCKEDSURFACES?$AA@	; `string'
PUBLIC	??_C@_0BG@MOJK@DDERR_INVALIDCLIPLIST?$AA@	; `string'
PUBLIC	??_C@_0BI@PBAE@DDERR_CURRENTLYNOTAVAIL?$AA@	; `string'
PUBLIC	??_C@_0BA@EAOD@DDERR_EXCEPTION?$AA@		; `string'
PUBLIC	??_C@_0BC@EIBC@DDERR_HEIGHTALIGN?$AA@		; `string'
PUBLIC	??_C@_0BK@BLOA@DDERR_INCOMPATIBLEPRIMARY?$AA@	; `string'
PUBLIC	??_C@_0BC@JNLE@DDERR_INVALIDCAPS?$AA@		; `string'
PUBLIC	??_C@_0BK@JIOM@DDERR_CANNOTDETACHSURFACE?$AA@	; `string'
PUBLIC	??_C@_0BC@JHBM@DDERR_UNSUPPORTED?$AA@		; `string'
PUBLIC	??_C@_0O@JJAG@DDERR_GENERIC?$AA@		; `string'
PUBLIC	??_C@_0BC@PPLJ@DDERR_OUTOFMEMORY?$AA@		; `string'
PUBLIC	??_C@_0BE@OBBL@DDERR_INVALIDPARAMS?$AA@		; `string'
PUBLIC	??_C@_0BJ@CBME@DDERR_ALREADYINITIALIZED?$AA@	; `string'
PUBLIC	??_C@_0BK@DPHE@DDERR_CANNOTATTACHSURFACE?$AA@	; `string'
PUBLIC	??_C@_0BD@BFML@DDERR?5unknown?50x?$CFx?$AA@	; `string'
PUBLIC	??_C@_0BF@LLCF@DDERR_CANTPAGEUNLOCK?$AA@	; `string'
PUBLIC	??_C@_0BE@PHHK@DDERR_NOTPAGELOCKED?$AA@		; `string'
PUBLIC	??_C@_05LCHN@DD_OK?$AA@				; `string'
PUBLIC	??_C@_0BD@OCPI@DDERR_CANTPAGELOCK?$AA@		; `string'
PUBLIC	??_C@_0BG@MIGH@DDERR_BLTFASTCANTCLIP?$AA@	; `string'
PUBLIC	??_C@_0O@DCPD@DDERR_NOBLTHW?$AA@		; `string'
PUBLIC	??_C@_0BB@LKO@DDERR_NODDROPSHW?$AA@		; `string'
PUBLIC	??_C@_0BI@MEJA@DDERR_OVERLAYNOTVISIBLE?$AA@	; `string'
PUBLIC	??_C@_0BE@DDHB@DDERR_NOOVERLAYDEST?$AA@		; `string'
PUBLIC	??_C@_0BG@MKKH@DDERR_INVALIDPOSITION?$AA@	; `string'
PUBLIC	??_C@_0BJ@OGJB@DDERR_NOTAOVERLAYSURFACE?$AA@	; `string'
PUBLIC	??_C@_0BO@IOJH@DDERR_EXCLUSIVEMODEALREADYSET?$AA@ ; `string'
PUBLIC	??_C@_0BD@CJKH@DDERR_NOTFLIPPABLE?$AA@		; `string'
PUBLIC	??_C@_0BE@PLOG@DDERR_CANTDUPLICATE?$AA@		; `string'
PUBLIC	??_C@_0BA@IHOJ@DDERR_NOTLOCKED?$AA@		; `string'
PUBLIC	??_C@_0BD@PHJH@DDERR_CANTCREATEDC?$AA@		; `string'
PUBLIC	??_C@_0L@PFPD@DDERR_NODC?$AA@			; `string'
PUBLIC	??_C@_0BA@BNFD@DDERR_WRONGMODE?$AA@		; `string'
PUBLIC	??_C@_0BI@CFBP@DDERR_IMPLICITLYCREATED?$AA@	; `string'
PUBLIC	??_C@_0BE@GJCG@DDERR_NOTPALETTIZED?$AA@		; `string'
PUBLIC	??_C@_0BB@PNI@DDERR_NOMIPMAPHW?$AA@		; `string'
PUBLIC	??_C@_0BJ@CODF@DDERR_INVALIDSURFACETYPE?$AA@	; `string'
PUBLIC	??_C@_0BH@MJAO@DDERR_DCALREADYCREATED?$AA@	; `string'
PUBLIC	??_C@_0BC@GBNJ@DDERR_NOPALETTEHW?$AA@		; `string'
PUBLIC	??_C@_0BP@HCLN@DDERR_DIRECTDRAWALREADYCREATED?$AA@ ; `string'
PUBLIC	??_C@_0BF@LDPJ@DDERR_NODIRECTDRAWHW?$AA@	; `string'
PUBLIC	??_C@_0CC@GOKD@DDERR_PRIMARYSURFACEALREADYEXIST@ ; `string'
PUBLIC	??_C@_0BC@KIDO@DDERR_NOEMULATION?$AA@		; `string'
PUBLIC	??_C@_0BF@MBHN@DDERR_REGIONTOOSMALL?$AA@	; `string'
PUBLIC	??_C@_0BJ@MFMC@DDERR_CLIPPERISUSINGHWND?$AA@	; `string'
PUBLIC	??_C@_0BI@NMMO@DDERR_NOCLIPPERATTACHED?$AA@	; `string'
PUBLIC	??_C@_0N@INIK@DDERR_NOHWND?$AA@			; `string'
PUBLIC	??_C@_0BF@DLEF@DDERR_HWNDSUBCLASSED?$AA@	; `string'
PUBLIC	??_C@_0BF@MOCP@DDERR_HWNDALREADYSET?$AA@	; `string'
PUBLIC	??_C@_0BI@DACF@DDERR_NOPALETTEATTACHED?$AA@	; `string'
PUBLIC	??_C@_0BM@OPAM@DDERR_INVALIDDIRECTDRAWGUID?$AA@	; `string'
PUBLIC	??_C@_0BI@BECN@DDERR_UNSUPPORTEDFORMAT?$AA@	; `string'
PUBLIC	??_C@_0BG@LKKP@DDERR_UNSUPPORTEDMASK?$AA@	; `string'
PUBLIC	??_C@_0BO@MNN@DDERR_VERTICALBLANKINPROGRESS?$AA@ ; `string'
PUBLIC	??_C@_0BG@BBPF@DDERR_WASSTILLDRAWING?$AA@	; `string'
PUBLIC	??_C@_0N@BDF@DDERR_XALIGN?$AA@			; `string'
PUBLIC	??_C@_0BC@GCH@DDERR_TOOBIGWIDTH?$AA@		; `string'
PUBLIC	??_C@_0BG@KGKE@DDERR_CANTLOCKSURFACE?$AA@	; `string'
PUBLIC	??_C@_0BI@KAAK@DDERR_SURFACEISOBSCURED?$AA@	; `string'
PUBLIC	??_C@_0BC@FDEM@DDERR_SURFACELOST?$AA@		; `string'
PUBLIC	??_C@_0BJ@OMKO@DDERR_SURFACENOTATTACHED?$AA@	; `string'
PUBLIC	??_C@_0BD@BPON@DDERR_TOOBIGHEIGHT?$AA@		; `string'
PUBLIC	??_C@_0BB@GBAJ@DDERR_TOOBIGSIZE?$AA@		; `string'
EXTRN	_sprintf:NEAR
EXTRN	_strcpy:NEAR
EXTRN	_strncpy:NEAR
;	COMDAT ??_C@_0BJ@CBME@DDERR_ALREADYINITIALIZED?$AA@
_DATA	SEGMENT
??_C@_0BJ@CBME@DDERR_ALREADYINITIALIZED?$AA@ DB 'DDERR_ALREADYINITIALIZED'
	DB	00H						; `string'
_DATA	ENDS
;	COMDAT ??_C@_0BE@OBBL@DDERR_INVALIDPARAMS?$AA@
_DATA	SEGMENT
??_C@_0BE@OBBL@DDERR_INVALIDPARAMS?$AA@ DB 'DDERR_INVALIDPARAMS', 00H ; `string'
_DATA	ENDS
;	COMDAT ??_C@_0BC@PPLJ@DDERR_OUTOFMEMORY?$AA@
_DATA	SEGMENT
??_C@_0BC@PPLJ@DDERR_OUTOFMEMORY?$AA@ DB 'DDERR_OUTOFMEMORY', 00H ; `string'
_DATA	ENDS
;	COMDAT ??_C@_0O@JJAG@DDERR_GENERIC?$AA@
_DATA	SEGMENT
??_C@_0O@JJAG@DDERR_GENERIC?$AA@ DB 'DDERR_GENERIC', 00H ; `string'
_DATA	ENDS
;	COMDAT ??_C@_0BC@JHBM@DDERR_UNSUPPORTED?$AA@
_DATA	SEGMENT
??_C@_0BC@JHBM@DDERR_UNSUPPORTED?$AA@ DB 'DDERR_UNSUPPORTED', 00H ; `string'
_DATA	ENDS
;	COMDAT ??_C@_05LCHN@DD_OK?$AA@
_DATA	SEGMENT
??_C@_05LCHN@DD_OK?$AA@ DB 'DD_OK', 00H			; `string'
_DATA	ENDS
;	COMDAT ??_C@_0BK@DPHE@DDERR_CANNOTATTACHSURFACE?$AA@
_DATA	SEGMENT
??_C@_0BK@DPHE@DDERR_CANNOTATTACHSURFACE?$AA@ DB 'DDERR_CANNOTATTACHSURFA'
	DB	'CE', 00H					; `string'
_DATA	ENDS
;	COMDAT ??_C@_0BK@BLOA@DDERR_INCOMPATIBLEPRIMARY?$AA@
_DATA	SEGMENT
??_C@_0BK@BLOA@DDERR_INCOMPATIBLEPRIMARY?$AA@ DB 'DDERR_INCOMPATIBLEPRIMA'
	DB	'RY', 00H					; `string'
_DATA	ENDS
;	COMDAT ??_C@_0BC@EIBC@DDERR_HEIGHTALIGN?$AA@
_DATA	SEGMENT
??_C@_0BC@EIBC@DDERR_HEIGHTALIGN?$AA@ DB 'DDERR_HEIGHTALIGN', 00H ; `string'
_DATA	ENDS
;	COMDAT ??_C@_0BA@EAOD@DDERR_EXCEPTION?$AA@
_DATA	SEGMENT
??_C@_0BA@EAOD@DDERR_EXCEPTION?$AA@ DB 'DDERR_EXCEPTION', 00H ; `string'
_DATA	ENDS
;	COMDAT ??_C@_0BI@PBAE@DDERR_CURRENTLYNOTAVAIL?$AA@
_DATA	SEGMENT
??_C@_0BI@PBAE@DDERR_CURRENTLYNOTAVAIL?$AA@ DB 'DDERR_CURRENTLYNOTAVAIL', 00H ; `string'
_DATA	ENDS
;	COMDAT ??_C@_0BK@JIOM@DDERR_CANNOTDETACHSURFACE?$AA@
_DATA	SEGMENT
??_C@_0BK@JIOM@DDERR_CANNOTDETACHSURFACE?$AA@ DB 'DDERR_CANNOTDETACHSURFA'
	DB	'CE', 00H					; `string'
_DATA	ENDS
;	COMDAT ??_C@_0BC@JNLE@DDERR_INVALIDCAPS?$AA@
_DATA	SEGMENT
??_C@_0BC@JNLE@DDERR_INVALIDCAPS?$AA@ DB 'DDERR_INVALIDCAPS', 00H ; `string'
_DATA	ENDS
;	COMDAT ??_C@_0BC@KBCO@DDERR_INVALIDRECT?$AA@
_DATA	SEGMENT
??_C@_0BC@KBCO@DDERR_INVALIDRECT?$AA@ DB 'DDERR_INVALIDRECT', 00H ; `string'
_DATA	ENDS
;	COMDAT ??_C@_0BJ@EJCO@DDERR_INVALIDPIXELFORMAT?$AA@
_DATA	SEGMENT
??_C@_0BJ@EJCO@DDERR_INVALIDPIXELFORMAT?$AA@ DB 'DDERR_INVALIDPIXELFORMAT'
	DB	00H						; `string'
_DATA	ENDS
;	COMDAT ??_C@_0BE@LOLC@DDERR_INVALIDOBJECT?$AA@
_DATA	SEGMENT
??_C@_0BE@LOLC@DDERR_INVALIDOBJECT?$AA@ DB 'DDERR_INVALIDOBJECT', 00H ; `string'
_DATA	ENDS
;	COMDAT ??_C@_0BC@HCAL@DDERR_INVALIDMODE?$AA@
_DATA	SEGMENT
??_C@_0BC@HCAL@DDERR_INVALIDMODE?$AA@ DB 'DDERR_INVALIDMODE', 00H ; `string'
_DATA	ENDS
;	COMDAT ??_C@_0BG@MOJK@DDERR_INVALIDCLIPLIST?$AA@
_DATA	SEGMENT
??_C@_0BG@MOJK@DDERR_INVALIDCLIPLIST?$AA@ DB 'DDERR_INVALIDCLIPLIST', 00H ; `string'
_DATA	ENDS
;	COMDAT ??_C@_0BF@IFLE@DDERR_LOCKEDSURFACES?$AA@
_DATA	SEGMENT
??_C@_0BF@IFLE@DDERR_LOCKEDSURFACES?$AA@ DB 'DDERR_LOCKEDSURFACES', 00H ; `string'
_DATA	ENDS
;	COMDAT ??_C@_0BM@INCD@DDERR_NOCOOPERATIVELEVELSET?$AA@
_DATA	SEGMENT
??_C@_0BM@INCD@DDERR_NOCOOPERATIVELEVELSET?$AA@ DB 'DDERR_NOCOOPERATIVELE'
	DB	'VELSET', 00H				; `string'
_DATA	ENDS
;	COMDAT ??_C@_0BE@IEFK@DDERR_NOCOLORCONVHW?$AA@
_DATA	SEGMENT
??_C@_0BE@IEFK@DDERR_NOCOLORCONVHW?$AA@ DB 'DDERR_NOCOLORCONVHW', 00H ; `string'
_DATA	ENDS
;	COMDAT ??_C@_0BB@EJBM@DDERR_NOCLIPLIST?$AA@
_DATA	SEGMENT
??_C@_0BB@EJBM@DDERR_NOCLIPLIST?$AA@ DB 'DDERR_NOCLIPLIST', 00H ; `string'
_DATA	ENDS
;	COMDAT ??_C@_0BA@EHJG@DDERR_NOALPHAHW?$AA@
_DATA	SEGMENT
??_C@_0BA@EHJG@DDERR_NOALPHAHW?$AA@ DB 'DDERR_NOALPHAHW', 00H ; `string'
_DATA	ENDS
;	COMDAT ??_C@_0L@NEBN@DDERR_NO3D?$AA@
_DATA	SEGMENT
??_C@_0L@NEBN@DDERR_NO3D?$AA@ DB 'DDERR_NO3D', 00H	; `string'
_DATA	ENDS
;	COMDAT ??_C@_0BB@NHFC@DDERR_NOCOLORKEY?$AA@
_DATA	SEGMENT
??_C@_0BB@NHFC@DDERR_NOCOLORKEY?$AA@ DB 'DDERR_NOCOLORKEY', 00H ; `string'
_DATA	ENDS
;	COMDAT ??_C@_0P@BPIP@DDERR_NOTFOUND?$AA@
_DATA	SEGMENT
??_C@_0P@BPIP@DDERR_NOTFOUND?$AA@ DB 'DDERR_NOTFOUND', 00H ; `string'
_DATA	ENDS
;	COMDAT ??_C@_0BB@BGEM@DDERR_NOMIRRORHW?$AA@
_DATA	SEGMENT
??_C@_0BB@BGEM@DDERR_NOMIRRORHW?$AA@ DB 'DDERR_NOMIRRORHW', 00H ; `string'
_DATA	ENDS
;	COMDAT ??_C@_0M@DMHE@DDERR_NOGDI?$AA@
_DATA	SEGMENT
??_C@_0M@DMHE@DDERR_NOGDI?$AA@ DB 'DDERR_NOGDI', 00H	; `string'
_DATA	ENDS
;	COMDAT ??_C@_0P@MLDL@DDERR_NOFLIPHW?$AA@
_DATA	SEGMENT
??_C@_0P@MLDL@DDERR_NOFLIPHW?$AA@ DB 'DDERR_NOFLIPHW', 00H ; `string'
_DATA	ENDS
;	COMDAT ??_C@_0BG@GHJG@DDERR_NOEXCLUSIVEMODE?$AA@
_DATA	SEGMENT
??_C@_0BG@GHJG@DDERR_NOEXCLUSIVEMODE?$AA@ DB 'DDERR_NOEXCLUSIVEMODE', 00H ; `string'
_DATA	ENDS
;	COMDAT ??_C@_0BD@PBLA@DDERR_NOCOLORKEYHW?$AA@
_DATA	SEGMENT
??_C@_0BD@PBLA@DDERR_NOCOLORKEYHW?$AA@ DB 'DDERR_NOCOLORKEYHW', 00H ; `string'
_DATA	ENDS
;	COMDAT ??_C@_0BC@JFFJ@DDERR_NOOVERLAYHW?$AA@
_DATA	SEGMENT
??_C@_0BC@JFFJ@DDERR_NOOVERLAYHW?$AA@ DB 'DDERR_NOOVERLAYHW', 00H ; `string'
_DATA	ENDS
;	COMDAT ??_C@_0BI@NPCF@DDERR_NOT4BITCOLORINDEX?$AA@
_DATA	SEGMENT
??_C@_0BI@NPCF@DDERR_NOT4BITCOLORINDEX?$AA@ DB 'DDERR_NOT4BITCOLORINDEX', 00H ; `string'
_DATA	ENDS
;	COMDAT ??_C@_0BD@FJEG@DDERR_NOT4BITCOLOR?$AA@
_DATA	SEGMENT
??_C@_0BD@FJEG@DDERR_NOT4BITCOLOR?$AA@ DB 'DDERR_NOT4BITCOLOR', 00H ; `string'
_DATA	ENDS
;	COMDAT ??_C@_0BC@JCJA@DDERR_NOSTRETCHHW?$AA@
_DATA	SEGMENT
??_C@_0BC@JCJA@DDERR_NOSTRETCHHW?$AA@ DB 'DDERR_NOSTRETCHHW', 00H ; `string'
_DATA	ENDS
;	COMDAT ??_C@_0BD@BAKO@DDERR_NOROTATIONHW?$AA@
_DATA	SEGMENT
??_C@_0BD@BAKO@DDERR_NOROTATIONHW?$AA@ DB 'DDERR_NOROTATIONHW', 00H ; `string'
_DATA	ENDS
;	COMDAT ??_C@_0BD@HLBF@DDERR_NORASTEROPHW?$AA@
_DATA	SEGMENT
??_C@_0BD@HLBF@DDERR_NORASTEROPHW?$AA@ DB 'DDERR_NORASTEROPHW', 00H ; `string'
_DATA	ENDS
;	COMDAT ??_C@_0BD@ECCH@DDERR_NOT8BITCOLOR?$AA@
_DATA	SEGMENT
??_C@_0BD@ECCH@DDERR_NOT8BITCOLOR?$AA@ DB 'DDERR_NOT8BITCOLOR', 00H ; `string'
_DATA	ENDS
;	COMDAT ??_C@_0BA@OHCK@DDERR_OUTOFCAPS?$AA@
_DATA	SEGMENT
??_C@_0BA@OHCK@DDERR_OUTOFCAPS?$AA@ DB 'DDERR_OUTOFCAPS', 00H ; `string'
_DATA	ENDS
;	COMDAT ??_C@_0BD@HDLA@DDERR_NOZOVERLAYHW?$AA@
_DATA	SEGMENT
??_C@_0BD@HDLA@DDERR_NOZOVERLAYHW?$AA@ DB 'DDERR_NOZOVERLAYHW', 00H ; `string'
_DATA	ENDS
;	COMDAT ??_C@_0BC@IPJO@DDERR_NOZBUFFERHW?$AA@
_DATA	SEGMENT
??_C@_0BC@IPJO@DDERR_NOZBUFFERHW?$AA@ DB 'DDERR_NOZBUFFERHW', 00H ; `string'
_DATA	ENDS
;	COMDAT ??_C@_0BA@KCIJ@DDERR_NOVSYNCHW?$AA@
_DATA	SEGMENT
??_C@_0BA@KCIJ@DDERR_NOVSYNCHW?$AA@ DB 'DDERR_NOVSYNCHW', 00H ; `string'
_DATA	ENDS
;	COMDAT ??_C@_0BC@KLCE@DDERR_NOTEXTUREHW?$AA@
_DATA	SEGMENT
??_C@_0BC@KLCE@DDERR_NOTEXTUREHW?$AA@ DB 'DDERR_NOTEXTUREHW', 00H ; `string'
_DATA	ENDS
;	COMDAT ??_C@_0BH@GLCM@DDERR_OUTOFVIDEOMEMORY?$AA@
_DATA	SEGMENT
??_C@_0BH@GLCM@DDERR_OUTOFVIDEOMEMORY?$AA@ DB 'DDERR_OUTOFVIDEOMEMORY', 00H ; `string'
_DATA	ENDS
;	COMDAT ??_C@_0BN@HBEC@DDERR_SURFACEALREADYATTACHED?$AA@
_DATA	SEGMENT
??_C@_0BN@HBEC@DDERR_SURFACEALREADYATTACHED?$AA@ DB 'DDERR_SURFACEALREADY'
	DB	'ATTACHED', 00H				; `string'
_DATA	ENDS
;	COMDAT ??_C@_0BF@EBGI@DDERR_COLORKEYNOTSET?$AA@
_DATA	SEGMENT
??_C@_0BF@EBGI@DDERR_COLORKEYNOTSET?$AA@ DB 'DDERR_COLORKEYNOTSET', 00H ; `string'
_DATA	ENDS
;	COMDAT ??_C@_0BC@LHPH@DDERR_PALETTEBUSY?$AA@
_DATA	SEGMENT
??_C@_0BC@LHPH@DDERR_PALETTEBUSY?$AA@ DB 'DDERR_PALETTEBUSY', 00H ; `string'
_DATA	ENDS
;	COMDAT ??_C@_0CD@IKFB@DDERR_OVERLAYCOLORKEYONLYONEACTI@
_DATA	SEGMENT
??_C@_0CD@IKFB@DDERR_OVERLAYCOLORKEYONLYONEACTI@ DB 'DDERR_OVERLAYCOLORKE'
	DB	'YONLYONEACTIVE', 00H			; `string'
_DATA	ENDS
;	COMDAT ??_C@_0BG@FCIN@DDERR_OVERLAYCANTCLIP?$AA@
_DATA	SEGMENT
??_C@_0BG@FCIN@DDERR_OVERLAYCANTCLIP?$AA@ DB 'DDERR_OVERLAYCANTCLIP', 00H ; `string'
_DATA	ENDS
;	COMDAT ??_C@_0BO@PJKH@DDERR_SURFACEALREADYDEPENDENT?$AA@
_DATA	SEGMENT
??_C@_0BO@PJKH@DDERR_SURFACEALREADYDEPENDENT?$AA@ DB 'DDERR_SURFACEALREAD'
	DB	'YDEPENDENT', 00H				; `string'
_DATA	ENDS
;	COMDAT ??_C@_0BD@BPON@DDERR_TOOBIGHEIGHT?$AA@
_DATA	SEGMENT
??_C@_0BD@BPON@DDERR_TOOBIGHEIGHT?$AA@ DB 'DDERR_TOOBIGHEIGHT', 00H ; `string'
_DATA	ENDS
;	COMDAT ??_C@_0BJ@OMKO@DDERR_SURFACENOTATTACHED?$AA@
_DATA	SEGMENT
??_C@_0BJ@OMKO@DDERR_SURFACENOTATTACHED?$AA@ DB 'DDERR_SURFACENOTATTACHED'
	DB	00H						; `string'
_DATA	ENDS
;	COMDAT ??_C@_0BC@FDEM@DDERR_SURFACELOST?$AA@
_DATA	SEGMENT
??_C@_0BC@FDEM@DDERR_SURFACELOST?$AA@ DB 'DDERR_SURFACELOST', 00H ; `string'
_DATA	ENDS
;	COMDAT ??_C@_0BI@KAAK@DDERR_SURFACEISOBSCURED?$AA@
_DATA	SEGMENT
??_C@_0BI@KAAK@DDERR_SURFACEISOBSCURED?$AA@ DB 'DDERR_SURFACEISOBSCURED', 00H ; `string'
_DATA	ENDS
;	COMDAT ??_C@_0BG@KGKE@DDERR_CANTLOCKSURFACE?$AA@
_DATA	SEGMENT
??_C@_0BG@KGKE@DDERR_CANTLOCKSURFACE?$AA@ DB 'DDERR_CANTLOCKSURFACE', 00H ; `string'
_DATA	ENDS
;	COMDAT ??_C@_0BC@OHLB@DDERR_SURFACEBUSY?$AA@
_DATA	SEGMENT
??_C@_0BC@OHLB@DDERR_SURFACEBUSY?$AA@ DB 'DDERR_SURFACEBUSY', 00H ; `string'
_DATA	ENDS
;	COMDAT ??_C@_0BB@GBAJ@DDERR_TOOBIGSIZE?$AA@
_DATA	SEGMENT
??_C@_0BB@GBAJ@DDERR_TOOBIGSIZE?$AA@ DB 'DDERR_TOOBIGSIZE', 00H ; `string'
_DATA	ENDS
;	COMDAT ??_C@_0BG@BBPF@DDERR_WASSTILLDRAWING?$AA@
_DATA	SEGMENT
??_C@_0BG@BBPF@DDERR_WASSTILLDRAWING?$AA@ DB 'DDERR_WASSTILLDRAWING', 00H ; `string'
_DATA	ENDS
;	COMDAT ??_C@_0BO@MNN@DDERR_VERTICALBLANKINPROGRESS?$AA@
_DATA	SEGMENT
??_C@_0BO@MNN@DDERR_VERTICALBLANKINPROGRESS?$AA@ DB 'DDERR_VERTICALBLANKI'
	DB	'NPROGRESS', 00H				; `string'
_DATA	ENDS
;	COMDAT ??_C@_0BG@LKKP@DDERR_UNSUPPORTEDMASK?$AA@
_DATA	SEGMENT
??_C@_0BG@LKKP@DDERR_UNSUPPORTEDMASK?$AA@ DB 'DDERR_UNSUPPORTEDMASK', 00H ; `string'
_DATA	ENDS
;	COMDAT ??_C@_0BI@BECN@DDERR_UNSUPPORTEDFORMAT?$AA@
_DATA	SEGMENT
??_C@_0BI@BECN@DDERR_UNSUPPORTEDFORMAT?$AA@ DB 'DDERR_UNSUPPORTEDFORMAT', 00H ; `string'
_DATA	ENDS
;	COMDAT ??_C@_0BC@GCH@DDERR_TOOBIGWIDTH?$AA@
_DATA	SEGMENT
??_C@_0BC@GCH@DDERR_TOOBIGWIDTH?$AA@ DB 'DDERR_TOOBIGWIDTH', 00H ; `string'
_DATA	ENDS
;	COMDAT ??_C@_0N@BDF@DDERR_XALIGN?$AA@
_DATA	SEGMENT
??_C@_0N@BDF@DDERR_XALIGN?$AA@ DB 'DDERR_XALIGN', 00H	; `string'
_DATA	ENDS
;	COMDAT ??_C@_0BP@HCLN@DDERR_DIRECTDRAWALREADYCREATED?$AA@
_DATA	SEGMENT
??_C@_0BP@HCLN@DDERR_DIRECTDRAWALREADYCREATED?$AA@ DB 'DDERR_DIRECTDRAWAL'
	DB	'READYCREATED', 00H				; `string'
_DATA	ENDS
;	COMDAT ??_C@_0BF@LDPJ@DDERR_NODIRECTDRAWHW?$AA@
_DATA	SEGMENT
??_C@_0BF@LDPJ@DDERR_NODIRECTDRAWHW?$AA@ DB 'DDERR_NODIRECTDRAWHW', 00H ; `string'
_DATA	ENDS
;	COMDAT ??_C@_0CC@GOKD@DDERR_PRIMARYSURFACEALREADYEXIST@
_DATA	SEGMENT
??_C@_0CC@GOKD@DDERR_PRIMARYSURFACEALREADYEXIST@ DB 'DDERR_PRIMARYSURFACE'
	DB	'ALREADYEXISTS', 00H				; `string'
_DATA	ENDS
;	COMDAT ??_C@_0BC@KIDO@DDERR_NOEMULATION?$AA@
_DATA	SEGMENT
??_C@_0BC@KIDO@DDERR_NOEMULATION?$AA@ DB 'DDERR_NOEMULATION', 00H ; `string'
_DATA	ENDS
;	COMDAT ??_C@_0BF@MBHN@DDERR_REGIONTOOSMALL?$AA@
_DATA	SEGMENT
??_C@_0BF@MBHN@DDERR_REGIONTOOSMALL?$AA@ DB 'DDERR_REGIONTOOSMALL', 00H ; `string'
_DATA	ENDS
;	COMDAT ??_C@_0BJ@MFMC@DDERR_CLIPPERISUSINGHWND?$AA@
_DATA	SEGMENT
??_C@_0BJ@MFMC@DDERR_CLIPPERISUSINGHWND?$AA@ DB 'DDERR_CLIPPERISUSINGHWND'
	DB	00H						; `string'
_DATA	ENDS
;	COMDAT ??_C@_0BI@NMMO@DDERR_NOCLIPPERATTACHED?$AA@
_DATA	SEGMENT
??_C@_0BI@NMMO@DDERR_NOCLIPPERATTACHED?$AA@ DB 'DDERR_NOCLIPPERATTACHED', 00H ; `string'
_DATA	ENDS
;	COMDAT ??_C@_0N@INIK@DDERR_NOHWND?$AA@
_DATA	SEGMENT
??_C@_0N@INIK@DDERR_NOHWND?$AA@ DB 'DDERR_NOHWND', 00H	; `string'
_DATA	ENDS
;	COMDAT ??_C@_0BF@DLEF@DDERR_HWNDSUBCLASSED?$AA@
_DATA	SEGMENT
??_C@_0BF@DLEF@DDERR_HWNDSUBCLASSED?$AA@ DB 'DDERR_HWNDSUBCLASSED', 00H ; `string'
_DATA	ENDS
;	COMDAT ??_C@_0BF@MOCP@DDERR_HWNDALREADYSET?$AA@
_DATA	SEGMENT
??_C@_0BF@MOCP@DDERR_HWNDALREADYSET?$AA@ DB 'DDERR_HWNDALREADYSET', 00H ; `string'
_DATA	ENDS
;	COMDAT ??_C@_0BM@OPAM@DDERR_INVALIDDIRECTDRAWGUID?$AA@
_DATA	SEGMENT
??_C@_0BM@OPAM@DDERR_INVALIDDIRECTDRAWGUID?$AA@ DB 'DDERR_INVALIDDIRECTDR'
	DB	'AWGUID', 00H				; `string'
_DATA	ENDS
;	COMDAT ??_C@_0BI@DACF@DDERR_NOPALETTEATTACHED?$AA@
_DATA	SEGMENT
??_C@_0BI@DACF@DDERR_NOPALETTEATTACHED?$AA@ DB 'DDERR_NOPALETTEATTACHED', 00H ; `string'
_DATA	ENDS
;	COMDAT ??_C@_0BG@MIGH@DDERR_BLTFASTCANTCLIP?$AA@
_DATA	SEGMENT
??_C@_0BG@MIGH@DDERR_BLTFASTCANTCLIP?$AA@ DB 'DDERR_BLTFASTCANTCLIP', 00H ; `string'
_DATA	ENDS
;	COMDAT ??_C@_0O@DCPD@DDERR_NOBLTHW?$AA@
_DATA	SEGMENT
??_C@_0O@DCPD@DDERR_NOBLTHW?$AA@ DB 'DDERR_NOBLTHW', 00H ; `string'
_DATA	ENDS
;	COMDAT ??_C@_0BB@LKO@DDERR_NODDROPSHW?$AA@
_DATA	SEGMENT
??_C@_0BB@LKO@DDERR_NODDROPSHW?$AA@ DB 'DDERR_NODDROPSHW', 00H ; `string'
_DATA	ENDS
;	COMDAT ??_C@_0BI@MEJA@DDERR_OVERLAYNOTVISIBLE?$AA@
_DATA	SEGMENT
??_C@_0BI@MEJA@DDERR_OVERLAYNOTVISIBLE?$AA@ DB 'DDERR_OVERLAYNOTVISIBLE', 00H ; `string'
_DATA	ENDS
;	COMDAT ??_C@_0BE@DDHB@DDERR_NOOVERLAYDEST?$AA@
_DATA	SEGMENT
??_C@_0BE@DDHB@DDERR_NOOVERLAYDEST?$AA@ DB 'DDERR_NOOVERLAYDEST', 00H ; `string'
_DATA	ENDS
;	COMDAT ??_C@_0BG@MKKH@DDERR_INVALIDPOSITION?$AA@
_DATA	SEGMENT
??_C@_0BG@MKKH@DDERR_INVALIDPOSITION?$AA@ DB 'DDERR_INVALIDPOSITION', 00H ; `string'
_DATA	ENDS
;	COMDAT ??_C@_0BJ@OGJB@DDERR_NOTAOVERLAYSURFACE?$AA@
_DATA	SEGMENT
??_C@_0BJ@OGJB@DDERR_NOTAOVERLAYSURFACE?$AA@ DB 'DDERR_NOTAOVERLAYSURFACE'
	DB	00H						; `string'
_DATA	ENDS
;	COMDAT ??_C@_0BO@IOJH@DDERR_EXCLUSIVEMODEALREADYSET?$AA@
_DATA	SEGMENT
??_C@_0BO@IOJH@DDERR_EXCLUSIVEMODEALREADYSET?$AA@ DB 'DDERR_EXCLUSIVEMODE'
	DB	'ALREADYSET', 00H				; `string'
_DATA	ENDS
;	COMDAT ??_C@_0BD@CJKH@DDERR_NOTFLIPPABLE?$AA@
_DATA	SEGMENT
??_C@_0BD@CJKH@DDERR_NOTFLIPPABLE?$AA@ DB 'DDERR_NOTFLIPPABLE', 00H ; `string'
_DATA	ENDS
;	COMDAT ??_C@_0BE@PLOG@DDERR_CANTDUPLICATE?$AA@
_DATA	SEGMENT
??_C@_0BE@PLOG@DDERR_CANTDUPLICATE?$AA@ DB 'DDERR_CANTDUPLICATE', 00H ; `string'
_DATA	ENDS
;	COMDAT ??_C@_0BA@IHOJ@DDERR_NOTLOCKED?$AA@
_DATA	SEGMENT
??_C@_0BA@IHOJ@DDERR_NOTLOCKED?$AA@ DB 'DDERR_NOTLOCKED', 00H ; `string'
_DATA	ENDS
;	COMDAT ??_C@_0BD@PHJH@DDERR_CANTCREATEDC?$AA@
_DATA	SEGMENT
??_C@_0BD@PHJH@DDERR_CANTCREATEDC?$AA@ DB 'DDERR_CANTCREATEDC', 00H ; `string'
_DATA	ENDS
;	COMDAT ??_C@_0L@PFPD@DDERR_NODC?$AA@
_DATA	SEGMENT
??_C@_0L@PFPD@DDERR_NODC?$AA@ DB 'DDERR_NODC', 00H	; `string'
_DATA	ENDS
;	COMDAT ??_C@_0BA@BNFD@DDERR_WRONGMODE?$AA@
_DATA	SEGMENT
??_C@_0BA@BNFD@DDERR_WRONGMODE?$AA@ DB 'DDERR_WRONGMODE', 00H ; `string'
_DATA	ENDS
;	COMDAT ??_C@_0BI@CFBP@DDERR_IMPLICITLYCREATED?$AA@
_DATA	SEGMENT
??_C@_0BI@CFBP@DDERR_IMPLICITLYCREATED?$AA@ DB 'DDERR_IMPLICITLYCREATED', 00H ; `string'
_DATA	ENDS
;	COMDAT ??_C@_0BE@GJCG@DDERR_NOTPALETTIZED?$AA@
_DATA	SEGMENT
??_C@_0BE@GJCG@DDERR_NOTPALETTIZED?$AA@ DB 'DDERR_NOTPALETTIZED', 00H ; `string'
_DATA	ENDS
;	COMDAT ??_C@_0BB@PNI@DDERR_NOMIPMAPHW?$AA@
_DATA	SEGMENT
??_C@_0BB@PNI@DDERR_NOMIPMAPHW?$AA@ DB 'DDERR_NOMIPMAPHW', 00H ; `string'
_DATA	ENDS
;	COMDAT ??_C@_0BJ@CODF@DDERR_INVALIDSURFACETYPE?$AA@
_DATA	SEGMENT
??_C@_0BJ@CODF@DDERR_INVALIDSURFACETYPE?$AA@ DB 'DDERR_INVALIDSURFACETYPE'
	DB	00H						; `string'
_DATA	ENDS
;	COMDAT ??_C@_0BH@MJAO@DDERR_DCALREADYCREATED?$AA@
_DATA	SEGMENT
??_C@_0BH@MJAO@DDERR_DCALREADYCREATED?$AA@ DB 'DDERR_DCALREADYCREATED', 00H ; `string'
_DATA	ENDS
;	COMDAT ??_C@_0BC@GBNJ@DDERR_NOPALETTEHW?$AA@
_DATA	SEGMENT
??_C@_0BC@GBNJ@DDERR_NOPALETTEHW?$AA@ DB 'DDERR_NOPALETTEHW', 00H ; `string'
_DATA	ENDS
;	COMDAT ??_C@_0BD@OCPI@DDERR_CANTPAGELOCK?$AA@
_DATA	SEGMENT
??_C@_0BD@OCPI@DDERR_CANTPAGELOCK?$AA@ DB 'DDERR_CANTPAGELOCK', 00H ; `string'
_DATA	ENDS
;	COMDAT ??_C@_0BD@BFML@DDERR?5unknown?50x?$CFx?$AA@
_DATA	SEGMENT
??_C@_0BD@BFML@DDERR?5unknown?50x?$CFx?$AA@ DB 'DDERR unknown 0x%x', 00H ; `string'
_DATA	ENDS
;	COMDAT ??_C@_0BE@PHHK@DDERR_NOTPAGELOCKED?$AA@
_DATA	SEGMENT
??_C@_0BE@PHHK@DDERR_NOTPAGELOCKED?$AA@ DB 'DDERR_NOTPAGELOCKED', 00H ; `string'
_DATA	ENDS
;	COMDAT ??_C@_0BF@LLCF@DDERR_CANTPAGEUNLOCK?$AA@
_DATA	SEGMENT
??_C@_0BF@LLCF@DDERR_CANTPAGEUNLOCK?$AA@ DB 'DDERR_CANTPAGEUNLOCK', 00H ; `string'
; Function compile flags: /Ogsy
_DATA	ENDS
;	COMDAT @TraceErrorDD@12
_TEXT	SEGMENT
_error_buf_len$ = 8
_v4$ = -20
@TraceErrorDD@12 PROC NEAR				; COMDAT
; _error_code$ = ecx
; _error_buf$ = edx
; Line 55
	push	ebp
	mov	ebp, esp
	sub	esp, 20					; 00000014H
	push	esi
	mov	esi, ecx
; Line 59
	mov	eax, -2005532252			; 887601a4H
	push	edi
	cmp	esi, eax
	mov	edi, edx
	ja	$L86123
	je	$L85384
	mov	eax, -2005532457			; 887600d7H
	cmp	esi, eax
	ja	$L86124
	je	$L85559
	add	eax, -115				; ffffff8dH
	cmp	esi, eax
	ja	$L86125
	je	$L85643
	mov	eax, -2005532662			; 8876000aH
	cmp	esi, eax
	ja	SHORT $L86126
	je	SHORT $L85680
	test	esi, esi
	je	SHORT $L85027
	cmp	esi, -2147467263			; 80004001H
	je	SHORT $L85654
	cmp	esi, -2147467259			; 80004005H
	je	SHORT $L85658
	cmp	esi, -2147024882			; 8007000eH
	je	SHORT $L85662
	cmp	esi, -2147024809			; 80070057H
	je	SHORT $L85666
	cmp	esi, -2005532667			; 88760005H
	jne	$L85682
; Line 156
	mov	eax, OFFSET FLAT:??_C@_0BJ@CBME@DDERR_ALREADYINITIALIZED?$AA@ ; `string'
	jmp	$L85009
$L85666:
; Line 155
	mov	eax, OFFSET FLAT:??_C@_0BE@OBBL@DDERR_INVALIDPARAMS?$AA@ ; `string'
	jmp	$L85009
$L85662:
; Line 154
	mov	eax, OFFSET FLAT:??_C@_0BC@PPLJ@DDERR_OUTOFMEMORY?$AA@ ; `string'
	jmp	$L85009
$L85658:
; Line 153
	mov	eax, OFFSET FLAT:??_C@_0O@JJAG@DDERR_GENERIC?$AA@ ; `string'
	jmp	$L85009
$L85654:
; Line 152
	mov	eax, OFFSET FLAT:??_C@_0BC@JHBM@DDERR_UNSUPPORTED?$AA@ ; `string'
	jmp	$L85009
$L85027:
; Line 62
	mov	eax, OFFSET FLAT:??_C@_05LCHN@DD_OK?$AA@ ; `string'
	jmp	$L85009
$L85680:
; Line 157
	mov	eax, OFFSET FLAT:??_C@_0BK@DPHE@DDERR_CANNOTATTACHSURFACE?$AA@ ; `string'
	jmp	$L85009
$L86126:
; Line 59
	cmp	esi, -2005532652			; 88760014H
	je	SHORT $L85650
	cmp	esi, -2005532632			; 88760028H
	je	SHORT $L85615
	cmp	esi, -2005532617			; 88760037H
	je	SHORT $L85622
	cmp	esi, -2005532582			; 8876005aH
	je	SHORT $L85629
	cmp	esi, -2005532577			; 8876005fH
	jne	$L85682
; Line 149
	mov	eax, OFFSET FLAT:??_C@_0BK@BLOA@DDERR_INCOMPATIBLEPRIMARY?$AA@ ; `string'
	jmp	$L85009
$L85629:
; Line 148
	mov	eax, OFFSET FLAT:??_C@_0BC@EIBC@DDERR_HEIGHTALIGN?$AA@ ; `string'
	jmp	$L85009
$L85622:
; Line 147
	mov	eax, OFFSET FLAT:??_C@_0BA@EAOD@DDERR_EXCEPTION?$AA@ ; `string'
	jmp	$L85009
$L85615:
; Line 146
	mov	eax, OFFSET FLAT:??_C@_0BI@PBAE@DDERR_CURRENTLYNOTAVAIL?$AA@ ; `string'
	jmp	$L85009
$L85650:
; Line 151
	mov	eax, OFFSET FLAT:??_C@_0BK@JIOM@DDERR_CANNOTDETACHSURFACE?$AA@ ; `string'
	jmp	$L85009
$L85643:
; Line 150
	mov	eax, OFFSET FLAT:??_C@_0BC@JNLE@DDERR_INVALIDCAPS?$AA@ ; `string'
	jmp	$L85009
$L86125:
; Line 59
	mov	eax, -2005532512			; 887600a0H
	cmp	esi, eax
	ja	SHORT $L86127
	je	SHORT $L85601
	cmp	esi, -2005532562			; 8876006eH
	je	SHORT $L85608
	cmp	esi, -2005532552			; 88760078H
	je	SHORT $L85573
	cmp	esi, -2005532542			; 88760082H
	je	SHORT $L85580
	cmp	esi, -2005532527			; 88760091H
	je	SHORT $L85587
	cmp	esi, -2005532522			; 88760096H
	jne	$L85682
; Line 143
	mov	eax, OFFSET FLAT:??_C@_0BC@KBCO@DDERR_INVALIDRECT?$AA@ ; `string'
	jmp	$L85009
$L85587:
; Line 142
	mov	eax, OFFSET FLAT:??_C@_0BJ@EJCO@DDERR_INVALIDPIXELFORMAT?$AA@ ; `string'
	jmp	$L85009
$L85580:
; Line 141
	mov	eax, OFFSET FLAT:??_C@_0BE@LOLC@DDERR_INVALIDOBJECT?$AA@ ; `string'
	jmp	$L85009
$L85573:
; Line 140
	mov	eax, OFFSET FLAT:??_C@_0BC@HCAL@DDERR_INVALIDMODE?$AA@ ; `string'
	jmp	$L85009
$L85608:
; Line 145
	mov	eax, OFFSET FLAT:??_C@_0BG@MOJK@DDERR_INVALIDCLIPLIST?$AA@ ; `string'
	jmp	$L85009
$L85601:
; Line 144
	mov	eax, OFFSET FLAT:??_C@_0BF@IFLE@DDERR_LOCKEDSURFACES?$AA@ ; `string'
	jmp	$L85009
$L86127:
; Line 59
	cmp	esi, -2005532502			; 887600aaH
	je	SHORT $L85566
	cmp	esi, -2005532492			; 887600b4H
	je	SHORT $L85531
	cmp	esi, -2005532467			; 887600cdH
	je	SHORT $L85538
	cmp	esi, -2005532462			; 887600d2H
	je	SHORT $L85545
	cmp	esi, -2005532460			; 887600d4H
	jne	$L85682
; Line 137
	mov	eax, OFFSET FLAT:??_C@_0BM@INCD@DDERR_NOCOOPERATIVELEVELSET?$AA@ ; `string'
	jmp	$L85009
$L85545:
; Line 136
	mov	eax, OFFSET FLAT:??_C@_0BE@IEFK@DDERR_NOCOLORCONVHW?$AA@ ; `string'
	jmp	$L85009
$L85538:
; Line 135
	mov	eax, OFFSET FLAT:??_C@_0BB@EJBM@DDERR_NOCLIPLIST?$AA@ ; `string'
	jmp	$L85009
$L85531:
; Line 134
	mov	eax, OFFSET FLAT:??_C@_0BA@EHJG@DDERR_NOALPHAHW?$AA@ ; `string'
	jmp	$L85009
$L85566:
; Line 139
	mov	eax, OFFSET FLAT:??_C@_0L@NEBN@DDERR_NO3D?$AA@ ; `string'
	jmp	$L85009
$L85559:
; Line 138
	mov	eax, OFFSET FLAT:??_C@_0BB@NHFC@DDERR_NOCOLORKEY?$AA@ ; `string'
	jmp	$L85009
$L86124:
; Line 59
	mov	eax, -2005532352			; 88760140H
	cmp	esi, eax
	ja	$L86128
	je	$L85468
	add	eax, -60				; ffffffc4H
	cmp	esi, eax
	ja	SHORT $L86129
	je	SHORT $L85517
	cmp	esi, -2005532452			; 887600dcH
	je	SHORT $L85524
	cmp	esi, -2005532447			; 887600e1H
	je	SHORT $L85482
	cmp	esi, -2005532442			; 887600e6H
	je	SHORT $L85489
	cmp	esi, -2005532432			; 887600f0H
	je	SHORT $L85496
	cmp	esi, -2005532422			; 887600faH
	je	SHORT $L85503
	cmp	esi, -2005532417			; 887600ffH
	jne	$L85682
; Line 131
	mov	eax, OFFSET FLAT:??_C@_0P@BPIP@DDERR_NOTFOUND?$AA@ ; `string'
	jmp	$L85009
$L85503:
; Line 130
	mov	eax, OFFSET FLAT:??_C@_0BB@BGEM@DDERR_NOMIRRORHW?$AA@ ; `string'
	jmp	$L85009
$L85496:
; Line 129
	mov	eax, OFFSET FLAT:??_C@_0M@DMHE@DDERR_NOGDI?$AA@ ; `string'
	jmp	$L85009
$L85489:
; Line 128
	mov	eax, OFFSET FLAT:??_C@_0P@MLDL@DDERR_NOFLIPHW?$AA@ ; `string'
	jmp	$L85009
$L85482:
; Line 127
	mov	eax, OFFSET FLAT:??_C@_0BG@GHJG@DDERR_NOEXCLUSIVEMODE?$AA@ ; `string'
	jmp	$L85009
$L85524:
; Line 133
	mov	eax, OFFSET FLAT:??_C@_0BD@PBLA@DDERR_NOCOLORKEYHW?$AA@ ; `string'
	jmp	$L85009
$L85517:
; Line 132
	mov	eax, OFFSET FLAT:??_C@_0BC@JFFJ@DDERR_NOOVERLAYHW?$AA@ ; `string'
	jmp	$L85009
$L86129:
; Line 59
	cmp	esi, -2005532392			; 88760118H
	je	SHORT $L85475
	cmp	esi, -2005532382			; 88760122H
	je	SHORT $L85440
	cmp	esi, -2005532362			; 88760136H
	je	SHORT $L85447
	cmp	esi, -2005532356			; 8876013cH
	je	SHORT $L85454
	cmp	esi, -2005532355			; 8876013dH
	jne	$L85682
; Line 124
	mov	eax, OFFSET FLAT:??_C@_0BI@NPCF@DDERR_NOT4BITCOLORINDEX?$AA@ ; `string'
	jmp	$L85009
$L85454:
; Line 123
	mov	eax, OFFSET FLAT:??_C@_0BD@FJEG@DDERR_NOT4BITCOLOR?$AA@ ; `string'
	jmp	$L85009
$L85447:
; Line 122
	mov	eax, OFFSET FLAT:??_C@_0BC@JCJA@DDERR_NOSTRETCHHW?$AA@ ; `string'
	jmp	$L85009
$L85440:
; Line 121
	mov	eax, OFFSET FLAT:??_C@_0BD@BAKO@DDERR_NOROTATIONHW?$AA@ ; `string'
	jmp	$L85009
$L85475:
; Line 126
	mov	eax, OFFSET FLAT:??_C@_0BD@HLBF@DDERR_NORASTEROPHW?$AA@ ; `string'
	jmp	$L85009
$L85468:
; Line 125
	mov	eax, OFFSET FLAT:??_C@_0BD@ECCH@DDERR_NOT8BITCOLOR?$AA@ ; `string'
	jmp	$L85009
$L86128:
; Line 59
	mov	eax, -2005532292			; 8876017cH
	cmp	esi, eax
	ja	SHORT $L86130
	je	SHORT $L85426
	cmp	esi, -2005532342			; 8876014aH
	je	SHORT $L85433
	cmp	esi, -2005532337			; 8876014fH
	je	SHORT $L85398
	cmp	esi, -2005532332			; 88760154H
	je	SHORT $L85405
	cmp	esi, -2005532322			; 8876015eH
	je	SHORT $L85412
	cmp	esi, -2005532312			; 88760168H
	jne	$L85682
; Line 118
	mov	eax, OFFSET FLAT:??_C@_0BA@OHCK@DDERR_OUTOFCAPS?$AA@ ; `string'
	jmp	$L85009
$L85412:
; Line 117
	mov	eax, OFFSET FLAT:??_C@_0BD@HDLA@DDERR_NOZOVERLAYHW?$AA@ ; `string'
	jmp	$L85009
$L85405:
; Line 116
	mov	eax, OFFSET FLAT:??_C@_0BC@IPJO@DDERR_NOZBUFFERHW?$AA@ ; `string'
	jmp	$L85009
$L85398:
; Line 115
	mov	eax, OFFSET FLAT:??_C@_0BA@KCIJ@DDERR_NOVSYNCHW?$AA@ ; `string'
	jmp	$L85009
$L85433:
; Line 120
	mov	eax, OFFSET FLAT:??_C@_0BC@KLCE@DDERR_NOTEXTUREHW?$AA@ ; `string'
	jmp	$L85009
$L85426:
; Line 119
	mov	eax, OFFSET FLAT:??_C@_0BH@GLCM@DDERR_OUTOFVIDEOMEMORY?$AA@ ; `string'
	jmp	$L85009
$L86130:
; Line 59
	cmp	esi, -2005532290			; 8876017eH
	je	SHORT $L85391
	cmp	esi, -2005532288			; 88760180H
	je	SHORT $L85356
	cmp	esi, -2005532285			; 88760183H
	je	SHORT $L85363
	cmp	esi, -2005532272			; 88760190H
	je	SHORT $L85370
	cmp	esi, -2005532262			; 8876019aH
	jne	$L85682
; Line 112
	mov	eax, OFFSET FLAT:??_C@_0BN@HBEC@DDERR_SURFACEALREADYATTACHED?$AA@ ; `string'
	jmp	$L85009
$L85370:
; Line 111
	mov	eax, OFFSET FLAT:??_C@_0BF@EBGI@DDERR_COLORKEYNOTSET?$AA@ ; `string'
	jmp	$L85009
$L85363:
; Line 110
	mov	eax, OFFSET FLAT:??_C@_0BC@LHPH@DDERR_PALETTEBUSY?$AA@ ; `string'
	jmp	$L85009
$L85356:
; Line 109
	mov	eax, OFFSET FLAT:??_C@_0CD@IKFB@DDERR_OVERLAYCOLORKEYONLYONEACTI@ ; `string'
	jmp	$L85009
$L85391:
; Line 114
	mov	eax, OFFSET FLAT:??_C@_0BG@FCIN@DDERR_OVERLAYCANTCLIP?$AA@ ; `string'
	jmp	$L85009
$L85384:
; Line 113
	mov	eax, OFFSET FLAT:??_C@_0BO@PJKH@DDERR_SURFACEALREADYDEPENDENT?$AA@ ; `string'
	jmp	$L85009
$L86123:
; Line 59
	mov	eax, -2005532100			; 8876023cH
	cmp	esi, eax
	ja	$L86131
	je	$L85251
	add	eax, -12				; fffffff4H
	cmp	esi, eax
	ja	$L86132
	je	$L85293
	mov	eax, -2005532192			; 887601e0H
	cmp	esi, eax
	ja	SHORT $L86133
	je	SHORT $L85342
	cmp	esi, -2005532242			; 887601aeH
	je	SHORT $L85349
	cmp	esi, -2005532237			; 887601b3H
	je	SHORT $L85307
	cmp	esi, -2005532232			; 887601b8H
	je	SHORT $L85314
	cmp	esi, -2005532222			; 887601c2H
	je	SHORT $L85321
	cmp	esi, -2005532212			; 887601ccH
	je	SHORT $L85328
	cmp	esi, -2005532202			; 887601d6H
	jne	$L85682
; Line 106
	mov	eax, OFFSET FLAT:??_C@_0BD@BPON@DDERR_TOOBIGHEIGHT?$AA@ ; `string'
	jmp	$L85009
$L85328:
; Line 105
	mov	eax, OFFSET FLAT:??_C@_0BJ@OMKO@DDERR_SURFACENOTATTACHED?$AA@ ; `string'
	jmp	$L85009
$L85321:
; Line 104
	mov	eax, OFFSET FLAT:??_C@_0BC@FDEM@DDERR_SURFACELOST?$AA@ ; `string'
	jmp	$L85009
$L85314:
; Line 103
	mov	eax, OFFSET FLAT:??_C@_0BI@KAAK@DDERR_SURFACEISOBSCURED?$AA@ ; `string'
	jmp	$L85009
$L85307:
; Line 102
	mov	eax, OFFSET FLAT:??_C@_0BG@KGKE@DDERR_CANTLOCKSURFACE?$AA@ ; `string'
	jmp	$L85009
$L85349:
; Line 108
	mov	eax, OFFSET FLAT:??_C@_0BC@OHLB@DDERR_SURFACEBUSY?$AA@ ; `string'
	jmp	$L85009
$L85342:
; Line 107
	mov	eax, OFFSET FLAT:??_C@_0BB@GBAJ@DDERR_TOOBIGSIZE?$AA@ ; `string'
	jmp	$L85009
$L86133:
; Line 59
	cmp	esi, -2005532182			; 887601eaH
	je	SHORT $L85300
	cmp	esi, -2005532162			; 887601feH
	je	SHORT $L85265
	cmp	esi, -2005532152			; 88760208H
	je	SHORT $L85272
	cmp	esi, -2005532135			; 88760219H
	je	SHORT $L85279
	cmp	esi, -2005532132			; 8876021cH
	jne	$L85682
; Line 99
	mov	eax, OFFSET FLAT:??_C@_0BG@BBPF@DDERR_WASSTILLDRAWING?$AA@ ; `string'
	jmp	$L85009
$L85279:
; Line 98
	mov	eax, OFFSET FLAT:??_C@_0BO@MNN@DDERR_VERTICALBLANKINPROGRESS?$AA@ ; `string'
	jmp	$L85009
$L85272:
; Line 97
	mov	eax, OFFSET FLAT:??_C@_0BG@LKKP@DDERR_UNSUPPORTEDMASK?$AA@ ; `string'
	jmp	$L85009
$L85265:
; Line 96
	mov	eax, OFFSET FLAT:??_C@_0BI@BECN@DDERR_UNSUPPORTEDFORMAT?$AA@ ; `string'
	jmp	$L85009
$L85300:
; Line 101
	mov	eax, OFFSET FLAT:??_C@_0BC@GCH@DDERR_TOOBIGWIDTH?$AA@ ; `string'
	jmp	$L85009
$L85293:
; Line 100
	mov	eax, OFFSET FLAT:??_C@_0N@BDF@DDERR_XALIGN?$AA@ ; `string'
	jmp	$L85009
$L86132:
; Line 59
	lea	eax, DWORD PTR [esi+2005532111]
	cmp	eax, 10					; 0000000aH
	ja	$L85682
	jmp	DWORD PTR $L86136[eax*4]
$L85181:
; Line 84
	mov	eax, OFFSET FLAT:??_C@_0BP@HCLN@DDERR_DIRECTDRAWALREADYCREATED?$AA@ ; `string'
	jmp	$L85009
$L85188:
; Line 85
	mov	eax, OFFSET FLAT:??_C@_0BF@LDPJ@DDERR_NODIRECTDRAWHW?$AA@ ; `string'
	jmp	$L85009
$L85195:
; Line 86
	mov	eax, OFFSET FLAT:??_C@_0CC@GOKD@DDERR_PRIMARYSURFACEALREADYEXIST@ ; `string'
	jmp	$L85009
$L85202:
; Line 87
	mov	eax, OFFSET FLAT:??_C@_0BC@KIDO@DDERR_NOEMULATION?$AA@ ; `string'
	jmp	$L85009
$L85209:
; Line 88
	mov	eax, OFFSET FLAT:??_C@_0BF@MBHN@DDERR_REGIONTOOSMALL?$AA@ ; `string'
	jmp	$L85009
$L85216:
; Line 89
	mov	eax, OFFSET FLAT:??_C@_0BJ@MFMC@DDERR_CLIPPERISUSINGHWND?$AA@ ; `string'
	jmp	$L85009
$L85223:
; Line 90
	mov	eax, OFFSET FLAT:??_C@_0BI@NMMO@DDERR_NOCLIPPERATTACHED?$AA@ ; `string'
	jmp	$L85009
$L85230:
; Line 91
	mov	eax, OFFSET FLAT:??_C@_0N@INIK@DDERR_NOHWND?$AA@ ; `string'
	jmp	$L85009
$L85237:
; Line 92
	mov	eax, OFFSET FLAT:??_C@_0BF@DLEF@DDERR_HWNDSUBCLASSED?$AA@ ; `string'
	jmp	$L85009
$L85244:
; Line 93
	mov	eax, OFFSET FLAT:??_C@_0BF@MOCP@DDERR_HWNDALREADYSET?$AA@ ; `string'
	jmp	$L85009
$L85258:
; Line 95
	mov	eax, OFFSET FLAT:??_C@_0BM@OPAM@DDERR_INVALIDDIRECTDRAWGUID?$AA@ ; `string'
	jmp	$L85009
$L85251:
; Line 94
	mov	eax, OFFSET FLAT:??_C@_0BI@DACF@DDERR_NOPALETTEATTACHED?$AA@ ; `string'
	jmp	$L85009
$L86131:
; Line 59
	mov	eax, -2005532032			; 88760280H
	cmp	esi, eax
	ja	$L86134
	je	$L85034
	lea	eax, DWORD PTR [esi+2005532099]
	cmp	eax, 47					; 0000002fH
	ja	$L85682
	movzx	eax, BYTE PTR $L86135[eax]
	jmp	DWORD PTR $L86137[eax*4]
$L85041:
; Line 64
	mov	eax, OFFSET FLAT:??_C@_0BG@MIGH@DDERR_BLTFASTCANTCLIP?$AA@ ; `string'
	jmp	$L85009
$L85048:
; Line 65
	mov	eax, OFFSET FLAT:??_C@_0O@DCPD@DDERR_NOBLTHW?$AA@ ; `string'
	jmp	$L85009
$L85055:
; Line 66
	mov	eax, OFFSET FLAT:??_C@_0BB@LKO@DDERR_NODDROPSHW?$AA@ ; `string'
	jmp	$L85009
$L85062:
; Line 67
	mov	eax, OFFSET FLAT:??_C@_0BI@MEJA@DDERR_OVERLAYNOTVISIBLE?$AA@ ; `string'
	jmp	$L85009
$L85069:
; Line 68
	mov	eax, OFFSET FLAT:??_C@_0BE@DDHB@DDERR_NOOVERLAYDEST?$AA@ ; `string'
	jmp	$L85009
$L85076:
; Line 69
	mov	eax, OFFSET FLAT:??_C@_0BG@MKKH@DDERR_INVALIDPOSITION?$AA@ ; `string'
	jmp	$L85009
$L85083:
; Line 70
	mov	eax, OFFSET FLAT:??_C@_0BJ@OGJB@DDERR_NOTAOVERLAYSURFACE?$AA@ ; `string'
	jmp	$L85009
$L85090:
; Line 71
	mov	eax, OFFSET FLAT:??_C@_0BO@IOJH@DDERR_EXCLUSIVEMODEALREADYSET?$AA@ ; `string'
	jmp	$L85009
$L85097:
; Line 72
	mov	eax, OFFSET FLAT:??_C@_0BD@CJKH@DDERR_NOTFLIPPABLE?$AA@ ; `string'
	jmp	$L85009
$L85104:
; Line 73
	mov	eax, OFFSET FLAT:??_C@_0BE@PLOG@DDERR_CANTDUPLICATE?$AA@ ; `string'
	jmp	$L85009
$L85111:
; Line 74
	mov	eax, OFFSET FLAT:??_C@_0BA@IHOJ@DDERR_NOTLOCKED?$AA@ ; `string'
	jmp	$L85009
$L85118:
; Line 75
	mov	eax, OFFSET FLAT:??_C@_0BD@PHJH@DDERR_CANTCREATEDC?$AA@ ; `string'
	jmp	SHORT $L85009
$L85125:
; Line 76
	mov	eax, OFFSET FLAT:??_C@_0L@PFPD@DDERR_NODC?$AA@ ; `string'
	jmp	SHORT $L85009
$L85132:
; Line 77
	mov	eax, OFFSET FLAT:??_C@_0BA@BNFD@DDERR_WRONGMODE?$AA@ ; `string'
	jmp	SHORT $L85009
$L85139:
; Line 78
	mov	eax, OFFSET FLAT:??_C@_0BI@CFBP@DDERR_IMPLICITLYCREATED?$AA@ ; `string'
	jmp	SHORT $L85009
$L85146:
; Line 79
	mov	eax, OFFSET FLAT:??_C@_0BE@GJCG@DDERR_NOTPALETTIZED?$AA@ ; `string'
	jmp	SHORT $L85009
$L85153:
; Line 80
	mov	eax, OFFSET FLAT:??_C@_0BB@PNI@DDERR_NOMIPMAPHW?$AA@ ; `string'
	jmp	SHORT $L85009
$L85160:
; Line 81
	mov	eax, OFFSET FLAT:??_C@_0BJ@CODF@DDERR_INVALIDSURFACETYPE?$AA@ ; `string'
	jmp	SHORT $L85009
$L85167:
; Line 82
	mov	eax, OFFSET FLAT:??_C@_0BH@MJAO@DDERR_DCALREADYCREATED?$AA@ ; `string'
	jmp	SHORT $L85009
$L85174:
; Line 83
	mov	eax, OFFSET FLAT:??_C@_0BC@GBNJ@DDERR_NOPALETTEHW?$AA@ ; `string'
	jmp	SHORT $L85009
$L85034:
; Line 63
	mov	eax, OFFSET FLAT:??_C@_0BD@OCPI@DDERR_CANTPAGELOCK?$AA@ ; `string'
	jmp	SHORT $L85009
$L86134:
; Line 59
	cmp	esi, -2005532012			; 88760294H
	je	SHORT $L85017
	cmp	esi, -2005531992			; 887602a8H
	je	SHORT $L85024
$L85682:
; Line 159
	lea	eax, DWORD PTR _v4$[ebp]
	push	OFFSET FLAT:??_C@_0BD@BFML@DDERR?5unknown?50x?$CFx?$AA@ ; `string'
	push	eax
	call	_strcpy
; Line 160
	lea	eax, DWORD PTR _v4$[ebp]
	push	esi
	push	eax
	push	edi
	call	_sprintf
	add	esp, 20					; 00000014H
; Line 161
	jmp	SHORT $L85005
$L85024:
; Line 61
	mov	eax, OFFSET FLAT:??_C@_0BE@PHHK@DDERR_NOTPAGELOCKED?$AA@ ; `string'
	jmp	SHORT $L85009
$L85017:
; Line 60
	mov	eax, OFFSET FLAT:??_C@_0BF@LLCF@DDERR_CANTPAGEUNLOCK?$AA@ ; `string'
$L85009:
; Line 163
	push	DWORD PTR _error_buf_len$[ebp]
	push	eax
	push	edi
	call	_strncpy
	add	esp, 12					; 0000000cH
$L85005:
	pop	edi
	pop	esi
; Line 164
	leave
	ret	4
$L86136:
	DD	$L85258
	DD	$L85181
	DD	$L85188
	DD	$L85195
	DD	$L85202
	DD	$L85209
	DD	$L85216
	DD	$L85223
	DD	$L85230
	DD	$L85237
	DD	$L85244
$L86137:
	DD	$L85174
	DD	$L85041
	DD	$L85048
	DD	$L85055
	DD	$L85062
	DD	$L85069
	DD	$L85076
	DD	$L85083
	DD	$L85090
	DD	$L85097
	DD	$L85104
	DD	$L85111
	DD	$L85118
	DD	$L85125
	DD	$L85132
	DD	$L85139
	DD	$L85146
	DD	$L85153
	DD	$L85160
	DD	$L85167
	DD	$L85682
$L86135:
	DB	0
	DB	1
	DB	2
	DB	3
	DB	4
	DB	5
	DB	6
	DB	7
	DB	8
	DB	9
	DB	10					; 0000000aH
	DB	11					; 0000000bH
	DB	12					; 0000000cH
	DB	13					; 0000000dH
	DB	14					; 0000000eH
	DB	15					; 0000000fH
	DB	16					; 00000010H
	DB	20					; 00000014H
	DB	17					; 00000011H
	DB	18					; 00000012H
	DB	20					; 00000014H
	DB	20					; 00000014H
	DB	20					; 00000014H
	DB	20					; 00000014H
	DB	20					; 00000014H
	DB	20					; 00000014H
	DB	20					; 00000014H
	DB	20					; 00000014H
	DB	20					; 00000014H
	DB	20					; 00000014H
	DB	20					; 00000014H
	DB	20					; 00000014H
	DB	20					; 00000014H
	DB	20					; 00000014H
	DB	20					; 00000014H
	DB	20					; 00000014H
	DB	20					; 00000014H
	DB	20					; 00000014H
	DB	20					; 00000014H
	DB	20					; 00000014H
	DB	20					; 00000014H
	DB	20					; 00000014H
	DB	20					; 00000014H
	DB	20					; 00000014H
	DB	20					; 00000014H
	DB	20					; 00000014H
	DB	20					; 00000014H
	DB	19					; 00000013H
@TraceErrorDD@12 ENDP
_TEXT	ENDS
PUBLIC	??_C@_0BG@MDBD@DSERR_PRIOLEVELNEEDED?$AA@	; `string'
PUBLIC	??_C@_0BA@JHO@DSERR_BADFORMAT?$AA@		; `string'
PUBLIC	??_C@_0P@JGOM@DSERR_NODRIVER?$AA@		; `string'
PUBLIC	??_C@_0BJ@LHGI@DSERR_ALREADYINITIALIZED?$AA@	; `string'
PUBLIC	??_C@_0BB@MLJO@DSERR_BUFFERLOST?$AA@		; `string'
PUBLIC	??_C@_05BNOC@DS_OK?$AA@				; `string'
PUBLIC	??_C@_0BC@EJKJ@DSERR_INVALIDCALL?$AA@		; `string'
PUBLIC	??_C@_0O@OKLN@E_NOINTERFACE?$AA@		; `string'
PUBLIC	??_C@_0BE@FNCP@DSERR_NOAGGREGATION?$AA@		; `string'
PUBLIC	??_C@_0BC@GNO@DSERR_OUTOFMEMORY?$AA@		; `string'
PUBLIC	??_C@_0BD@JMDM@DSERR_INVALIDPARAM?$AA@		; `string'
PUBLIC	??_C@_0BA@IBDB@DSERR_ALLOCATED?$AA@		; `string'
PUBLIC	??_C@_0BF@JADI@DSERR_CONTROLUNAVAIL?$AA@	; `string'
PUBLIC	??_C@_0BD@JLDC@DSERR?5unknown?50x?$CFx?$AA@	; `string'
;	COMDAT ??_C@_0BA@IBDB@DSERR_ALLOCATED?$AA@
_DATA	SEGMENT
??_C@_0BA@IBDB@DSERR_ALLOCATED?$AA@ DB 'DSERR_ALLOCATED', 00H ; `string'
_DATA	ENDS
;	COMDAT ??_C@_0BD@JMDM@DSERR_INVALIDPARAM?$AA@
_DATA	SEGMENT
??_C@_0BD@JMDM@DSERR_INVALIDPARAM?$AA@ DB 'DSERR_INVALIDPARAM', 00H ; `string'
_DATA	ENDS
;	COMDAT ??_C@_0BC@GNO@DSERR_OUTOFMEMORY?$AA@
_DATA	SEGMENT
??_C@_0BC@GNO@DSERR_OUTOFMEMORY?$AA@ DB 'DSERR_OUTOFMEMORY', 00H ; `string'
_DATA	ENDS
;	COMDAT ??_C@_0BE@FNCP@DSERR_NOAGGREGATION?$AA@
_DATA	SEGMENT
??_C@_0BE@FNCP@DSERR_NOAGGREGATION?$AA@ DB 'DSERR_NOAGGREGATION', 00H ; `string'
_DATA	ENDS
;	COMDAT ??_C@_0O@OKLN@E_NOINTERFACE?$AA@
_DATA	SEGMENT
??_C@_0O@OKLN@E_NOINTERFACE?$AA@ DB 'E_NOINTERFACE', 00H ; `string'
_DATA	ENDS
;	COMDAT ??_C@_05BNOC@DS_OK?$AA@
_DATA	SEGMENT
??_C@_05BNOC@DS_OK?$AA@ DB 'DS_OK', 00H			; `string'
_DATA	ENDS
;	COMDAT ??_C@_0BF@JADI@DSERR_CONTROLUNAVAIL?$AA@
_DATA	SEGMENT
??_C@_0BF@JADI@DSERR_CONTROLUNAVAIL?$AA@ DB 'DSERR_CONTROLUNAVAIL', 00H ; `string'
_DATA	ENDS
;	COMDAT ??_C@_0BD@JLDC@DSERR?5unknown?50x?$CFx?$AA@
_DATA	SEGMENT
??_C@_0BD@JLDC@DSERR?5unknown?50x?$CFx?$AA@ DB 'DSERR unknown 0x%x', 00H ; `string'
_DATA	ENDS
;	COMDAT ??_C@_0BB@MLJO@DSERR_BUFFERLOST?$AA@
_DATA	SEGMENT
??_C@_0BB@MLJO@DSERR_BUFFERLOST?$AA@ DB 'DSERR_BUFFERLOST', 00H ; `string'
_DATA	ENDS
;	COMDAT ??_C@_0BJ@LHGI@DSERR_ALREADYINITIALIZED?$AA@
_DATA	SEGMENT
??_C@_0BJ@LHGI@DSERR_ALREADYINITIALIZED?$AA@ DB 'DSERR_ALREADYINITIALIZED'
	DB	00H						; `string'
_DATA	ENDS
;	COMDAT ??_C@_0P@JGOM@DSERR_NODRIVER?$AA@
_DATA	SEGMENT
??_C@_0P@JGOM@DSERR_NODRIVER?$AA@ DB 'DSERR_NODRIVER', 00H ; `string'
_DATA	ENDS
;	COMDAT ??_C@_0BA@JHO@DSERR_BADFORMAT?$AA@
_DATA	SEGMENT
??_C@_0BA@JHO@DSERR_BADFORMAT?$AA@ DB 'DSERR_BADFORMAT', 00H ; `string'
_DATA	ENDS
;	COMDAT ??_C@_0BG@MDBD@DSERR_PRIOLEVELNEEDED?$AA@
_DATA	SEGMENT
??_C@_0BG@MDBD@DSERR_PRIOLEVELNEEDED?$AA@ DB 'DSERR_PRIOLEVELNEEDED', 00H ; `string'
_DATA	ENDS
;	COMDAT ??_C@_0BC@EJKJ@DSERR_INVALIDCALL?$AA@
_DATA	SEGMENT
??_C@_0BC@EJKJ@DSERR_INVALIDCALL?$AA@ DB 'DSERR_INVALIDCALL', 00H ; `string'
; Function compile flags: /Ogsy
_DATA	ENDS
;	COMDAT @TraceErrorDS@12
_TEXT	SEGMENT
_error_buf_len$ = 8
_v4$ = -20
@TraceErrorDS@12 PROC NEAR				; COMDAT
; _error_code$ = ecx
; _error_buf$ = edx
; Line 167
	push	ebp
	mov	ebp, esp
	sub	esp, 20					; 00000014H
	push	esi
	mov	esi, ecx
; Line 171
	mov	eax, -2005401570			; 8878001eH
	push	edi
	cmp	esi, eax
	mov	edi, edx
	ja	SHORT $L86140
	je	SHORT $L85770
	test	esi, esi
	je	SHORT $L85733
	cmp	esi, -2147467262			; 80004002H
	je	SHORT $L85744
	cmp	esi, -2147221232			; 80040110H
	je	SHORT $L85748
	cmp	esi, -2147024882			; 8007000eH
	je	SHORT $L85752
	cmp	esi, -2147024809			; 80070057H
	je	SHORT $L85756
	cmp	esi, -2005401590			; 8878000aH
	jne	SHORT $L85772
; Line 183
	mov	eax, OFFSET FLAT:??_C@_0BA@IBDB@DSERR_ALLOCATED?$AA@ ; `string'
	jmp	$L85694
$L85756:
; Line 182
	mov	eax, OFFSET FLAT:??_C@_0BD@JMDM@DSERR_INVALIDPARAM?$AA@ ; `string'
	jmp	$L85694
$L85752:
; Line 181
	mov	eax, OFFSET FLAT:??_C@_0BC@GNO@DSERR_OUTOFMEMORY?$AA@ ; `string'
	jmp	$L85694
$L85748:
; Line 180
	mov	eax, OFFSET FLAT:??_C@_0BE@FNCP@DSERR_NOAGGREGATION?$AA@ ; `string'
	jmp	$L85694
$L85744:
; Line 179
	mov	eax, OFFSET FLAT:??_C@_0O@OKLN@E_NOINTERFACE?$AA@ ; `string'
	jmp	$L85694
$L85733:
; Line 177
	mov	eax, OFFSET FLAT:??_C@_05BNOC@DS_OK?$AA@ ; `string'
	jmp	SHORT $L85694
$L85770:
; Line 184
	mov	eax, OFFSET FLAT:??_C@_0BF@JADI@DSERR_CONTROLUNAVAIL?$AA@ ; `string'
	jmp	SHORT $L85694
$L86140:
; Line 171
	cmp	esi, -2005401550			; 88780032H
	je	SHORT $L85740
	cmp	esi, -2005401530			; 88780046H
	je	SHORT $L85702
	cmp	esi, -2005401500			; 88780064H
	je	SHORT $L85709
	cmp	esi, -2005401480			; 88780078H
	je	SHORT $L85716
	cmp	esi, -2005401470			; 88780082H
	je	SHORT $L85723
	cmp	esi, -2005401450			; 88780096H
	je	SHORT $L85730
$L85772:
; Line 186
	lea	eax, DWORD PTR _v4$[ebp]
	push	OFFSET FLAT:??_C@_0BD@JLDC@DSERR?5unknown?50x?$CFx?$AA@ ; `string'
	push	eax
	call	_strcpy
; Line 187
	lea	eax, DWORD PTR _v4$[ebp]
	push	esi
	push	eax
	push	edi
	call	_sprintf
	add	esp, 20					; 00000014H
; Line 188
	jmp	SHORT $L85690
$L85730:
; Line 176
	mov	eax, OFFSET FLAT:??_C@_0BB@MLJO@DSERR_BUFFERLOST?$AA@ ; `string'
	jmp	SHORT $L85694
$L85723:
; Line 175
	mov	eax, OFFSET FLAT:??_C@_0BJ@LHGI@DSERR_ALREADYINITIALIZED?$AA@ ; `string'
	jmp	SHORT $L85694
$L85716:
; Line 174
	mov	eax, OFFSET FLAT:??_C@_0P@JGOM@DSERR_NODRIVER?$AA@ ; `string'
	jmp	SHORT $L85694
$L85709:
; Line 173
	mov	eax, OFFSET FLAT:??_C@_0BA@JHO@DSERR_BADFORMAT?$AA@ ; `string'
	jmp	SHORT $L85694
$L85702:
; Line 172
	mov	eax, OFFSET FLAT:??_C@_0BG@MDBD@DSERR_PRIOLEVELNEEDED?$AA@ ; `string'
	jmp	SHORT $L85694
$L85740:
; Line 178
	mov	eax, OFFSET FLAT:??_C@_0BC@EJKJ@DSERR_INVALIDCALL?$AA@ ; `string'
$L85694:
; Line 190
	push	DWORD PTR _error_buf_len$[ebp]
	push	eax
	push	edi
	call	_strncpy
	add	esp, 12					; 0000000cH
$L85690:
	pop	edi
	pop	esi
; Line 191
	leave
	ret	4
@TraceErrorDS@12 ENDP
_TEXT	ENDS
PUBLIC	_TraceLastError
EXTRN	__imp__GetLastError@0:NEAR
; Function compile flags: /Ogsy
;	COMDAT _TraceLastError
_TEXT	SEGMENT
_TraceLastError PROC NEAR				; COMDAT
; Line 195
	call	DWORD PTR __imp__GetLastError@0
	mov	ecx, eax
	jmp	@GetErrorStr@4
_TraceLastError ENDP
_TEXT	ENDS
PUBLIC	_TermMsg
PUBLIC	@MsgBox@8
PUBLIC	_FreeDlg
EXTRN	@init_cleanup@4:NEAR
EXTRN	_exit:NEAR
; Function compile flags: /Ogsy
;	COMDAT _TermMsg
_TEXT	SEGMENT
_pszFmt$ = 8
_TermMsg PROC NEAR					; COMDAT
; Line 203
	call	_FreeDlg
; Line 205
	mov	ecx, DWORD PTR _pszFmt$[esp-4]
	test	ecx, ecx
	je	SHORT $L85782
; Line 206
	lea	edx, DWORD PTR _pszFmt$[esp]
	call	@MsgBox@8
$L85782:
; Line 210
	xor	ecx, ecx
	call	@init_cleanup@4
; Line 211
	push	1
	call	_exit
$L86148:
$L86147:
_TermMsg ENDP
_TEXT	ENDS
PUBLIC	??_C@_05EFDD@ERROR?$AA@				; `string'
EXTRN	__imp__wvsprintfA@12:NEAR
EXTRN	__imp__SetWindowPos@28:NEAR
EXTRN	_ghMainWnd:DWORD
EXTRN	__imp__MessageBoxA@16:NEAR
;	COMDAT ??_C@_05EFDD@ERROR?$AA@
_DATA	SEGMENT
??_C@_05EFDD@ERROR?$AA@ DB 'ERROR', 00H			; `string'
; Function compile flags: /Ogsy
_DATA	ENDS
;	COMDAT @MsgBox@8
_TEXT	SEGMENT
_Text$ = -256
@MsgBox@8 PROC NEAR					; COMDAT
; _pszFmt$ = ecx
; _va$ = edx
; Line 215
	push	ebp
	mov	ebp, esp
	sub	esp, 256				; 00000100H
; Line 218
	push	edx
	lea	eax, DWORD PTR _Text$[ebp]
	push	ecx
	push	eax
	call	DWORD PTR __imp__wvsprintfA@12
; Line 219
	mov	ecx, DWORD PTR _ghMainWnd
	xor	eax, eax
	cmp	ecx, eax
	je	SHORT $L85790
; Line 220
	push	19					; 00000013H
	push	eax
	push	eax
	push	eax
	push	eax
	push	-2					; fffffffeH
	push	ecx
	call	DWORD PTR __imp__SetWindowPos@28
$L85790:
; Line 221
	push	8208					; 00002010H
	lea	eax, DWORD PTR _Text$[ebp]
	push	OFFSET FLAT:??_C@_05EFDD@ERROR?$AA@	; `string'
	push	eax
	push	DWORD PTR _ghMainWnd
	call	DWORD PTR __imp__MessageBoxA@16
; Line 222
	leave
	ret	0
@MsgBox@8 ENDP
_TEXT	ENDS
EXTRN	_SNetDestroy@0:NEAR
EXTRN	__imp__GetCurrentThreadId@0:NEAR
EXTRN	_dx_cleanup:NEAR
EXTRN	_SNetLeaveGame@4:NEAR
EXTRN	__imp__Sleep@4:NEAR
EXTRN	_gbMaxPlayers:BYTE
EXTRN	__imp__ShowCursor@4:NEAR
; Function compile flags: /Ogsy
;	COMDAT _FreeDlg
_TEXT	SEGMENT
_FreeDlg PROC NEAR					; COMDAT
; Line 226
	cmp	DWORD PTR _terminating, 0
	push	esi
	mov	esi, DWORD PTR __imp__GetCurrentThreadId@0
	push	edi
	mov	edi, DWORD PTR __imp__Sleep@4
	je	SHORT $L85794
	call	esi
	cmp	DWORD PTR _cleanup_thread_id, eax
	je	SHORT $L85794
; Line 227
	push	20000					; 00004e20H
	call	edi
$L85794:
; Line 229
	mov	DWORD PTR _terminating, 1
; Line 230
	call	esi
	mov	DWORD PTR _cleanup_thread_id, eax
; Line 232
	call	_dx_cleanup
; Line 234
	cmp	BYTE PTR _gbMaxPlayers, 1
	jbe	SHORT $L85796
; Line 235
	push	3
	call	_SNetLeaveGame@4
	test	eax, eax
	je	SHORT $L85796
; Line 236
	push	2000					; 000007d0H
	call	edi
$L85796:
; Line 239
	call	_SNetDestroy@0
; Line 240
	push	1
	call	DWORD PTR __imp__ShowCursor@4
	pop	edi
	pop	esi
; Line 241
	ret	0
_FreeDlg ENDP
_TEXT	ENDS
PUBLIC	??_C@_06EMML@Diablo?$AA@			; `string'
PUBLIC	_DrawDlg
EXTRN	_SDrawMessageBox@12:NEAR
;	COMDAT ??_C@_06EMML@Diablo?$AA@
_DATA	SEGMENT
??_C@_06EMML@Diablo?$AA@ DB 'Diablo', 00H		; `string'
; Function compile flags: /Ogsy
_DATA	ENDS
;	COMDAT _DrawDlg
_TEXT	SEGMENT
_pszFmt$ = 8
_text$ = -256
_DrawDlg PROC NEAR					; COMDAT
; Line 244
	push	ebp
	mov	ebp, esp
	sub	esp, 256				; 00000100H
; Line 249
	lea	eax, DWORD PTR _pszFmt$[ebp+4]
	push	eax
	lea	eax, DWORD PTR _text$[ebp]
	push	DWORD PTR _pszFmt$[ebp]
	push	eax
	call	DWORD PTR __imp__wvsprintfA@12
; Line 251
	push	8240					; 00002030H
	lea	eax, DWORD PTR _text$[ebp]
	push	OFFSET FLAT:??_C@_06EMML@Diablo?$AA@	; `string'
	push	eax
	call	_SDrawMessageBox@12
; Line 252
	leave
	ret	0
_DrawDlg ENDP
_TEXT	ENDS
PUBLIC	??_C@_0BN@IGJA@Direct?5draw?5error?5?$CI?$CFs?3?$CFd?$CJ?6?$CFs?$AA@ ; `string'
PUBLIC	@DDErrMsg@12
;	COMDAT ??_C@_0BN@IGJA@Direct?5draw?5error?5?$CI?$CFs?3?$CFd?$CJ?6?$CFs?$AA@
_DATA	SEGMENT
??_C@_0BN@IGJA@Direct?5draw?5error?5?$CI?$CFs?3?$CFd?$CJ?6?$CFs?$AA@ DB 'D'
	DB	'irect draw error (%s:%d)', 0aH, '%s', 00H	; `string'
; Function compile flags: /Ogsy
_DATA	ENDS
;	COMDAT @DDErrMsg@12
_TEXT	SEGMENT
_log_file_path$ = 8
@DDErrMsg@12 PROC NEAR					; COMDAT
; _error_code$ = ecx
; _log_line_nr$ = edx
; Line 255
	push	esi
	mov	esi, edx
; Line 258
	test	ecx, ecx
	je	SHORT $L85815
; Line 259
	call	@GetErrorStr@4
; Line 260
	push	eax
	push	esi
	push	DWORD PTR _log_file_path$[esp+8]
	push	OFFSET FLAT:??_C@_0BN@IGJA@Direct?5draw?5error?5?$CI?$CFs?3?$CFd?$CJ?6?$CFs?$AA@ ; `string'
	call	_TermMsg
	add	esp, 16					; 00000010H
$L85815:
	pop	esi
; Line 262
	ret	4
@DDErrMsg@12 ENDP
_TEXT	ENDS
PUBLIC	??_C@_0BO@NPAA@Direct?5sound?5error?5?$CI?$CFs?3?$CFd?$CJ?6?$CFs?$AA@ ; `string'
PUBLIC	@DSErrMsg@12
;	COMDAT ??_C@_0BO@NPAA@Direct?5sound?5error?5?$CI?$CFs?3?$CFd?$CJ?6?$CFs?$AA@
_DATA	SEGMENT
??_C@_0BO@NPAA@Direct?5sound?5error?5?$CI?$CFs?3?$CFd?$CJ?6?$CFs?$AA@ DB 'D'
	DB	'irect sound error (%s:%d)', 0aH, '%s', 00H	; `string'
; Function compile flags: /Ogsy
_DATA	ENDS
;	COMDAT @DSErrMsg@12
_TEXT	SEGMENT
_log_file_path$ = 8
@DSErrMsg@12 PROC NEAR					; COMDAT
; _error_code$ = ecx
; _log_line_nr$ = edx
; Line 265
	push	esi
	mov	esi, edx
; Line 268
	test	ecx, ecx
	je	SHORT $L85825
; Line 269
	call	@GetErrorStr@4
; Line 270
	push	eax
	push	esi
	push	DWORD PTR _log_file_path$[esp+8]
	push	OFFSET FLAT:??_C@_0BO@NPAA@Direct?5sound?5error?5?$CI?$CFs?3?$CFd?$CJ?6?$CFs?$AA@ ; `string'
	call	_TermMsg
	add	esp, 16					; 00000010H
$L85825:
	pop	esi
; Line 272
	ret	4
@DSErrMsg@12 ENDP
_TEXT	ENDS
PUBLIC	??_C@_0BC@JJHE@center_window?3?5?$CFs?$AA@	; `string'
PUBLIC	@center_window@4
EXTRN	__imp__GetDeviceCaps@8:NEAR
EXTRN	__imp__GetDC@4:NEAR
EXTRN	__imp__ReleaseDC@8:NEAR
EXTRN	__imp__GetWindowRect@8:NEAR
;	COMDAT ??_C@_0BC@JJHE@center_window?3?5?$CFs?$AA@
_DATA	SEGMENT
??_C@_0BC@JJHE@center_window?3?5?$CFs?$AA@ DB 'center_window: %s', 00H ; `string'
; Function compile flags: /Ogsy
_DATA	ENDS
;	COMDAT @center_window@4
_TEXT	SEGMENT
_hDlg$ = -4
_screenW$ = -12
_Rect$ = -28
_hdc$ = -8
@center_window@4 PROC NEAR				; COMDAT
; _hDlg$ = ecx
; Line 275
	push	ebp
	mov	ebp, esp
	sub	esp, 28					; 0000001cH
	push	ebx
	push	esi
; Line 281
	lea	eax, DWORD PTR _Rect$[ebp]
	push	edi
	push	eax
	push	ecx
	mov	DWORD PTR _hDlg$[ebp], ecx
	call	DWORD PTR __imp__GetWindowRect@8
; Line 282
	mov	esi, DWORD PTR _Rect$[ebp+8]
; Line 283
	mov	edi, DWORD PTR _Rect$[ebp+12]
; Line 284
	push	DWORD PTR _hDlg$[ebp]
	sub	esi, DWORD PTR _Rect$[ebp]
	sub	edi, DWORD PTR _Rect$[ebp+4]
	call	DWORD PTR __imp__GetDC@4
; Line 285
	mov	ebx, DWORD PTR __imp__GetDeviceCaps@8
	mov	DWORD PTR _hdc$[ebp], eax
	push	8
	push	eax
	call	ebx
	mov	DWORD PTR _screenW$[ebp], eax
; Line 286
	push	10					; 0000000aH
	push	DWORD PTR _hdc$[ebp]
	call	ebx
	mov	ebx, eax
; Line 287
	push	DWORD PTR _hdc$[ebp]
	push	DWORD PTR _hDlg$[ebp]
	call	DWORD PTR __imp__ReleaseDC@8
; Line 289
	mov	eax, ebx
	xor	ecx, ecx
	sub	eax, edi
	push	5
	cdq
	sub	eax, edx
	push	ecx
	sar	eax, 1
	push	ecx
	push	eax
	mov	eax, DWORD PTR _screenW$[ebp]
	sub	eax, esi
	cdq
	sub	eax, edx
	sar	eax, 1
	push	eax
	push	ecx
	push	DWORD PTR _hDlg$[ebp]
	call	DWORD PTR __imp__SetWindowPos@28
	test	eax, eax
	pop	edi
	pop	esi
	pop	ebx
	jne	SHORT $L85837
; Line 290
	call	_TraceLastError
	push	eax
	push	OFFSET FLAT:??_C@_0BC@JJHE@center_window?3?5?$CFs?$AA@ ; `string'
	call	_TermMsg
	pop	ecx
	pop	ecx
$L85837:
; Line 292
	leave
	ret	0
@center_window@4 ENDP
_TEXT	ENDS
PUBLIC	??_C@_0BC@LGOG@?$CFs?6at?3?5?$CFs?5line?5?$CFd?$AA@ ; `string'
PUBLIC	??_C@_0L@GLJM@ErrDlg?3?5?$CFd?$AA@		; `string'
PUBLIC	@ErrDlg@16
PUBLIC	_FuncDlg@16
EXTRN	_strrchr:NEAR
EXTRN	_ghInst:DWORD
EXTRN	__imp__DialogBoxParamA@20:NEAR
;	COMDAT ??_C@_0BC@LGOG@?$CFs?6at?3?5?$CFs?5line?5?$CFd?$AA@
_DATA	SEGMENT
??_C@_0BC@LGOG@?$CFs?6at?3?5?$CFs?5line?5?$CFd?$AA@ DB '%s', 0aH, 'at: %s'
	DB	' line %d', 00H				; `string'
_DATA	ENDS
;	COMDAT ??_C@_0L@GLJM@ErrDlg?3?5?$CFd?$AA@
_DATA	SEGMENT
??_C@_0L@GLJM@ErrDlg?3?5?$CFd?$AA@ DB 'ErrDlg: %d', 00H	; `string'
; Function compile flags: /Ogsy
_DATA	ENDS
;	COMDAT @ErrDlg@16
_TEXT	SEGMENT
_log_file_path$ = 8
_log_line_nr$ = 12
_dwInitParam$ = -512
@ErrDlg@16 PROC NEAR					; COMDAT
; _template_id$ = ecx
; _error_code$ = edx
; Line 295
	push	ebp
	mov	ebp, esp
	sub	esp, 512				; 00000200H
	push	ebx
	push	esi
	push	edi
	mov	ebx, edx
	mov	edi, ecx
; Line 299
	call	_FreeDlg
; Line 301
	mov	esi, DWORD PTR _log_file_path$[ebp]
	push	92					; 0000005cH
	push	esi
	call	_strrchr
	pop	ecx
; Line 302
	test	eax, eax
	pop	ecx
	je	SHORT $L85850
; Line 303
	lea	esi, DWORD PTR [eax+1]
$L85850:
; Line 305
	push	DWORD PTR _log_line_nr$[ebp]
	mov	ecx, ebx
	push	esi
	call	@GetErrorStr@4
	push	eax
	lea	eax, DWORD PTR _dwInitParam$[ebp]
	push	OFFSET FLAT:??_C@_0BC@LGOG@?$CFs?6at?3?5?$CFs?5line?5?$CFd?$AA@ ; `string'
	push	eax
	call	DWORD PTR __imp__wsprintfA
	add	esp, 20					; 00000014H
; Line 306
	lea	eax, DWORD PTR _dwInitParam$[ebp]
	push	eax
	push	OFFSET FLAT:_FuncDlg@16
	push	DWORD PTR _ghMainWnd
	movzx	eax, di
	push	eax
	push	DWORD PTR _ghInst
	call	DWORD PTR __imp__DialogBoxParamA@20
	cmp	eax, -1
	jne	SHORT $L85858
; Line 307
	push	edi
	push	OFFSET FLAT:??_C@_0L@GLJM@ErrDlg?3?5?$CFd?$AA@ ; `string'
	call	_TermMsg
	pop	ecx
	pop	ecx
$L85858:
; Line 309
	push	0
	call	_TermMsg
	pop	ecx
	pop	edi
	pop	esi
	pop	ebx
; Line 310
	leave
	ret	8
@ErrDlg@16 ENDP
_TEXT	ENDS
PUBLIC	@TextDlg@8
EXTRN	__imp__EndDialog@8:NEAR
; Function compile flags: /Ogsy
;	COMDAT _FuncDlg@16
_TEXT	SEGMENT
_hDlg$ = 8
_uMsg$ = 12
_wParam$ = 16
_text$ = 20
_FuncDlg@16 PROC NEAR					; COMDAT
; Line 313
	push	ebp
	mov	ebp, esp
; Line 314
	mov	eax, DWORD PTR _uMsg$[ebp]
	sub	eax, 272				; 00000110H
	je	SHORT $L85874
	dec	eax
	je	SHORT $L85875
; Line 326
	xor	eax, eax
	jmp	SHORT $L85869
$L85875:
; Line 319
	cmp	WORD PTR _wParam$[ebp], 1
	jne	SHORT $L85877
; Line 320
	push	1
$L86169:
	push	DWORD PTR _hDlg$[ebp]
	call	DWORD PTR __imp__EndDialog@8
; Line 321
	jmp	SHORT $L85871
$L85877:
	cmp	WORD PTR _wParam$[ebp], 2
	jne	SHORT $L85871
; Line 322
	push	0
; Line 324
	jmp	SHORT $L86169
$L85874:
; Line 316
	mov	edx, DWORD PTR _text$[ebp]
	mov	ecx, DWORD PTR _hDlg$[ebp]
	call	@TextDlg@8
$L85871:
; Line 329
	xor	eax, eax
	inc	eax
$L85869:
; Line 330
	pop	ebp
	ret	16					; 00000010H
_FuncDlg@16 ENDP
_TEXT	ENDS
EXTRN	__imp__SetDlgItemTextA@12:NEAR
; Function compile flags: /Ogsy
;	COMDAT @TextDlg@8
_TEXT	SEGMENT
@TextDlg@8 PROC NEAR					; COMDAT
; _hDlg$ = ecx
; _text$ = edx
; Line 333
	push	esi
	push	edi
	mov	esi, edx
	mov	edi, ecx
; Line 334
	call	@center_window@4
; Line 336
	test	esi, esi
	je	SHORT $L85887
; Line 337
	push	esi
	push	1000					; 000003e8H
	push	edi
	call	DWORD PTR __imp__SetDlgItemTextA@12
$L85887:
	pop	edi
	pop	esi
; Line 338
	ret	0
@TextDlg@8 ENDP
_TEXT	ENDS
PUBLIC	@ErrOkDlg@16
; Function compile flags: /Ogsy
;	COMDAT @ErrOkDlg@16
_TEXT	SEGMENT
_log_file_path$ = 8
_log_line_nr$ = 12
_dwInitParam$ = -512
@ErrOkDlg@16 PROC NEAR					; COMDAT
; _template_id$ = ecx
; _error_code$ = edx
; Line 341
	push	ebp
	mov	ebp, esp
	sub	esp, 512				; 00000200H
	push	ebx
	push	esi
; Line 345
	mov	esi, DWORD PTR _log_file_path$[ebp]
	push	edi
	push	92					; 0000005cH
	push	esi
	mov	edi, edx
	mov	ebx, ecx
	call	_strrchr
	pop	ecx
; Line 346
	test	eax, eax
	pop	ecx
	je	SHORT $L85899
; Line 347
	lea	esi, DWORD PTR [eax+1]
$L85899:
; Line 349
	push	DWORD PTR _log_line_nr$[ebp]
	mov	ecx, edi
	push	esi
	call	@GetErrorStr@4
	push	eax
	lea	eax, DWORD PTR _dwInitParam$[ebp]
	push	OFFSET FLAT:??_C@_0BC@LGOG@?$CFs?6at?3?5?$CFs?5line?5?$CFd?$AA@ ; `string'
	push	eax
	call	DWORD PTR __imp__wsprintfA
	add	esp, 20					; 00000014H
; Line 350
	lea	eax, DWORD PTR _dwInitParam$[ebp]
	push	eax
	push	OFFSET FLAT:_FuncDlg@16
	push	DWORD PTR _ghMainWnd
	movzx	eax, bx
	push	eax
	push	DWORD PTR _ghInst
	call	DWORD PTR __imp__DialogBoxParamA@20
	pop	edi
	pop	esi
	pop	ebx
; Line 351
	leave
	ret	8
@ErrOkDlg@16 ENDP
_TEXT	ENDS
PUBLIC	??_C@_00A@?$AA@					; `string'
PUBLIC	??_C@_0L@KNAI@FileErrDlg?$AA@			; `string'
PUBLIC	@FileErrDlg@4
;	COMDAT ??_C@_00A@?$AA@
_BSS	SEGMENT
??_C@_00A@?$AA@ DB 01H DUP (?)				; `string'
_BSS	ENDS
;	COMDAT ??_C@_0L@KNAI@FileErrDlg?$AA@
_DATA	SEGMENT
??_C@_0L@KNAI@FileErrDlg?$AA@ DB 'FileErrDlg', 00H	; `string'
; Function compile flags: /Ogsy
_DATA	ENDS
;	COMDAT @FileErrDlg@4
_TEXT	SEGMENT
@FileErrDlg@4 PROC NEAR					; COMDAT
; _error$ = ecx
; Line 354
	push	esi
	mov	esi, ecx
; Line 355
	call	_FreeDlg
; Line 357
	test	esi, esi
	jne	SHORT $L85909
; Line 358
	mov	esi, OFFSET FLAT:??_C@_00A@?$AA@	; `string'
$L85909:
; Line 360
	push	esi
	push	OFFSET FLAT:_FuncDlg@16
	push	DWORD PTR _ghMainWnd
	push	106					; 0000006aH
	push	DWORD PTR _ghInst
	call	DWORD PTR __imp__DialogBoxParamA@20
	cmp	eax, -1
	pop	esi
	jne	SHORT $L85916
; Line 361
	push	OFFSET FLAT:??_C@_0L@KNAI@FileErrDlg?$AA@ ; `string'
	call	_TermMsg
	pop	ecx
$L85916:
; Line 363
	push	0
	call	_TermMsg
	pop	ecx
; Line 364
	ret	0
@FileErrDlg@4 ENDP
_TEXT	ENDS
PUBLIC	??_C@_0M@KNBF@DiskFreeDlg?$AA@			; `string'
PUBLIC	@DiskFreeDlg@4
;	COMDAT ??_C@_0M@KNBF@DiskFreeDlg?$AA@
_DATA	SEGMENT
??_C@_0M@KNBF@DiskFreeDlg?$AA@ DB 'DiskFreeDlg', 00H	; `string'
; Function compile flags: /Ogsy
_DATA	ENDS
;	COMDAT @DiskFreeDlg@4
_TEXT	SEGMENT
@DiskFreeDlg@4 PROC NEAR				; COMDAT
; _error$ = ecx
; Line 367
	push	esi
	mov	esi, ecx
; Line 368
	call	_FreeDlg
; Line 370
	push	esi
	push	OFFSET FLAT:_FuncDlg@16
	push	DWORD PTR _ghMainWnd
	push	110					; 0000006eH
	push	DWORD PTR _ghInst
	call	DWORD PTR __imp__DialogBoxParamA@20
	cmp	eax, -1
	pop	esi
	jne	SHORT $L85927
; Line 371
	push	OFFSET FLAT:??_C@_0M@KNBF@DiskFreeDlg?$AA@ ; `string'
	call	_TermMsg
	pop	ecx
$L85927:
; Line 373
	push	0
	call	_TermMsg
	pop	ecx
; Line 374
	ret	0
@DiskFreeDlg@4 ENDP
_TEXT	ENDS
PUBLIC	??_C@_0M@FABK@InsertCDDlg?$AA@			; `string'
PUBLIC	_InsertCDDlg
;	COMDAT ??_C@_0M@FABK@InsertCDDlg?$AA@
_DATA	SEGMENT
??_C@_0M@FABK@InsertCDDlg?$AA@ DB 'InsertCDDlg', 00H	; `string'
; Function compile flags: /Ogsy
_DATA	ENDS
;	COMDAT _InsertCDDlg
_TEXT	SEGMENT
_InsertCDDlg PROC NEAR					; COMDAT
; Line 377
	push	esi
; Line 380
	mov	esi, DWORD PTR __imp__ShowCursor@4
	push	edi
	push	1
	call	esi
; Line 382
	push	OFFSET FLAT:??_C@_00A@?$AA@		; `string'
	push	OFFSET FLAT:_FuncDlg@16
	push	DWORD PTR _ghMainWnd
	push	112					; 00000070H
	push	DWORD PTR _ghInst
	call	DWORD PTR __imp__DialogBoxParamA@20
	mov	edi, eax
; Line 383
	cmp	edi, -1
	jne	SHORT $L85937
; Line 384
	push	OFFSET FLAT:??_C@_0M@FABK@InsertCDDlg?$AA@ ; `string'
	call	_TermMsg
	pop	ecx
$L85937:
; Line 386
	push	0
	call	esi
; Line 388
	xor	eax, eax
	cmp	edi, 1
	pop	edi
	pop	esi
	sete	al
; Line 389
	ret	0
_InsertCDDlg ENDP
_TEXT	ENDS
PUBLIC	??_C@_0M@PEFL@DirErrorDlg?$AA@			; `string'
PUBLIC	@DirErrorDlg@4
;	COMDAT ??_C@_0M@PEFL@DirErrorDlg?$AA@
_DATA	SEGMENT
??_C@_0M@PEFL@DirErrorDlg?$AA@ DB 'DirErrorDlg', 00H	; `string'
; Function compile flags: /Ogsy
_DATA	ENDS
;	COMDAT @DirErrorDlg@4
_TEXT	SEGMENT
@DirErrorDlg@4 PROC NEAR				; COMDAT
; _error$ = ecx
; Line 392
	push	esi
	mov	esi, ecx
; Line 393
	call	_FreeDlg
; Line 395
	push	esi
	push	OFFSET FLAT:_FuncDlg@16
	push	DWORD PTR _ghMainWnd
	push	114					; 00000072H
	push	DWORD PTR _ghInst
	call	DWORD PTR __imp__DialogBoxParamA@20
	cmp	eax, -1
	pop	esi
	jne	SHORT $L85947
; Line 396
	push	OFFSET FLAT:??_C@_0M@PEFL@DirErrorDlg?$AA@ ; `string'
	call	_TermMsg
	pop	ecx
$L85947:
; Line 398
	push	0
	call	_TermMsg
	pop	ecx
; Line 399
	ret	0
@DirErrorDlg@4 ENDP
_TEXT	ENDS
END
