; Listing generated by Microsoft (R) Optimizing Compiler Version 12.00.9044.0 

	TITLE	Source/effects.cpp
	.386P
include listing.inc
if @Version gt 510
.model FLAT
else
_TEXT	SEGMENT PARA USE32 PUBLIC 'CODE'
_TEXT	ENDS
_DATA	SEGMENT DWORD USE32 PUBLIC 'DATA'
_DATA	ENDS
CONST	SEGMENT DWORD USE32 PUBLIC 'CONST'
CONST	ENDS
_BSS	SEGMENT DWORD USE32 PUBLIC 'BSS'
_BSS	ENDS
$$SYMBOLS	SEGMENT BYTE USE32 'DEBSYM'
$$SYMBOLS	ENDS
$$TYPES	SEGMENT BYTE USE32 'DEBTYP'
$$TYPES	ENDS
_TLS	SEGMENT DWORD USE32 PUBLIC 'TLS'
_TLS	ENDS
;	COMDAT ??_C@_0BD@HLNG@Sfx?2Misc?2Walk1?4wav?$AA@
_DATA	SEGMENT DWORD USE32 PUBLIC 'DATA'
_DATA	ENDS
;	COMDAT ??_C@_0BD@JLLJ@Sfx?2Misc?2Walk2?4wav?$AA@
_DATA	SEGMENT DWORD USE32 PUBLIC 'DATA'
_DATA	ENDS
;	COMDAT ??_C@_0BD@DLJM@Sfx?2Misc?2Walk3?4wav?$AA@
_DATA	SEGMENT DWORD USE32 PUBLIC 'DATA'
_DATA	ENDS
;	COMDAT ??_C@_0BD@FLGG@Sfx?2Misc?2Walk4?4wav?$AA@
_DATA	SEGMENT DWORD USE32 PUBLIC 'DATA'
_DATA	ENDS
;	COMDAT ??_C@_0BD@BEND@Sfx?2Misc?2BFire?4wav?$AA@
_DATA	SEGMENT DWORD USE32 PUBLIC 'DATA'
_DATA	ENDS
;	COMDAT ??_C@_0BC@BNBJ@Sfx?2Misc?2Fmag?4wav?$AA@
_DATA	SEGMENT DWORD USE32 PUBLIC 'DATA'
_DATA	ENDS
;	COMDAT ??_C@_0BC@PKN@Sfx?2Misc?2Tmag?4wav?$AA@
_DATA	SEGMENT DWORD USE32 PUBLIC 'DATA'
_DATA	ENDS
;	COMDAT ??_C@_0BD@DNI@Sfx?2Misc?2Lghit?4wav?$AA@
_DATA	SEGMENT DWORD USE32 PUBLIC 'DATA'
_DATA	ENDS
;	COMDAT ??_C@_0BE@HDCD@Sfx?2Misc?2Lghit1?4wav?$AA@
_DATA	SEGMENT DWORD USE32 PUBLIC 'DATA'
_DATA	ENDS
;	COMDAT ??_C@_0BD@NMMF@Sfx?2Misc?2Swing?4wav?$AA@
_DATA	SEGMENT DWORD USE32 PUBLIC 'DATA'
_DATA	ENDS
;	COMDAT ??_C@_0BE@PPJD@Sfx?2Misc?2Swing2?4wav?$AA@
_DATA	SEGMENT DWORD USE32 PUBLIC 'DATA'
_DATA	ENDS
;	COMDAT ??_C@_0BC@BJIG@Sfx?2Misc?2Dead?4wav?$AA@
_DATA	SEGMENT DWORD USE32 PUBLIC 'DATA'
_DATA	ENDS
;	COMDAT ??_C@_0BG@PKD@Sfx?2Misc?2Questdon?4wav?$AA@
_DATA	SEGMENT DWORD USE32 PUBLIC 'DATA'
_DATA	ENDS
;	COMDAT ??_C@_0BG@OJLD@Sfx?2Items?2Armrfkd?4wav?$AA@
_DATA	SEGMENT DWORD USE32 PUBLIC 'DATA'
_DATA	ENDS
;	COMDAT ??_C@_0BH@PHON@Sfx?2Items?2Barlfire?4wav?$AA@
_DATA	SEGMENT DWORD USE32 PUBLIC 'DATA'
_DATA	ENDS
;	COMDAT ??_C@_0BF@DFOJ@Sfx?2Items?2Barrel?4wav?$AA@
_DATA	SEGMENT DWORD USE32 PUBLIC 'DATA'
_DATA	ENDS
;	COMDAT ??_C@_0BD@PCKP@Sfx?2Items?2Bhit?4wav?$AA@
_DATA	SEGMENT DWORD USE32 PUBLIC 'DATA'
_DATA	ENDS
;	COMDAT ??_C@_0BE@EDNC@Sfx?2Items?2Bhit1?4wav?$AA@
_DATA	SEGMENT DWORD USE32 PUBLIC 'DATA'
_DATA	ENDS
;	COMDAT ??_C@_0BE@IOOF@Sfx?2Items?2Chest?4wav?$AA@
_DATA	SEGMENT DWORD USE32 PUBLIC 'DATA'
_DATA	ENDS
;	COMDAT ??_C@_0BH@DDLM@Sfx?2Items?2Doorclos?4wav?$AA@
_DATA	SEGMENT DWORD USE32 PUBLIC 'DATA'
_DATA	ENDS
;	COMDAT ??_C@_0BH@NAFN@Sfx?2Items?2Dooropen?4wav?$AA@
_DATA	SEGMENT DWORD USE32 PUBLIC 'DATA'
_DATA	ENDS
;	COMDAT ??_C@_0BH@LPLE@Sfx?2Items?2Flipanvl?4wav?$AA@
_DATA	SEGMENT DWORD USE32 PUBLIC 'DATA'
_DATA	ENDS
;	COMDAT ??_C@_0BG@MKPF@Sfx?2Items?2Flipaxe?4wav?$AA@
_DATA	SEGMENT DWORD USE32 PUBLIC 'DATA'
_DATA	ENDS
;	COMDAT ??_C@_0BH@PKLD@Sfx?2Items?2Flipblst?4wav?$AA@
_DATA	SEGMENT DWORD USE32 PUBLIC 'DATA'
_DATA	ENDS
;	COMDAT ??_C@_0BH@BKPF@Sfx?2Items?2Flipbody?4wav?$AA@
_DATA	SEGMENT DWORD USE32 PUBLIC 'DATA'
_DATA	ENDS
;	COMDAT ??_C@_0BH@ELAL@Sfx?2Items?2Flipbook?4wav?$AA@
_DATA	SEGMENT DWORD USE32 PUBLIC 'DATA'
_DATA	ENDS
;	COMDAT ??_C@_0BG@EJDG@Sfx?2Items?2Flipbow?4wav?$AA@
_DATA	SEGMENT DWORD USE32 PUBLIC 'DATA'
_DATA	ENDS
;	COMDAT ??_C@_0BG@NHJI@Sfx?2Items?2Flipcap?4wav?$AA@
_DATA	SEGMENT DWORD USE32 PUBLIC 'DATA'
_DATA	ENDS
;	COMDAT ??_C@_0BH@PNAO@Sfx?2Items?2Flipharm?4wav?$AA@
_DATA	SEGMENT DWORD USE32 PUBLIC 'DATA'
_DATA	ENDS
;	COMDAT ??_C@_0BH@NNLE@Sfx?2Items?2Fliplarm?4wav?$AA@
_DATA	SEGMENT DWORD USE32 PUBLIC 'DATA'
_DATA	ENDS
;	COMDAT ??_C@_0BG@CGOH@Sfx?2Items?2Flipmag?4wav?$AA@
_DATA	SEGMENT DWORD USE32 PUBLIC 'DATA'
_DATA	ENDS
;	COMDAT ??_C@_0BH@IGAG@Sfx?2Items?2Flipmag1?4wav?$AA@
_DATA	SEGMENT DWORD USE32 PUBLIC 'DATA'
_DATA	ENDS
;	COMDAT ??_C@_0BH@HDIG@Sfx?2Items?2Flipmush?4wav?$AA@
_DATA	SEGMENT DWORD USE32 PUBLIC 'DATA'
_DATA	ENDS
;	COMDAT ??_C@_0BG@BNCI@Sfx?2Items?2Flippot?4wav?$AA@
_DATA	SEGMENT DWORD USE32 PUBLIC 'DATA'
_DATA	ENDS
;	COMDAT ??_C@_0BH@DKIA@Sfx?2Items?2Flipring?4wav?$AA@
_DATA	SEGMENT DWORD USE32 PUBLIC 'DATA'
_DATA	ENDS
;	COMDAT ??_C@_0BH@DCGD@Sfx?2Items?2Fliprock?4wav?$AA@
_DATA	SEGMENT DWORD USE32 PUBLIC 'DATA'
_DATA	ENDS
;	COMDAT ??_C@_0BH@BLOO@Sfx?2Items?2Flipscrl?4wav?$AA@
_DATA	SEGMENT DWORD USE32 PUBLIC 'DATA'
_DATA	ENDS
;	COMDAT ??_C@_0BH@JHBE@Sfx?2Items?2Flipshld?4wav?$AA@
_DATA	SEGMENT DWORD USE32 PUBLIC 'DATA'
_DATA	ENDS
;	COMDAT ??_C@_0BH@OLAA@Sfx?2Items?2Flipsign?4wav?$AA@
_DATA	SEGMENT DWORD USE32 PUBLIC 'DATA'
_DATA	ENDS
;	COMDAT ??_C@_0BH@JONO@Sfx?2Items?2Flipstaf?4wav?$AA@
_DATA	SEGMENT DWORD USE32 PUBLIC 'DATA'
_DATA	ENDS
;	COMDAT ??_C@_0BH@LPGB@Sfx?2Items?2Flipswor?4wav?$AA@
_DATA	SEGMENT DWORD USE32 PUBLIC 'DATA'
_DATA	ENDS
;	COMDAT ??_C@_0BD@JCKG@Sfx?2Items?2Gold?4wav?$AA@
_DATA	SEGMENT DWORD USE32 PUBLIC 'DATA'
_DATA	ENDS
;	COMDAT ??_C@_0BG@EFBO@Sfx?2Items?2Hlmtfkd?4wav?$AA@
_DATA	SEGMENT DWORD USE32 PUBLIC 'DATA'
_DATA	ENDS
;	COMDAT ??_C@_0BG@GLNH@Sfx?2Items?2Invanvl?4wav?$AA@
_DATA	SEGMENT DWORD USE32 PUBLIC 'DATA'
_DATA	ENDS
;	COMDAT ??_C@_0BF@KJHG@Sfx?2Items?2Invaxe?4wav?$AA@
_DATA	SEGMENT DWORD USE32 PUBLIC 'DATA'
_DATA	ENDS
;	COMDAT ??_C@_0BG@CONA@Sfx?2Items?2Invblst?4wav?$AA@
_DATA	SEGMENT DWORD USE32 PUBLIC 'DATA'
_DATA	ENDS
;	COMDAT ??_C@_0BG@MOJG@Sfx?2Items?2Invbody?4wav?$AA@
_DATA	SEGMENT DWORD USE32 PUBLIC 'DATA'
_DATA	ENDS
;	COMDAT ??_C@_0BG@JPGI@Sfx?2Items?2Invbook?4wav?$AA@
_DATA	SEGMENT DWORD USE32 PUBLIC 'DATA'
_DATA	ENDS
;	COMDAT ??_C@_0BF@CKLF@Sfx?2Items?2Invbow?4wav?$AA@
_DATA	SEGMENT DWORD USE32 PUBLIC 'DATA'
_DATA	ENDS
;	COMDAT ??_C@_0BF@LEBL@Sfx?2Items?2Invcap?4wav?$AA@
_DATA	SEGMENT DWORD USE32 PUBLIC 'DATA'
_DATA	ENDS
;	COMDAT ??_C@_0BG@IPAG@Sfx?2Items?2Invgrab?4wav?$AA@
_DATA	SEGMENT DWORD USE32 PUBLIC 'DATA'
_DATA	ENDS
;	COMDAT ??_C@_0BG@CJGN@Sfx?2Items?2Invharm?4wav?$AA@
_DATA	SEGMENT DWORD USE32 PUBLIC 'DATA'
_DATA	ENDS
;	COMDAT ??_C@_0BG@JNH@Sfx?2Items?2Invlarm?4wav?$AA@
_DATA	SEGMENT DWORD USE32 PUBLIC 'DATA'
_DATA	ENDS
;	COMDAT ??_C@_0BG@KHOF@Sfx?2Items?2Invmush?4wav?$AA@
_DATA	SEGMENT DWORD USE32 PUBLIC 'DATA'
_DATA	ENDS
;	COMDAT ??_C@_0BF@HOKL@Sfx?2Items?2Invpot?4wav?$AA@
_DATA	SEGMENT DWORD USE32 PUBLIC 'DATA'
_DATA	ENDS
;	COMDAT ??_C@_0BG@OOOD@Sfx?2Items?2Invring?4wav?$AA@
_DATA	SEGMENT DWORD USE32 PUBLIC 'DATA'
_DATA	ENDS
;	COMDAT ??_C@_0BG@OGAA@Sfx?2Items?2Invrock?4wav?$AA@
_DATA	SEGMENT DWORD USE32 PUBLIC 'DATA'
_DATA	ENDS
;	COMDAT ??_C@_0BH@LKJE@Sfx?2Items?2Invscrol?4wav?$AA@
_DATA	SEGMENT DWORD USE32 PUBLIC 'DATA'
_DATA	ENDS
;	COMDAT ??_C@_0BH@ELJL@Sfx?2Items?2Invshiel?4wav?$AA@
_DATA	SEGMENT DWORD USE32 PUBLIC 'DATA'
_DATA	ENDS
;	COMDAT ??_C@_0BG@DPGD@Sfx?2Items?2Invsign?4wav?$AA@
_DATA	SEGMENT DWORD USE32 PUBLIC 'DATA'
_DATA	ENDS
;	COMDAT ??_C@_0BG@EKLN@Sfx?2Items?2Invstaf?4wav?$AA@
_DATA	SEGMENT DWORD USE32 PUBLIC 'DATA'
_DATA	ENDS
;	COMDAT ??_C@_0BH@CEPK@Sfx?2Items?2Invsword?4wav?$AA@
_DATA	SEGMENT DWORD USE32 PUBLIC 'DATA'
_DATA	ENDS
;	COMDAT ??_C@_0BE@IHEF@Sfx?2Items?2Lever?4wav?$AA@
_DATA	SEGMENT DWORD USE32 PUBLIC 'DATA'
_DATA	ENDS
;	COMDAT ??_C@_0BE@PLIJ@Sfx?2Items?2Magic?4wav?$AA@
_DATA	SEGMENT DWORD USE32 PUBLIC 'DATA'
_DATA	ENDS
;	COMDAT ??_C@_0BF@LHNL@Sfx?2Items?2Magic1?4wav?$AA@
_DATA	SEGMENT DWORD USE32 PUBLIC 'DATA'
_DATA	ENDS
;	COMDAT ??_C@_0BH@MPEI@Sfx?2Items?2Readbook?4wav?$AA@
_DATA	SEGMENT DWORD USE32 PUBLIC 'DATA'
_DATA	ENDS
;	COMDAT ??_C@_0BD@EJBM@Sfx?2Items?2Sarc?4wav?$AA@
_DATA	SEGMENT DWORD USE32 PUBLIC 'DATA'
_DATA	ENDS
;	COMDAT ??_C@_0BH@JGMN@Sfx?2Items?2Shielfkd?4wav?$AA@
_DATA	SEGMENT DWORD USE32 PUBLIC 'DATA'
_DATA	ENDS
;	COMDAT ??_C@_0BG@GPKO@Sfx?2Items?2Swrdfkd?4wav?$AA@
_DATA	SEGMENT DWORD USE32 PUBLIC 'DATA'
_DATA	ENDS
;	COMDAT ??_C@_0BH@IFPF@Sfx?2Items?2Titlemov?4wav?$AA@
_DATA	SEGMENT DWORD USE32 PUBLIC 'DATA'
_DATA	ENDS
;	COMDAT ??_C@_0BH@CCKF@Sfx?2Items?2Titlslct?4wav?$AA@
_DATA	SEGMENT DWORD USE32 PUBLIC 'DATA'
_DATA	ENDS
;	COMDAT ??_C@_0BD@JNPG@Sfx?2Misc?2blank?4wav?$AA@
_DATA	SEGMENT DWORD USE32 PUBLIC 'DATA'
_DATA	ENDS
;	COMDAT ??_C@_0BD@CNOJ@Sfx?2Items?2Trap?4wav?$AA@
_DATA	SEGMENT DWORD USE32 PUBLIC 'DATA'
_DATA	ENDS
;	COMDAT ??_C@_0BD@BNAI@Sfx?2Misc?2Cast1?4wav?$AA@
_DATA	SEGMENT DWORD USE32 PUBLIC 'DATA'
_DATA	ENDS
;	COMDAT ??_C@_0BE@DGBI@Sfx?2Misc?2Cast10?4wav?$AA@
_DATA	SEGMENT DWORD USE32 PUBLIC 'DATA'
_DATA	ENDS
;	COMDAT ??_C@_0BE@HGFC@Sfx?2Misc?2Cast12?4wav?$AA@
_DATA	SEGMENT DWORD USE32 PUBLIC 'DATA'
_DATA	ENDS
;	COMDAT ??_C@_0BD@PNGH@Sfx?2Misc?2Cast2?4wav?$AA@
_DATA	SEGMENT DWORD USE32 PUBLIC 'DATA'
_DATA	ENDS
;	COMDAT ??_C@_0BD@FNEC@Sfx?2Misc?2Cast3?4wav?$AA@
_DATA	SEGMENT DWORD USE32 PUBLIC 'DATA'
_DATA	ENDS
;	COMDAT ??_C@_0BD@DNLI@Sfx?2Misc?2Cast4?4wav?$AA@
_DATA	SEGMENT DWORD USE32 PUBLIC 'DATA'
_DATA	ENDS
;	COMDAT ??_C@_0BD@JNJN@Sfx?2Misc?2Cast5?4wav?$AA@
_DATA	SEGMENT DWORD USE32 PUBLIC 'DATA'
_DATA	ENDS
;	COMDAT ??_C@_0BD@HNPC@Sfx?2Misc?2Cast6?4wav?$AA@
_DATA	SEGMENT DWORD USE32 PUBLIC 'DATA'
_DATA	ENDS
;	COMDAT ??_C@_0BD@NNNH@Sfx?2Misc?2Cast7?4wav?$AA@
_DATA	SEGMENT DWORD USE32 PUBLIC 'DATA'
_DATA	ENDS
;	COMDAT ??_C@_0BD@LMAH@Sfx?2Misc?2Cast8?4wav?$AA@
_DATA	SEGMENT DWORD USE32 PUBLIC 'DATA'
_DATA	ENDS
;	COMDAT ??_C@_0BD@BMCC@Sfx?2Misc?2Cast9?4wav?$AA@
_DATA	SEGMENT DWORD USE32 PUBLIC 'DATA'
_DATA	ENDS
;	COMDAT ??_C@_0BF@EPF@Sfx?2Misc?2Healing?4wav?$AA@
_DATA	SEGMENT DWORD USE32 PUBLIC 'DATA'
_DATA	ENDS
;	COMDAT ??_C@_0BE@DPCA@Sfx?2Misc?2Repair?4wav?$AA@
_DATA	SEGMENT DWORD USE32 PUBLIC 'DATA'
_DATA	ENDS
;	COMDAT ??_C@_0BE@PEPK@Sfx?2Misc?2Acids1?4wav?$AA@
_DATA	SEGMENT DWORD USE32 PUBLIC 'DATA'
_DATA	ENDS
;	COMDAT ??_C@_0BE@BEJF@Sfx?2Misc?2Acids2?4wav?$AA@
_DATA	SEGMENT DWORD USE32 PUBLIC 'DATA'
_DATA	ENDS
;	COMDAT ??_C@_0BC@LMLA@Sfx?2Misc?2Apoc?4wav?$AA@
_DATA	SEGMENT DWORD USE32 PUBLIC 'DATA'
_DATA	ENDS
;	COMDAT ??_C@_0BG@JKDG@Sfx?2Misc?2Arrowall?4wav?$AA@
_DATA	SEGMENT DWORD USE32 PUBLIC 'DATA'
_DATA	ENDS
;	COMDAT ??_C@_0BF@KAOH@Sfx?2Misc?2Bldboil?4wav?$AA@
_DATA	SEGMENT DWORD USE32 PUBLIC 'DATA'
_DATA	ENDS
;	COMDAT ??_C@_0BG@DJGN@Sfx?2Misc?2Blodstar?4wav?$AA@
_DATA	SEGMENT DWORD USE32 PUBLIC 'DATA'
_DATA	ENDS
;	COMDAT ??_C@_0BF@GOGN@Sfx?2Misc?2Blsimpt?4wav?$AA@
_DATA	SEGMENT DWORD USE32 PUBLIC 'DATA'
_DATA	ENDS
;	COMDAT ??_C@_0BE@PA@Sfx?2Misc?2Bonesp?4wav?$AA@
_DATA	SEGMENT DWORD USE32 PUBLIC 'DATA'
_DATA	ENDS
;	COMDAT ??_C@_0BF@DMCL@Sfx?2Misc?2Bsimpct?4wav?$AA@
_DATA	SEGMENT DWORD USE32 PUBLIC 'DATA'
_DATA	ENDS
;	COMDAT ??_C@_0BF@BCKJ@Sfx?2Misc?2Caldron?4wav?$AA@
_DATA	SEGMENT DWORD USE32 PUBLIC 'DATA'
_DATA	ENDS
;	COMDAT ??_C@_0BD@DMDN@Sfx?2Misc?2Cbolt?4wav?$AA@
_DATA	SEGMENT DWORD USE32 PUBLIC 'DATA'
_DATA	ENDS
;	COMDAT ??_C@_0BG@IPMF@Sfx?2Misc?2Chltning?4wav?$AA@
_DATA	SEGMENT DWORD USE32 PUBLIC 'DATA'
_DATA	ENDS
;	COMDAT ??_C@_0BD@JPAA@Sfx?2Misc?2DSerp?4wav?$AA@
_DATA	SEGMENT DWORD USE32 PUBLIC 'DATA'
_DATA	ENDS
;	COMDAT ??_C@_0BG@NAKN@Sfx?2Misc?2Elecimp1?4wav?$AA@
_DATA	SEGMENT DWORD USE32 PUBLIC 'DATA'
_DATA	ENDS
;	COMDAT ??_C@_0BG@CBDH@Sfx?2Misc?2Elementl?4wav?$AA@
_DATA	SEGMENT DWORD USE32 PUBLIC 'DATA'
_DATA	ENDS
;	COMDAT ??_C@_0BG@OFDM@Sfx?2Misc?2Ethereal?4wav?$AA@
_DATA	SEGMENT DWORD USE32 PUBLIC 'DATA'
_DATA	ENDS
;	COMDAT ??_C@_0BD@GHPK@Sfx?2Misc?2Fball?4wav?$AA@
_DATA	SEGMENT DWORD USE32 PUBLIC 'DATA'
_DATA	ENDS
;	COMDAT ??_C@_0BE@LFNH@Sfx?2Misc?2Fbolt1?4wav?$AA@
_DATA	SEGMENT DWORD USE32 PUBLIC 'DATA'
_DATA	ENDS
;	COMDAT ??_C@_0BE@FFLI@Sfx?2Misc?2Fbolt2?4wav?$AA@
_DATA	SEGMENT DWORD USE32 PUBLIC 'DATA'
_DATA	ENDS
;	COMDAT ??_C@_0BF@JPDF@Sfx?2Misc?2Firimp1?4wav?$AA@
_DATA	SEGMENT DWORD USE32 PUBLIC 'DATA'
_DATA	ENDS
;	COMDAT ??_C@_0BF@HPFK@Sfx?2Misc?2Firimp2?4wav?$AA@
_DATA	SEGMENT DWORD USE32 PUBLIC 'DATA'
_DATA	ENDS
;	COMDAT ??_C@_0BG@INLP@Sfx?2Misc?2Flamwave?4wav?$AA@
_DATA	SEGMENT DWORD USE32 PUBLIC 'DATA'
_DATA	ENDS
;	COMDAT ??_C@_0BD@JJP@Sfx?2Misc?2Flash?4wav?$AA@
_DATA	SEGMENT DWORD USE32 PUBLIC 'DATA'
_DATA	ENDS
;	COMDAT ??_C@_0BG@BBIP@Sfx?2Misc?2Fountain?4wav?$AA@
_DATA	SEGMENT DWORD USE32 PUBLIC 'DATA'
_DATA	ENDS
;	COMDAT ??_C@_0BD@KOLK@Sfx?2Misc?2Golum?4wav?$AA@
_DATA	SEGMENT DWORD USE32 PUBLIC 'DATA'
_DATA	ENDS
;	COMDAT ??_C@_0BG@KEBL@Sfx?2Misc?2Golumded?4wav?$AA@
_DATA	SEGMENT DWORD USE32 PUBLIC 'DATA'
_DATA	ENDS
;	COMDAT ??_C@_0BF@PKLE@Sfx?2Misc?2Gshrine?4wav?$AA@
_DATA	SEGMENT DWORD USE32 PUBLIC 'DATA'
_DATA	ENDS
;	COMDAT ??_C@_0BD@FEHL@Sfx?2Misc?2Guard?4wav?$AA@
_DATA	SEGMENT DWORD USE32 PUBLIC 'DATA'
_DATA	ENDS
;	COMDAT ??_C@_0BG@CGIH@Sfx?2Misc?2Grdlanch?4wav?$AA@
_DATA	SEGMENT DWORD USE32 PUBLIC 'DATA'
_DATA	ENDS
;	COMDAT ??_C@_0BG@FFOB@Sfx?2Misc?2Holybolt?4wav?$AA@
_DATA	SEGMENT DWORD USE32 PUBLIC 'DATA'
_DATA	ENDS
;	COMDAT ??_C@_0BD@NPCL@Sfx?2Misc?2Hyper?4wav?$AA@
_DATA	SEGMENT DWORD USE32 PUBLIC 'DATA'
_DATA	ENDS
;	COMDAT ??_C@_0BG@CPEA@Sfx?2Misc?2Infravis?4wav?$AA@
_DATA	SEGMENT DWORD USE32 PUBLIC 'DATA'
_DATA	ENDS
;	COMDAT ??_C@_0BG@JFLA@Sfx?2Misc?2Invisibl?4wav?$AA@
_DATA	SEGMENT DWORD USE32 PUBLIC 'DATA'
_DATA	ENDS
;	COMDAT ??_C@_0BE@LDPO@Sfx?2Misc?2Invpot?4wav?$AA@
_DATA	SEGMENT DWORD USE32 PUBLIC 'DATA'
_DATA	ENDS
;	COMDAT ??_C@_0BE@MGAO@Sfx?2Misc?2Lning1?4wav?$AA@
_DATA	SEGMENT DWORD USE32 PUBLIC 'DATA'
_DATA	ENDS
;	COMDAT ??_C@_0BE@LGAD@Sfx?2Misc?2Ltning?4wav?$AA@
_DATA	SEGMENT DWORD USE32 PUBLIC 'DATA'
_DATA	ENDS
;	COMDAT ??_C@_0BF@CFKF@Sfx?2Misc?2Mshield?4wav?$AA@
_DATA	SEGMENT DWORD USE32 PUBLIC 'DATA'
_DATA	ENDS
;	COMDAT ??_C@_0BC@HDPL@Sfx?2Misc?2Nova?4wav?$AA@
_DATA	SEGMENT DWORD USE32 PUBLIC 'DATA'
_DATA	ENDS
;	COMDAT ??_C@_0BE@DFBA@Sfx?2Misc?2Portal?4wav?$AA@
_DATA	SEGMENT DWORD USE32 PUBLIC 'DATA'
_DATA	ENDS
;	COMDAT ??_C@_0BE@JDDJ@Sfx?2Misc?2Puddle?4wav?$AA@
_DATA	SEGMENT DWORD USE32 PUBLIC 'DATA'
_DATA	ENDS
;	COMDAT ??_C@_0BD@KHOD@Sfx?2Misc?2Resur?4wav?$AA@
_DATA	SEGMENT DWORD USE32 PUBLIC 'DATA'
_DATA	ENDS
;	COMDAT ??_C@_0BE@HBMO@Sfx?2Misc?2Scurse?4wav?$AA@
_DATA	SEGMENT DWORD USE32 PUBLIC 'DATA'
_DATA	ENDS
;	COMDAT ??_C@_0BF@GFPN@Sfx?2Misc?2Scurimp?4wav?$AA@
_DATA	SEGMENT DWORD USE32 PUBLIC 'DATA'
_DATA	ENDS
;	COMDAT ??_C@_0BG@JJKC@Sfx?2Misc?2Sentinel?4wav?$AA@
_DATA	SEGMENT DWORD USE32 PUBLIC 'DATA'
_DATA	ENDS
;	COMDAT ??_C@_0BF@PCJD@Sfx?2Misc?2Shatter?4wav?$AA@
_DATA	SEGMENT DWORD USE32 PUBLIC 'DATA'
_DATA	ENDS
;	COMDAT ??_C@_0BG@FPEI@Sfx?2Misc?2Soulfire?4wav?$AA@
_DATA	SEGMENT DWORD USE32 PUBLIC 'DATA'
_DATA	ENDS
;	COMDAT ??_C@_0BG@MPON@Sfx?2Misc?2Spoutlop?4wav?$AA@
_DATA	SEGMENT DWORD USE32 PUBLIC 'DATA'
_DATA	ENDS
;	COMDAT ??_C@_0BG@JCFL@Sfx?2Misc?2Spoutstr?4wav?$AA@
_DATA	SEGMENT DWORD USE32 PUBLIC 'DATA'
_DATA	ENDS
;	COMDAT ??_C@_0BD@DCI@Sfx?2Misc?2Storm?4wav?$AA@
_DATA	SEGMENT DWORD USE32 PUBLIC 'DATA'
_DATA	ENDS
;	COMDAT ??_C@_0BF@GIMK@Sfx?2Misc?2Trapdis?4wav?$AA@
_DATA	SEGMENT DWORD USE32 PUBLIC 'DATA'
_DATA	ENDS
;	COMDAT ??_C@_0BG@HFEC@Sfx?2Misc?2Teleport?4wav?$AA@
_DATA	SEGMENT DWORD USE32 PUBLIC 'DATA'
_DATA	ENDS
;	COMDAT ??_C@_0BE@BKJG@Sfx?2Misc?2Vtheft?4wav?$AA@
_DATA	SEGMENT DWORD USE32 PUBLIC 'DATA'
_DATA	ENDS
;	COMDAT ??_C@_0BG@OONK@Sfx?2Misc?2Wallloop?4wav?$AA@
_DATA	SEGMENT DWORD USE32 PUBLIC 'DATA'
_DATA	ENDS
;	COMDAT ??_C@_0BG@IPHB@Sfx?2Misc?2Wallstrt?4wav?$AA@
_DATA	SEGMENT DWORD USE32 PUBLIC 'DATA'
_DATA	ENDS
;	COMDAT ??_C@_0BI@PFNG@Sfx?2Towners?2Bmaid01?4wav?$AA@
_DATA	SEGMENT DWORD USE32 PUBLIC 'DATA'
_DATA	ENDS
;	COMDAT ??_C@_0BI@BFLJ@Sfx?2Towners?2Bmaid02?4wav?$AA@
_DATA	SEGMENT DWORD USE32 PUBLIC 'DATA'
_DATA	ENDS
;	COMDAT ??_C@_0BI@LFJM@Sfx?2Towners?2Bmaid03?4wav?$AA@
_DATA	SEGMENT DWORD USE32 PUBLIC 'DATA'
_DATA	ENDS
;	COMDAT ??_C@_0BI@NFGG@Sfx?2Towners?2Bmaid04?4wav?$AA@
_DATA	SEGMENT DWORD USE32 PUBLIC 'DATA'
_DATA	ENDS
;	COMDAT ??_C@_0BI@HFED@Sfx?2Towners?2Bmaid05?4wav?$AA@
_DATA	SEGMENT DWORD USE32 PUBLIC 'DATA'
_DATA	ENDS
;	COMDAT ??_C@_0BI@JFCM@Sfx?2Towners?2Bmaid06?4wav?$AA@
_DATA	SEGMENT DWORD USE32 PUBLIC 'DATA'
_DATA	ENDS
;	COMDAT ??_C@_0BI@DFAJ@Sfx?2Towners?2Bmaid07?4wav?$AA@
_DATA	SEGMENT DWORD USE32 PUBLIC 'DATA'
_DATA	ENDS
;	COMDAT ??_C@_0BI@FENJ@Sfx?2Towners?2Bmaid08?4wav?$AA@
_DATA	SEGMENT DWORD USE32 PUBLIC 'DATA'
_DATA	ENDS
;	COMDAT ??_C@_0BI@PEPM@Sfx?2Towners?2Bmaid09?4wav?$AA@
_DATA	SEGMENT DWORD USE32 PUBLIC 'DATA'
_DATA	ENDS
;	COMDAT ??_C@_0BI@MAFD@Sfx?2Towners?2Bmaid10?4wav?$AA@
_DATA	SEGMENT DWORD USE32 PUBLIC 'DATA'
_DATA	ENDS
;	COMDAT ??_C@_0BI@GAHG@Sfx?2Towners?2Bmaid11?4wav?$AA@
_DATA	SEGMENT DWORD USE32 PUBLIC 'DATA'
_DATA	ENDS
;	COMDAT ??_C@_0BI@IABJ@Sfx?2Towners?2Bmaid12?4wav?$AA@
_DATA	SEGMENT DWORD USE32 PUBLIC 'DATA'
_DATA	ENDS
;	COMDAT ??_C@_0BI@CADM@Sfx?2Towners?2Bmaid13?4wav?$AA@
_DATA	SEGMENT DWORD USE32 PUBLIC 'DATA'
_DATA	ENDS
;	COMDAT ??_C@_0BI@EAMG@Sfx?2Towners?2Bmaid14?4wav?$AA@
_DATA	SEGMENT DWORD USE32 PUBLIC 'DATA'
_DATA	ENDS
;	COMDAT ??_C@_0BI@OAOD@Sfx?2Towners?2Bmaid15?4wav?$AA@
_DATA	SEGMENT DWORD USE32 PUBLIC 'DATA'
_DATA	ENDS
;	COMDAT ??_C@_0BI@IM@Sfx?2Towners?2Bmaid16?4wav?$AA@
_DATA	SEGMENT DWORD USE32 PUBLIC 'DATA'
_DATA	ENDS
;	COMDAT ??_C@_0BI@KAKJ@Sfx?2Towners?2Bmaid17?4wav?$AA@
_DATA	SEGMENT DWORD USE32 PUBLIC 'DATA'
_DATA	ENDS
;	COMDAT ??_C@_0BI@MBHJ@Sfx?2Towners?2Bmaid18?4wav?$AA@
_DATA	SEGMENT DWORD USE32 PUBLIC 'DATA'
_DATA	ENDS
;	COMDAT ??_C@_0BI@GBFM@Sfx?2Towners?2Bmaid19?4wav?$AA@
_DATA	SEGMENT DWORD USE32 PUBLIC 'DATA'
_DATA	ENDS
;	COMDAT ??_C@_0BI@HOLD@Sfx?2Towners?2Bmaid20?4wav?$AA@
_DATA	SEGMENT DWORD USE32 PUBLIC 'DATA'
_DATA	ENDS
;	COMDAT ??_C@_0BI@NOJG@Sfx?2Towners?2Bmaid21?4wav?$AA@
_DATA	SEGMENT DWORD USE32 PUBLIC 'DATA'
_DATA	ENDS
;	COMDAT ??_C@_0BI@DOPJ@Sfx?2Towners?2Bmaid22?4wav?$AA@
_DATA	SEGMENT DWORD USE32 PUBLIC 'DATA'
_DATA	ENDS
;	COMDAT ??_C@_0BI@JONM@Sfx?2Towners?2Bmaid23?4wav?$AA@
_DATA	SEGMENT DWORD USE32 PUBLIC 'DATA'
_DATA	ENDS
;	COMDAT ??_C@_0BI@POCG@Sfx?2Towners?2Bmaid24?4wav?$AA@
_DATA	SEGMENT DWORD USE32 PUBLIC 'DATA'
_DATA	ENDS
;	COMDAT ??_C@_0BI@FOAD@Sfx?2Towners?2Bmaid25?4wav?$AA@
_DATA	SEGMENT DWORD USE32 PUBLIC 'DATA'
_DATA	ENDS
;	COMDAT ??_C@_0BI@LOGM@Sfx?2Towners?2Bmaid26?4wav?$AA@
_DATA	SEGMENT DWORD USE32 PUBLIC 'DATA'
_DATA	ENDS
;	COMDAT ??_C@_0BI@BOEJ@Sfx?2Towners?2Bmaid27?4wav?$AA@
_DATA	SEGMENT DWORD USE32 PUBLIC 'DATA'
_DATA	ENDS
;	COMDAT ??_C@_0BI@HPJJ@Sfx?2Towners?2Bmaid28?4wav?$AA@
_DATA	SEGMENT DWORD USE32 PUBLIC 'DATA'
_DATA	ENDS
;	COMDAT ??_C@_0BI@NPLM@Sfx?2Towners?2Bmaid29?4wav?$AA@
_DATA	SEGMENT DWORD USE32 PUBLIC 'DATA'
_DATA	ENDS
;	COMDAT ??_C@_0BI@OLBD@Sfx?2Towners?2Bmaid30?4wav?$AA@
_DATA	SEGMENT DWORD USE32 PUBLIC 'DATA'
_DATA	ENDS
;	COMDAT ??_C@_0BI@ELDG@Sfx?2Towners?2Bmaid31?4wav?$AA@
_DATA	SEGMENT DWORD USE32 PUBLIC 'DATA'
_DATA	ENDS
;	COMDAT ??_C@_0BI@KLFJ@Sfx?2Towners?2Bmaid32?4wav?$AA@
_DATA	SEGMENT DWORD USE32 PUBLIC 'DATA'
_DATA	ENDS
;	COMDAT ??_C@_0BI@LHM@Sfx?2Towners?2Bmaid33?4wav?$AA@
_DATA	SEGMENT DWORD USE32 PUBLIC 'DATA'
_DATA	ENDS
;	COMDAT ??_C@_0BI@GLIG@Sfx?2Towners?2Bmaid34?4wav?$AA@
_DATA	SEGMENT DWORD USE32 PUBLIC 'DATA'
_DATA	ENDS
;	COMDAT ??_C@_0BI@MLKD@Sfx?2Towners?2Bmaid35?4wav?$AA@
_DATA	SEGMENT DWORD USE32 PUBLIC 'DATA'
_DATA	ENDS
;	COMDAT ??_C@_0BI@CLMM@Sfx?2Towners?2Bmaid36?4wav?$AA@
_DATA	SEGMENT DWORD USE32 PUBLIC 'DATA'
_DATA	ENDS
;	COMDAT ??_C@_0BI@ILOJ@Sfx?2Towners?2Bmaid37?4wav?$AA@
_DATA	SEGMENT DWORD USE32 PUBLIC 'DATA'
_DATA	ENDS
;	COMDAT ??_C@_0BI@OKDJ@Sfx?2Towners?2Bmaid38?4wav?$AA@
_DATA	SEGMENT DWORD USE32 PUBLIC 'DATA'
_DATA	ENDS
;	COMDAT ??_C@_0BI@EKBM@Sfx?2Towners?2Bmaid39?4wav?$AA@
_DATA	SEGMENT DWORD USE32 PUBLIC 'DATA'
_DATA	ENDS
;	COMDAT ??_C@_0BI@DHD@Sfx?2Towners?2Bmaid40?4wav?$AA@
_DATA	SEGMENT DWORD USE32 PUBLIC 'DATA'
_DATA	ENDS
;	COMDAT ??_C@_0BJ@DOLK@Sfx?2Towners?2Bsmith01?4wav?$AA@
_DATA	SEGMENT DWORD USE32 PUBLIC 'DATA'
_DATA	ENDS
;	COMDAT ??_C@_0BJ@NONF@Sfx?2Towners?2Bsmith02?4wav?$AA@
_DATA	SEGMENT DWORD USE32 PUBLIC 'DATA'
_DATA	ENDS
;	COMDAT ??_C@_0BJ@HOPA@Sfx?2Towners?2Bsmith03?4wav?$AA@
_DATA	SEGMENT DWORD USE32 PUBLIC 'DATA'
_DATA	ENDS
;	COMDAT ??_C@_0BJ@BOAK@Sfx?2Towners?2Bsmith04?4wav?$AA@
_DATA	SEGMENT DWORD USE32 PUBLIC 'DATA'
_DATA	ENDS
;	COMDAT ??_C@_0BJ@LOCP@Sfx?2Towners?2Bsmith05?4wav?$AA@
_DATA	SEGMENT DWORD USE32 PUBLIC 'DATA'
_DATA	ENDS
;	COMDAT ??_C@_0BJ@FOEA@Sfx?2Towners?2Bsmith06?4wav?$AA@
_DATA	SEGMENT DWORD USE32 PUBLIC 'DATA'
_DATA	ENDS
;	COMDAT ??_C@_0BJ@POGF@Sfx?2Towners?2Bsmith07?4wav?$AA@
_DATA	SEGMENT DWORD USE32 PUBLIC 'DATA'
_DATA	ENDS
;	COMDAT ??_C@_0BJ@JPLF@Sfx?2Towners?2Bsmith08?4wav?$AA@
_DATA	SEGMENT DWORD USE32 PUBLIC 'DATA'
_DATA	ENDS
;	COMDAT ??_C@_0BJ@DPJA@Sfx?2Towners?2Bsmith09?4wav?$AA@
_DATA	SEGMENT DWORD USE32 PUBLIC 'DATA'
_DATA	ENDS
;	COMDAT ??_C@_0BJ@LDP@Sfx?2Towners?2Bsmith10?4wav?$AA@
_DATA	SEGMENT DWORD USE32 PUBLIC 'DATA'
_DATA	ENDS
;	COMDAT ??_C@_0BJ@KLBK@Sfx?2Towners?2Bsmith11?4wav?$AA@
_DATA	SEGMENT DWORD USE32 PUBLIC 'DATA'
_DATA	ENDS
;	COMDAT ??_C@_0BJ@ELHF@Sfx?2Towners?2Bsmith12?4wav?$AA@
_DATA	SEGMENT DWORD USE32 PUBLIC 'DATA'
_DATA	ENDS
;	COMDAT ??_C@_0BJ@OLFA@Sfx?2Towners?2Bsmith13?4wav?$AA@
_DATA	SEGMENT DWORD USE32 PUBLIC 'DATA'
_DATA	ENDS
;	COMDAT ??_C@_0BJ@ILKK@Sfx?2Towners?2Bsmith14?4wav?$AA@
_DATA	SEGMENT DWORD USE32 PUBLIC 'DATA'
_DATA	ENDS
;	COMDAT ??_C@_0BJ@CLIP@Sfx?2Towners?2Bsmith15?4wav?$AA@
_DATA	SEGMENT DWORD USE32 PUBLIC 'DATA'
_DATA	ENDS
;	COMDAT ??_C@_0BJ@MLOA@Sfx?2Towners?2Bsmith16?4wav?$AA@
_DATA	SEGMENT DWORD USE32 PUBLIC 'DATA'
_DATA	ENDS
;	COMDAT ??_C@_0BJ@GLMF@Sfx?2Towners?2Bsmith17?4wav?$AA@
_DATA	SEGMENT DWORD USE32 PUBLIC 'DATA'
_DATA	ENDS
;	COMDAT ??_C@_0BJ@KBF@Sfx?2Towners?2Bsmith18?4wav?$AA@
_DATA	SEGMENT DWORD USE32 PUBLIC 'DATA'
_DATA	ENDS
;	COMDAT ??_C@_0BJ@KKDA@Sfx?2Towners?2Bsmith19?4wav?$AA@
_DATA	SEGMENT DWORD USE32 PUBLIC 'DATA'
_DATA	ENDS
;	COMDAT ??_C@_0BJ@LFNP@Sfx?2Towners?2Bsmith20?4wav?$AA@
_DATA	SEGMENT DWORD USE32 PUBLIC 'DATA'
_DATA	ENDS
;	COMDAT ??_C@_0BJ@BFPK@Sfx?2Towners?2Bsmith21?4wav?$AA@
_DATA	SEGMENT DWORD USE32 PUBLIC 'DATA'
_DATA	ENDS
;	COMDAT ??_C@_0BJ@PFJF@Sfx?2Towners?2Bsmith22?4wav?$AA@
_DATA	SEGMENT DWORD USE32 PUBLIC 'DATA'
_DATA	ENDS
;	COMDAT ??_C@_0BJ@FFLA@Sfx?2Towners?2Bsmith23?4wav?$AA@
_DATA	SEGMENT DWORD USE32 PUBLIC 'DATA'
_DATA	ENDS
;	COMDAT ??_C@_0BJ@DFEK@Sfx?2Towners?2Bsmith24?4wav?$AA@
_DATA	SEGMENT DWORD USE32 PUBLIC 'DATA'
_DATA	ENDS
;	COMDAT ??_C@_0BJ@JFGP@Sfx?2Towners?2Bsmith25?4wav?$AA@
_DATA	SEGMENT DWORD USE32 PUBLIC 'DATA'
_DATA	ENDS
;	COMDAT ??_C@_0BJ@HFAA@Sfx?2Towners?2Bsmith26?4wav?$AA@
_DATA	SEGMENT DWORD USE32 PUBLIC 'DATA'
_DATA	ENDS
;	COMDAT ??_C@_0BJ@NFCF@Sfx?2Towners?2Bsmith27?4wav?$AA@
_DATA	SEGMENT DWORD USE32 PUBLIC 'DATA'
_DATA	ENDS
;	COMDAT ??_C@_0BJ@LEPF@Sfx?2Towners?2Bsmith28?4wav?$AA@
_DATA	SEGMENT DWORD USE32 PUBLIC 'DATA'
_DATA	ENDS
;	COMDAT ??_C@_0BJ@BENA@Sfx?2Towners?2Bsmith29?4wav?$AA@
_DATA	SEGMENT DWORD USE32 PUBLIC 'DATA'
_DATA	ENDS
;	COMDAT ??_C@_0BJ@CAHP@Sfx?2Towners?2Bsmith30?4wav?$AA@
_DATA	SEGMENT DWORD USE32 PUBLIC 'DATA'
_DATA	ENDS
;	COMDAT ??_C@_0BJ@IAFK@Sfx?2Towners?2Bsmith31?4wav?$AA@
_DATA	SEGMENT DWORD USE32 PUBLIC 'DATA'
_DATA	ENDS
;	COMDAT ??_C@_0BJ@GADF@Sfx?2Towners?2Bsmith32?4wav?$AA@
_DATA	SEGMENT DWORD USE32 PUBLIC 'DATA'
_DATA	ENDS
;	COMDAT ??_C@_0BJ@MABA@Sfx?2Towners?2Bsmith33?4wav?$AA@
_DATA	SEGMENT DWORD USE32 PUBLIC 'DATA'
_DATA	ENDS
;	COMDAT ??_C@_0BJ@KAOK@Sfx?2Towners?2Bsmith34?4wav?$AA@
_DATA	SEGMENT DWORD USE32 PUBLIC 'DATA'
_DATA	ENDS
;	COMDAT ??_C@_0BJ@MP@Sfx?2Towners?2Bsmith35?4wav?$AA@
_DATA	SEGMENT DWORD USE32 PUBLIC 'DATA'
_DATA	ENDS
;	COMDAT ??_C@_0BJ@OAKA@Sfx?2Towners?2Bsmith36?4wav?$AA@
_DATA	SEGMENT DWORD USE32 PUBLIC 'DATA'
_DATA	ENDS
;	COMDAT ??_C@_0BJ@EAIF@Sfx?2Towners?2Bsmith37?4wav?$AA@
_DATA	SEGMENT DWORD USE32 PUBLIC 'DATA'
_DATA	ENDS
;	COMDAT ??_C@_0BJ@CBFF@Sfx?2Towners?2Bsmith38?4wav?$AA@
_DATA	SEGMENT DWORD USE32 PUBLIC 'DATA'
_DATA	ENDS
;	COMDAT ??_C@_0BJ@IBHA@Sfx?2Towners?2Bsmith39?4wav?$AA@
_DATA	SEGMENT DWORD USE32 PUBLIC 'DATA'
_DATA	ENDS
;	COMDAT ??_C@_0BJ@MIBP@Sfx?2Towners?2Bsmith40?4wav?$AA@
_DATA	SEGMENT DWORD USE32 PUBLIC 'DATA'
_DATA	ENDS
;	COMDAT ??_C@_0BJ@GIDK@Sfx?2Towners?2Bsmith41?4wav?$AA@
_DATA	SEGMENT DWORD USE32 PUBLIC 'DATA'
_DATA	ENDS
;	COMDAT ??_C@_0BJ@IIFF@Sfx?2Towners?2Bsmith42?4wav?$AA@
_DATA	SEGMENT DWORD USE32 PUBLIC 'DATA'
_DATA	ENDS
;	COMDAT ??_C@_0BJ@CIHA@Sfx?2Towners?2Bsmith43?4wav?$AA@
_DATA	SEGMENT DWORD USE32 PUBLIC 'DATA'
_DATA	ENDS
;	COMDAT ??_C@_0BJ@EIIK@Sfx?2Towners?2Bsmith44?4wav?$AA@
_DATA	SEGMENT DWORD USE32 PUBLIC 'DATA'
_DATA	ENDS
;	COMDAT ??_C@_0BJ@OIKP@Sfx?2Towners?2Bsmith45?4wav?$AA@
_DATA	SEGMENT DWORD USE32 PUBLIC 'DATA'
_DATA	ENDS
;	COMDAT ??_C@_0BJ@IMA@Sfx?2Towners?2Bsmith46?4wav?$AA@
_DATA	SEGMENT DWORD USE32 PUBLIC 'DATA'
_DATA	ENDS
;	COMDAT ??_C@_0BJ@KIOF@Sfx?2Towners?2Bsmith47?4wav?$AA@
_DATA	SEGMENT DWORD USE32 PUBLIC 'DATA'
_DATA	ENDS
;	COMDAT ??_C@_0BJ@MJDF@Sfx?2Towners?2Bsmith48?4wav?$AA@
_DATA	SEGMENT DWORD USE32 PUBLIC 'DATA'
_DATA	ENDS
;	COMDAT ??_C@_0BJ@GJBA@Sfx?2Towners?2Bsmith49?4wav?$AA@
_DATA	SEGMENT DWORD USE32 PUBLIC 'DATA'
_DATA	ENDS
;	COMDAT ??_C@_0BJ@FNLP@Sfx?2Towners?2Bsmith50?4wav?$AA@
_DATA	SEGMENT DWORD USE32 PUBLIC 'DATA'
_DATA	ENDS
;	COMDAT ??_C@_0BJ@PNJK@Sfx?2Towners?2Bsmith51?4wav?$AA@
_DATA	SEGMENT DWORD USE32 PUBLIC 'DATA'
_DATA	ENDS
;	COMDAT ??_C@_0BJ@BNPF@Sfx?2Towners?2Bsmith52?4wav?$AA@
_DATA	SEGMENT DWORD USE32 PUBLIC 'DATA'
_DATA	ENDS
;	COMDAT ??_C@_0BJ@LNNA@Sfx?2Towners?2Bsmith53?4wav?$AA@
_DATA	SEGMENT DWORD USE32 PUBLIC 'DATA'
_DATA	ENDS
;	COMDAT ??_C@_0BJ@NNCK@Sfx?2Towners?2Bsmith54?4wav?$AA@
_DATA	SEGMENT DWORD USE32 PUBLIC 'DATA'
_DATA	ENDS
;	COMDAT ??_C@_0BJ@HNAP@Sfx?2Towners?2Bsmith55?4wav?$AA@
_DATA	SEGMENT DWORD USE32 PUBLIC 'DATA'
_DATA	ENDS
;	COMDAT ??_C@_0BJ@JNGA@Sfx?2Towners?2Bsmith56?4wav?$AA@
_DATA	SEGMENT DWORD USE32 PUBLIC 'DATA'
_DATA	ENDS
;	COMDAT ??_C@_0BF@CFHD@Sfx?2Towners?2Cow1?4wav?$AA@
_DATA	SEGMENT DWORD USE32 PUBLIC 'DATA'
_DATA	ENDS
;	COMDAT ??_C@_0BF@MFBM@Sfx?2Towners?2Cow2?4wav?$AA@
_DATA	SEGMENT DWORD USE32 PUBLIC 'DATA'
_DATA	ENDS
;	COMDAT ??_C@_0BJ@POEC@Sfx?2Towners?2Deadguy2?4wav?$AA@
_DATA	SEGMENT DWORD USE32 PUBLIC 'DATA'
_DATA	ENDS
;	COMDAT ??_C@_0BI@MPKB@Sfx?2Towners?2Drunk01?4wav?$AA@
_DATA	SEGMENT DWORD USE32 PUBLIC 'DATA'
_DATA	ENDS
;	COMDAT ??_C@_0BI@CPMO@Sfx?2Towners?2Drunk02?4wav?$AA@
_DATA	SEGMENT DWORD USE32 PUBLIC 'DATA'
_DATA	ENDS
;	COMDAT ??_C@_0BI@IPOL@Sfx?2Towners?2Drunk03?4wav?$AA@
_DATA	SEGMENT DWORD USE32 PUBLIC 'DATA'
_DATA	ENDS
;	COMDAT ??_C@_0BI@OPBB@Sfx?2Towners?2Drunk04?4wav?$AA@
_DATA	SEGMENT DWORD USE32 PUBLIC 'DATA'
_DATA	ENDS
;	COMDAT ??_C@_0BI@EPDE@Sfx?2Towners?2Drunk05?4wav?$AA@
_DATA	SEGMENT DWORD USE32 PUBLIC 'DATA'
_DATA	ENDS
;	COMDAT ??_C@_0BI@KPFL@Sfx?2Towners?2Drunk06?4wav?$AA@
_DATA	SEGMENT DWORD USE32 PUBLIC 'DATA'
_DATA	ENDS
;	COMDAT ??_C@_0BI@PHO@Sfx?2Towners?2Drunk07?4wav?$AA@
_DATA	SEGMENT DWORD USE32 PUBLIC 'DATA'
_DATA	ENDS
;	COMDAT ??_C@_0BI@GOKO@Sfx?2Towners?2Drunk08?4wav?$AA@
_DATA	SEGMENT DWORD USE32 PUBLIC 'DATA'
_DATA	ENDS
;	COMDAT ??_C@_0BI@MOIL@Sfx?2Towners?2Drunk09?4wav?$AA@
_DATA	SEGMENT DWORD USE32 PUBLIC 'DATA'
_DATA	ENDS
;	COMDAT ??_C@_0BI@PKCE@Sfx?2Towners?2Drunk10?4wav?$AA@
_DATA	SEGMENT DWORD USE32 PUBLIC 'DATA'
_DATA	ENDS
;	COMDAT ??_C@_0BI@FKAB@Sfx?2Towners?2Drunk11?4wav?$AA@
_DATA	SEGMENT DWORD USE32 PUBLIC 'DATA'
_DATA	ENDS
;	COMDAT ??_C@_0BI@LKGO@Sfx?2Towners?2Drunk12?4wav?$AA@
_DATA	SEGMENT DWORD USE32 PUBLIC 'DATA'
_DATA	ENDS
;	COMDAT ??_C@_0BI@BKEL@Sfx?2Towners?2Drunk13?4wav?$AA@
_DATA	SEGMENT DWORD USE32 PUBLIC 'DATA'
_DATA	ENDS
;	COMDAT ??_C@_0BI@HKLB@Sfx?2Towners?2Drunk14?4wav?$AA@
_DATA	SEGMENT DWORD USE32 PUBLIC 'DATA'
_DATA	ENDS
;	COMDAT ??_C@_0BI@NKJE@Sfx?2Towners?2Drunk15?4wav?$AA@
_DATA	SEGMENT DWORD USE32 PUBLIC 'DATA'
_DATA	ENDS
;	COMDAT ??_C@_0BI@DKPL@Sfx?2Towners?2Drunk16?4wav?$AA@
_DATA	SEGMENT DWORD USE32 PUBLIC 'DATA'
_DATA	ENDS
;	COMDAT ??_C@_0BI@JKNO@Sfx?2Towners?2Drunk17?4wav?$AA@
_DATA	SEGMENT DWORD USE32 PUBLIC 'DATA'
_DATA	ENDS
;	COMDAT ??_C@_0BI@PLAO@Sfx?2Towners?2Drunk18?4wav?$AA@
_DATA	SEGMENT DWORD USE32 PUBLIC 'DATA'
_DATA	ENDS
;	COMDAT ??_C@_0BI@FLCL@Sfx?2Towners?2Drunk19?4wav?$AA@
_DATA	SEGMENT DWORD USE32 PUBLIC 'DATA'
_DATA	ENDS
;	COMDAT ??_C@_0BI@EEME@Sfx?2Towners?2Drunk20?4wav?$AA@
_DATA	SEGMENT DWORD USE32 PUBLIC 'DATA'
_DATA	ENDS
;	COMDAT ??_C@_0BI@OEOB@Sfx?2Towners?2Drunk21?4wav?$AA@
_DATA	SEGMENT DWORD USE32 PUBLIC 'DATA'
_DATA	ENDS
;	COMDAT ??_C@_0BI@EIO@Sfx?2Towners?2Drunk22?4wav?$AA@
_DATA	SEGMENT DWORD USE32 PUBLIC 'DATA'
_DATA	ENDS
;	COMDAT ??_C@_0BI@KEKL@Sfx?2Towners?2Drunk23?4wav?$AA@
_DATA	SEGMENT DWORD USE32 PUBLIC 'DATA'
_DATA	ENDS
;	COMDAT ??_C@_0BI@MEFB@Sfx?2Towners?2Drunk24?4wav?$AA@
_DATA	SEGMENT DWORD USE32 PUBLIC 'DATA'
_DATA	ENDS
;	COMDAT ??_C@_0BI@GEHE@Sfx?2Towners?2Drunk25?4wav?$AA@
_DATA	SEGMENT DWORD USE32 PUBLIC 'DATA'
_DATA	ENDS
;	COMDAT ??_C@_0BI@IEBL@Sfx?2Towners?2Drunk26?4wav?$AA@
_DATA	SEGMENT DWORD USE32 PUBLIC 'DATA'
_DATA	ENDS
;	COMDAT ??_C@_0BI@CEDO@Sfx?2Towners?2Drunk27?4wav?$AA@
_DATA	SEGMENT DWORD USE32 PUBLIC 'DATA'
_DATA	ENDS
;	COMDAT ??_C@_0BI@EFOO@Sfx?2Towners?2Drunk28?4wav?$AA@
_DATA	SEGMENT DWORD USE32 PUBLIC 'DATA'
_DATA	ENDS
;	COMDAT ??_C@_0BI@OFML@Sfx?2Towners?2Drunk29?4wav?$AA@
_DATA	SEGMENT DWORD USE32 PUBLIC 'DATA'
_DATA	ENDS
;	COMDAT ??_C@_0BI@NBGE@Sfx?2Towners?2Drunk30?4wav?$AA@
_DATA	SEGMENT DWORD USE32 PUBLIC 'DATA'
_DATA	ENDS
;	COMDAT ??_C@_0BI@HBEB@Sfx?2Towners?2Drunk31?4wav?$AA@
_DATA	SEGMENT DWORD USE32 PUBLIC 'DATA'
_DATA	ENDS
;	COMDAT ??_C@_0BI@JBCO@Sfx?2Towners?2Drunk32?4wav?$AA@
_DATA	SEGMENT DWORD USE32 PUBLIC 'DATA'
_DATA	ENDS
;	COMDAT ??_C@_0BI@DBAL@Sfx?2Towners?2Drunk33?4wav?$AA@
_DATA	SEGMENT DWORD USE32 PUBLIC 'DATA'
_DATA	ENDS
;	COMDAT ??_C@_0BI@FBPB@Sfx?2Towners?2Drunk34?4wav?$AA@
_DATA	SEGMENT DWORD USE32 PUBLIC 'DATA'
_DATA	ENDS
;	COMDAT ??_C@_0BI@PBNE@Sfx?2Towners?2Drunk35?4wav?$AA@
_DATA	SEGMENT DWORD USE32 PUBLIC 'DATA'
_DATA	ENDS
;	COMDAT ??_C@_0BJ@NNIP@Sfx?2Towners?2Healer01?4wav?$AA@
_DATA	SEGMENT DWORD USE32 PUBLIC 'DATA'
_DATA	ENDS
;	COMDAT ??_C@_0BJ@DNOA@Sfx?2Towners?2Healer02?4wav?$AA@
_DATA	SEGMENT DWORD USE32 PUBLIC 'DATA'
_DATA	ENDS
;	COMDAT ??_C@_0BJ@JNMF@Sfx?2Towners?2Healer03?4wav?$AA@
_DATA	SEGMENT DWORD USE32 PUBLIC 'DATA'
_DATA	ENDS
;	COMDAT ??_C@_0BJ@PNDP@Sfx?2Towners?2Healer04?4wav?$AA@
_DATA	SEGMENT DWORD USE32 PUBLIC 'DATA'
_DATA	ENDS
;	COMDAT ??_C@_0BJ@FNBK@Sfx?2Towners?2Healer05?4wav?$AA@
_DATA	SEGMENT DWORD USE32 PUBLIC 'DATA'
_DATA	ENDS
;	COMDAT ??_C@_0BJ@LNHF@Sfx?2Towners?2Healer06?4wav?$AA@
_DATA	SEGMENT DWORD USE32 PUBLIC 'DATA'
_DATA	ENDS
;	COMDAT ??_C@_0BJ@BNFA@Sfx?2Towners?2Healer07?4wav?$AA@
_DATA	SEGMENT DWORD USE32 PUBLIC 'DATA'
_DATA	ENDS
;	COMDAT ??_C@_0BJ@HMIA@Sfx?2Towners?2Healer08?4wav?$AA@
_DATA	SEGMENT DWORD USE32 PUBLIC 'DATA'
_DATA	ENDS
;	COMDAT ??_C@_0BJ@NMKF@Sfx?2Towners?2Healer09?4wav?$AA@
_DATA	SEGMENT DWORD USE32 PUBLIC 'DATA'
_DATA	ENDS
;	COMDAT ??_C@_0BJ@OIAK@Sfx?2Towners?2Healer10?4wav?$AA@
_DATA	SEGMENT DWORD USE32 PUBLIC 'DATA'
_DATA	ENDS
;	COMDAT ??_C@_0BJ@EICP@Sfx?2Towners?2Healer11?4wav?$AA@
_DATA	SEGMENT DWORD USE32 PUBLIC 'DATA'
_DATA	ENDS
;	COMDAT ??_C@_0BJ@KIEA@Sfx?2Towners?2Healer12?4wav?$AA@
_DATA	SEGMENT DWORD USE32 PUBLIC 'DATA'
_DATA	ENDS
;	COMDAT ??_C@_0BJ@IGF@Sfx?2Towners?2Healer13?4wav?$AA@
_DATA	SEGMENT DWORD USE32 PUBLIC 'DATA'
_DATA	ENDS
;	COMDAT ??_C@_0BJ@GIJP@Sfx?2Towners?2Healer14?4wav?$AA@
_DATA	SEGMENT DWORD USE32 PUBLIC 'DATA'
_DATA	ENDS
;	COMDAT ??_C@_0BJ@MILK@Sfx?2Towners?2Healer15?4wav?$AA@
_DATA	SEGMENT DWORD USE32 PUBLIC 'DATA'
_DATA	ENDS
;	COMDAT ??_C@_0BJ@CINF@Sfx?2Towners?2Healer16?4wav?$AA@
_DATA	SEGMENT DWORD USE32 PUBLIC 'DATA'
_DATA	ENDS
;	COMDAT ??_C@_0BJ@IIPA@Sfx?2Towners?2Healer17?4wav?$AA@
_DATA	SEGMENT DWORD USE32 PUBLIC 'DATA'
_DATA	ENDS
;	COMDAT ??_C@_0BJ@OJCA@Sfx?2Towners?2Healer18?4wav?$AA@
_DATA	SEGMENT DWORD USE32 PUBLIC 'DATA'
_DATA	ENDS
;	COMDAT ??_C@_0BJ@EJAF@Sfx?2Towners?2Healer19?4wav?$AA@
_DATA	SEGMENT DWORD USE32 PUBLIC 'DATA'
_DATA	ENDS
;	COMDAT ??_C@_0BJ@FGOK@Sfx?2Towners?2Healer20?4wav?$AA@
_DATA	SEGMENT DWORD USE32 PUBLIC 'DATA'
_DATA	ENDS
;	COMDAT ??_C@_0BJ@PGMP@Sfx?2Towners?2Healer21?4wav?$AA@
_DATA	SEGMENT DWORD USE32 PUBLIC 'DATA'
_DATA	ENDS
;	COMDAT ??_C@_0BJ@BGKA@Sfx?2Towners?2Healer22?4wav?$AA@
_DATA	SEGMENT DWORD USE32 PUBLIC 'DATA'
_DATA	ENDS
;	COMDAT ??_C@_0BJ@LGIF@Sfx?2Towners?2Healer23?4wav?$AA@
_DATA	SEGMENT DWORD USE32 PUBLIC 'DATA'
_DATA	ENDS
;	COMDAT ??_C@_0BJ@NGHP@Sfx?2Towners?2Healer24?4wav?$AA@
_DATA	SEGMENT DWORD USE32 PUBLIC 'DATA'
_DATA	ENDS
;	COMDAT ??_C@_0BJ@HGFK@Sfx?2Towners?2Healer25?4wav?$AA@
_DATA	SEGMENT DWORD USE32 PUBLIC 'DATA'
_DATA	ENDS
;	COMDAT ??_C@_0BJ@JGDF@Sfx?2Towners?2Healer26?4wav?$AA@
_DATA	SEGMENT DWORD USE32 PUBLIC 'DATA'
_DATA	ENDS
;	COMDAT ??_C@_0BJ@DGBA@Sfx?2Towners?2Healer27?4wav?$AA@
_DATA	SEGMENT DWORD USE32 PUBLIC 'DATA'
_DATA	ENDS
;	COMDAT ??_C@_0BJ@FHMA@Sfx?2Towners?2Healer28?4wav?$AA@
_DATA	SEGMENT DWORD USE32 PUBLIC 'DATA'
_DATA	ENDS
;	COMDAT ??_C@_0BJ@PHOF@Sfx?2Towners?2Healer29?4wav?$AA@
_DATA	SEGMENT DWORD USE32 PUBLIC 'DATA'
_DATA	ENDS
;	COMDAT ??_C@_0BJ@MDEK@Sfx?2Towners?2Healer30?4wav?$AA@
_DATA	SEGMENT DWORD USE32 PUBLIC 'DATA'
_DATA	ENDS
;	COMDAT ??_C@_0BJ@GDGP@Sfx?2Towners?2Healer31?4wav?$AA@
_DATA	SEGMENT DWORD USE32 PUBLIC 'DATA'
_DATA	ENDS
;	COMDAT ??_C@_0BJ@IDAA@Sfx?2Towners?2Healer32?4wav?$AA@
_DATA	SEGMENT DWORD USE32 PUBLIC 'DATA'
_DATA	ENDS
;	COMDAT ??_C@_0BJ@CDCF@Sfx?2Towners?2Healer33?4wav?$AA@
_DATA	SEGMENT DWORD USE32 PUBLIC 'DATA'
_DATA	ENDS
;	COMDAT ??_C@_0BJ@EDNP@Sfx?2Towners?2Healer34?4wav?$AA@
_DATA	SEGMENT DWORD USE32 PUBLIC 'DATA'
_DATA	ENDS
;	COMDAT ??_C@_0BJ@ODPK@Sfx?2Towners?2Healer35?4wav?$AA@
_DATA	SEGMENT DWORD USE32 PUBLIC 'DATA'
_DATA	ENDS
;	COMDAT ??_C@_0BJ@DJF@Sfx?2Towners?2Healer36?4wav?$AA@
_DATA	SEGMENT DWORD USE32 PUBLIC 'DATA'
_DATA	ENDS
;	COMDAT ??_C@_0BJ@KDLA@Sfx?2Towners?2Healer37?4wav?$AA@
_DATA	SEGMENT DWORD USE32 PUBLIC 'DATA'
_DATA	ENDS
;	COMDAT ??_C@_0BJ@MCGA@Sfx?2Towners?2Healer38?4wav?$AA@
_DATA	SEGMENT DWORD USE32 PUBLIC 'DATA'
_DATA	ENDS
;	COMDAT ??_C@_0BJ@GCEF@Sfx?2Towners?2Healer39?4wav?$AA@
_DATA	SEGMENT DWORD USE32 PUBLIC 'DATA'
_DATA	ENDS
;	COMDAT ??_C@_0BJ@CLCK@Sfx?2Towners?2Healer40?4wav?$AA@
_DATA	SEGMENT DWORD USE32 PUBLIC 'DATA'
_DATA	ENDS
;	COMDAT ??_C@_0BJ@ILAP@Sfx?2Towners?2Healer41?4wav?$AA@
_DATA	SEGMENT DWORD USE32 PUBLIC 'DATA'
_DATA	ENDS
;	COMDAT ??_C@_0BJ@GLGA@Sfx?2Towners?2Healer42?4wav?$AA@
_DATA	SEGMENT DWORD USE32 PUBLIC 'DATA'
_DATA	ENDS
;	COMDAT ??_C@_0BJ@MLEF@Sfx?2Towners?2Healer43?4wav?$AA@
_DATA	SEGMENT DWORD USE32 PUBLIC 'DATA'
_DATA	ENDS
;	COMDAT ??_C@_0BJ@KLLP@Sfx?2Towners?2Healer44?4wav?$AA@
_DATA	SEGMENT DWORD USE32 PUBLIC 'DATA'
_DATA	ENDS
;	COMDAT ??_C@_0BJ@LJK@Sfx?2Towners?2Healer45?4wav?$AA@
_DATA	SEGMENT DWORD USE32 PUBLIC 'DATA'
_DATA	ENDS
;	COMDAT ??_C@_0BJ@OLPF@Sfx?2Towners?2Healer46?4wav?$AA@
_DATA	SEGMENT DWORD USE32 PUBLIC 'DATA'
_DATA	ENDS
;	COMDAT ??_C@_0BJ@ELNA@Sfx?2Towners?2Healer47?4wav?$AA@
_DATA	SEGMENT DWORD USE32 PUBLIC 'DATA'
_DATA	ENDS
;	COMDAT ??_C@_0BJ@FDF@Sfx?2Towners?2Pegboy01?4wav?$AA@
_DATA	SEGMENT DWORD USE32 PUBLIC 'DATA'
_DATA	ENDS
;	COMDAT ??_C@_0BJ@OFFK@Sfx?2Towners?2Pegboy02?4wav?$AA@
_DATA	SEGMENT DWORD USE32 PUBLIC 'DATA'
_DATA	ENDS
;	COMDAT ??_C@_0BJ@EFHP@Sfx?2Towners?2Pegboy03?4wav?$AA@
_DATA	SEGMENT DWORD USE32 PUBLIC 'DATA'
_DATA	ENDS
;	COMDAT ??_C@_0BJ@CFIF@Sfx?2Towners?2Pegboy04?4wav?$AA@
_DATA	SEGMENT DWORD USE32 PUBLIC 'DATA'
_DATA	ENDS
;	COMDAT ??_C@_0BJ@IFKA@Sfx?2Towners?2Pegboy05?4wav?$AA@
_DATA	SEGMENT DWORD USE32 PUBLIC 'DATA'
_DATA	ENDS
;	COMDAT ??_C@_0BJ@GFMP@Sfx?2Towners?2Pegboy06?4wav?$AA@
_DATA	SEGMENT DWORD USE32 PUBLIC 'DATA'
_DATA	ENDS
;	COMDAT ??_C@_0BJ@MFOK@Sfx?2Towners?2Pegboy07?4wav?$AA@
_DATA	SEGMENT DWORD USE32 PUBLIC 'DATA'
_DATA	ENDS
;	COMDAT ??_C@_0BJ@KEDK@Sfx?2Towners?2Pegboy08?4wav?$AA@
_DATA	SEGMENT DWORD USE32 PUBLIC 'DATA'
_DATA	ENDS
;	COMDAT ??_C@_0BJ@EBP@Sfx?2Towners?2Pegboy09?4wav?$AA@
_DATA	SEGMENT DWORD USE32 PUBLIC 'DATA'
_DATA	ENDS
;	COMDAT ??_C@_0BJ@DALA@Sfx?2Towners?2Pegboy10?4wav?$AA@
_DATA	SEGMENT DWORD USE32 PUBLIC 'DATA'
_DATA	ENDS
;	COMDAT ??_C@_0BJ@JAJF@Sfx?2Towners?2Pegboy11?4wav?$AA@
_DATA	SEGMENT DWORD USE32 PUBLIC 'DATA'
_DATA	ENDS
;	COMDAT ??_C@_0BJ@HAPK@Sfx?2Towners?2Pegboy12?4wav?$AA@
_DATA	SEGMENT DWORD USE32 PUBLIC 'DATA'
_DATA	ENDS
;	COMDAT ??_C@_0BJ@NANP@Sfx?2Towners?2Pegboy13?4wav?$AA@
_DATA	SEGMENT DWORD USE32 PUBLIC 'DATA'
_DATA	ENDS
;	COMDAT ??_C@_0BJ@LACF@Sfx?2Towners?2Pegboy14?4wav?$AA@
_DATA	SEGMENT DWORD USE32 PUBLIC 'DATA'
_DATA	ENDS
;	COMDAT ??_C@_0BJ@BAAA@Sfx?2Towners?2Pegboy15?4wav?$AA@
_DATA	SEGMENT DWORD USE32 PUBLIC 'DATA'
_DATA	ENDS
;	COMDAT ??_C@_0BJ@PAGP@Sfx?2Towners?2Pegboy16?4wav?$AA@
_DATA	SEGMENT DWORD USE32 PUBLIC 'DATA'
_DATA	ENDS
;	COMDAT ??_C@_0BJ@FAEK@Sfx?2Towners?2Pegboy17?4wav?$AA@
_DATA	SEGMENT DWORD USE32 PUBLIC 'DATA'
_DATA	ENDS
;	COMDAT ??_C@_0BJ@DBJK@Sfx?2Towners?2Pegboy18?4wav?$AA@
_DATA	SEGMENT DWORD USE32 PUBLIC 'DATA'
_DATA	ENDS
;	COMDAT ??_C@_0BJ@JBLP@Sfx?2Towners?2Pegboy19?4wav?$AA@
_DATA	SEGMENT DWORD USE32 PUBLIC 'DATA'
_DATA	ENDS
;	COMDAT ??_C@_0BJ@IOFA@Sfx?2Towners?2Pegboy20?4wav?$AA@
_DATA	SEGMENT DWORD USE32 PUBLIC 'DATA'
_DATA	ENDS
;	COMDAT ??_C@_0BJ@COHF@Sfx?2Towners?2Pegboy21?4wav?$AA@
_DATA	SEGMENT DWORD USE32 PUBLIC 'DATA'
_DATA	ENDS
;	COMDAT ??_C@_0BJ@MOBK@Sfx?2Towners?2Pegboy22?4wav?$AA@
_DATA	SEGMENT DWORD USE32 PUBLIC 'DATA'
_DATA	ENDS
;	COMDAT ??_C@_0BJ@GODP@Sfx?2Towners?2Pegboy23?4wav?$AA@
_DATA	SEGMENT DWORD USE32 PUBLIC 'DATA'
_DATA	ENDS
;	COMDAT ??_C@_0BJ@OMF@Sfx?2Towners?2Pegboy24?4wav?$AA@
_DATA	SEGMENT DWORD USE32 PUBLIC 'DATA'
_DATA	ENDS
;	COMDAT ??_C@_0BJ@KOOA@Sfx?2Towners?2Pegboy25?4wav?$AA@
_DATA	SEGMENT DWORD USE32 PUBLIC 'DATA'
_DATA	ENDS
;	COMDAT ??_C@_0BJ@EOIP@Sfx?2Towners?2Pegboy26?4wav?$AA@
_DATA	SEGMENT DWORD USE32 PUBLIC 'DATA'
_DATA	ENDS
;	COMDAT ??_C@_0BJ@OOKK@Sfx?2Towners?2Pegboy27?4wav?$AA@
_DATA	SEGMENT DWORD USE32 PUBLIC 'DATA'
_DATA	ENDS
;	COMDAT ??_C@_0BJ@IPHK@Sfx?2Towners?2Pegboy28?4wav?$AA@
_DATA	SEGMENT DWORD USE32 PUBLIC 'DATA'
_DATA	ENDS
;	COMDAT ??_C@_0BJ@CPFP@Sfx?2Towners?2Pegboy29?4wav?$AA@
_DATA	SEGMENT DWORD USE32 PUBLIC 'DATA'
_DATA	ENDS
;	COMDAT ??_C@_0BJ@BLPA@Sfx?2Towners?2Pegboy30?4wav?$AA@
_DATA	SEGMENT DWORD USE32 PUBLIC 'DATA'
_DATA	ENDS
;	COMDAT ??_C@_0BJ@LLNF@Sfx?2Towners?2Pegboy31?4wav?$AA@
_DATA	SEGMENT DWORD USE32 PUBLIC 'DATA'
_DATA	ENDS
;	COMDAT ??_C@_0BJ@FLLK@Sfx?2Towners?2Pegboy32?4wav?$AA@
_DATA	SEGMENT DWORD USE32 PUBLIC 'DATA'
_DATA	ENDS
;	COMDAT ??_C@_0BJ@PLJP@Sfx?2Towners?2Pegboy33?4wav?$AA@
_DATA	SEGMENT DWORD USE32 PUBLIC 'DATA'
_DATA	ENDS
;	COMDAT ??_C@_0BJ@JLGF@Sfx?2Towners?2Pegboy34?4wav?$AA@
_DATA	SEGMENT DWORD USE32 PUBLIC 'DATA'
_DATA	ENDS
;	COMDAT ??_C@_0BJ@DLEA@Sfx?2Towners?2Pegboy35?4wav?$AA@
_DATA	SEGMENT DWORD USE32 PUBLIC 'DATA'
_DATA	ENDS
;	COMDAT ??_C@_0BJ@NLCP@Sfx?2Towners?2Pegboy36?4wav?$AA@
_DATA	SEGMENT DWORD USE32 PUBLIC 'DATA'
_DATA	ENDS
;	COMDAT ??_C@_0BJ@HLAK@Sfx?2Towners?2Pegboy37?4wav?$AA@
_DATA	SEGMENT DWORD USE32 PUBLIC 'DATA'
_DATA	ENDS
;	COMDAT ??_C@_0BJ@BKNK@Sfx?2Towners?2Pegboy38?4wav?$AA@
_DATA	SEGMENT DWORD USE32 PUBLIC 'DATA'
_DATA	ENDS
;	COMDAT ??_C@_0BJ@LKPP@Sfx?2Towners?2Pegboy39?4wav?$AA@
_DATA	SEGMENT DWORD USE32 PUBLIC 'DATA'
_DATA	ENDS
;	COMDAT ??_C@_0BJ@PDJA@Sfx?2Towners?2Pegboy40?4wav?$AA@
_DATA	SEGMENT DWORD USE32 PUBLIC 'DATA'
_DATA	ENDS
;	COMDAT ??_C@_0BJ@FDLF@Sfx?2Towners?2Pegboy41?4wav?$AA@
_DATA	SEGMENT DWORD USE32 PUBLIC 'DATA'
_DATA	ENDS
;	COMDAT ??_C@_0BJ@LDNK@Sfx?2Towners?2Pegboy42?4wav?$AA@
_DATA	SEGMENT DWORD USE32 PUBLIC 'DATA'
_DATA	ENDS
;	COMDAT ??_C@_0BJ@BDPP@Sfx?2Towners?2Pegboy43?4wav?$AA@
_DATA	SEGMENT DWORD USE32 PUBLIC 'DATA'
_DATA	ENDS
;	COMDAT ??_C@_0BJ@IKGN@Sfx?2Towners?2Priest00?4wav?$AA@
_DATA	SEGMENT DWORD USE32 PUBLIC 'DATA'
_DATA	ENDS
;	COMDAT ??_C@_0BJ@CKEI@Sfx?2Towners?2Priest01?4wav?$AA@
_DATA	SEGMENT DWORD USE32 PUBLIC 'DATA'
_DATA	ENDS
;	COMDAT ??_C@_0BJ@MKCH@Sfx?2Towners?2Priest02?4wav?$AA@
_DATA	SEGMENT DWORD USE32 PUBLIC 'DATA'
_DATA	ENDS
;	COMDAT ??_C@_0BJ@GKAC@Sfx?2Towners?2Priest03?4wav?$AA@
_DATA	SEGMENT DWORD USE32 PUBLIC 'DATA'
_DATA	ENDS
;	COMDAT ??_C@_0BJ@KPI@Sfx?2Towners?2Priest04?4wav?$AA@
_DATA	SEGMENT DWORD USE32 PUBLIC 'DATA'
_DATA	ENDS
;	COMDAT ??_C@_0BJ@KKNN@Sfx?2Towners?2Priest05?4wav?$AA@
_DATA	SEGMENT DWORD USE32 PUBLIC 'DATA'
_DATA	ENDS
;	COMDAT ??_C@_0BJ@EKLC@Sfx?2Towners?2Priest06?4wav?$AA@
_DATA	SEGMENT DWORD USE32 PUBLIC 'DATA'
_DATA	ENDS
;	COMDAT ??_C@_0BJ@OKJH@Sfx?2Towners?2Priest07?4wav?$AA@
_DATA	SEGMENT DWORD USE32 PUBLIC 'DATA'
_DATA	ENDS
;	COMDAT ??_C@_0BJ@NJKM@Sfx?2Towners?2Storyt00?4wav?$AA@
_DATA	SEGMENT DWORD USE32 PUBLIC 'DATA'
_DATA	ENDS
;	COMDAT ??_C@_0BJ@HJIJ@Sfx?2Towners?2Storyt01?4wav?$AA@
_DATA	SEGMENT DWORD USE32 PUBLIC 'DATA'
_DATA	ENDS
;	COMDAT ??_C@_0BJ@JJOG@Sfx?2Towners?2Storyt02?4wav?$AA@
_DATA	SEGMENT DWORD USE32 PUBLIC 'DATA'
_DATA	ENDS
;	COMDAT ??_C@_0BJ@DJMD@Sfx?2Towners?2Storyt03?4wav?$AA@
_DATA	SEGMENT DWORD USE32 PUBLIC 'DATA'
_DATA	ENDS
;	COMDAT ??_C@_0BJ@FJDJ@Sfx?2Towners?2Storyt04?4wav?$AA@
_DATA	SEGMENT DWORD USE32 PUBLIC 'DATA'
_DATA	ENDS
;	COMDAT ??_C@_0BJ@PJBM@Sfx?2Towners?2Storyt05?4wav?$AA@
_DATA	SEGMENT DWORD USE32 PUBLIC 'DATA'
_DATA	ENDS
;	COMDAT ??_C@_0BJ@BJHD@Sfx?2Towners?2Storyt06?4wav?$AA@
_DATA	SEGMENT DWORD USE32 PUBLIC 'DATA'
_DATA	ENDS
;	COMDAT ??_C@_0BJ@LJFG@Sfx?2Towners?2Storyt07?4wav?$AA@
_DATA	SEGMENT DWORD USE32 PUBLIC 'DATA'
_DATA	ENDS
;	COMDAT ??_C@_0BJ@NIIG@Sfx?2Towners?2Storyt08?4wav?$AA@
_DATA	SEGMENT DWORD USE32 PUBLIC 'DATA'
_DATA	ENDS
;	COMDAT ??_C@_0BJ@HIKD@Sfx?2Towners?2Storyt09?4wav?$AA@
_DATA	SEGMENT DWORD USE32 PUBLIC 'DATA'
_DATA	ENDS
;	COMDAT ??_C@_0BJ@EMAM@Sfx?2Towners?2Storyt10?4wav?$AA@
_DATA	SEGMENT DWORD USE32 PUBLIC 'DATA'
_DATA	ENDS
;	COMDAT ??_C@_0BJ@OMCJ@Sfx?2Towners?2Storyt11?4wav?$AA@
_DATA	SEGMENT DWORD USE32 PUBLIC 'DATA'
_DATA	ENDS
;	COMDAT ??_C@_0BJ@MEG@Sfx?2Towners?2Storyt12?4wav?$AA@
_DATA	SEGMENT DWORD USE32 PUBLIC 'DATA'
_DATA	ENDS
;	COMDAT ??_C@_0BJ@KMGD@Sfx?2Towners?2Storyt13?4wav?$AA@
_DATA	SEGMENT DWORD USE32 PUBLIC 'DATA'
_DATA	ENDS
;	COMDAT ??_C@_0BJ@MMJJ@Sfx?2Towners?2Storyt14?4wav?$AA@
_DATA	SEGMENT DWORD USE32 PUBLIC 'DATA'
_DATA	ENDS
;	COMDAT ??_C@_0BJ@GMLM@Sfx?2Towners?2Storyt15?4wav?$AA@
_DATA	SEGMENT DWORD USE32 PUBLIC 'DATA'
_DATA	ENDS
;	COMDAT ??_C@_0BJ@IMND@Sfx?2Towners?2Storyt16?4wav?$AA@
_DATA	SEGMENT DWORD USE32 PUBLIC 'DATA'
_DATA	ENDS
;	COMDAT ??_C@_0BJ@CMPG@Sfx?2Towners?2Storyt17?4wav?$AA@
_DATA	SEGMENT DWORD USE32 PUBLIC 'DATA'
_DATA	ENDS
;	COMDAT ??_C@_0BJ@ENCG@Sfx?2Towners?2Storyt18?4wav?$AA@
_DATA	SEGMENT DWORD USE32 PUBLIC 'DATA'
_DATA	ENDS
;	COMDAT ??_C@_0BJ@ONAD@Sfx?2Towners?2Storyt19?4wav?$AA@
_DATA	SEGMENT DWORD USE32 PUBLIC 'DATA'
_DATA	ENDS
;	COMDAT ??_C@_0BJ@PCOM@Sfx?2Towners?2Storyt20?4wav?$AA@
_DATA	SEGMENT DWORD USE32 PUBLIC 'DATA'
_DATA	ENDS
;	COMDAT ??_C@_0BJ@FCMJ@Sfx?2Towners?2Storyt21?4wav?$AA@
_DATA	SEGMENT DWORD USE32 PUBLIC 'DATA'
_DATA	ENDS
;	COMDAT ??_C@_0BJ@LCKG@Sfx?2Towners?2Storyt22?4wav?$AA@
_DATA	SEGMENT DWORD USE32 PUBLIC 'DATA'
_DATA	ENDS
;	COMDAT ??_C@_0BJ@BCID@Sfx?2Towners?2Storyt23?4wav?$AA@
_DATA	SEGMENT DWORD USE32 PUBLIC 'DATA'
_DATA	ENDS
;	COMDAT ??_C@_0BJ@HCHJ@Sfx?2Towners?2Storyt24?4wav?$AA@
_DATA	SEGMENT DWORD USE32 PUBLIC 'DATA'
_DATA	ENDS
;	COMDAT ??_C@_0BJ@NCFM@Sfx?2Towners?2Storyt25?4wav?$AA@
_DATA	SEGMENT DWORD USE32 PUBLIC 'DATA'
_DATA	ENDS
;	COMDAT ??_C@_0BJ@DCDD@Sfx?2Towners?2Storyt26?4wav?$AA@
_DATA	SEGMENT DWORD USE32 PUBLIC 'DATA'
_DATA	ENDS
;	COMDAT ??_C@_0BJ@JCBG@Sfx?2Towners?2Storyt27?4wav?$AA@
_DATA	SEGMENT DWORD USE32 PUBLIC 'DATA'
_DATA	ENDS
;	COMDAT ??_C@_0BJ@PDMG@Sfx?2Towners?2Storyt28?4wav?$AA@
_DATA	SEGMENT DWORD USE32 PUBLIC 'DATA'
_DATA	ENDS
;	COMDAT ??_C@_0BJ@FDOD@Sfx?2Towners?2Storyt29?4wav?$AA@
_DATA	SEGMENT DWORD USE32 PUBLIC 'DATA'
_DATA	ENDS
;	COMDAT ??_C@_0BJ@GHEM@Sfx?2Towners?2Storyt30?4wav?$AA@
_DATA	SEGMENT DWORD USE32 PUBLIC 'DATA'
_DATA	ENDS
;	COMDAT ??_C@_0BJ@MHGJ@Sfx?2Towners?2Storyt31?4wav?$AA@
_DATA	SEGMENT DWORD USE32 PUBLIC 'DATA'
_DATA	ENDS
;	COMDAT ??_C@_0BJ@CHAG@Sfx?2Towners?2Storyt32?4wav?$AA@
_DATA	SEGMENT DWORD USE32 PUBLIC 'DATA'
_DATA	ENDS
;	COMDAT ??_C@_0BJ@IHCD@Sfx?2Towners?2Storyt33?4wav?$AA@
_DATA	SEGMENT DWORD USE32 PUBLIC 'DATA'
_DATA	ENDS
;	COMDAT ??_C@_0BJ@OHNJ@Sfx?2Towners?2Storyt34?4wav?$AA@
_DATA	SEGMENT DWORD USE32 PUBLIC 'DATA'
_DATA	ENDS
;	COMDAT ??_C@_0BJ@EHPM@Sfx?2Towners?2Storyt35?4wav?$AA@
_DATA	SEGMENT DWORD USE32 PUBLIC 'DATA'
_DATA	ENDS
;	COMDAT ??_C@_0BJ@KHJD@Sfx?2Towners?2Storyt36?4wav?$AA@
_DATA	SEGMENT DWORD USE32 PUBLIC 'DATA'
_DATA	ENDS
;	COMDAT ??_C@_0BJ@HLG@Sfx?2Towners?2Storyt37?4wav?$AA@
_DATA	SEGMENT DWORD USE32 PUBLIC 'DATA'
_DATA	ENDS
;	COMDAT ??_C@_0BJ@GGGG@Sfx?2Towners?2Storyt38?4wav?$AA@
_DATA	SEGMENT DWORD USE32 PUBLIC 'DATA'
_DATA	ENDS
;	COMDAT ??_C@_0BJ@PBGF@Sfx?2Towners?2Tavown00?4wav?$AA@
_DATA	SEGMENT DWORD USE32 PUBLIC 'DATA'
_DATA	ENDS
;	COMDAT ??_C@_0BJ@FBEA@Sfx?2Towners?2Tavown01?4wav?$AA@
_DATA	SEGMENT DWORD USE32 PUBLIC 'DATA'
_DATA	ENDS
;	COMDAT ??_C@_0BJ@LBCP@Sfx?2Towners?2Tavown02?4wav?$AA@
_DATA	SEGMENT DWORD USE32 PUBLIC 'DATA'
_DATA	ENDS
;	COMDAT ??_C@_0BJ@BBAK@Sfx?2Towners?2Tavown03?4wav?$AA@
_DATA	SEGMENT DWORD USE32 PUBLIC 'DATA'
_DATA	ENDS
;	COMDAT ??_C@_0BJ@HBPA@Sfx?2Towners?2Tavown04?4wav?$AA@
_DATA	SEGMENT DWORD USE32 PUBLIC 'DATA'
_DATA	ENDS
;	COMDAT ??_C@_0BJ@NBNF@Sfx?2Towners?2Tavown05?4wav?$AA@
_DATA	SEGMENT DWORD USE32 PUBLIC 'DATA'
_DATA	ENDS
;	COMDAT ??_C@_0BJ@DBLK@Sfx?2Towners?2Tavown06?4wav?$AA@
_DATA	SEGMENT DWORD USE32 PUBLIC 'DATA'
_DATA	ENDS
;	COMDAT ??_C@_0BJ@JBJP@Sfx?2Towners?2Tavown07?4wav?$AA@
_DATA	SEGMENT DWORD USE32 PUBLIC 'DATA'
_DATA	ENDS
;	COMDAT ??_C@_0BJ@PAEP@Sfx?2Towners?2Tavown08?4wav?$AA@
_DATA	SEGMENT DWORD USE32 PUBLIC 'DATA'
_DATA	ENDS
;	COMDAT ??_C@_0BJ@FAGK@Sfx?2Towners?2Tavown09?4wav?$AA@
_DATA	SEGMENT DWORD USE32 PUBLIC 'DATA'
_DATA	ENDS
;	COMDAT ??_C@_0BJ@GEMF@Sfx?2Towners?2Tavown10?4wav?$AA@
_DATA	SEGMENT DWORD USE32 PUBLIC 'DATA'
_DATA	ENDS
;	COMDAT ??_C@_0BJ@MEOA@Sfx?2Towners?2Tavown11?4wav?$AA@
_DATA	SEGMENT DWORD USE32 PUBLIC 'DATA'
_DATA	ENDS
;	COMDAT ??_C@_0BJ@CEIP@Sfx?2Towners?2Tavown12?4wav?$AA@
_DATA	SEGMENT DWORD USE32 PUBLIC 'DATA'
_DATA	ENDS
;	COMDAT ??_C@_0BJ@IEKK@Sfx?2Towners?2Tavown13?4wav?$AA@
_DATA	SEGMENT DWORD USE32 PUBLIC 'DATA'
_DATA	ENDS
;	COMDAT ??_C@_0BJ@OEFA@Sfx?2Towners?2Tavown14?4wav?$AA@
_DATA	SEGMENT DWORD USE32 PUBLIC 'DATA'
_DATA	ENDS
;	COMDAT ??_C@_0BJ@EEHF@Sfx?2Towners?2Tavown15?4wav?$AA@
_DATA	SEGMENT DWORD USE32 PUBLIC 'DATA'
_DATA	ENDS
;	COMDAT ??_C@_0BJ@KEBK@Sfx?2Towners?2Tavown16?4wav?$AA@
_DATA	SEGMENT DWORD USE32 PUBLIC 'DATA'
_DATA	ENDS
;	COMDAT ??_C@_0BJ@EDP@Sfx?2Towners?2Tavown17?4wav?$AA@
_DATA	SEGMENT DWORD USE32 PUBLIC 'DATA'
_DATA	ENDS
;	COMDAT ??_C@_0BJ@GFOP@Sfx?2Towners?2Tavown18?4wav?$AA@
_DATA	SEGMENT DWORD USE32 PUBLIC 'DATA'
_DATA	ENDS
;	COMDAT ??_C@_0BJ@MFMK@Sfx?2Towners?2Tavown19?4wav?$AA@
_DATA	SEGMENT DWORD USE32 PUBLIC 'DATA'
_DATA	ENDS
;	COMDAT ??_C@_0BJ@NKCF@Sfx?2Towners?2Tavown20?4wav?$AA@
_DATA	SEGMENT DWORD USE32 PUBLIC 'DATA'
_DATA	ENDS
;	COMDAT ??_C@_0BJ@HKAA@Sfx?2Towners?2Tavown21?4wav?$AA@
_DATA	SEGMENT DWORD USE32 PUBLIC 'DATA'
_DATA	ENDS
;	COMDAT ??_C@_0BJ@JKGP@Sfx?2Towners?2Tavown22?4wav?$AA@
_DATA	SEGMENT DWORD USE32 PUBLIC 'DATA'
_DATA	ENDS
;	COMDAT ??_C@_0BJ@DKEK@Sfx?2Towners?2Tavown23?4wav?$AA@
_DATA	SEGMENT DWORD USE32 PUBLIC 'DATA'
_DATA	ENDS
;	COMDAT ??_C@_0BJ@FKLA@Sfx?2Towners?2Tavown24?4wav?$AA@
_DATA	SEGMENT DWORD USE32 PUBLIC 'DATA'
_DATA	ENDS
;	COMDAT ??_C@_0BJ@PKJF@Sfx?2Towners?2Tavown25?4wav?$AA@
_DATA	SEGMENT DWORD USE32 PUBLIC 'DATA'
_DATA	ENDS
;	COMDAT ??_C@_0BJ@BKPK@Sfx?2Towners?2Tavown26?4wav?$AA@
_DATA	SEGMENT DWORD USE32 PUBLIC 'DATA'
_DATA	ENDS
;	COMDAT ??_C@_0BJ@LKNP@Sfx?2Towners?2Tavown27?4wav?$AA@
_DATA	SEGMENT DWORD USE32 PUBLIC 'DATA'
_DATA	ENDS
;	COMDAT ??_C@_0BJ@NLAP@Sfx?2Towners?2Tavown28?4wav?$AA@
_DATA	SEGMENT DWORD USE32 PUBLIC 'DATA'
_DATA	ENDS
;	COMDAT ??_C@_0BJ@HLCK@Sfx?2Towners?2Tavown29?4wav?$AA@
_DATA	SEGMENT DWORD USE32 PUBLIC 'DATA'
_DATA	ENDS
;	COMDAT ??_C@_0BJ@EPIF@Sfx?2Towners?2Tavown30?4wav?$AA@
_DATA	SEGMENT DWORD USE32 PUBLIC 'DATA'
_DATA	ENDS
;	COMDAT ??_C@_0BJ@OPKA@Sfx?2Towners?2Tavown31?4wav?$AA@
_DATA	SEGMENT DWORD USE32 PUBLIC 'DATA'
_DATA	ENDS
;	COMDAT ??_C@_0BJ@PMP@Sfx?2Towners?2Tavown32?4wav?$AA@
_DATA	SEGMENT DWORD USE32 PUBLIC 'DATA'
_DATA	ENDS
;	COMDAT ??_C@_0BJ@KPOK@Sfx?2Towners?2Tavown33?4wav?$AA@
_DATA	SEGMENT DWORD USE32 PUBLIC 'DATA'
_DATA	ENDS
;	COMDAT ??_C@_0BJ@MPBA@Sfx?2Towners?2Tavown34?4wav?$AA@
_DATA	SEGMENT DWORD USE32 PUBLIC 'DATA'
_DATA	ENDS
;	COMDAT ??_C@_0BJ@GPDF@Sfx?2Towners?2Tavown35?4wav?$AA@
_DATA	SEGMENT DWORD USE32 PUBLIC 'DATA'
_DATA	ENDS
;	COMDAT ??_C@_0BJ@IPFK@Sfx?2Towners?2Tavown36?4wav?$AA@
_DATA	SEGMENT DWORD USE32 PUBLIC 'DATA'
_DATA	ENDS
;	COMDAT ??_C@_0BJ@CPHP@Sfx?2Towners?2Tavown37?4wav?$AA@
_DATA	SEGMENT DWORD USE32 PUBLIC 'DATA'
_DATA	ENDS
;	COMDAT ??_C@_0BJ@EOKP@Sfx?2Towners?2Tavown38?4wav?$AA@
_DATA	SEGMENT DWORD USE32 PUBLIC 'DATA'
_DATA	ENDS
;	COMDAT ??_C@_0BJ@OOIK@Sfx?2Towners?2Tavown39?4wav?$AA@
_DATA	SEGMENT DWORD USE32 PUBLIC 'DATA'
_DATA	ENDS
;	COMDAT ??_C@_0BJ@KHOF@Sfx?2Towners?2Tavown40?4wav?$AA@
_DATA	SEGMENT DWORD USE32 PUBLIC 'DATA'
_DATA	ENDS
;	COMDAT ??_C@_0BJ@HMA@Sfx?2Towners?2Tavown41?4wav?$AA@
_DATA	SEGMENT DWORD USE32 PUBLIC 'DATA'
_DATA	ENDS
;	COMDAT ??_C@_0BJ@OHKP@Sfx?2Towners?2Tavown42?4wav?$AA@
_DATA	SEGMENT DWORD USE32 PUBLIC 'DATA'
_DATA	ENDS
;	COMDAT ??_C@_0BJ@EHIK@Sfx?2Towners?2Tavown43?4wav?$AA@
_DATA	SEGMENT DWORD USE32 PUBLIC 'DATA'
_DATA	ENDS
;	COMDAT ??_C@_0BJ@CHHA@Sfx?2Towners?2Tavown44?4wav?$AA@
_DATA	SEGMENT DWORD USE32 PUBLIC 'DATA'
_DATA	ENDS
;	COMDAT ??_C@_0BJ@IHFF@Sfx?2Towners?2Tavown45?4wav?$AA@
_DATA	SEGMENT DWORD USE32 PUBLIC 'DATA'
_DATA	ENDS
;	COMDAT ??_C@_0BI@NCKL@Sfx?2Towners?2Witch01?4wav?$AA@
_DATA	SEGMENT DWORD USE32 PUBLIC 'DATA'
_DATA	ENDS
;	COMDAT ??_C@_0BI@DCME@Sfx?2Towners?2Witch02?4wav?$AA@
_DATA	SEGMENT DWORD USE32 PUBLIC 'DATA'
_DATA	ENDS
;	COMDAT ??_C@_0BI@JCOB@Sfx?2Towners?2Witch03?4wav?$AA@
_DATA	SEGMENT DWORD USE32 PUBLIC 'DATA'
_DATA	ENDS
;	COMDAT ??_C@_0BI@PCBL@Sfx?2Towners?2Witch04?4wav?$AA@
_DATA	SEGMENT DWORD USE32 PUBLIC 'DATA'
_DATA	ENDS
;	COMDAT ??_C@_0BI@FCDO@Sfx?2Towners?2Witch05?4wav?$AA@
_DATA	SEGMENT DWORD USE32 PUBLIC 'DATA'
_DATA	ENDS
;	COMDAT ??_C@_0BI@LCFB@Sfx?2Towners?2Witch06?4wav?$AA@
_DATA	SEGMENT DWORD USE32 PUBLIC 'DATA'
_DATA	ENDS
;	COMDAT ??_C@_0BI@BCHE@Sfx?2Towners?2Witch07?4wav?$AA@
_DATA	SEGMENT DWORD USE32 PUBLIC 'DATA'
_DATA	ENDS
;	COMDAT ??_C@_0BI@HDKE@Sfx?2Towners?2Witch08?4wav?$AA@
_DATA	SEGMENT DWORD USE32 PUBLIC 'DATA'
_DATA	ENDS
;	COMDAT ??_C@_0BI@NDIB@Sfx?2Towners?2Witch09?4wav?$AA@
_DATA	SEGMENT DWORD USE32 PUBLIC 'DATA'
_DATA	ENDS
;	COMDAT ??_C@_0BI@OHCO@Sfx?2Towners?2Witch10?4wav?$AA@
_DATA	SEGMENT DWORD USE32 PUBLIC 'DATA'
_DATA	ENDS
;	COMDAT ??_C@_0BI@EHAL@Sfx?2Towners?2Witch11?4wav?$AA@
_DATA	SEGMENT DWORD USE32 PUBLIC 'DATA'
_DATA	ENDS
;	COMDAT ??_C@_0BI@KHGE@Sfx?2Towners?2Witch12?4wav?$AA@
_DATA	SEGMENT DWORD USE32 PUBLIC 'DATA'
_DATA	ENDS
;	COMDAT ??_C@_0BI@HEB@Sfx?2Towners?2Witch13?4wav?$AA@
_DATA	SEGMENT DWORD USE32 PUBLIC 'DATA'
_DATA	ENDS
;	COMDAT ??_C@_0BI@GHLL@Sfx?2Towners?2Witch14?4wav?$AA@
_DATA	SEGMENT DWORD USE32 PUBLIC 'DATA'
_DATA	ENDS
;	COMDAT ??_C@_0BI@MHJO@Sfx?2Towners?2Witch15?4wav?$AA@
_DATA	SEGMENT DWORD USE32 PUBLIC 'DATA'
_DATA	ENDS
;	COMDAT ??_C@_0BI@CHPB@Sfx?2Towners?2Witch16?4wav?$AA@
_DATA	SEGMENT DWORD USE32 PUBLIC 'DATA'
_DATA	ENDS
;	COMDAT ??_C@_0BI@IHNE@Sfx?2Towners?2Witch17?4wav?$AA@
_DATA	SEGMENT DWORD USE32 PUBLIC 'DATA'
_DATA	ENDS
;	COMDAT ??_C@_0BI@OGAE@Sfx?2Towners?2Witch18?4wav?$AA@
_DATA	SEGMENT DWORD USE32 PUBLIC 'DATA'
_DATA	ENDS
;	COMDAT ??_C@_0BI@EGCB@Sfx?2Towners?2Witch19?4wav?$AA@
_DATA	SEGMENT DWORD USE32 PUBLIC 'DATA'
_DATA	ENDS
;	COMDAT ??_C@_0BI@FJMO@Sfx?2Towners?2Witch20?4wav?$AA@
_DATA	SEGMENT DWORD USE32 PUBLIC 'DATA'
_DATA	ENDS
;	COMDAT ??_C@_0BI@PJOL@Sfx?2Towners?2Witch21?4wav?$AA@
_DATA	SEGMENT DWORD USE32 PUBLIC 'DATA'
_DATA	ENDS
;	COMDAT ??_C@_0BI@BJIE@Sfx?2Towners?2Witch22?4wav?$AA@
_DATA	SEGMENT DWORD USE32 PUBLIC 'DATA'
_DATA	ENDS
;	COMDAT ??_C@_0BI@LJKB@Sfx?2Towners?2Witch23?4wav?$AA@
_DATA	SEGMENT DWORD USE32 PUBLIC 'DATA'
_DATA	ENDS
;	COMDAT ??_C@_0BI@NJFL@Sfx?2Towners?2Witch24?4wav?$AA@
_DATA	SEGMENT DWORD USE32 PUBLIC 'DATA'
_DATA	ENDS
;	COMDAT ??_C@_0BI@HJHO@Sfx?2Towners?2Witch25?4wav?$AA@
_DATA	SEGMENT DWORD USE32 PUBLIC 'DATA'
_DATA	ENDS
;	COMDAT ??_C@_0BI@JJBB@Sfx?2Towners?2Witch26?4wav?$AA@
_DATA	SEGMENT DWORD USE32 PUBLIC 'DATA'
_DATA	ENDS
;	COMDAT ??_C@_0BI@DJDE@Sfx?2Towners?2Witch27?4wav?$AA@
_DATA	SEGMENT DWORD USE32 PUBLIC 'DATA'
_DATA	ENDS
;	COMDAT ??_C@_0BI@FIOE@Sfx?2Towners?2Witch28?4wav?$AA@
_DATA	SEGMENT DWORD USE32 PUBLIC 'DATA'
_DATA	ENDS
;	COMDAT ??_C@_0BI@PIMB@Sfx?2Towners?2Witch29?4wav?$AA@
_DATA	SEGMENT DWORD USE32 PUBLIC 'DATA'
_DATA	ENDS
;	COMDAT ??_C@_0BI@MMGO@Sfx?2Towners?2Witch30?4wav?$AA@
_DATA	SEGMENT DWORD USE32 PUBLIC 'DATA'
_DATA	ENDS
;	COMDAT ??_C@_0BI@GMEL@Sfx?2Towners?2Witch31?4wav?$AA@
_DATA	SEGMENT DWORD USE32 PUBLIC 'DATA'
_DATA	ENDS
;	COMDAT ??_C@_0BI@IMCE@Sfx?2Towners?2Witch32?4wav?$AA@
_DATA	SEGMENT DWORD USE32 PUBLIC 'DATA'
_DATA	ENDS
;	COMDAT ??_C@_0BI@CMAB@Sfx?2Towners?2Witch33?4wav?$AA@
_DATA	SEGMENT DWORD USE32 PUBLIC 'DATA'
_DATA	ENDS
;	COMDAT ??_C@_0BI@EMPL@Sfx?2Towners?2Witch34?4wav?$AA@
_DATA	SEGMENT DWORD USE32 PUBLIC 'DATA'
_DATA	ENDS
;	COMDAT ??_C@_0BI@OMNO@Sfx?2Towners?2Witch35?4wav?$AA@
_DATA	SEGMENT DWORD USE32 PUBLIC 'DATA'
_DATA	ENDS
;	COMDAT ??_C@_0BI@MLB@Sfx?2Towners?2Witch36?4wav?$AA@
_DATA	SEGMENT DWORD USE32 PUBLIC 'DATA'
_DATA	ENDS
;	COMDAT ??_C@_0BI@KMJE@Sfx?2Towners?2Witch37?4wav?$AA@
_DATA	SEGMENT DWORD USE32 PUBLIC 'DATA'
_DATA	ENDS
;	COMDAT ??_C@_0BI@MNEE@Sfx?2Towners?2Witch38?4wav?$AA@
_DATA	SEGMENT DWORD USE32 PUBLIC 'DATA'
_DATA	ENDS
;	COMDAT ??_C@_0BI@GNGB@Sfx?2Towners?2Witch39?4wav?$AA@
_DATA	SEGMENT DWORD USE32 PUBLIC 'DATA'
_DATA	ENDS
;	COMDAT ??_C@_0BI@CEAO@Sfx?2Towners?2Witch40?4wav?$AA@
_DATA	SEGMENT DWORD USE32 PUBLIC 'DATA'
_DATA	ENDS
;	COMDAT ??_C@_0BI@IECL@Sfx?2Towners?2Witch41?4wav?$AA@
_DATA	SEGMENT DWORD USE32 PUBLIC 'DATA'
_DATA	ENDS
;	COMDAT ??_C@_0BI@GEEE@Sfx?2Towners?2Witch42?4wav?$AA@
_DATA	SEGMENT DWORD USE32 PUBLIC 'DATA'
_DATA	ENDS
;	COMDAT ??_C@_0BI@MEGB@Sfx?2Towners?2Witch43?4wav?$AA@
_DATA	SEGMENT DWORD USE32 PUBLIC 'DATA'
_DATA	ENDS
;	COMDAT ??_C@_0BI@KEJL@Sfx?2Towners?2Witch44?4wav?$AA@
_DATA	SEGMENT DWORD USE32 PUBLIC 'DATA'
_DATA	ENDS
;	COMDAT ??_C@_0BI@ELO@Sfx?2Towners?2Witch45?4wav?$AA@
_DATA	SEGMENT DWORD USE32 PUBLIC 'DATA'
_DATA	ENDS
;	COMDAT ??_C@_0BI@OENB@Sfx?2Towners?2Witch46?4wav?$AA@
_DATA	SEGMENT DWORD USE32 PUBLIC 'DATA'
_DATA	ENDS
;	COMDAT ??_C@_0BI@EEPE@Sfx?2Towners?2Witch47?4wav?$AA@
_DATA	SEGMENT DWORD USE32 PUBLIC 'DATA'
_DATA	ENDS
;	COMDAT ??_C@_0BI@CFCE@Sfx?2Towners?2Witch48?4wav?$AA@
_DATA	SEGMENT DWORD USE32 PUBLIC 'DATA'
_DATA	ENDS
;	COMDAT ??_C@_0BI@IFAB@Sfx?2Towners?2Witch49?4wav?$AA@
_DATA	SEGMENT DWORD USE32 PUBLIC 'DATA'
_DATA	ENDS
;	COMDAT ??_C@_0BI@LBKO@Sfx?2Towners?2Witch50?4wav?$AA@
_DATA	SEGMENT DWORD USE32 PUBLIC 'DATA'
_DATA	ENDS
;	COMDAT ??_C@_0BI@NHHF@Sfx?2Towners?2Wound01?4wav?$AA@
_DATA	SEGMENT DWORD USE32 PUBLIC 'DATA'
_DATA	ENDS
;	COMDAT ??_C@_0BI@EBFF@Sfx?2Sorceror?2Mage01?4wav?$AA@
_DATA	SEGMENT DWORD USE32 PUBLIC 'DATA'
_DATA	ENDS
;	COMDAT ??_C@_0BI@KBDK@Sfx?2Sorceror?2Mage02?4wav?$AA@
_DATA	SEGMENT DWORD USE32 PUBLIC 'DATA'
_DATA	ENDS
;	COMDAT ??_C@_0BI@BBP@Sfx?2Sorceror?2Mage03?4wav?$AA@
_DATA	SEGMENT DWORD USE32 PUBLIC 'DATA'
_DATA	ENDS
;	COMDAT ??_C@_0BI@GBOF@Sfx?2Sorceror?2Mage04?4wav?$AA@
_DATA	SEGMENT DWORD USE32 PUBLIC 'DATA'
_DATA	ENDS
;	COMDAT ??_C@_0BI@MBMA@Sfx?2Sorceror?2Mage05?4wav?$AA@
_DATA	SEGMENT DWORD USE32 PUBLIC 'DATA'
_DATA	ENDS
;	COMDAT ??_C@_0BI@CBKP@Sfx?2Sorceror?2Mage06?4wav?$AA@
_DATA	SEGMENT DWORD USE32 PUBLIC 'DATA'
_DATA	ENDS
;	COMDAT ??_C@_0BI@IBIK@Sfx?2Sorceror?2Mage07?4wav?$AA@
_DATA	SEGMENT DWORD USE32 PUBLIC 'DATA'
_DATA	ENDS
;	COMDAT ??_C@_0BI@OAFK@Sfx?2Sorceror?2Mage08?4wav?$AA@
_DATA	SEGMENT DWORD USE32 PUBLIC 'DATA'
_DATA	ENDS
;	COMDAT ??_C@_0BI@EAHP@Sfx?2Sorceror?2Mage09?4wav?$AA@
_DATA	SEGMENT DWORD USE32 PUBLIC 'DATA'
_DATA	ENDS
;	COMDAT ??_C@_0BI@HENA@Sfx?2Sorceror?2Mage10?4wav?$AA@
_DATA	SEGMENT DWORD USE32 PUBLIC 'DATA'
_DATA	ENDS
;	COMDAT ??_C@_0BI@NEPF@Sfx?2Sorceror?2Mage11?4wav?$AA@
_DATA	SEGMENT DWORD USE32 PUBLIC 'DATA'
_DATA	ENDS
;	COMDAT ??_C@_0BI@DEJK@Sfx?2Sorceror?2Mage12?4wav?$AA@
_DATA	SEGMENT DWORD USE32 PUBLIC 'DATA'
_DATA	ENDS
;	COMDAT ??_C@_0BI@JELP@Sfx?2Sorceror?2Mage13?4wav?$AA@
_DATA	SEGMENT DWORD USE32 PUBLIC 'DATA'
_DATA	ENDS
;	COMDAT ??_C@_0BI@PEEF@Sfx?2Sorceror?2Mage14?4wav?$AA@
_DATA	SEGMENT DWORD USE32 PUBLIC 'DATA'
_DATA	ENDS
;	COMDAT ??_C@_0BI@FEGA@Sfx?2Sorceror?2Mage15?4wav?$AA@
_DATA	SEGMENT DWORD USE32 PUBLIC 'DATA'
_DATA	ENDS
;	COMDAT ??_C@_0BI@LEAP@Sfx?2Sorceror?2Mage16?4wav?$AA@
_DATA	SEGMENT DWORD USE32 PUBLIC 'DATA'
_DATA	ENDS
;	COMDAT ??_C@_0BI@BECK@Sfx?2Sorceror?2Mage17?4wav?$AA@
_DATA	SEGMENT DWORD USE32 PUBLIC 'DATA'
_DATA	ENDS
;	COMDAT ??_C@_0BI@HFPK@Sfx?2Sorceror?2Mage18?4wav?$AA@
_DATA	SEGMENT DWORD USE32 PUBLIC 'DATA'
_DATA	ENDS
;	COMDAT ??_C@_0BI@NFNP@Sfx?2Sorceror?2Mage19?4wav?$AA@
_DATA	SEGMENT DWORD USE32 PUBLIC 'DATA'
_DATA	ENDS
;	COMDAT ??_C@_0BI@MKDA@Sfx?2Sorceror?2Mage20?4wav?$AA@
_DATA	SEGMENT DWORD USE32 PUBLIC 'DATA'
_DATA	ENDS
;	COMDAT ??_C@_0BI@GKBF@Sfx?2Sorceror?2Mage21?4wav?$AA@
_DATA	SEGMENT DWORD USE32 PUBLIC 'DATA'
_DATA	ENDS
;	COMDAT ??_C@_0BI@IKHK@Sfx?2Sorceror?2Mage22?4wav?$AA@
_DATA	SEGMENT DWORD USE32 PUBLIC 'DATA'
_DATA	ENDS
;	COMDAT ??_C@_0BI@CKFP@Sfx?2Sorceror?2Mage23?4wav?$AA@
_DATA	SEGMENT DWORD USE32 PUBLIC 'DATA'
_DATA	ENDS
;	COMDAT ??_C@_0BI@EKKF@Sfx?2Sorceror?2Mage24?4wav?$AA@
_DATA	SEGMENT DWORD USE32 PUBLIC 'DATA'
_DATA	ENDS
;	COMDAT ??_C@_0BI@OKIA@Sfx?2Sorceror?2Mage25?4wav?$AA@
_DATA	SEGMENT DWORD USE32 PUBLIC 'DATA'
_DATA	ENDS
;	COMDAT ??_C@_0BI@KOP@Sfx?2Sorceror?2Mage26?4wav?$AA@
_DATA	SEGMENT DWORD USE32 PUBLIC 'DATA'
_DATA	ENDS
;	COMDAT ??_C@_0BI@KKMK@Sfx?2Sorceror?2Mage27?4wav?$AA@
_DATA	SEGMENT DWORD USE32 PUBLIC 'DATA'
_DATA	ENDS
;	COMDAT ??_C@_0BI@MLBK@Sfx?2Sorceror?2Mage28?4wav?$AA@
_DATA	SEGMENT DWORD USE32 PUBLIC 'DATA'
_DATA	ENDS
;	COMDAT ??_C@_0BI@GLDP@Sfx?2Sorceror?2Mage29?4wav?$AA@
_DATA	SEGMENT DWORD USE32 PUBLIC 'DATA'
_DATA	ENDS
;	COMDAT ??_C@_0BI@FPJA@Sfx?2Sorceror?2Mage30?4wav?$AA@
_DATA	SEGMENT DWORD USE32 PUBLIC 'DATA'
_DATA	ENDS
;	COMDAT ??_C@_0BI@PPLF@Sfx?2Sorceror?2Mage31?4wav?$AA@
_DATA	SEGMENT DWORD USE32 PUBLIC 'DATA'
_DATA	ENDS
;	COMDAT ??_C@_0BI@BPNK@Sfx?2Sorceror?2Mage32?4wav?$AA@
_DATA	SEGMENT DWORD USE32 PUBLIC 'DATA'
_DATA	ENDS
;	COMDAT ??_C@_0BI@LPPP@Sfx?2Sorceror?2Mage33?4wav?$AA@
_DATA	SEGMENT DWORD USE32 PUBLIC 'DATA'
_DATA	ENDS
;	COMDAT ??_C@_0BI@NPAF@Sfx?2Sorceror?2Mage34?4wav?$AA@
_DATA	SEGMENT DWORD USE32 PUBLIC 'DATA'
_DATA	ENDS
;	COMDAT ??_C@_0BI@HPCA@Sfx?2Sorceror?2Mage35?4wav?$AA@
_DATA	SEGMENT DWORD USE32 PUBLIC 'DATA'
_DATA	ENDS
;	COMDAT ??_C@_0BI@JPEP@Sfx?2Sorceror?2Mage36?4wav?$AA@
_DATA	SEGMENT DWORD USE32 PUBLIC 'DATA'
_DATA	ENDS
;	COMDAT ??_C@_0BI@DPGK@Sfx?2Sorceror?2Mage37?4wav?$AA@
_DATA	SEGMENT DWORD USE32 PUBLIC 'DATA'
_DATA	ENDS
;	COMDAT ??_C@_0BI@FOLK@Sfx?2Sorceror?2Mage38?4wav?$AA@
_DATA	SEGMENT DWORD USE32 PUBLIC 'DATA'
_DATA	ENDS
;	COMDAT ??_C@_0BI@POJP@Sfx?2Sorceror?2Mage39?4wav?$AA@
_DATA	SEGMENT DWORD USE32 PUBLIC 'DATA'
_DATA	ENDS
;	COMDAT ??_C@_0BI@LHPA@Sfx?2Sorceror?2Mage40?4wav?$AA@
_DATA	SEGMENT DWORD USE32 PUBLIC 'DATA'
_DATA	ENDS
;	COMDAT ??_C@_0BI@BHNF@Sfx?2Sorceror?2Mage41?4wav?$AA@
_DATA	SEGMENT DWORD USE32 PUBLIC 'DATA'
_DATA	ENDS
;	COMDAT ??_C@_0BI@PHLK@Sfx?2Sorceror?2Mage42?4wav?$AA@
_DATA	SEGMENT DWORD USE32 PUBLIC 'DATA'
_DATA	ENDS
;	COMDAT ??_C@_0BI@FHJP@Sfx?2Sorceror?2Mage43?4wav?$AA@
_DATA	SEGMENT DWORD USE32 PUBLIC 'DATA'
_DATA	ENDS
;	COMDAT ??_C@_0BI@DHGF@Sfx?2Sorceror?2Mage44?4wav?$AA@
_DATA	SEGMENT DWORD USE32 PUBLIC 'DATA'
_DATA	ENDS
;	COMDAT ??_C@_0BI@JHEA@Sfx?2Sorceror?2Mage45?4wav?$AA@
_DATA	SEGMENT DWORD USE32 PUBLIC 'DATA'
_DATA	ENDS
;	COMDAT ??_C@_0BI@HHCP@Sfx?2Sorceror?2Mage46?4wav?$AA@
_DATA	SEGMENT DWORD USE32 PUBLIC 'DATA'
_DATA	ENDS
;	COMDAT ??_C@_0BI@NHAK@Sfx?2Sorceror?2Mage47?4wav?$AA@
_DATA	SEGMENT DWORD USE32 PUBLIC 'DATA'
_DATA	ENDS
;	COMDAT ??_C@_0BI@LGNK@Sfx?2Sorceror?2Mage48?4wav?$AA@
_DATA	SEGMENT DWORD USE32 PUBLIC 'DATA'
_DATA	ENDS
;	COMDAT ??_C@_0BI@BGPP@Sfx?2Sorceror?2Mage49?4wav?$AA@
_DATA	SEGMENT DWORD USE32 PUBLIC 'DATA'
_DATA	ENDS
;	COMDAT ??_C@_0BI@CCFA@Sfx?2Sorceror?2Mage50?4wav?$AA@
_DATA	SEGMENT DWORD USE32 PUBLIC 'DATA'
_DATA	ENDS
;	COMDAT ??_C@_0BI@ICHF@Sfx?2Sorceror?2Mage51?4wav?$AA@
_DATA	SEGMENT DWORD USE32 PUBLIC 'DATA'
_DATA	ENDS
;	COMDAT ??_C@_0BI@GCBK@Sfx?2Sorceror?2Mage52?4wav?$AA@
_DATA	SEGMENT DWORD USE32 PUBLIC 'DATA'
_DATA	ENDS
;	COMDAT ??_C@_0BI@MCDP@Sfx?2Sorceror?2Mage53?4wav?$AA@
_DATA	SEGMENT DWORD USE32 PUBLIC 'DATA'
_DATA	ENDS
;	COMDAT ??_C@_0BI@KCMF@Sfx?2Sorceror?2Mage54?4wav?$AA@
_DATA	SEGMENT DWORD USE32 PUBLIC 'DATA'
_DATA	ENDS
;	COMDAT ??_C@_0BI@COA@Sfx?2Sorceror?2Mage55?4wav?$AA@
_DATA	SEGMENT DWORD USE32 PUBLIC 'DATA'
_DATA	ENDS
;	COMDAT ??_C@_0BI@OCIP@Sfx?2Sorceror?2Mage56?4wav?$AA@
_DATA	SEGMENT DWORD USE32 PUBLIC 'DATA'
_DATA	ENDS
;	COMDAT ??_C@_0BI@ECKK@Sfx?2Sorceror?2Mage57?4wav?$AA@
_DATA	SEGMENT DWORD USE32 PUBLIC 'DATA'
_DATA	ENDS
;	COMDAT ??_C@_0BI@CDHK@Sfx?2Sorceror?2Mage58?4wav?$AA@
_DATA	SEGMENT DWORD USE32 PUBLIC 'DATA'
_DATA	ENDS
;	COMDAT ??_C@_0BI@IDFP@Sfx?2Sorceror?2Mage59?4wav?$AA@
_DATA	SEGMENT DWORD USE32 PUBLIC 'DATA'
_DATA	ENDS
;	COMDAT ??_C@_0BI@JMLA@Sfx?2Sorceror?2Mage60?4wav?$AA@
_DATA	SEGMENT DWORD USE32 PUBLIC 'DATA'
_DATA	ENDS
;	COMDAT ??_C@_0BI@DMJF@Sfx?2Sorceror?2Mage61?4wav?$AA@
_DATA	SEGMENT DWORD USE32 PUBLIC 'DATA'
_DATA	ENDS
;	COMDAT ??_C@_0BI@NMPK@Sfx?2Sorceror?2Mage62?4wav?$AA@
_DATA	SEGMENT DWORD USE32 PUBLIC 'DATA'
_DATA	ENDS
;	COMDAT ??_C@_0BI@HMNP@Sfx?2Sorceror?2Mage63?4wav?$AA@
_DATA	SEGMENT DWORD USE32 PUBLIC 'DATA'
_DATA	ENDS
;	COMDAT ??_C@_0BI@BMCF@Sfx?2Sorceror?2Mage64?4wav?$AA@
_DATA	SEGMENT DWORD USE32 PUBLIC 'DATA'
_DATA	ENDS
;	COMDAT ??_C@_0BI@LMAA@Sfx?2Sorceror?2Mage65?4wav?$AA@
_DATA	SEGMENT DWORD USE32 PUBLIC 'DATA'
_DATA	ENDS
;	COMDAT ??_C@_0BI@FMGP@Sfx?2Sorceror?2Mage66?4wav?$AA@
_DATA	SEGMENT DWORD USE32 PUBLIC 'DATA'
_DATA	ENDS
;	COMDAT ??_C@_0BI@PMEK@Sfx?2Sorceror?2Mage67?4wav?$AA@
_DATA	SEGMENT DWORD USE32 PUBLIC 'DATA'
_DATA	ENDS
;	COMDAT ??_C@_0BI@JNJK@Sfx?2Sorceror?2Mage68?4wav?$AA@
_DATA	SEGMENT DWORD USE32 PUBLIC 'DATA'
_DATA	ENDS
;	COMDAT ??_C@_0BI@DNLP@Sfx?2Sorceror?2Mage69?4wav?$AA@
_DATA	SEGMENT DWORD USE32 PUBLIC 'DATA'
_DATA	ENDS
;	COMDAT ??_C@_0BJ@OCHD@Sfx?2Sorceror?2Mage69b?4wav?$AA@
_DATA	SEGMENT DWORD USE32 PUBLIC 'DATA'
_DATA	ENDS
;	COMDAT ??_C@_0BI@JBA@Sfx?2Sorceror?2Mage70?4wav?$AA@
_DATA	SEGMENT DWORD USE32 PUBLIC 'DATA'
_DATA	ENDS
;	COMDAT ??_C@_0BI@KJDF@Sfx?2Sorceror?2Mage71?4wav?$AA@
_DATA	SEGMENT DWORD USE32 PUBLIC 'DATA'
_DATA	ENDS
;	COMDAT ??_C@_0BI@EJFK@Sfx?2Sorceror?2Mage72?4wav?$AA@
_DATA	SEGMENT DWORD USE32 PUBLIC 'DATA'
_DATA	ENDS
;	COMDAT ??_C@_0BI@OJHP@Sfx?2Sorceror?2Mage73?4wav?$AA@
_DATA	SEGMENT DWORD USE32 PUBLIC 'DATA'
_DATA	ENDS
;	COMDAT ??_C@_0BI@IJIF@Sfx?2Sorceror?2Mage74?4wav?$AA@
_DATA	SEGMENT DWORD USE32 PUBLIC 'DATA'
_DATA	ENDS
;	COMDAT ??_C@_0BI@CJKA@Sfx?2Sorceror?2Mage75?4wav?$AA@
_DATA	SEGMENT DWORD USE32 PUBLIC 'DATA'
_DATA	ENDS
;	COMDAT ??_C@_0BI@MJMP@Sfx?2Sorceror?2Mage76?4wav?$AA@
_DATA	SEGMENT DWORD USE32 PUBLIC 'DATA'
_DATA	ENDS
;	COMDAT ??_C@_0BI@GJOK@Sfx?2Sorceror?2Mage77?4wav?$AA@
_DATA	SEGMENT DWORD USE32 PUBLIC 'DATA'
_DATA	ENDS
;	COMDAT ??_C@_0BI@IDK@Sfx?2Sorceror?2Mage78?4wav?$AA@
_DATA	SEGMENT DWORD USE32 PUBLIC 'DATA'
_DATA	ENDS
;	COMDAT ??_C@_0BI@KIBP@Sfx?2Sorceror?2Mage79?4wav?$AA@
_DATA	SEGMENT DWORD USE32 PUBLIC 'DATA'
_DATA	ENDS
;	COMDAT ??_C@_0BI@EMHB@Sfx?2Sorceror?2Mage80?4wav?$AA@
_DATA	SEGMENT DWORD USE32 PUBLIC 'DATA'
_DATA	ENDS
;	COMDAT ??_C@_0BI@OMFE@Sfx?2Sorceror?2Mage81?4wav?$AA@
_DATA	SEGMENT DWORD USE32 PUBLIC 'DATA'
_DATA	ENDS
;	COMDAT ??_C@_0BI@MDL@Sfx?2Sorceror?2Mage82?4wav?$AA@
_DATA	SEGMENT DWORD USE32 PUBLIC 'DATA'
_DATA	ENDS
;	COMDAT ??_C@_0BI@KMBO@Sfx?2Sorceror?2Mage83?4wav?$AA@
_DATA	SEGMENT DWORD USE32 PUBLIC 'DATA'
_DATA	ENDS
;	COMDAT ??_C@_0BI@MMOE@Sfx?2Sorceror?2Mage84?4wav?$AA@
_DATA	SEGMENT DWORD USE32 PUBLIC 'DATA'
_DATA	ENDS
;	COMDAT ??_C@_0BI@GMMB@Sfx?2Sorceror?2Mage85?4wav?$AA@
_DATA	SEGMENT DWORD USE32 PUBLIC 'DATA'
_DATA	ENDS
;	COMDAT ??_C@_0BI@IMKO@Sfx?2Sorceror?2Mage86?4wav?$AA@
_DATA	SEGMENT DWORD USE32 PUBLIC 'DATA'
_DATA	ENDS
;	COMDAT ??_C@_0BI@CMIL@Sfx?2Sorceror?2Mage87?4wav?$AA@
_DATA	SEGMENT DWORD USE32 PUBLIC 'DATA'
_DATA	ENDS
;	COMDAT ??_C@_0BI@ENFL@Sfx?2Sorceror?2Mage88?4wav?$AA@
_DATA	SEGMENT DWORD USE32 PUBLIC 'DATA'
_DATA	ENDS
;	COMDAT ??_C@_0BI@ONHO@Sfx?2Sorceror?2Mage89?4wav?$AA@
_DATA	SEGMENT DWORD USE32 PUBLIC 'DATA'
_DATA	ENDS
;	COMDAT ??_C@_0BI@NJNB@Sfx?2Sorceror?2Mage90?4wav?$AA@
_DATA	SEGMENT DWORD USE32 PUBLIC 'DATA'
_DATA	ENDS
;	COMDAT ??_C@_0BI@HJPE@Sfx?2Sorceror?2Mage91?4wav?$AA@
_DATA	SEGMENT DWORD USE32 PUBLIC 'DATA'
_DATA	ENDS
;	COMDAT ??_C@_0BI@JJJL@Sfx?2Sorceror?2Mage92?4wav?$AA@
_DATA	SEGMENT DWORD USE32 PUBLIC 'DATA'
_DATA	ENDS
;	COMDAT ??_C@_0BI@DJLO@Sfx?2Sorceror?2Mage93?4wav?$AA@
_DATA	SEGMENT DWORD USE32 PUBLIC 'DATA'
_DATA	ENDS
;	COMDAT ??_C@_0BI@FJEE@Sfx?2Sorceror?2Mage94?4wav?$AA@
_DATA	SEGMENT DWORD USE32 PUBLIC 'DATA'
_DATA	ENDS
;	COMDAT ??_C@_0BI@PJGB@Sfx?2Sorceror?2Mage95?4wav?$AA@
_DATA	SEGMENT DWORD USE32 PUBLIC 'DATA'
_DATA	ENDS
;	COMDAT ??_C@_0BI@BJAO@Sfx?2Sorceror?2Mage96?4wav?$AA@
_DATA	SEGMENT DWORD USE32 PUBLIC 'DATA'
_DATA	ENDS
;	COMDAT ??_C@_0BI@LJCL@Sfx?2Sorceror?2Mage97?4wav?$AA@
_DATA	SEGMENT DWORD USE32 PUBLIC 'DATA'
_DATA	ENDS
;	COMDAT ??_C@_0BI@NIPL@Sfx?2Sorceror?2Mage98?4wav?$AA@
_DATA	SEGMENT DWORD USE32 PUBLIC 'DATA'
_DATA	ENDS
;	COMDAT ??_C@_0BI@HINO@Sfx?2Sorceror?2Mage99?4wav?$AA@
_DATA	SEGMENT DWORD USE32 PUBLIC 'DATA'
_DATA	ENDS
;	COMDAT ??_C@_0BJ@FIHB@Sfx?2Sorceror?2Mage100?4wav?$AA@
_DATA	SEGMENT DWORD USE32 PUBLIC 'DATA'
_DATA	ENDS
;	COMDAT ??_C@_0BJ@PIFE@Sfx?2Sorceror?2Mage101?4wav?$AA@
_DATA	SEGMENT DWORD USE32 PUBLIC 'DATA'
_DATA	ENDS
;	COMDAT ??_C@_0BJ@BIDL@Sfx?2Sorceror?2Mage102?4wav?$AA@
_DATA	SEGMENT DWORD USE32 PUBLIC 'DATA'
_DATA	ENDS
;	COMDAT ??_C@_0BG@KHLI@Sfx?2Rogue?2Rogue01?4wav?$AA@
_DATA	SEGMENT DWORD USE32 PUBLIC 'DATA'
_DATA	ENDS
;	COMDAT ??_C@_0BG@EHNH@Sfx?2Rogue?2Rogue02?4wav?$AA@
_DATA	SEGMENT DWORD USE32 PUBLIC 'DATA'
_DATA	ENDS
;	COMDAT ??_C@_0BG@OHPC@Sfx?2Rogue?2Rogue03?4wav?$AA@
_DATA	SEGMENT DWORD USE32 PUBLIC 'DATA'
_DATA	ENDS
;	COMDAT ??_C@_0BG@IHAI@Sfx?2Rogue?2Rogue04?4wav?$AA@
_DATA	SEGMENT DWORD USE32 PUBLIC 'DATA'
_DATA	ENDS
;	COMDAT ??_C@_0BG@CHCN@Sfx?2Rogue?2Rogue05?4wav?$AA@
_DATA	SEGMENT DWORD USE32 PUBLIC 'DATA'
_DATA	ENDS
;	COMDAT ??_C@_0BG@MHEC@Sfx?2Rogue?2Rogue06?4wav?$AA@
_DATA	SEGMENT DWORD USE32 PUBLIC 'DATA'
_DATA	ENDS
;	COMDAT ??_C@_0BG@GHGH@Sfx?2Rogue?2Rogue07?4wav?$AA@
_DATA	SEGMENT DWORD USE32 PUBLIC 'DATA'
_DATA	ENDS
;	COMDAT ??_C@_0BG@GLH@Sfx?2Rogue?2Rogue08?4wav?$AA@
_DATA	SEGMENT DWORD USE32 PUBLIC 'DATA'
_DATA	ENDS
;	COMDAT ??_C@_0BG@KGJC@Sfx?2Rogue?2Rogue09?4wav?$AA@
_DATA	SEGMENT DWORD USE32 PUBLIC 'DATA'
_DATA	ENDS
;	COMDAT ??_C@_0BG@JCDN@Sfx?2Rogue?2Rogue10?4wav?$AA@
_DATA	SEGMENT DWORD USE32 PUBLIC 'DATA'
_DATA	ENDS
;	COMDAT ??_C@_0BG@DCBI@Sfx?2Rogue?2Rogue11?4wav?$AA@
_DATA	SEGMENT DWORD USE32 PUBLIC 'DATA'
_DATA	ENDS
;	COMDAT ??_C@_0BG@NCHH@Sfx?2Rogue?2Rogue12?4wav?$AA@
_DATA	SEGMENT DWORD USE32 PUBLIC 'DATA'
_DATA	ENDS
;	COMDAT ??_C@_0BG@HCFC@Sfx?2Rogue?2Rogue13?4wav?$AA@
_DATA	SEGMENT DWORD USE32 PUBLIC 'DATA'
_DATA	ENDS
;	COMDAT ??_C@_0BG@BCKI@Sfx?2Rogue?2Rogue14?4wav?$AA@
_DATA	SEGMENT DWORD USE32 PUBLIC 'DATA'
_DATA	ENDS
;	COMDAT ??_C@_0BG@LCIN@Sfx?2Rogue?2Rogue15?4wav?$AA@
_DATA	SEGMENT DWORD USE32 PUBLIC 'DATA'
_DATA	ENDS
;	COMDAT ??_C@_0BG@FCOC@Sfx?2Rogue?2Rogue16?4wav?$AA@
_DATA	SEGMENT DWORD USE32 PUBLIC 'DATA'
_DATA	ENDS
;	COMDAT ??_C@_0BG@PCMH@Sfx?2Rogue?2Rogue17?4wav?$AA@
_DATA	SEGMENT DWORD USE32 PUBLIC 'DATA'
_DATA	ENDS
;	COMDAT ??_C@_0BG@JDBH@Sfx?2Rogue?2Rogue18?4wav?$AA@
_DATA	SEGMENT DWORD USE32 PUBLIC 'DATA'
_DATA	ENDS
;	COMDAT ??_C@_0BG@DDDC@Sfx?2Rogue?2Rogue19?4wav?$AA@
_DATA	SEGMENT DWORD USE32 PUBLIC 'DATA'
_DATA	ENDS
;	COMDAT ??_C@_0BG@CMNN@Sfx?2Rogue?2Rogue20?4wav?$AA@
_DATA	SEGMENT DWORD USE32 PUBLIC 'DATA'
_DATA	ENDS
;	COMDAT ??_C@_0BG@IMPI@Sfx?2Rogue?2Rogue21?4wav?$AA@
_DATA	SEGMENT DWORD USE32 PUBLIC 'DATA'
_DATA	ENDS
;	COMDAT ??_C@_0BG@GMJH@Sfx?2Rogue?2Rogue22?4wav?$AA@
_DATA	SEGMENT DWORD USE32 PUBLIC 'DATA'
_DATA	ENDS
;	COMDAT ??_C@_0BG@MMLC@Sfx?2Rogue?2Rogue23?4wav?$AA@
_DATA	SEGMENT DWORD USE32 PUBLIC 'DATA'
_DATA	ENDS
;	COMDAT ??_C@_0BG@KMEI@Sfx?2Rogue?2Rogue24?4wav?$AA@
_DATA	SEGMENT DWORD USE32 PUBLIC 'DATA'
_DATA	ENDS
;	COMDAT ??_C@_0BG@MGN@Sfx?2Rogue?2Rogue25?4wav?$AA@
_DATA	SEGMENT DWORD USE32 PUBLIC 'DATA'
_DATA	ENDS
;	COMDAT ??_C@_0BG@OMAC@Sfx?2Rogue?2Rogue26?4wav?$AA@
_DATA	SEGMENT DWORD USE32 PUBLIC 'DATA'
_DATA	ENDS
;	COMDAT ??_C@_0BG@EMCH@Sfx?2Rogue?2Rogue27?4wav?$AA@
_DATA	SEGMENT DWORD USE32 PUBLIC 'DATA'
_DATA	ENDS
;	COMDAT ??_C@_0BG@CNPH@Sfx?2Rogue?2Rogue28?4wav?$AA@
_DATA	SEGMENT DWORD USE32 PUBLIC 'DATA'
_DATA	ENDS
;	COMDAT ??_C@_0BG@INNC@Sfx?2Rogue?2Rogue29?4wav?$AA@
_DATA	SEGMENT DWORD USE32 PUBLIC 'DATA'
_DATA	ENDS
;	COMDAT ??_C@_0BG@LJHN@Sfx?2Rogue?2Rogue30?4wav?$AA@
_DATA	SEGMENT DWORD USE32 PUBLIC 'DATA'
_DATA	ENDS
;	COMDAT ??_C@_0BG@BJFI@Sfx?2Rogue?2Rogue31?4wav?$AA@
_DATA	SEGMENT DWORD USE32 PUBLIC 'DATA'
_DATA	ENDS
;	COMDAT ??_C@_0BG@PJDH@Sfx?2Rogue?2Rogue32?4wav?$AA@
_DATA	SEGMENT DWORD USE32 PUBLIC 'DATA'
_DATA	ENDS
;	COMDAT ??_C@_0BG@FJBC@Sfx?2Rogue?2Rogue33?4wav?$AA@
_DATA	SEGMENT DWORD USE32 PUBLIC 'DATA'
_DATA	ENDS
;	COMDAT ??_C@_0BG@DJOI@Sfx?2Rogue?2Rogue34?4wav?$AA@
_DATA	SEGMENT DWORD USE32 PUBLIC 'DATA'
_DATA	ENDS
;	COMDAT ??_C@_0BG@JJMN@Sfx?2Rogue?2Rogue35?4wav?$AA@
_DATA	SEGMENT DWORD USE32 PUBLIC 'DATA'
_DATA	ENDS
;	COMDAT ??_C@_0BG@HJKC@Sfx?2Rogue?2Rogue36?4wav?$AA@
_DATA	SEGMENT DWORD USE32 PUBLIC 'DATA'
_DATA	ENDS
;	COMDAT ??_C@_0BG@NJIH@Sfx?2Rogue?2Rogue37?4wav?$AA@
_DATA	SEGMENT DWORD USE32 PUBLIC 'DATA'
_DATA	ENDS
;	COMDAT ??_C@_0BG@LIFH@Sfx?2Rogue?2Rogue38?4wav?$AA@
_DATA	SEGMENT DWORD USE32 PUBLIC 'DATA'
_DATA	ENDS
;	COMDAT ??_C@_0BG@BIHC@Sfx?2Rogue?2Rogue39?4wav?$AA@
_DATA	SEGMENT DWORD USE32 PUBLIC 'DATA'
_DATA	ENDS
;	COMDAT ??_C@_0BG@FBBN@Sfx?2Rogue?2Rogue40?4wav?$AA@
_DATA	SEGMENT DWORD USE32 PUBLIC 'DATA'
_DATA	ENDS
;	COMDAT ??_C@_0BG@PBDI@Sfx?2Rogue?2Rogue41?4wav?$AA@
_DATA	SEGMENT DWORD USE32 PUBLIC 'DATA'
_DATA	ENDS
;	COMDAT ??_C@_0BG@BBFH@Sfx?2Rogue?2Rogue42?4wav?$AA@
_DATA	SEGMENT DWORD USE32 PUBLIC 'DATA'
_DATA	ENDS
;	COMDAT ??_C@_0BG@LBHC@Sfx?2Rogue?2Rogue43?4wav?$AA@
_DATA	SEGMENT DWORD USE32 PUBLIC 'DATA'
_DATA	ENDS
;	COMDAT ??_C@_0BG@NBII@Sfx?2Rogue?2Rogue44?4wav?$AA@
_DATA	SEGMENT DWORD USE32 PUBLIC 'DATA'
_DATA	ENDS
;	COMDAT ??_C@_0BG@HBKN@Sfx?2Rogue?2Rogue45?4wav?$AA@
_DATA	SEGMENT DWORD USE32 PUBLIC 'DATA'
_DATA	ENDS
;	COMDAT ??_C@_0BG@JBMC@Sfx?2Rogue?2Rogue46?4wav?$AA@
_DATA	SEGMENT DWORD USE32 PUBLIC 'DATA'
_DATA	ENDS
;	COMDAT ??_C@_0BG@DBOH@Sfx?2Rogue?2Rogue47?4wav?$AA@
_DATA	SEGMENT DWORD USE32 PUBLIC 'DATA'
_DATA	ENDS
;	COMDAT ??_C@_0BG@FADH@Sfx?2Rogue?2Rogue48?4wav?$AA@
_DATA	SEGMENT DWORD USE32 PUBLIC 'DATA'
_DATA	ENDS
;	COMDAT ??_C@_0BG@PABC@Sfx?2Rogue?2Rogue49?4wav?$AA@
_DATA	SEGMENT DWORD USE32 PUBLIC 'DATA'
_DATA	ENDS
;	COMDAT ??_C@_0BG@MELN@Sfx?2Rogue?2Rogue50?4wav?$AA@
_DATA	SEGMENT DWORD USE32 PUBLIC 'DATA'
_DATA	ENDS
;	COMDAT ??_C@_0BG@GEJI@Sfx?2Rogue?2Rogue51?4wav?$AA@
_DATA	SEGMENT DWORD USE32 PUBLIC 'DATA'
_DATA	ENDS
;	COMDAT ??_C@_0BG@IEPH@Sfx?2Rogue?2Rogue52?4wav?$AA@
_DATA	SEGMENT DWORD USE32 PUBLIC 'DATA'
_DATA	ENDS
;	COMDAT ??_C@_0BG@CENC@Sfx?2Rogue?2Rogue53?4wav?$AA@
_DATA	SEGMENT DWORD USE32 PUBLIC 'DATA'
_DATA	ENDS
;	COMDAT ??_C@_0BG@EECI@Sfx?2Rogue?2Rogue54?4wav?$AA@
_DATA	SEGMENT DWORD USE32 PUBLIC 'DATA'
_DATA	ENDS
;	COMDAT ??_C@_0BG@OEAN@Sfx?2Rogue?2Rogue55?4wav?$AA@
_DATA	SEGMENT DWORD USE32 PUBLIC 'DATA'
_DATA	ENDS
;	COMDAT ??_C@_0BG@EGC@Sfx?2Rogue?2Rogue56?4wav?$AA@
_DATA	SEGMENT DWORD USE32 PUBLIC 'DATA'
_DATA	ENDS
;	COMDAT ??_C@_0BG@KEEH@Sfx?2Rogue?2Rogue57?4wav?$AA@
_DATA	SEGMENT DWORD USE32 PUBLIC 'DATA'
_DATA	ENDS
;	COMDAT ??_C@_0BG@MFJH@Sfx?2Rogue?2Rogue58?4wav?$AA@
_DATA	SEGMENT DWORD USE32 PUBLIC 'DATA'
_DATA	ENDS
;	COMDAT ??_C@_0BG@GFLC@Sfx?2Rogue?2Rogue59?4wav?$AA@
_DATA	SEGMENT DWORD USE32 PUBLIC 'DATA'
_DATA	ENDS
;	COMDAT ??_C@_0BG@HKFN@Sfx?2Rogue?2Rogue60?4wav?$AA@
_DATA	SEGMENT DWORD USE32 PUBLIC 'DATA'
_DATA	ENDS
;	COMDAT ??_C@_0BG@NKHI@Sfx?2Rogue?2Rogue61?4wav?$AA@
_DATA	SEGMENT DWORD USE32 PUBLIC 'DATA'
_DATA	ENDS
;	COMDAT ??_C@_0BG@DKBH@Sfx?2Rogue?2Rogue62?4wav?$AA@
_DATA	SEGMENT DWORD USE32 PUBLIC 'DATA'
_DATA	ENDS
;	COMDAT ??_C@_0BG@JKDC@Sfx?2Rogue?2Rogue63?4wav?$AA@
_DATA	SEGMENT DWORD USE32 PUBLIC 'DATA'
_DATA	ENDS
;	COMDAT ??_C@_0BG@PKMI@Sfx?2Rogue?2Rogue64?4wav?$AA@
_DATA	SEGMENT DWORD USE32 PUBLIC 'DATA'
_DATA	ENDS
;	COMDAT ??_C@_0BG@FKON@Sfx?2Rogue?2Rogue65?4wav?$AA@
_DATA	SEGMENT DWORD USE32 PUBLIC 'DATA'
_DATA	ENDS
;	COMDAT ??_C@_0BG@LKIC@Sfx?2Rogue?2Rogue66?4wav?$AA@
_DATA	SEGMENT DWORD USE32 PUBLIC 'DATA'
_DATA	ENDS
;	COMDAT ??_C@_0BG@BKKH@Sfx?2Rogue?2Rogue67?4wav?$AA@
_DATA	SEGMENT DWORD USE32 PUBLIC 'DATA'
_DATA	ENDS
;	COMDAT ??_C@_0BG@HLHH@Sfx?2Rogue?2Rogue68?4wav?$AA@
_DATA	SEGMENT DWORD USE32 PUBLIC 'DATA'
_DATA	ENDS
;	COMDAT ??_C@_0BG@NLFC@Sfx?2Rogue?2Rogue69?4wav?$AA@
_DATA	SEGMENT DWORD USE32 PUBLIC 'DATA'
_DATA	ENDS
;	COMDAT ??_C@_0BH@BJF@Sfx?2Rogue?2Rogue69b?4wav?$AA@
_DATA	SEGMENT DWORD USE32 PUBLIC 'DATA'
_DATA	ENDS
;	COMDAT ??_C@_0BG@OPPN@Sfx?2Rogue?2Rogue70?4wav?$AA@
_DATA	SEGMENT DWORD USE32 PUBLIC 'DATA'
_DATA	ENDS
;	COMDAT ??_C@_0BG@EPNI@Sfx?2Rogue?2Rogue71?4wav?$AA@
_DATA	SEGMENT DWORD USE32 PUBLIC 'DATA'
_DATA	ENDS
;	COMDAT ??_C@_0BG@KPLH@Sfx?2Rogue?2Rogue72?4wav?$AA@
_DATA	SEGMENT DWORD USE32 PUBLIC 'DATA'
_DATA	ENDS
;	COMDAT ??_C@_0BG@PJC@Sfx?2Rogue?2Rogue73?4wav?$AA@
_DATA	SEGMENT DWORD USE32 PUBLIC 'DATA'
_DATA	ENDS
;	COMDAT ??_C@_0BG@GPGI@Sfx?2Rogue?2Rogue74?4wav?$AA@
_DATA	SEGMENT DWORD USE32 PUBLIC 'DATA'
_DATA	ENDS
;	COMDAT ??_C@_0BG@MPEN@Sfx?2Rogue?2Rogue75?4wav?$AA@
_DATA	SEGMENT DWORD USE32 PUBLIC 'DATA'
_DATA	ENDS
;	COMDAT ??_C@_0BG@CPCC@Sfx?2Rogue?2Rogue76?4wav?$AA@
_DATA	SEGMENT DWORD USE32 PUBLIC 'DATA'
_DATA	ENDS
;	COMDAT ??_C@_0BG@IPAH@Sfx?2Rogue?2Rogue77?4wav?$AA@
_DATA	SEGMENT DWORD USE32 PUBLIC 'DATA'
_DATA	ENDS
;	COMDAT ??_C@_0BG@OONH@Sfx?2Rogue?2Rogue78?4wav?$AA@
_DATA	SEGMENT DWORD USE32 PUBLIC 'DATA'
_DATA	ENDS
;	COMDAT ??_C@_0BG@EOPC@Sfx?2Rogue?2Rogue79?4wav?$AA@
_DATA	SEGMENT DWORD USE32 PUBLIC 'DATA'
_DATA	ENDS
;	COMDAT ??_C@_0BG@KKJM@Sfx?2Rogue?2Rogue80?4wav?$AA@
_DATA	SEGMENT DWORD USE32 PUBLIC 'DATA'
_DATA	ENDS
;	COMDAT ??_C@_0BG@KLJ@Sfx?2Rogue?2Rogue81?4wav?$AA@
_DATA	SEGMENT DWORD USE32 PUBLIC 'DATA'
_DATA	ENDS
;	COMDAT ??_C@_0BG@OKNG@Sfx?2Rogue?2Rogue82?4wav?$AA@
_DATA	SEGMENT DWORD USE32 PUBLIC 'DATA'
_DATA	ENDS
;	COMDAT ??_C@_0BG@EKPD@Sfx?2Rogue?2Rogue83?4wav?$AA@
_DATA	SEGMENT DWORD USE32 PUBLIC 'DATA'
_DATA	ENDS
;	COMDAT ??_C@_0BG@CKAJ@Sfx?2Rogue?2Rogue84?4wav?$AA@
_DATA	SEGMENT DWORD USE32 PUBLIC 'DATA'
_DATA	ENDS
;	COMDAT ??_C@_0BG@IKCM@Sfx?2Rogue?2Rogue85?4wav?$AA@
_DATA	SEGMENT DWORD USE32 PUBLIC 'DATA'
_DATA	ENDS
;	COMDAT ??_C@_0BG@GKED@Sfx?2Rogue?2Rogue86?4wav?$AA@
_DATA	SEGMENT DWORD USE32 PUBLIC 'DATA'
_DATA	ENDS
;	COMDAT ??_C@_0BG@MKGG@Sfx?2Rogue?2Rogue87?4wav?$AA@
_DATA	SEGMENT DWORD USE32 PUBLIC 'DATA'
_DATA	ENDS
;	COMDAT ??_C@_0BG@KLLG@Sfx?2Rogue?2Rogue88?4wav?$AA@
_DATA	SEGMENT DWORD USE32 PUBLIC 'DATA'
_DATA	ENDS
;	COMDAT ??_C@_0BG@LJD@Sfx?2Rogue?2Rogue89?4wav?$AA@
_DATA	SEGMENT DWORD USE32 PUBLIC 'DATA'
_DATA	ENDS
;	COMDAT ??_C@_0BG@DPDM@Sfx?2Rogue?2Rogue90?4wav?$AA@
_DATA	SEGMENT DWORD USE32 PUBLIC 'DATA'
_DATA	ENDS
;	COMDAT ??_C@_0BG@JPBJ@Sfx?2Rogue?2Rogue91?4wav?$AA@
_DATA	SEGMENT DWORD USE32 PUBLIC 'DATA'
_DATA	ENDS
;	COMDAT ??_C@_0BG@HPHG@Sfx?2Rogue?2Rogue92?4wav?$AA@
_DATA	SEGMENT DWORD USE32 PUBLIC 'DATA'
_DATA	ENDS
;	COMDAT ??_C@_0BG@NPFD@Sfx?2Rogue?2Rogue93?4wav?$AA@
_DATA	SEGMENT DWORD USE32 PUBLIC 'DATA'
_DATA	ENDS
;	COMDAT ??_C@_0BG@LPKJ@Sfx?2Rogue?2Rogue94?4wav?$AA@
_DATA	SEGMENT DWORD USE32 PUBLIC 'DATA'
_DATA	ENDS
;	COMDAT ??_C@_0BG@BPIM@Sfx?2Rogue?2Rogue95?4wav?$AA@
_DATA	SEGMENT DWORD USE32 PUBLIC 'DATA'
_DATA	ENDS
;	COMDAT ??_C@_0BG@PPOD@Sfx?2Rogue?2Rogue96?4wav?$AA@
_DATA	SEGMENT DWORD USE32 PUBLIC 'DATA'
_DATA	ENDS
;	COMDAT ??_C@_0BG@FPMG@Sfx?2Rogue?2Rogue97?4wav?$AA@
_DATA	SEGMENT DWORD USE32 PUBLIC 'DATA'
_DATA	ENDS
;	COMDAT ??_C@_0BG@DOBG@Sfx?2Rogue?2Rogue98?4wav?$AA@
_DATA	SEGMENT DWORD USE32 PUBLIC 'DATA'
_DATA	ENDS
;	COMDAT ??_C@_0BG@JODD@Sfx?2Rogue?2Rogue99?4wav?$AA@
_DATA	SEGMENT DWORD USE32 PUBLIC 'DATA'
_DATA	ENDS
;	COMDAT ??_C@_0BH@LLJH@Sfx?2Rogue?2Rogue100?4wav?$AA@
_DATA	SEGMENT DWORD USE32 PUBLIC 'DATA'
_DATA	ENDS
;	COMDAT ??_C@_0BH@BLLC@Sfx?2Rogue?2Rogue101?4wav?$AA@
_DATA	SEGMENT DWORD USE32 PUBLIC 'DATA'
_DATA	ENDS
;	COMDAT ??_C@_0BH@PLNN@Sfx?2Rogue?2Rogue102?4wav?$AA@
_DATA	SEGMENT DWORD USE32 PUBLIC 'DATA'
_DATA	ENDS
;	COMDAT ??_C@_0BJ@COPC@Sfx?2Warrior?2Warior01?4wav?$AA@
_DATA	SEGMENT DWORD USE32 PUBLIC 'DATA'
_DATA	ENDS
;	COMDAT ??_C@_0BJ@MOJN@Sfx?2Warrior?2Warior02?4wav?$AA@
_DATA	SEGMENT DWORD USE32 PUBLIC 'DATA'
_DATA	ENDS
;	COMDAT ??_C@_0BJ@GOLI@Sfx?2Warrior?2Warior03?4wav?$AA@
_DATA	SEGMENT DWORD USE32 PUBLIC 'DATA'
_DATA	ENDS
;	COMDAT ??_C@_0BJ@OEC@Sfx?2Warrior?2Warior04?4wav?$AA@
_DATA	SEGMENT DWORD USE32 PUBLIC 'DATA'
_DATA	ENDS
;	COMDAT ??_C@_0BJ@KOGH@Sfx?2Warrior?2Warior05?4wav?$AA@
_DATA	SEGMENT DWORD USE32 PUBLIC 'DATA'
_DATA	ENDS
;	COMDAT ??_C@_0BJ@EOAI@Sfx?2Warrior?2Warior06?4wav?$AA@
_DATA	SEGMENT DWORD USE32 PUBLIC 'DATA'
_DATA	ENDS
;	COMDAT ??_C@_0BJ@OOCN@Sfx?2Warrior?2Warior07?4wav?$AA@
_DATA	SEGMENT DWORD USE32 PUBLIC 'DATA'
_DATA	ENDS
;	COMDAT ??_C@_0BJ@IPPN@Sfx?2Warrior?2Warior08?4wav?$AA@
_DATA	SEGMENT DWORD USE32 PUBLIC 'DATA'
_DATA	ENDS
;	COMDAT ??_C@_0BJ@CPNI@Sfx?2Warrior?2Warior09?4wav?$AA@
_DATA	SEGMENT DWORD USE32 PUBLIC 'DATA'
_DATA	ENDS
;	COMDAT ??_C@_0BJ@BLHH@Sfx?2Warrior?2Warior10?4wav?$AA@
_DATA	SEGMENT DWORD USE32 PUBLIC 'DATA'
_DATA	ENDS
;	COMDAT ??_C@_0BJ@LLFC@Sfx?2Warrior?2Warior11?4wav?$AA@
_DATA	SEGMENT DWORD USE32 PUBLIC 'DATA'
_DATA	ENDS
;	COMDAT ??_C@_0BJ@FLDN@Sfx?2Warrior?2Warior12?4wav?$AA@
_DATA	SEGMENT DWORD USE32 PUBLIC 'DATA'
_DATA	ENDS
;	COMDAT ??_C@_0BJ@PLBI@Sfx?2Warrior?2Warior13?4wav?$AA@
_DATA	SEGMENT DWORD USE32 PUBLIC 'DATA'
_DATA	ENDS
;	COMDAT ??_C@_0BJ@JLOC@Sfx?2Warrior?2Warior14?4wav?$AA@
_DATA	SEGMENT DWORD USE32 PUBLIC 'DATA'
_DATA	ENDS
;	COMDAT ??_C@_0BJ@EFMK@Sfx?2Warrior?2Wario14b?4wav?$AA@
_DATA	SEGMENT DWORD USE32 PUBLIC 'DATA'
_DATA	ENDS
;	COMDAT ??_C@_0BJ@OFOP@Sfx?2Warrior?2Wario14c?4wav?$AA@
_DATA	SEGMENT DWORD USE32 PUBLIC 'DATA'
_DATA	ENDS
;	COMDAT ??_C@_0BJ@DLMH@Sfx?2Warrior?2Warior15?4wav?$AA@
_DATA	SEGMENT DWORD USE32 PUBLIC 'DATA'
_DATA	ENDS
;	COMDAT ??_C@_0BJ@NAGK@Sfx?2Warrior?2Wario15b?4wav?$AA@
_DATA	SEGMENT DWORD USE32 PUBLIC 'DATA'
_DATA	ENDS
;	COMDAT ??_C@_0BJ@HAEP@Sfx?2Warrior?2Wario15c?4wav?$AA@
_DATA	SEGMENT DWORD USE32 PUBLIC 'DATA'
_DATA	ENDS
;	COMDAT ??_C@_0BJ@NLKI@Sfx?2Warrior?2Warior16?4wav?$AA@
_DATA	SEGMENT DWORD USE32 PUBLIC 'DATA'
_DATA	ENDS
;	COMDAT ??_C@_0BJ@GOIK@Sfx?2Warrior?2Wario16b?4wav?$AA@
_DATA	SEGMENT DWORD USE32 PUBLIC 'DATA'
_DATA	ENDS
;	COMDAT ??_C@_0BJ@MOKP@Sfx?2Warrior?2Wario16c?4wav?$AA@
_DATA	SEGMENT DWORD USE32 PUBLIC 'DATA'
_DATA	ENDS
;	COMDAT ??_C@_0BJ@HLIN@Sfx?2Warrior?2Warior17?4wav?$AA@
_DATA	SEGMENT DWORD USE32 PUBLIC 'DATA'
_DATA	ENDS
;	COMDAT ??_C@_0BJ@BKFN@Sfx?2Warrior?2Warior18?4wav?$AA@
_DATA	SEGMENT DWORD USE32 PUBLIC 'DATA'
_DATA	ENDS
;	COMDAT ??_C@_0BJ@LKHI@Sfx?2Warrior?2Warior19?4wav?$AA@
_DATA	SEGMENT DWORD USE32 PUBLIC 'DATA'
_DATA	ENDS
;	COMDAT ??_C@_0BJ@KFJH@Sfx?2Warrior?2Warior20?4wav?$AA@
_DATA	SEGMENT DWORD USE32 PUBLIC 'DATA'
_DATA	ENDS
;	COMDAT ??_C@_0BJ@FLC@Sfx?2Warrior?2Warior21?4wav?$AA@
_DATA	SEGMENT DWORD USE32 PUBLIC 'DATA'
_DATA	ENDS
;	COMDAT ??_C@_0BJ@OFNN@Sfx?2Warrior?2Warior22?4wav?$AA@
_DATA	SEGMENT DWORD USE32 PUBLIC 'DATA'
_DATA	ENDS
;	COMDAT ??_C@_0BJ@EFPI@Sfx?2Warrior?2Warior23?4wav?$AA@
_DATA	SEGMENT DWORD USE32 PUBLIC 'DATA'
_DATA	ENDS
;	COMDAT ??_C@_0BJ@CFAC@Sfx?2Warrior?2Warior24?4wav?$AA@
_DATA	SEGMENT DWORD USE32 PUBLIC 'DATA'
_DATA	ENDS
;	COMDAT ??_C@_0BJ@IFCH@Sfx?2Warrior?2Warior25?4wav?$AA@
_DATA	SEGMENT DWORD USE32 PUBLIC 'DATA'
_DATA	ENDS
;	COMDAT ??_C@_0BJ@GFEI@Sfx?2Warrior?2Warior26?4wav?$AA@
_DATA	SEGMENT DWORD USE32 PUBLIC 'DATA'
_DATA	ENDS
;	COMDAT ??_C@_0BJ@MFGN@Sfx?2Warrior?2Warior27?4wav?$AA@
_DATA	SEGMENT DWORD USE32 PUBLIC 'DATA'
_DATA	ENDS
;	COMDAT ??_C@_0BJ@KELN@Sfx?2Warrior?2Warior28?4wav?$AA@
_DATA	SEGMENT DWORD USE32 PUBLIC 'DATA'
_DATA	ENDS
;	COMDAT ??_C@_0BJ@EJI@Sfx?2Warrior?2Warior29?4wav?$AA@
_DATA	SEGMENT DWORD USE32 PUBLIC 'DATA'
_DATA	ENDS
;	COMDAT ??_C@_0BJ@DADH@Sfx?2Warrior?2Warior30?4wav?$AA@
_DATA	SEGMENT DWORD USE32 PUBLIC 'DATA'
_DATA	ENDS
;	COMDAT ??_C@_0BJ@JABC@Sfx?2Warrior?2Warior31?4wav?$AA@
_DATA	SEGMENT DWORD USE32 PUBLIC 'DATA'
_DATA	ENDS
;	COMDAT ??_C@_0BJ@HAHN@Sfx?2Warrior?2Warior32?4wav?$AA@
_DATA	SEGMENT DWORD USE32 PUBLIC 'DATA'
_DATA	ENDS
;	COMDAT ??_C@_0BJ@NAFI@Sfx?2Warrior?2Warior33?4wav?$AA@
_DATA	SEGMENT DWORD USE32 PUBLIC 'DATA'
_DATA	ENDS
;	COMDAT ??_C@_0BJ@LAKC@Sfx?2Warrior?2Warior34?4wav?$AA@
_DATA	SEGMENT DWORD USE32 PUBLIC 'DATA'
_DATA	ENDS
;	COMDAT ??_C@_0BJ@BAIH@Sfx?2Warrior?2Warior35?4wav?$AA@
_DATA	SEGMENT DWORD USE32 PUBLIC 'DATA'
_DATA	ENDS
;	COMDAT ??_C@_0BJ@PAOI@Sfx?2Warrior?2Warior36?4wav?$AA@
_DATA	SEGMENT DWORD USE32 PUBLIC 'DATA'
_DATA	ENDS
;	COMDAT ??_C@_0BJ@FAMN@Sfx?2Warrior?2Warior37?4wav?$AA@
_DATA	SEGMENT DWORD USE32 PUBLIC 'DATA'
_DATA	ENDS
;	COMDAT ??_C@_0BJ@DBBN@Sfx?2Warrior?2Warior38?4wav?$AA@
_DATA	SEGMENT DWORD USE32 PUBLIC 'DATA'
_DATA	ENDS
;	COMDAT ??_C@_0BJ@JBDI@Sfx?2Warrior?2Warior39?4wav?$AA@
_DATA	SEGMENT DWORD USE32 PUBLIC 'DATA'
_DATA	ENDS
;	COMDAT ??_C@_0BJ@NIFH@Sfx?2Warrior?2Warior40?4wav?$AA@
_DATA	SEGMENT DWORD USE32 PUBLIC 'DATA'
_DATA	ENDS
;	COMDAT ??_C@_0BJ@HIHC@Sfx?2Warrior?2Warior41?4wav?$AA@
_DATA	SEGMENT DWORD USE32 PUBLIC 'DATA'
_DATA	ENDS
;	COMDAT ??_C@_0BJ@JIBN@Sfx?2Warrior?2Warior42?4wav?$AA@
_DATA	SEGMENT DWORD USE32 PUBLIC 'DATA'
_DATA	ENDS
;	COMDAT ??_C@_0BJ@DIDI@Sfx?2Warrior?2Warior43?4wav?$AA@
_DATA	SEGMENT DWORD USE32 PUBLIC 'DATA'
_DATA	ENDS
;	COMDAT ??_C@_0BJ@FIMC@Sfx?2Warrior?2Warior44?4wav?$AA@
_DATA	SEGMENT DWORD USE32 PUBLIC 'DATA'
_DATA	ENDS
;	COMDAT ??_C@_0BJ@PIOH@Sfx?2Warrior?2Warior45?4wav?$AA@
_DATA	SEGMENT DWORD USE32 PUBLIC 'DATA'
_DATA	ENDS
;	COMDAT ??_C@_0BJ@BIII@Sfx?2Warrior?2Warior46?4wav?$AA@
_DATA	SEGMENT DWORD USE32 PUBLIC 'DATA'
_DATA	ENDS
;	COMDAT ??_C@_0BJ@LIKN@Sfx?2Warrior?2Warior47?4wav?$AA@
_DATA	SEGMENT DWORD USE32 PUBLIC 'DATA'
_DATA	ENDS
;	COMDAT ??_C@_0BJ@NJHN@Sfx?2Warrior?2Warior48?4wav?$AA@
_DATA	SEGMENT DWORD USE32 PUBLIC 'DATA'
_DATA	ENDS
;	COMDAT ??_C@_0BJ@HJFI@Sfx?2Warrior?2Warior49?4wav?$AA@
_DATA	SEGMENT DWORD USE32 PUBLIC 'DATA'
_DATA	ENDS
;	COMDAT ??_C@_0BJ@ENPH@Sfx?2Warrior?2Warior50?4wav?$AA@
_DATA	SEGMENT DWORD USE32 PUBLIC 'DATA'
_DATA	ENDS
;	COMDAT ??_C@_0BJ@ONNC@Sfx?2Warrior?2Warior51?4wav?$AA@
_DATA	SEGMENT DWORD USE32 PUBLIC 'DATA'
_DATA	ENDS
;	COMDAT ??_C@_0BJ@NLN@Sfx?2Warrior?2Warior52?4wav?$AA@
_DATA	SEGMENT DWORD USE32 PUBLIC 'DATA'
_DATA	ENDS
;	COMDAT ??_C@_0BJ@KNJI@Sfx?2Warrior?2Warior53?4wav?$AA@
_DATA	SEGMENT DWORD USE32 PUBLIC 'DATA'
_DATA	ENDS
;	COMDAT ??_C@_0BJ@MNGC@Sfx?2Warrior?2Warior54?4wav?$AA@
_DATA	SEGMENT DWORD USE32 PUBLIC 'DATA'
_DATA	ENDS
;	COMDAT ??_C@_0BJ@GNEH@Sfx?2Warrior?2Warior55?4wav?$AA@
_DATA	SEGMENT DWORD USE32 PUBLIC 'DATA'
_DATA	ENDS
;	COMDAT ??_C@_0BJ@INCI@Sfx?2Warrior?2Warior56?4wav?$AA@
_DATA	SEGMENT DWORD USE32 PUBLIC 'DATA'
_DATA	ENDS
;	COMDAT ??_C@_0BJ@CNAN@Sfx?2Warrior?2Warior57?4wav?$AA@
_DATA	SEGMENT DWORD USE32 PUBLIC 'DATA'
_DATA	ENDS
;	COMDAT ??_C@_0BJ@EMNN@Sfx?2Warrior?2Warior58?4wav?$AA@
_DATA	SEGMENT DWORD USE32 PUBLIC 'DATA'
_DATA	ENDS
;	COMDAT ??_C@_0BJ@OMPI@Sfx?2Warrior?2Warior59?4wav?$AA@
_DATA	SEGMENT DWORD USE32 PUBLIC 'DATA'
_DATA	ENDS
;	COMDAT ??_C@_0BJ@PDBH@Sfx?2Warrior?2Warior60?4wav?$AA@
_DATA	SEGMENT DWORD USE32 PUBLIC 'DATA'
_DATA	ENDS
;	COMDAT ??_C@_0BJ@FDDC@Sfx?2Warrior?2Warior61?4wav?$AA@
_DATA	SEGMENT DWORD USE32 PUBLIC 'DATA'
_DATA	ENDS
;	COMDAT ??_C@_0BJ@LDFN@Sfx?2Warrior?2Warior62?4wav?$AA@
_DATA	SEGMENT DWORD USE32 PUBLIC 'DATA'
_DATA	ENDS
;	COMDAT ??_C@_0BJ@BDHI@Sfx?2Warrior?2Warior63?4wav?$AA@
_DATA	SEGMENT DWORD USE32 PUBLIC 'DATA'
_DATA	ENDS
;	COMDAT ??_C@_0BJ@HDIC@Sfx?2Warrior?2Warior64?4wav?$AA@
_DATA	SEGMENT DWORD USE32 PUBLIC 'DATA'
_DATA	ENDS
;	COMDAT ??_C@_0BJ@NDKH@Sfx?2Warrior?2Warior65?4wav?$AA@
_DATA	SEGMENT DWORD USE32 PUBLIC 'DATA'
_DATA	ENDS
;	COMDAT ??_C@_0BJ@DDMI@Sfx?2Warrior?2Warior66?4wav?$AA@
_DATA	SEGMENT DWORD USE32 PUBLIC 'DATA'
_DATA	ENDS
;	COMDAT ??_C@_0BJ@JDON@Sfx?2Warrior?2Warior67?4wav?$AA@
_DATA	SEGMENT DWORD USE32 PUBLIC 'DATA'
_DATA	ENDS
;	COMDAT ??_C@_0BJ@PCDN@Sfx?2Warrior?2Warior68?4wav?$AA@
_DATA	SEGMENT DWORD USE32 PUBLIC 'DATA'
_DATA	ENDS
;	COMDAT ??_C@_0BJ@FCBI@Sfx?2Warrior?2Warior69?4wav?$AA@
_DATA	SEGMENT DWORD USE32 PUBLIC 'DATA'
_DATA	ENDS
;	COMDAT ??_C@_0BJ@OCAD@Sfx?2Warrior?2Wario69b?4wav?$AA@
_DATA	SEGMENT DWORD USE32 PUBLIC 'DATA'
_DATA	ENDS
;	COMDAT ??_C@_0BJ@GGLH@Sfx?2Warrior?2Warior70?4wav?$AA@
_DATA	SEGMENT DWORD USE32 PUBLIC 'DATA'
_DATA	ENDS
;	COMDAT ??_C@_0BJ@MGJC@Sfx?2Warrior?2Warior71?4wav?$AA@
_DATA	SEGMENT DWORD USE32 PUBLIC 'DATA'
_DATA	ENDS
;	COMDAT ??_C@_0BJ@CGPN@Sfx?2Warrior?2Warior72?4wav?$AA@
_DATA	SEGMENT DWORD USE32 PUBLIC 'DATA'
_DATA	ENDS
;	COMDAT ??_C@_0BJ@IGNI@Sfx?2Warrior?2Warior73?4wav?$AA@
_DATA	SEGMENT DWORD USE32 PUBLIC 'DATA'
_DATA	ENDS
;	COMDAT ??_C@_0BJ@OGCC@Sfx?2Warrior?2Warior74?4wav?$AA@
_DATA	SEGMENT DWORD USE32 PUBLIC 'DATA'
_DATA	ENDS
;	COMDAT ??_C@_0BJ@EGAH@Sfx?2Warrior?2Warior75?4wav?$AA@
_DATA	SEGMENT DWORD USE32 PUBLIC 'DATA'
_DATA	ENDS
;	COMDAT ??_C@_0BJ@KGGI@Sfx?2Warrior?2Warior76?4wav?$AA@
_DATA	SEGMENT DWORD USE32 PUBLIC 'DATA'
_DATA	ENDS
;	COMDAT ??_C@_0BJ@GEN@Sfx?2Warrior?2Warior77?4wav?$AA@
_DATA	SEGMENT DWORD USE32 PUBLIC 'DATA'
_DATA	ENDS
;	COMDAT ??_C@_0BJ@GHJN@Sfx?2Warrior?2Warior78?4wav?$AA@
_DATA	SEGMENT DWORD USE32 PUBLIC 'DATA'
_DATA	ENDS
;	COMDAT ??_C@_0BJ@MHLI@Sfx?2Warrior?2Warior79?4wav?$AA@
_DATA	SEGMENT DWORD USE32 PUBLIC 'DATA'
_DATA	ENDS
;	COMDAT ??_C@_0BJ@CDNG@Sfx?2Warrior?2Warior80?4wav?$AA@
_DATA	SEGMENT DWORD USE32 PUBLIC 'DATA'
_DATA	ENDS
;	COMDAT ??_C@_0BJ@IDPD@Sfx?2Warrior?2Warior81?4wav?$AA@
_DATA	SEGMENT DWORD USE32 PUBLIC 'DATA'
_DATA	ENDS
;	COMDAT ??_C@_0BJ@GDJM@Sfx?2Warrior?2Warior82?4wav?$AA@
_DATA	SEGMENT DWORD USE32 PUBLIC 'DATA'
_DATA	ENDS
;	COMDAT ??_C@_0BJ@MDLJ@Sfx?2Warrior?2Warior83?4wav?$AA@
_DATA	SEGMENT DWORD USE32 PUBLIC 'DATA'
_DATA	ENDS
;	COMDAT ??_C@_0BJ@KDED@Sfx?2Warrior?2Warior84?4wav?$AA@
_DATA	SEGMENT DWORD USE32 PUBLIC 'DATA'
_DATA	ENDS
;	COMDAT ??_C@_0BJ@DGG@Sfx?2Warrior?2Warior85?4wav?$AA@
_DATA	SEGMENT DWORD USE32 PUBLIC 'DATA'
_DATA	ENDS
;	COMDAT ??_C@_0BJ@ODAJ@Sfx?2Warrior?2Warior86?4wav?$AA@
_DATA	SEGMENT DWORD USE32 PUBLIC 'DATA'
_DATA	ENDS
;	COMDAT ??_C@_0BJ@EDCM@Sfx?2Warrior?2Warior87?4wav?$AA@
_DATA	SEGMENT DWORD USE32 PUBLIC 'DATA'
_DATA	ENDS
;	COMDAT ??_C@_0BJ@CCPM@Sfx?2Warrior?2Warior88?4wav?$AA@
_DATA	SEGMENT DWORD USE32 PUBLIC 'DATA'
_DATA	ENDS
;	COMDAT ??_C@_0BJ@ICNJ@Sfx?2Warrior?2Warior89?4wav?$AA@
_DATA	SEGMENT DWORD USE32 PUBLIC 'DATA'
_DATA	ENDS
;	COMDAT ??_C@_0BJ@LGHG@Sfx?2Warrior?2Warior90?4wav?$AA@
_DATA	SEGMENT DWORD USE32 PUBLIC 'DATA'
_DATA	ENDS
;	COMDAT ??_C@_0BJ@BGFD@Sfx?2Warrior?2Warior91?4wav?$AA@
_DATA	SEGMENT DWORD USE32 PUBLIC 'DATA'
_DATA	ENDS
;	COMDAT ??_C@_0BJ@PGDM@Sfx?2Warrior?2Warior92?4wav?$AA@
_DATA	SEGMENT DWORD USE32 PUBLIC 'DATA'
_DATA	ENDS
;	COMDAT ??_C@_0BJ@FGBJ@Sfx?2Warrior?2Warior93?4wav?$AA@
_DATA	SEGMENT DWORD USE32 PUBLIC 'DATA'
_DATA	ENDS
;	COMDAT ??_C@_0BJ@DGOD@Sfx?2Warrior?2Warior94?4wav?$AA@
_DATA	SEGMENT DWORD USE32 PUBLIC 'DATA'
_DATA	ENDS
;	COMDAT ??_C@_0BJ@JGMG@Sfx?2Warrior?2Warior95?4wav?$AA@
_DATA	SEGMENT DWORD USE32 PUBLIC 'DATA'
_DATA	ENDS
;	COMDAT ??_C@_0BJ@KEMH@Sfx?2Warrior?2Wario95b?4wav?$AA@
_DATA	SEGMENT DWORD USE32 PUBLIC 'DATA'
_DATA	ENDS
;	COMDAT ??_C@_0BJ@EOC@Sfx?2Warrior?2Wario95c?4wav?$AA@
_DATA	SEGMENT DWORD USE32 PUBLIC 'DATA'
_DATA	ENDS
;	COMDAT ??_C@_0BJ@GEBI@Sfx?2Warrior?2Wario95d?4wav?$AA@
_DATA	SEGMENT DWORD USE32 PUBLIC 'DATA'
_DATA	ENDS
;	COMDAT ??_C@_0BJ@MEDN@Sfx?2Warrior?2Wario95e?4wav?$AA@
_DATA	SEGMENT DWORD USE32 PUBLIC 'DATA'
_DATA	ENDS
;	COMDAT ??_C@_0BJ@CEFC@Sfx?2Warrior?2Wario95f?4wav?$AA@
_DATA	SEGMENT DWORD USE32 PUBLIC 'DATA'
_DATA	ENDS
;	COMDAT ??_C@_0BJ@BKCH@Sfx?2Warrior?2Wario96b?4wav?$AA@
_DATA	SEGMENT DWORD USE32 PUBLIC 'DATA'
_DATA	ENDS
;	COMDAT ??_C@_0BI@MJOF@Sfx?2Warrior?2Wario97?4wav?$AA@
_DATA	SEGMENT DWORD USE32 PUBLIC 'DATA'
_DATA	ENDS
;	COMDAT ??_C@_0BI@KIDF@Sfx?2Warrior?2Wario98?4wav?$AA@
_DATA	SEGMENT DWORD USE32 PUBLIC 'DATA'
_DATA	ENDS
;	COMDAT ??_C@_0BJ@BHHJ@Sfx?2Warrior?2Warior99?4wav?$AA@
_DATA	SEGMENT DWORD USE32 PUBLIC 'DATA'
_DATA	ENDS
;	COMDAT ??_C@_0BJ@FIAB@Sfx?2Warrior?2Wario100?4wav?$AA@
_DATA	SEGMENT DWORD USE32 PUBLIC 'DATA'
_DATA	ENDS
;	COMDAT ??_C@_0BJ@PICE@Sfx?2Warrior?2Wario101?4wav?$AA@
_DATA	SEGMENT DWORD USE32 PUBLIC 'DATA'
_DATA	ENDS
;	COMDAT ??_C@_0BJ@BIEL@Sfx?2Warrior?2Wario102?4wav?$AA@
_DATA	SEGMENT DWORD USE32 PUBLIC 'DATA'
_DATA	ENDS
;	COMDAT ??_C@_0BH@LKML@Sfx?2Narrator?2Nar01?4wav?$AA@
_DATA	SEGMENT DWORD USE32 PUBLIC 'DATA'
_DATA	ENDS
;	COMDAT ??_C@_0BH@FKKE@Sfx?2Narrator?2Nar02?4wav?$AA@
_DATA	SEGMENT DWORD USE32 PUBLIC 'DATA'
_DATA	ENDS
;	COMDAT ??_C@_0BH@PKIB@Sfx?2Narrator?2Nar03?4wav?$AA@
_DATA	SEGMENT DWORD USE32 PUBLIC 'DATA'
_DATA	ENDS
;	COMDAT ??_C@_0BH@JKHL@Sfx?2Narrator?2Nar04?4wav?$AA@
_DATA	SEGMENT DWORD USE32 PUBLIC 'DATA'
_DATA	ENDS
;	COMDAT ??_C@_0BH@DKFO@Sfx?2Narrator?2Nar05?4wav?$AA@
_DATA	SEGMENT DWORD USE32 PUBLIC 'DATA'
_DATA	ENDS
;	COMDAT ??_C@_0BH@NKDB@Sfx?2Narrator?2Nar06?4wav?$AA@
_DATA	SEGMENT DWORD USE32 PUBLIC 'DATA'
_DATA	ENDS
;	COMDAT ??_C@_0BH@HKBE@Sfx?2Narrator?2Nar07?4wav?$AA@
_DATA	SEGMENT DWORD USE32 PUBLIC 'DATA'
_DATA	ENDS
;	COMDAT ??_C@_0BH@BLME@Sfx?2Narrator?2Nar08?4wav?$AA@
_DATA	SEGMENT DWORD USE32 PUBLIC 'DATA'
_DATA	ENDS
;	COMDAT ??_C@_0BH@LLOB@Sfx?2Narrator?2Nar09?4wav?$AA@
_DATA	SEGMENT DWORD USE32 PUBLIC 'DATA'
_DATA	ENDS
;	COMDAT ??_C@_0BG@BBMH@Sfx?2Misc?2Lvl16int?4wav?$AA@
_DATA	SEGMENT DWORD USE32 PUBLIC 'DATA'
_DATA	ENDS
;	COMDAT ??_C@_0BJ@EGFN@Sfx?2Monsters?2Butcher?4wav?$AA@
_DATA	SEGMENT DWORD USE32 PUBLIC 'DATA'
_DATA	ENDS
;	COMDAT ??_C@_0BK@JNPF@Sfx?2Monsters?2Garbud01?4wav?$AA@
_DATA	SEGMENT DWORD USE32 PUBLIC 'DATA'
_DATA	ENDS
;	COMDAT ??_C@_0BK@HNJK@Sfx?2Monsters?2Garbud02?4wav?$AA@
_DATA	SEGMENT DWORD USE32 PUBLIC 'DATA'
_DATA	ENDS
;	COMDAT ??_C@_0BK@NNLP@Sfx?2Monsters?2Garbud03?4wav?$AA@
_DATA	SEGMENT DWORD USE32 PUBLIC 'DATA'
_DATA	ENDS
;	COMDAT ??_C@_0BK@LNEF@Sfx?2Monsters?2Garbud04?4wav?$AA@
_DATA	SEGMENT DWORD USE32 PUBLIC 'DATA'
_DATA	ENDS
;	COMDAT ??_C@_0BJ@MLN@Sfx?2Monsters?2Izual01?4wav?$AA@
_DATA	SEGMENT DWORD USE32 PUBLIC 'DATA'
_DATA	ENDS
;	COMDAT ??_C@_0BI@FMPE@Sfx?2Monsters?2Lach01?4wav?$AA@
_DATA	SEGMENT DWORD USE32 PUBLIC 'DATA'
_DATA	ENDS
;	COMDAT ??_C@_0BI@LMJL@Sfx?2Monsters?2Lach02?4wav?$AA@
_DATA	SEGMENT DWORD USE32 PUBLIC 'DATA'
_DATA	ENDS
;	COMDAT ??_C@_0BI@BMLO@Sfx?2Monsters?2Lach03?4wav?$AA@
_DATA	SEGMENT DWORD USE32 PUBLIC 'DATA'
_DATA	ENDS
;	COMDAT ??_C@_0BH@FIDH@Sfx?2Monsters?2Laz01?4wav?$AA@
_DATA	SEGMENT DWORD USE32 PUBLIC 'DATA'
_DATA	ENDS
;	COMDAT ??_C@_0BH@LIFI@Sfx?2Monsters?2Laz02?4wav?$AA@
_DATA	SEGMENT DWORD USE32 PUBLIC 'DATA'
_DATA	ENDS
;	COMDAT ??_C@_0BJ@NHIL@Sfx?2Monsters?2Sking01?4wav?$AA@
_DATA	SEGMENT DWORD USE32 PUBLIC 'DATA'
_DATA	ENDS
;	COMDAT ??_C@_0BI@GKFL@Sfx?2Monsters?2Snot01?4wav?$AA@
_DATA	SEGMENT DWORD USE32 PUBLIC 'DATA'
_DATA	ENDS
;	COMDAT ??_C@_0BI@IKDE@Sfx?2Monsters?2Snot02?4wav?$AA@
_DATA	SEGMENT DWORD USE32 PUBLIC 'DATA'
_DATA	ENDS
;	COMDAT ??_C@_0BI@CKBB@Sfx?2Monsters?2Snot03?4wav?$AA@
_DATA	SEGMENT DWORD USE32 PUBLIC 'DATA'
_DATA	ENDS
;	COMDAT ??_C@_0BK@CEGF@Sfx?2Monsters?2Warlrd01?4wav?$AA@
_DATA	SEGMENT DWORD USE32 PUBLIC 'DATA'
_DATA	ENDS
;	COMDAT ??_C@_0BJ@LIFA@Sfx?2Monsters?2Wlock01?4wav?$AA@
_DATA	SEGMENT DWORD USE32 PUBLIC 'DATA'
_DATA	ENDS
;	COMDAT ??_C@_0BI@NF@Sfx?2Monsters?2Zhar01?4wav?$AA@
_DATA	SEGMENT DWORD USE32 PUBLIC 'DATA'
_DATA	ENDS
;	COMDAT ??_C@_0BI@OALK@Sfx?2Monsters?2Zhar02?4wav?$AA@
_DATA	SEGMENT DWORD USE32 PUBLIC 'DATA'
_DATA	ENDS
;	COMDAT ??_C@_0BJ@NJLB@Sfx?2Monsters?2DiabloD?4wav?$AA@
_DATA	SEGMENT DWORD USE32 PUBLIC 'DATA'
_DATA	ENDS
;	COMDAT ??_C@_09JEJG@effects?31?$AA@
_DATA	SEGMENT DWORD USE32 PUBLIC 'DATA'
_DATA	ENDS
CRT$XCU	SEGMENT DWORD USE32 PUBLIC ''
CRT$XCU	ENDS
;	COMDAT @effect_is_playing@4
_TEXT	SEGMENT PARA USE32 PUBLIC 'CODE'
_TEXT	ENDS
;	COMDAT _sfx_stop
_TEXT	SEGMENT PARA USE32 PUBLIC 'CODE'
_TEXT	ENDS
;	COMDAT @InitMonsterSND@4
_TEXT	SEGMENT PARA USE32 PUBLIC 'CODE'
_TEXT	ENDS
;	COMDAT _FreeEffects
_TEXT	SEGMENT PARA USE32 PUBLIC 'CODE'
_TEXT	ENDS
;	COMDAT @PlayEffect@8
_TEXT	SEGMENT PARA USE32 PUBLIC 'CODE'
_TEXT	ENDS
;	COMDAT @calc_snd_position@16
_TEXT	SEGMENT PARA USE32 PUBLIC 'CODE'
_TEXT	ENDS
;	COMDAT @PlaySFX@4
_TEXT	SEGMENT PARA USE32 PUBLIC 'CODE'
_TEXT	ENDS
;	COMDAT @PlaySFX_priv@16
_TEXT	SEGMENT PARA USE32 PUBLIC 'CODE'
_TEXT	ENDS
;	COMDAT @stream_play@12
_TEXT	SEGMENT PARA USE32 PUBLIC 'CODE'
_TEXT	ENDS
;	COMDAT @RndSFX@4
_TEXT	SEGMENT PARA USE32 PUBLIC 'CODE'
_TEXT	ENDS
;	COMDAT @PlaySfxLoc@12
_TEXT	SEGMENT PARA USE32 PUBLIC 'CODE'
_TEXT	ENDS
;	COMDAT _FreeMonsterSnd
_TEXT	SEGMENT PARA USE32 PUBLIC 'CODE'
_TEXT	ENDS
;	COMDAT _sound_stop
_TEXT	SEGMENT PARA USE32 PUBLIC 'CODE'
_TEXT	ENDS
;	COMDAT _sound_update
_TEXT	SEGMENT PARA USE32 PUBLIC 'CODE'
_TEXT	ENDS
;	COMDAT _effects_cleanup_sfx
_TEXT	SEGMENT PARA USE32 PUBLIC 'CODE'
_TEXT	ENDS
;	COMDAT _stream_update
_TEXT	SEGMENT PARA USE32 PUBLIC 'CODE'
_TEXT	ENDS
;	COMDAT @priv_sound_init@4
_TEXT	SEGMENT PARA USE32 PUBLIC 'CODE'
_TEXT	ENDS
;	COMDAT _sound_init
_TEXT	SEGMENT PARA USE32 PUBLIC 'CODE'
_TEXT	ENDS
;	COMDAT _effects_play_sound@4
_TEXT	SEGMENT PARA USE32 PUBLIC 'CODE'
_TEXT	ENDS
FLAT	GROUP _DATA, CONST, _BSS, CRT$XCU
	ASSUME	CS: FLAT, DS: FLAT, SS: FLAT
endif

INCLUDELIB LIBCMT
INCLUDELIB OLDNAMES

PUBLIC	??_C@_0BG@OONH@Sfx?2Rogue?2Rogue78?4wav?$AA@	; `string'
PUBLIC	??_C@_0BJ@NONF@Sfx?2Towners?2Bsmith02?4wav?$AA@	; `string'
PUBLIC	??_C@_0BG@EOPC@Sfx?2Rogue?2Rogue79?4wav?$AA@	; `string'
PUBLIC	??_C@_0BJ@HOPA@Sfx?2Towners?2Bsmith03?4wav?$AA@	; `string'
PUBLIC	??_C@_0BG@KKJM@Sfx?2Rogue?2Rogue80?4wav?$AA@	; `string'
PUBLIC	??_C@_0BJ@BOAK@Sfx?2Towners?2Bsmith04?4wav?$AA@	; `string'
PUBLIC	??_C@_0BG@KLJ@Sfx?2Rogue?2Rogue81?4wav?$AA@	; `string'
PUBLIC	??_C@_0BJ@LOCP@Sfx?2Towners?2Bsmith05?4wav?$AA@	; `string'
PUBLIC	??_C@_0BG@OKNG@Sfx?2Rogue?2Rogue82?4wav?$AA@	; `string'
PUBLIC	??_C@_0BJ@FOEA@Sfx?2Towners?2Bsmith06?4wav?$AA@	; `string'
PUBLIC	??_C@_0BG@EKPD@Sfx?2Rogue?2Rogue83?4wav?$AA@	; `string'
PUBLIC	??_C@_0BJ@POGF@Sfx?2Towners?2Bsmith07?4wav?$AA@	; `string'
PUBLIC	??_C@_0BG@CKAJ@Sfx?2Rogue?2Rogue84?4wav?$AA@	; `string'
PUBLIC	??_C@_0BJ@JPLF@Sfx?2Towners?2Bsmith08?4wav?$AA@	; `string'
PUBLIC	??_C@_0BG@IKCM@Sfx?2Rogue?2Rogue85?4wav?$AA@	; `string'
PUBLIC	??_C@_0BJ@DPJA@Sfx?2Towners?2Bsmith09?4wav?$AA@	; `string'
PUBLIC	??_C@_0BG@GKED@Sfx?2Rogue?2Rogue86?4wav?$AA@	; `string'
PUBLIC	??_C@_0BJ@LDP@Sfx?2Towners?2Bsmith10?4wav?$AA@	; `string'
PUBLIC	??_C@_0BG@MKGG@Sfx?2Rogue?2Rogue87?4wav?$AA@	; `string'
PUBLIC	??_C@_0BJ@KLBK@Sfx?2Towners?2Bsmith11?4wav?$AA@	; `string'
PUBLIC	??_C@_0BG@KLLG@Sfx?2Rogue?2Rogue88?4wav?$AA@	; `string'
PUBLIC	??_C@_0BJ@ELHF@Sfx?2Towners?2Bsmith12?4wav?$AA@	; `string'
PUBLIC	??_C@_0BG@LJD@Sfx?2Rogue?2Rogue89?4wav?$AA@	; `string'
PUBLIC	??_C@_0BJ@OLFA@Sfx?2Towners?2Bsmith13?4wav?$AA@	; `string'
PUBLIC	??_C@_0BG@DPDM@Sfx?2Rogue?2Rogue90?4wav?$AA@	; `string'
PUBLIC	??_C@_0BJ@ILKK@Sfx?2Towners?2Bsmith14?4wav?$AA@	; `string'
PUBLIC	??_C@_0BG@JPBJ@Sfx?2Rogue?2Rogue91?4wav?$AA@	; `string'
PUBLIC	??_C@_0BJ@CLIP@Sfx?2Towners?2Bsmith15?4wav?$AA@	; `string'
PUBLIC	??_C@_0BG@HPHG@Sfx?2Rogue?2Rogue92?4wav?$AA@	; `string'
PUBLIC	??_C@_0BJ@MLOA@Sfx?2Towners?2Bsmith16?4wav?$AA@	; `string'
PUBLIC	??_C@_0BG@NPFD@Sfx?2Rogue?2Rogue93?4wav?$AA@	; `string'
PUBLIC	??_C@_0BJ@GLMF@Sfx?2Towners?2Bsmith17?4wav?$AA@	; `string'
PUBLIC	??_C@_0BG@LPKJ@Sfx?2Rogue?2Rogue94?4wav?$AA@	; `string'
PUBLIC	??_C@_0BJ@KBF@Sfx?2Towners?2Bsmith18?4wav?$AA@	; `string'
PUBLIC	??_C@_0BG@BPIM@Sfx?2Rogue?2Rogue95?4wav?$AA@	; `string'
PUBLIC	??_C@_0BJ@KKDA@Sfx?2Towners?2Bsmith19?4wav?$AA@	; `string'
PUBLIC	??_C@_0BG@PPOD@Sfx?2Rogue?2Rogue96?4wav?$AA@	; `string'
PUBLIC	??_C@_0BJ@LFNP@Sfx?2Towners?2Bsmith20?4wav?$AA@	; `string'
PUBLIC	??_C@_0BG@FPMG@Sfx?2Rogue?2Rogue97?4wav?$AA@	; `string'
PUBLIC	??_C@_0BJ@BFPK@Sfx?2Towners?2Bsmith21?4wav?$AA@	; `string'
PUBLIC	??_C@_0BG@DOBG@Sfx?2Rogue?2Rogue98?4wav?$AA@	; `string'
PUBLIC	??_C@_0BJ@PFJF@Sfx?2Towners?2Bsmith22?4wav?$AA@	; `string'
PUBLIC	??_C@_0BG@JODD@Sfx?2Rogue?2Rogue99?4wav?$AA@	; `string'
PUBLIC	??_C@_0BJ@FFLA@Sfx?2Towners?2Bsmith23?4wav?$AA@	; `string'
PUBLIC	??_C@_0BH@LLJH@Sfx?2Rogue?2Rogue100?4wav?$AA@	; `string'
PUBLIC	??_C@_0BJ@DFEK@Sfx?2Towners?2Bsmith24?4wav?$AA@	; `string'
PUBLIC	??_C@_0BH@BLLC@Sfx?2Rogue?2Rogue101?4wav?$AA@	; `string'
PUBLIC	??_C@_0BJ@JFGP@Sfx?2Towners?2Bsmith25?4wav?$AA@	; `string'
PUBLIC	??_C@_0BH@PLNN@Sfx?2Rogue?2Rogue102?4wav?$AA@	; `string'
PUBLIC	??_C@_0BJ@HFAA@Sfx?2Towners?2Bsmith26?4wav?$AA@	; `string'
PUBLIC	??_C@_0BJ@COPC@Sfx?2Warrior?2Warior01?4wav?$AA@	; `string'
PUBLIC	??_C@_0BJ@NFCF@Sfx?2Towners?2Bsmith27?4wav?$AA@	; `string'
PUBLIC	??_C@_0BJ@MOJN@Sfx?2Warrior?2Warior02?4wav?$AA@	; `string'
PUBLIC	??_C@_0BJ@LEPF@Sfx?2Towners?2Bsmith28?4wav?$AA@	; `string'
PUBLIC	??_C@_0BJ@GOLI@Sfx?2Warrior?2Warior03?4wav?$AA@	; `string'
PUBLIC	??_C@_0BJ@BENA@Sfx?2Towners?2Bsmith29?4wav?$AA@	; `string'
PUBLIC	??_C@_0BJ@OEC@Sfx?2Warrior?2Warior04?4wav?$AA@	; `string'
PUBLIC	??_C@_0BJ@CAHP@Sfx?2Towners?2Bsmith30?4wav?$AA@	; `string'
PUBLIC	??_C@_0BJ@KOGH@Sfx?2Warrior?2Warior05?4wav?$AA@	; `string'
PUBLIC	??_C@_0BJ@IAFK@Sfx?2Towners?2Bsmith31?4wav?$AA@	; `string'
PUBLIC	??_C@_0BJ@EOAI@Sfx?2Warrior?2Warior06?4wav?$AA@	; `string'
PUBLIC	??_C@_0BJ@GADF@Sfx?2Towners?2Bsmith32?4wav?$AA@	; `string'
PUBLIC	??_C@_0BJ@OOCN@Sfx?2Warrior?2Warior07?4wav?$AA@	; `string'
PUBLIC	??_C@_0BJ@MABA@Sfx?2Towners?2Bsmith33?4wav?$AA@	; `string'
PUBLIC	??_C@_0BJ@IPPN@Sfx?2Warrior?2Warior08?4wav?$AA@	; `string'
PUBLIC	??_C@_0BJ@KAOK@Sfx?2Towners?2Bsmith34?4wav?$AA@	; `string'
PUBLIC	??_C@_0BJ@CPNI@Sfx?2Warrior?2Warior09?4wav?$AA@	; `string'
PUBLIC	??_C@_0BJ@MP@Sfx?2Towners?2Bsmith35?4wav?$AA@	; `string'
PUBLIC	??_C@_0BJ@BLHH@Sfx?2Warrior?2Warior10?4wav?$AA@	; `string'
PUBLIC	??_C@_0BJ@OAKA@Sfx?2Towners?2Bsmith36?4wav?$AA@	; `string'
PUBLIC	??_C@_0BJ@LLFC@Sfx?2Warrior?2Warior11?4wav?$AA@	; `string'
PUBLIC	??_C@_0BJ@EAIF@Sfx?2Towners?2Bsmith37?4wav?$AA@	; `string'
PUBLIC	??_C@_0BJ@FLDN@Sfx?2Warrior?2Warior12?4wav?$AA@	; `string'
PUBLIC	??_C@_0BJ@CBFF@Sfx?2Towners?2Bsmith38?4wav?$AA@	; `string'
PUBLIC	??_C@_0BJ@PLBI@Sfx?2Warrior?2Warior13?4wav?$AA@	; `string'
PUBLIC	??_C@_0BJ@IBHA@Sfx?2Towners?2Bsmith39?4wav?$AA@	; `string'
PUBLIC	??_C@_0BJ@JLOC@Sfx?2Warrior?2Warior14?4wav?$AA@	; `string'
PUBLIC	??_C@_0BJ@MIBP@Sfx?2Towners?2Bsmith40?4wav?$AA@	; `string'
PUBLIC	??_C@_0BJ@EFMK@Sfx?2Warrior?2Wario14b?4wav?$AA@	; `string'
PUBLIC	??_C@_0BJ@GIDK@Sfx?2Towners?2Bsmith41?4wav?$AA@	; `string'
PUBLIC	??_C@_0BJ@OFOP@Sfx?2Warrior?2Wario14c?4wav?$AA@	; `string'
PUBLIC	??_C@_0BJ@IIFF@Sfx?2Towners?2Bsmith42?4wav?$AA@	; `string'
PUBLIC	??_C@_0BJ@DLMH@Sfx?2Warrior?2Warior15?4wav?$AA@	; `string'
PUBLIC	??_C@_0BJ@CIHA@Sfx?2Towners?2Bsmith43?4wav?$AA@	; `string'
PUBLIC	??_C@_0BJ@NAGK@Sfx?2Warrior?2Wario15b?4wav?$AA@	; `string'
PUBLIC	??_C@_0BJ@EIIK@Sfx?2Towners?2Bsmith44?4wav?$AA@	; `string'
PUBLIC	??_C@_0BJ@HAEP@Sfx?2Warrior?2Wario15c?4wav?$AA@	; `string'
PUBLIC	??_C@_0BJ@OIKP@Sfx?2Towners?2Bsmith45?4wav?$AA@	; `string'
PUBLIC	??_C@_0BJ@NLKI@Sfx?2Warrior?2Warior16?4wav?$AA@	; `string'
PUBLIC	??_C@_0BJ@IMA@Sfx?2Towners?2Bsmith46?4wav?$AA@	; `string'
PUBLIC	??_C@_0BJ@GOIK@Sfx?2Warrior?2Wario16b?4wav?$AA@	; `string'
PUBLIC	??_C@_0BJ@KIOF@Sfx?2Towners?2Bsmith47?4wav?$AA@	; `string'
PUBLIC	??_C@_0BJ@MOKP@Sfx?2Warrior?2Wario16c?4wav?$AA@	; `string'
PUBLIC	??_C@_0BJ@MJDF@Sfx?2Towners?2Bsmith48?4wav?$AA@	; `string'
PUBLIC	??_C@_0BJ@HLIN@Sfx?2Warrior?2Warior17?4wav?$AA@	; `string'
PUBLIC	??_C@_0BJ@GJBA@Sfx?2Towners?2Bsmith49?4wav?$AA@	; `string'
PUBLIC	??_C@_0BJ@BKFN@Sfx?2Warrior?2Warior18?4wav?$AA@	; `string'
PUBLIC	??_C@_0BJ@FNLP@Sfx?2Towners?2Bsmith50?4wav?$AA@	; `string'
PUBLIC	??_C@_0BJ@LKHI@Sfx?2Warrior?2Warior19?4wav?$AA@	; `string'
PUBLIC	??_C@_0BJ@PNJK@Sfx?2Towners?2Bsmith51?4wav?$AA@	; `string'
PUBLIC	??_C@_0BJ@KFJH@Sfx?2Warrior?2Warior20?4wav?$AA@	; `string'
PUBLIC	??_C@_0BJ@BNPF@Sfx?2Towners?2Bsmith52?4wav?$AA@	; `string'
PUBLIC	??_C@_0BJ@FLC@Sfx?2Warrior?2Warior21?4wav?$AA@	; `string'
PUBLIC	??_C@_0BJ@LNNA@Sfx?2Towners?2Bsmith53?4wav?$AA@	; `string'
PUBLIC	??_C@_0BJ@OFNN@Sfx?2Warrior?2Warior22?4wav?$AA@	; `string'
PUBLIC	??_C@_0BJ@NNCK@Sfx?2Towners?2Bsmith54?4wav?$AA@	; `string'
PUBLIC	??_C@_0BJ@EFPI@Sfx?2Warrior?2Warior23?4wav?$AA@	; `string'
PUBLIC	??_C@_0BJ@HNAP@Sfx?2Towners?2Bsmith55?4wav?$AA@	; `string'
PUBLIC	??_C@_0BJ@CFAC@Sfx?2Warrior?2Warior24?4wav?$AA@	; `string'
PUBLIC	??_C@_0BJ@JNGA@Sfx?2Towners?2Bsmith56?4wav?$AA@	; `string'
PUBLIC	??_C@_0BJ@IFCH@Sfx?2Warrior?2Warior25?4wav?$AA@	; `string'
PUBLIC	??_C@_0BF@CFHD@Sfx?2Towners?2Cow1?4wav?$AA@	; `string'
PUBLIC	??_C@_0BJ@GFEI@Sfx?2Warrior?2Warior26?4wav?$AA@	; `string'
PUBLIC	??_C@_0BF@MFBM@Sfx?2Towners?2Cow2?4wav?$AA@	; `string'
PUBLIC	??_C@_0BJ@MFGN@Sfx?2Warrior?2Warior27?4wav?$AA@	; `string'
PUBLIC	??_C@_0BJ@POEC@Sfx?2Towners?2Deadguy2?4wav?$AA@	; `string'
PUBLIC	??_C@_0BJ@KELN@Sfx?2Warrior?2Warior28?4wav?$AA@	; `string'
PUBLIC	??_C@_0BI@MPKB@Sfx?2Towners?2Drunk01?4wav?$AA@	; `string'
PUBLIC	??_C@_0BJ@EJI@Sfx?2Warrior?2Warior29?4wav?$AA@	; `string'
PUBLIC	??_C@_0BI@CPMO@Sfx?2Towners?2Drunk02?4wav?$AA@	; `string'
PUBLIC	??_C@_0BJ@DADH@Sfx?2Warrior?2Warior30?4wav?$AA@	; `string'
PUBLIC	??_C@_0BI@IPOL@Sfx?2Towners?2Drunk03?4wav?$AA@	; `string'
PUBLIC	??_C@_0BJ@JABC@Sfx?2Warrior?2Warior31?4wav?$AA@	; `string'
PUBLIC	??_C@_0BI@OPBB@Sfx?2Towners?2Drunk04?4wav?$AA@	; `string'
PUBLIC	??_C@_0BJ@HAHN@Sfx?2Warrior?2Warior32?4wav?$AA@	; `string'
PUBLIC	??_C@_0BI@EPDE@Sfx?2Towners?2Drunk05?4wav?$AA@	; `string'
PUBLIC	??_C@_0BJ@NAFI@Sfx?2Warrior?2Warior33?4wav?$AA@	; `string'
PUBLIC	??_C@_0BI@KPFL@Sfx?2Towners?2Drunk06?4wav?$AA@	; `string'
PUBLIC	??_C@_0BJ@LAKC@Sfx?2Warrior?2Warior34?4wav?$AA@	; `string'
PUBLIC	??_C@_0BI@PHO@Sfx?2Towners?2Drunk07?4wav?$AA@	; `string'
PUBLIC	??_C@_0BJ@BAIH@Sfx?2Warrior?2Warior35?4wav?$AA@	; `string'
PUBLIC	??_C@_0BI@GOKO@Sfx?2Towners?2Drunk08?4wav?$AA@	; `string'
PUBLIC	??_C@_0BJ@PAOI@Sfx?2Warrior?2Warior36?4wav?$AA@	; `string'
PUBLIC	??_C@_0BI@MOIL@Sfx?2Towners?2Drunk09?4wav?$AA@	; `string'
PUBLIC	??_C@_0BJ@FAMN@Sfx?2Warrior?2Warior37?4wav?$AA@	; `string'
PUBLIC	??_C@_0BI@PKCE@Sfx?2Towners?2Drunk10?4wav?$AA@	; `string'
PUBLIC	??_C@_0BJ@DBBN@Sfx?2Warrior?2Warior38?4wav?$AA@	; `string'
PUBLIC	??_C@_0BI@FKAB@Sfx?2Towners?2Drunk11?4wav?$AA@	; `string'
PUBLIC	??_C@_0BJ@JBDI@Sfx?2Warrior?2Warior39?4wav?$AA@	; `string'
PUBLIC	??_C@_0BI@LKGO@Sfx?2Towners?2Drunk12?4wav?$AA@	; `string'
PUBLIC	??_C@_0BJ@NIFH@Sfx?2Warrior?2Warior40?4wav?$AA@	; `string'
PUBLIC	??_C@_0BI@BKEL@Sfx?2Towners?2Drunk13?4wav?$AA@	; `string'
PUBLIC	??_C@_0BJ@HIHC@Sfx?2Warrior?2Warior41?4wav?$AA@	; `string'
PUBLIC	??_C@_0BI@HKLB@Sfx?2Towners?2Drunk14?4wav?$AA@	; `string'
PUBLIC	??_C@_0BJ@JIBN@Sfx?2Warrior?2Warior42?4wav?$AA@	; `string'
PUBLIC	??_C@_0BI@NKJE@Sfx?2Towners?2Drunk15?4wav?$AA@	; `string'
PUBLIC	??_C@_0BJ@DIDI@Sfx?2Warrior?2Warior43?4wav?$AA@	; `string'
PUBLIC	??_C@_0BI@DKPL@Sfx?2Towners?2Drunk16?4wav?$AA@	; `string'
PUBLIC	??_C@_0BJ@FIMC@Sfx?2Warrior?2Warior44?4wav?$AA@	; `string'
PUBLIC	??_C@_0BI@JKNO@Sfx?2Towners?2Drunk17?4wav?$AA@	; `string'
PUBLIC	??_C@_0BJ@PIOH@Sfx?2Warrior?2Warior45?4wav?$AA@	; `string'
PUBLIC	??_C@_0BI@PLAO@Sfx?2Towners?2Drunk18?4wav?$AA@	; `string'
PUBLIC	??_C@_0BJ@BIII@Sfx?2Warrior?2Warior46?4wav?$AA@	; `string'
PUBLIC	??_C@_0BI@FLCL@Sfx?2Towners?2Drunk19?4wav?$AA@	; `string'
PUBLIC	??_C@_0BJ@LIKN@Sfx?2Warrior?2Warior47?4wav?$AA@	; `string'
PUBLIC	??_C@_0BI@EEME@Sfx?2Towners?2Drunk20?4wav?$AA@	; `string'
PUBLIC	??_C@_0BJ@NJHN@Sfx?2Warrior?2Warior48?4wav?$AA@	; `string'
PUBLIC	??_C@_0BI@OEOB@Sfx?2Towners?2Drunk21?4wav?$AA@	; `string'
PUBLIC	??_C@_0BJ@HJFI@Sfx?2Warrior?2Warior49?4wav?$AA@	; `string'
PUBLIC	??_C@_0BI@EIO@Sfx?2Towners?2Drunk22?4wav?$AA@	; `string'
PUBLIC	??_C@_0BJ@ENPH@Sfx?2Warrior?2Warior50?4wav?$AA@	; `string'
PUBLIC	??_C@_0BI@KEKL@Sfx?2Towners?2Drunk23?4wav?$AA@	; `string'
PUBLIC	??_C@_0BJ@ONNC@Sfx?2Warrior?2Warior51?4wav?$AA@	; `string'
PUBLIC	??_C@_0BI@MEFB@Sfx?2Towners?2Drunk24?4wav?$AA@	; `string'
PUBLIC	??_C@_0BJ@NLN@Sfx?2Warrior?2Warior52?4wav?$AA@	; `string'
PUBLIC	??_C@_0BI@GEHE@Sfx?2Towners?2Drunk25?4wav?$AA@	; `string'
PUBLIC	??_C@_0BJ@KNJI@Sfx?2Warrior?2Warior53?4wav?$AA@	; `string'
PUBLIC	??_C@_0BI@IEBL@Sfx?2Towners?2Drunk26?4wav?$AA@	; `string'
PUBLIC	??_C@_0BJ@MNGC@Sfx?2Warrior?2Warior54?4wav?$AA@	; `string'
PUBLIC	??_C@_0BI@CEDO@Sfx?2Towners?2Drunk27?4wav?$AA@	; `string'
PUBLIC	??_C@_0BJ@GNEH@Sfx?2Warrior?2Warior55?4wav?$AA@	; `string'
PUBLIC	??_C@_0BI@EFOO@Sfx?2Towners?2Drunk28?4wav?$AA@	; `string'
PUBLIC	??_C@_0BJ@INCI@Sfx?2Warrior?2Warior56?4wav?$AA@	; `string'
PUBLIC	??_C@_0BI@OFML@Sfx?2Towners?2Drunk29?4wav?$AA@	; `string'
PUBLIC	??_C@_0BJ@CNAN@Sfx?2Warrior?2Warior57?4wav?$AA@	; `string'
PUBLIC	??_C@_0BI@NBGE@Sfx?2Towners?2Drunk30?4wav?$AA@	; `string'
PUBLIC	??_C@_0BJ@EMNN@Sfx?2Warrior?2Warior58?4wav?$AA@	; `string'
PUBLIC	??_C@_0BI@HBEB@Sfx?2Towners?2Drunk31?4wav?$AA@	; `string'
PUBLIC	??_C@_0BJ@OMPI@Sfx?2Warrior?2Warior59?4wav?$AA@	; `string'
PUBLIC	??_C@_0BI@JBCO@Sfx?2Towners?2Drunk32?4wav?$AA@	; `string'
PUBLIC	??_C@_0BJ@PDBH@Sfx?2Warrior?2Warior60?4wav?$AA@	; `string'
PUBLIC	??_C@_0BI@DBAL@Sfx?2Towners?2Drunk33?4wav?$AA@	; `string'
PUBLIC	??_C@_0BJ@FDDC@Sfx?2Warrior?2Warior61?4wav?$AA@	; `string'
PUBLIC	??_C@_0BI@FBPB@Sfx?2Towners?2Drunk34?4wav?$AA@	; `string'
PUBLIC	??_C@_0BJ@LDFN@Sfx?2Warrior?2Warior62?4wav?$AA@	; `string'
PUBLIC	??_C@_0BI@PBNE@Sfx?2Towners?2Drunk35?4wav?$AA@	; `string'
PUBLIC	??_C@_0BJ@BDHI@Sfx?2Warrior?2Warior63?4wav?$AA@	; `string'
PUBLIC	??_C@_0BJ@NNIP@Sfx?2Towners?2Healer01?4wav?$AA@	; `string'
PUBLIC	??_C@_0BJ@HDIC@Sfx?2Warrior?2Warior64?4wav?$AA@	; `string'
PUBLIC	??_C@_0BJ@DNOA@Sfx?2Towners?2Healer02?4wav?$AA@	; `string'
PUBLIC	??_C@_0BJ@NDKH@Sfx?2Warrior?2Warior65?4wav?$AA@	; `string'
PUBLIC	??_C@_0BJ@JNMF@Sfx?2Towners?2Healer03?4wav?$AA@	; `string'
PUBLIC	??_C@_0BJ@DDMI@Sfx?2Warrior?2Warior66?4wav?$AA@	; `string'
PUBLIC	??_C@_0BJ@PNDP@Sfx?2Towners?2Healer04?4wav?$AA@	; `string'
PUBLIC	??_C@_0BJ@JDON@Sfx?2Warrior?2Warior67?4wav?$AA@	; `string'
PUBLIC	??_C@_0BJ@FNBK@Sfx?2Towners?2Healer05?4wav?$AA@	; `string'
PUBLIC	??_C@_0BJ@PCDN@Sfx?2Warrior?2Warior68?4wav?$AA@	; `string'
PUBLIC	??_C@_0BJ@LNHF@Sfx?2Towners?2Healer06?4wav?$AA@	; `string'
PUBLIC	??_C@_0BJ@FCBI@Sfx?2Warrior?2Warior69?4wav?$AA@	; `string'
PUBLIC	??_C@_0BJ@BNFA@Sfx?2Towners?2Healer07?4wav?$AA@	; `string'
PUBLIC	??_C@_0BJ@OCAD@Sfx?2Warrior?2Wario69b?4wav?$AA@	; `string'
PUBLIC	??_C@_0BJ@HMIA@Sfx?2Towners?2Healer08?4wav?$AA@	; `string'
PUBLIC	??_C@_0BJ@GGLH@Sfx?2Warrior?2Warior70?4wav?$AA@	; `string'
PUBLIC	??_C@_0BJ@NMKF@Sfx?2Towners?2Healer09?4wav?$AA@	; `string'
PUBLIC	??_C@_0BJ@MGJC@Sfx?2Warrior?2Warior71?4wav?$AA@	; `string'
PUBLIC	??_C@_0BJ@OIAK@Sfx?2Towners?2Healer10?4wav?$AA@	; `string'
PUBLIC	??_C@_0BJ@CGPN@Sfx?2Warrior?2Warior72?4wav?$AA@	; `string'
PUBLIC	??_C@_0BJ@EICP@Sfx?2Towners?2Healer11?4wav?$AA@	; `string'
PUBLIC	??_C@_0BJ@IGNI@Sfx?2Warrior?2Warior73?4wav?$AA@	; `string'
PUBLIC	??_C@_0BJ@KIEA@Sfx?2Towners?2Healer12?4wav?$AA@	; `string'
PUBLIC	??_C@_0BJ@OGCC@Sfx?2Warrior?2Warior74?4wav?$AA@	; `string'
PUBLIC	??_C@_0BJ@IGF@Sfx?2Towners?2Healer13?4wav?$AA@	; `string'
PUBLIC	??_C@_0BJ@EGAH@Sfx?2Warrior?2Warior75?4wav?$AA@	; `string'
PUBLIC	??_C@_0BJ@GIJP@Sfx?2Towners?2Healer14?4wav?$AA@	; `string'
PUBLIC	??_C@_0BJ@KGGI@Sfx?2Warrior?2Warior76?4wav?$AA@	; `string'
PUBLIC	??_C@_0BJ@MILK@Sfx?2Towners?2Healer15?4wav?$AA@	; `string'
PUBLIC	??_C@_0BJ@GEN@Sfx?2Warrior?2Warior77?4wav?$AA@	; `string'
PUBLIC	??_C@_0BJ@CINF@Sfx?2Towners?2Healer16?4wav?$AA@	; `string'
PUBLIC	??_C@_0BJ@GHJN@Sfx?2Warrior?2Warior78?4wav?$AA@	; `string'
PUBLIC	??_C@_0BJ@IIPA@Sfx?2Towners?2Healer17?4wav?$AA@	; `string'
PUBLIC	??_C@_0BJ@MHLI@Sfx?2Warrior?2Warior79?4wav?$AA@	; `string'
PUBLIC	??_C@_0BJ@OJCA@Sfx?2Towners?2Healer18?4wav?$AA@	; `string'
PUBLIC	??_C@_0BJ@CDNG@Sfx?2Warrior?2Warior80?4wav?$AA@	; `string'
PUBLIC	??_C@_0BJ@EJAF@Sfx?2Towners?2Healer19?4wav?$AA@	; `string'
PUBLIC	??_C@_0BJ@IDPD@Sfx?2Warrior?2Warior81?4wav?$AA@	; `string'
PUBLIC	??_C@_0BJ@FGOK@Sfx?2Towners?2Healer20?4wav?$AA@	; `string'
PUBLIC	??_C@_0BJ@GDJM@Sfx?2Warrior?2Warior82?4wav?$AA@	; `string'
PUBLIC	??_C@_0BJ@PGMP@Sfx?2Towners?2Healer21?4wav?$AA@	; `string'
PUBLIC	??_C@_0BJ@MDLJ@Sfx?2Warrior?2Warior83?4wav?$AA@	; `string'
PUBLIC	??_C@_0BJ@BGKA@Sfx?2Towners?2Healer22?4wav?$AA@	; `string'
PUBLIC	??_C@_0BJ@KDED@Sfx?2Warrior?2Warior84?4wav?$AA@	; `string'
PUBLIC	??_C@_0BJ@LGIF@Sfx?2Towners?2Healer23?4wav?$AA@	; `string'
PUBLIC	??_C@_0BJ@DGG@Sfx?2Warrior?2Warior85?4wav?$AA@	; `string'
PUBLIC	??_C@_0BJ@NGHP@Sfx?2Towners?2Healer24?4wav?$AA@	; `string'
PUBLIC	??_C@_0BJ@ODAJ@Sfx?2Warrior?2Warior86?4wav?$AA@	; `string'
PUBLIC	??_C@_0BJ@HGFK@Sfx?2Towners?2Healer25?4wav?$AA@	; `string'
PUBLIC	??_C@_0BJ@EDCM@Sfx?2Warrior?2Warior87?4wav?$AA@	; `string'
PUBLIC	??_C@_0BJ@JGDF@Sfx?2Towners?2Healer26?4wav?$AA@	; `string'
PUBLIC	??_C@_0BJ@CCPM@Sfx?2Warrior?2Warior88?4wav?$AA@	; `string'
PUBLIC	??_C@_0BJ@DGBA@Sfx?2Towners?2Healer27?4wav?$AA@	; `string'
PUBLIC	??_C@_0BJ@ICNJ@Sfx?2Warrior?2Warior89?4wav?$AA@	; `string'
PUBLIC	??_C@_0BJ@FHMA@Sfx?2Towners?2Healer28?4wav?$AA@	; `string'
PUBLIC	??_C@_0BJ@LGHG@Sfx?2Warrior?2Warior90?4wav?$AA@	; `string'
PUBLIC	??_C@_0BJ@PHOF@Sfx?2Towners?2Healer29?4wav?$AA@	; `string'
PUBLIC	??_C@_0BJ@BGFD@Sfx?2Warrior?2Warior91?4wav?$AA@	; `string'
PUBLIC	??_C@_0BJ@MDEK@Sfx?2Towners?2Healer30?4wav?$AA@	; `string'
PUBLIC	??_C@_0BJ@PGDM@Sfx?2Warrior?2Warior92?4wav?$AA@	; `string'
PUBLIC	??_C@_0BJ@GDGP@Sfx?2Towners?2Healer31?4wav?$AA@	; `string'
PUBLIC	??_C@_0BJ@FGBJ@Sfx?2Warrior?2Warior93?4wav?$AA@	; `string'
PUBLIC	??_C@_0BJ@IDAA@Sfx?2Towners?2Healer32?4wav?$AA@	; `string'
PUBLIC	??_C@_0BJ@DGOD@Sfx?2Warrior?2Warior94?4wav?$AA@	; `string'
PUBLIC	??_C@_0BJ@CDCF@Sfx?2Towners?2Healer33?4wav?$AA@	; `string'
PUBLIC	??_C@_0BJ@JGMG@Sfx?2Warrior?2Warior95?4wav?$AA@	; `string'
PUBLIC	??_C@_0BJ@EDNP@Sfx?2Towners?2Healer34?4wav?$AA@	; `string'
PUBLIC	??_C@_0BJ@KEMH@Sfx?2Warrior?2Wario95b?4wav?$AA@	; `string'
PUBLIC	??_C@_0BJ@ODPK@Sfx?2Towners?2Healer35?4wav?$AA@	; `string'
PUBLIC	??_C@_0BJ@EOC@Sfx?2Warrior?2Wario95c?4wav?$AA@	; `string'
PUBLIC	??_C@_0BJ@DJF@Sfx?2Towners?2Healer36?4wav?$AA@	; `string'
PUBLIC	??_C@_0BJ@GEBI@Sfx?2Warrior?2Wario95d?4wav?$AA@	; `string'
PUBLIC	??_C@_0BJ@KDLA@Sfx?2Towners?2Healer37?4wav?$AA@	; `string'
PUBLIC	??_C@_0BJ@MEDN@Sfx?2Warrior?2Wario95e?4wav?$AA@	; `string'
PUBLIC	??_C@_0BJ@MCGA@Sfx?2Towners?2Healer38?4wav?$AA@	; `string'
PUBLIC	??_C@_0BJ@CEFC@Sfx?2Warrior?2Wario95f?4wav?$AA@	; `string'
PUBLIC	??_C@_0BJ@GCEF@Sfx?2Towners?2Healer39?4wav?$AA@	; `string'
PUBLIC	??_C@_0BJ@BKCH@Sfx?2Warrior?2Wario96b?4wav?$AA@	; `string'
PUBLIC	??_C@_0BJ@CLCK@Sfx?2Towners?2Healer40?4wav?$AA@	; `string'
PUBLIC	_monster_action_sounds
PUBLIC	??_C@_0BI@MJOF@Sfx?2Warrior?2Wario97?4wav?$AA@	; `string'
PUBLIC	??_C@_0BJ@ILAP@Sfx?2Towners?2Healer41?4wav?$AA@	; `string'
PUBLIC	??_C@_0BI@KIDF@Sfx?2Warrior?2Wario98?4wav?$AA@	; `string'
PUBLIC	??_C@_0BJ@GLGA@Sfx?2Towners?2Healer42?4wav?$AA@	; `string'
PUBLIC	??_C@_0BJ@BHHJ@Sfx?2Warrior?2Warior99?4wav?$AA@	; `string'
PUBLIC	??_C@_0BJ@MLEF@Sfx?2Towners?2Healer43?4wav?$AA@	; `string'
PUBLIC	??_C@_0BJ@FIAB@Sfx?2Warrior?2Wario100?4wav?$AA@	; `string'
PUBLIC	??_C@_0BJ@KLLP@Sfx?2Towners?2Healer44?4wav?$AA@	; `string'
PUBLIC	??_C@_0BJ@PICE@Sfx?2Warrior?2Wario101?4wav?$AA@	; `string'
PUBLIC	??_C@_0BJ@LJK@Sfx?2Towners?2Healer45?4wav?$AA@	; `string'
PUBLIC	??_C@_0BJ@BIEL@Sfx?2Warrior?2Wario102?4wav?$AA@	; `string'
PUBLIC	??_C@_0BJ@OLPF@Sfx?2Towners?2Healer46?4wav?$AA@	; `string'
PUBLIC	??_C@_0BH@LKML@Sfx?2Narrator?2Nar01?4wav?$AA@	; `string'
PUBLIC	??_C@_0BJ@ELNA@Sfx?2Towners?2Healer47?4wav?$AA@	; `string'
PUBLIC	??_C@_0BH@FKKE@Sfx?2Narrator?2Nar02?4wav?$AA@	; `string'
PUBLIC	??_C@_0BJ@FDF@Sfx?2Towners?2Pegboy01?4wav?$AA@	; `string'
PUBLIC	??_C@_0BH@PKIB@Sfx?2Narrator?2Nar03?4wav?$AA@	; `string'
PUBLIC	??_C@_0BJ@OFFK@Sfx?2Towners?2Pegboy02?4wav?$AA@	; `string'
PUBLIC	??_C@_0BH@JKHL@Sfx?2Narrator?2Nar04?4wav?$AA@	; `string'
PUBLIC	??_C@_0BJ@EFHP@Sfx?2Towners?2Pegboy03?4wav?$AA@	; `string'
PUBLIC	??_C@_0BH@DKFO@Sfx?2Narrator?2Nar05?4wav?$AA@	; `string'
PUBLIC	??_C@_0BJ@CFIF@Sfx?2Towners?2Pegboy04?4wav?$AA@	; `string'
PUBLIC	??_C@_0BH@NKDB@Sfx?2Narrator?2Nar06?4wav?$AA@	; `string'
PUBLIC	??_C@_0BJ@IFKA@Sfx?2Towners?2Pegboy05?4wav?$AA@	; `string'
PUBLIC	??_C@_0BH@HKBE@Sfx?2Narrator?2Nar07?4wav?$AA@	; `string'
PUBLIC	??_C@_0BJ@GFMP@Sfx?2Towners?2Pegboy06?4wav?$AA@	; `string'
PUBLIC	??_C@_0BH@BLME@Sfx?2Narrator?2Nar08?4wav?$AA@	; `string'
PUBLIC	??_C@_0BJ@MFOK@Sfx?2Towners?2Pegboy07?4wav?$AA@	; `string'
PUBLIC	??_C@_0BH@LLOB@Sfx?2Narrator?2Nar09?4wav?$AA@	; `string'
PUBLIC	??_C@_0BJ@KEDK@Sfx?2Towners?2Pegboy08?4wav?$AA@	; `string'
PUBLIC	??_C@_0BG@BBMH@Sfx?2Misc?2Lvl16int?4wav?$AA@	; `string'
PUBLIC	??_C@_0BJ@EBP@Sfx?2Towners?2Pegboy09?4wav?$AA@	; `string'
PUBLIC	??_C@_0BJ@EGFN@Sfx?2Monsters?2Butcher?4wav?$AA@	; `string'
PUBLIC	??_C@_0BJ@DALA@Sfx?2Towners?2Pegboy10?4wav?$AA@	; `string'
PUBLIC	??_C@_0BK@JNPF@Sfx?2Monsters?2Garbud01?4wav?$AA@ ; `string'
PUBLIC	??_C@_0BJ@JAJF@Sfx?2Towners?2Pegboy11?4wav?$AA@	; `string'
PUBLIC	??_C@_0BK@HNJK@Sfx?2Monsters?2Garbud02?4wav?$AA@ ; `string'
PUBLIC	??_C@_0BJ@HAPK@Sfx?2Towners?2Pegboy12?4wav?$AA@	; `string'
PUBLIC	??_C@_0BK@NNLP@Sfx?2Monsters?2Garbud03?4wav?$AA@ ; `string'
PUBLIC	??_C@_0BJ@NANP@Sfx?2Towners?2Pegboy13?4wav?$AA@	; `string'
PUBLIC	??_C@_0BK@LNEF@Sfx?2Monsters?2Garbud04?4wav?$AA@ ; `string'
PUBLIC	??_C@_0BJ@LACF@Sfx?2Towners?2Pegboy14?4wav?$AA@	; `string'
PUBLIC	??_C@_0BJ@MLN@Sfx?2Monsters?2Izual01?4wav?$AA@	; `string'
PUBLIC	??_C@_0BJ@BAAA@Sfx?2Towners?2Pegboy15?4wav?$AA@	; `string'
PUBLIC	??_C@_0BI@FMPE@Sfx?2Monsters?2Lach01?4wav?$AA@	; `string'
PUBLIC	??_C@_0BJ@PAGP@Sfx?2Towners?2Pegboy16?4wav?$AA@	; `string'
PUBLIC	??_C@_0BI@LMJL@Sfx?2Monsters?2Lach02?4wav?$AA@	; `string'
PUBLIC	??_C@_0BJ@FAEK@Sfx?2Towners?2Pegboy17?4wav?$AA@	; `string'
PUBLIC	??_C@_0BI@BMLO@Sfx?2Monsters?2Lach03?4wav?$AA@	; `string'
PUBLIC	??_C@_0BJ@DBJK@Sfx?2Towners?2Pegboy18?4wav?$AA@	; `string'
PUBLIC	??_C@_0BH@FIDH@Sfx?2Monsters?2Laz01?4wav?$AA@	; `string'
PUBLIC	??_C@_0BJ@JBLP@Sfx?2Towners?2Pegboy19?4wav?$AA@	; `string'
PUBLIC	??_C@_0BH@LIFI@Sfx?2Monsters?2Laz02?4wav?$AA@	; `string'
PUBLIC	??_C@_0BJ@IOFA@Sfx?2Towners?2Pegboy20?4wav?$AA@	; `string'
PUBLIC	??_C@_0BJ@NHIL@Sfx?2Monsters?2Sking01?4wav?$AA@	; `string'
PUBLIC	??_C@_0BJ@COHF@Sfx?2Towners?2Pegboy21?4wav?$AA@	; `string'
PUBLIC	??_C@_0BI@GKFL@Sfx?2Monsters?2Snot01?4wav?$AA@	; `string'
PUBLIC	??_C@_0BJ@MOBK@Sfx?2Towners?2Pegboy22?4wav?$AA@	; `string'
PUBLIC	??_C@_0BI@IKDE@Sfx?2Monsters?2Snot02?4wav?$AA@	; `string'
PUBLIC	??_C@_0BJ@GODP@Sfx?2Towners?2Pegboy23?4wav?$AA@	; `string'
PUBLIC	??_C@_0BI@CKBB@Sfx?2Monsters?2Snot03?4wav?$AA@	; `string'
PUBLIC	??_C@_0BJ@OMF@Sfx?2Towners?2Pegboy24?4wav?$AA@	; `string'
PUBLIC	??_C@_0BK@CEGF@Sfx?2Monsters?2Warlrd01?4wav?$AA@ ; `string'
PUBLIC	??_C@_0BJ@KOOA@Sfx?2Towners?2Pegboy25?4wav?$AA@	; `string'
PUBLIC	??_C@_0BJ@LIFA@Sfx?2Monsters?2Wlock01?4wav?$AA@	; `string'
PUBLIC	??_C@_0BJ@EOIP@Sfx?2Towners?2Pegboy26?4wav?$AA@	; `string'
PUBLIC	??_C@_0BI@NF@Sfx?2Monsters?2Zhar01?4wav?$AA@	; `string'
PUBLIC	??_C@_0BJ@OOKK@Sfx?2Towners?2Pegboy27?4wav?$AA@	; `string'
PUBLIC	??_C@_0BI@OALK@Sfx?2Monsters?2Zhar02?4wav?$AA@	; `string'
PUBLIC	??_C@_0BJ@IPHK@Sfx?2Towners?2Pegboy28?4wav?$AA@	; `string'
PUBLIC	??_C@_0BJ@NJLB@Sfx?2Monsters?2DiabloD?4wav?$AA@	; `string'
PUBLIC	??_C@_0BJ@CPFP@Sfx?2Towners?2Pegboy29?4wav?$AA@	; `string'
PUBLIC	??_C@_0BJ@BLPA@Sfx?2Towners?2Pegboy30?4wav?$AA@	; `string'
PUBLIC	??_C@_0BJ@LLNF@Sfx?2Towners?2Pegboy31?4wav?$AA@	; `string'
PUBLIC	??_C@_0BJ@FLLK@Sfx?2Towners?2Pegboy32?4wav?$AA@	; `string'
PUBLIC	??_C@_0BJ@PLJP@Sfx?2Towners?2Pegboy33?4wav?$AA@	; `string'
PUBLIC	??_C@_0BJ@JLGF@Sfx?2Towners?2Pegboy34?4wav?$AA@	; `string'
PUBLIC	??_C@_0BJ@DLEA@Sfx?2Towners?2Pegboy35?4wav?$AA@	; `string'
PUBLIC	??_C@_0BJ@NLCP@Sfx?2Towners?2Pegboy36?4wav?$AA@	; `string'
PUBLIC	??_C@_0BJ@HLAK@Sfx?2Towners?2Pegboy37?4wav?$AA@	; `string'
PUBLIC	??_C@_0BJ@BKNK@Sfx?2Towners?2Pegboy38?4wav?$AA@	; `string'
PUBLIC	??_C@_0BJ@LKPP@Sfx?2Towners?2Pegboy39?4wav?$AA@	; `string'
PUBLIC	??_C@_0BJ@PDJA@Sfx?2Towners?2Pegboy40?4wav?$AA@	; `string'
PUBLIC	??_C@_0BJ@FDLF@Sfx?2Towners?2Pegboy41?4wav?$AA@	; `string'
PUBLIC	??_C@_0BJ@LDNK@Sfx?2Towners?2Pegboy42?4wav?$AA@	; `string'
PUBLIC	??_C@_0BJ@BDPP@Sfx?2Towners?2Pegboy43?4wav?$AA@	; `string'
PUBLIC	??_C@_0BJ@IKGN@Sfx?2Towners?2Priest00?4wav?$AA@	; `string'
PUBLIC	??_C@_0BJ@CKEI@Sfx?2Towners?2Priest01?4wav?$AA@	; `string'
PUBLIC	??_C@_0BJ@MKCH@Sfx?2Towners?2Priest02?4wav?$AA@	; `string'
PUBLIC	??_C@_0BJ@GKAC@Sfx?2Towners?2Priest03?4wav?$AA@	; `string'
PUBLIC	??_C@_0BJ@KPI@Sfx?2Towners?2Priest04?4wav?$AA@	; `string'
PUBLIC	??_C@_0BJ@KKNN@Sfx?2Towners?2Priest05?4wav?$AA@	; `string'
PUBLIC	??_C@_0BJ@EKLC@Sfx?2Towners?2Priest06?4wav?$AA@	; `string'
PUBLIC	??_C@_0BJ@OKJH@Sfx?2Towners?2Priest07?4wav?$AA@	; `string'
PUBLIC	??_C@_0BJ@NJKM@Sfx?2Towners?2Storyt00?4wav?$AA@	; `string'
PUBLIC	??_C@_0BJ@HJIJ@Sfx?2Towners?2Storyt01?4wav?$AA@	; `string'
PUBLIC	??_C@_0BJ@JJOG@Sfx?2Towners?2Storyt02?4wav?$AA@	; `string'
PUBLIC	??_C@_0BJ@DJMD@Sfx?2Towners?2Storyt03?4wav?$AA@	; `string'
PUBLIC	??_C@_0BJ@FJDJ@Sfx?2Towners?2Storyt04?4wav?$AA@	; `string'
PUBLIC	??_C@_0BJ@PJBM@Sfx?2Towners?2Storyt05?4wav?$AA@	; `string'
PUBLIC	??_C@_0BJ@BJHD@Sfx?2Towners?2Storyt06?4wav?$AA@	; `string'
PUBLIC	??_C@_0BJ@LJFG@Sfx?2Towners?2Storyt07?4wav?$AA@	; `string'
PUBLIC	??_C@_0BJ@NIIG@Sfx?2Towners?2Storyt08?4wav?$AA@	; `string'
PUBLIC	??_C@_0BJ@HIKD@Sfx?2Towners?2Storyt09?4wav?$AA@	; `string'
PUBLIC	??_C@_0BJ@EMAM@Sfx?2Towners?2Storyt10?4wav?$AA@	; `string'
PUBLIC	??_C@_0BJ@OMCJ@Sfx?2Towners?2Storyt11?4wav?$AA@	; `string'
PUBLIC	??_C@_0BJ@MEG@Sfx?2Towners?2Storyt12?4wav?$AA@	; `string'
PUBLIC	??_C@_0BJ@KMGD@Sfx?2Towners?2Storyt13?4wav?$AA@	; `string'
PUBLIC	??_C@_0BJ@MMJJ@Sfx?2Towners?2Storyt14?4wav?$AA@	; `string'
PUBLIC	??_C@_0BJ@GMLM@Sfx?2Towners?2Storyt15?4wav?$AA@	; `string'
PUBLIC	??_C@_0BJ@IMND@Sfx?2Towners?2Storyt16?4wav?$AA@	; `string'
PUBLIC	??_C@_0BJ@CMPG@Sfx?2Towners?2Storyt17?4wav?$AA@	; `string'
PUBLIC	??_C@_0BJ@ENCG@Sfx?2Towners?2Storyt18?4wav?$AA@	; `string'
PUBLIC	??_C@_0BJ@ONAD@Sfx?2Towners?2Storyt19?4wav?$AA@	; `string'
PUBLIC	??_C@_0BJ@PCOM@Sfx?2Towners?2Storyt20?4wav?$AA@	; `string'
PUBLIC	??_C@_0BJ@FCMJ@Sfx?2Towners?2Storyt21?4wav?$AA@	; `string'
PUBLIC	??_C@_0BJ@LCKG@Sfx?2Towners?2Storyt22?4wav?$AA@	; `string'
PUBLIC	??_C@_0BJ@BCID@Sfx?2Towners?2Storyt23?4wav?$AA@	; `string'
PUBLIC	??_C@_0BJ@HCHJ@Sfx?2Towners?2Storyt24?4wav?$AA@	; `string'
PUBLIC	??_C@_0BJ@NCFM@Sfx?2Towners?2Storyt25?4wav?$AA@	; `string'
PUBLIC	??_C@_0BJ@DCDD@Sfx?2Towners?2Storyt26?4wav?$AA@	; `string'
PUBLIC	??_C@_0BJ@JCBG@Sfx?2Towners?2Storyt27?4wav?$AA@	; `string'
PUBLIC	??_C@_0BJ@PDMG@Sfx?2Towners?2Storyt28?4wav?$AA@	; `string'
PUBLIC	??_C@_0BJ@FDOD@Sfx?2Towners?2Storyt29?4wav?$AA@	; `string'
PUBLIC	??_C@_0BJ@GHEM@Sfx?2Towners?2Storyt30?4wav?$AA@	; `string'
PUBLIC	??_C@_0BJ@MHGJ@Sfx?2Towners?2Storyt31?4wav?$AA@	; `string'
PUBLIC	??_C@_0BJ@CHAG@Sfx?2Towners?2Storyt32?4wav?$AA@	; `string'
PUBLIC	??_C@_0BJ@IHCD@Sfx?2Towners?2Storyt33?4wav?$AA@	; `string'
PUBLIC	??_C@_0BJ@OHNJ@Sfx?2Towners?2Storyt34?4wav?$AA@	; `string'
PUBLIC	??_C@_0BJ@EHPM@Sfx?2Towners?2Storyt35?4wav?$AA@	; `string'
PUBLIC	??_C@_0BJ@KHJD@Sfx?2Towners?2Storyt36?4wav?$AA@	; `string'
PUBLIC	??_C@_0BJ@HLG@Sfx?2Towners?2Storyt37?4wav?$AA@	; `string'
PUBLIC	??_C@_0BJ@GGGG@Sfx?2Towners?2Storyt38?4wav?$AA@	; `string'
PUBLIC	??_C@_0BJ@PBGF@Sfx?2Towners?2Tavown00?4wav?$AA@	; `string'
PUBLIC	??_C@_0BJ@FBEA@Sfx?2Towners?2Tavown01?4wav?$AA@	; `string'
PUBLIC	??_C@_0BJ@LBCP@Sfx?2Towners?2Tavown02?4wav?$AA@	; `string'
PUBLIC	??_C@_0BJ@BBAK@Sfx?2Towners?2Tavown03?4wav?$AA@	; `string'
PUBLIC	??_C@_0BJ@HBPA@Sfx?2Towners?2Tavown04?4wav?$AA@	; `string'
PUBLIC	??_C@_0BJ@NBNF@Sfx?2Towners?2Tavown05?4wav?$AA@	; `string'
PUBLIC	??_C@_0BJ@DBLK@Sfx?2Towners?2Tavown06?4wav?$AA@	; `string'
PUBLIC	??_C@_0BJ@JBJP@Sfx?2Towners?2Tavown07?4wav?$AA@	; `string'
PUBLIC	??_C@_0BJ@PAEP@Sfx?2Towners?2Tavown08?4wav?$AA@	; `string'
PUBLIC	??_C@_0BJ@FAGK@Sfx?2Towners?2Tavown09?4wav?$AA@	; `string'
PUBLIC	??_C@_0BJ@GEMF@Sfx?2Towners?2Tavown10?4wav?$AA@	; `string'
PUBLIC	??_C@_0BJ@MEOA@Sfx?2Towners?2Tavown11?4wav?$AA@	; `string'
PUBLIC	??_C@_0BJ@CEIP@Sfx?2Towners?2Tavown12?4wav?$AA@	; `string'
PUBLIC	??_C@_0BJ@IEKK@Sfx?2Towners?2Tavown13?4wav?$AA@	; `string'
PUBLIC	??_C@_0BJ@OEFA@Sfx?2Towners?2Tavown14?4wav?$AA@	; `string'
PUBLIC	??_C@_0BJ@EEHF@Sfx?2Towners?2Tavown15?4wav?$AA@	; `string'
PUBLIC	??_C@_0BJ@KEBK@Sfx?2Towners?2Tavown16?4wav?$AA@	; `string'
PUBLIC	??_C@_0BJ@EDP@Sfx?2Towners?2Tavown17?4wav?$AA@	; `string'
PUBLIC	??_C@_0BJ@GFOP@Sfx?2Towners?2Tavown18?4wav?$AA@	; `string'
PUBLIC	??_C@_0BJ@MFMK@Sfx?2Towners?2Tavown19?4wav?$AA@	; `string'
PUBLIC	??_C@_0BJ@NKCF@Sfx?2Towners?2Tavown20?4wav?$AA@	; `string'
PUBLIC	??_C@_0BJ@HKAA@Sfx?2Towners?2Tavown21?4wav?$AA@	; `string'
PUBLIC	??_C@_0BJ@JKGP@Sfx?2Towners?2Tavown22?4wav?$AA@	; `string'
PUBLIC	??_C@_0BJ@DKEK@Sfx?2Towners?2Tavown23?4wav?$AA@	; `string'
PUBLIC	??_C@_0BJ@FKLA@Sfx?2Towners?2Tavown24?4wav?$AA@	; `string'
PUBLIC	??_C@_0BJ@PKJF@Sfx?2Towners?2Tavown25?4wav?$AA@	; `string'
PUBLIC	??_C@_0BJ@BKPK@Sfx?2Towners?2Tavown26?4wav?$AA@	; `string'
PUBLIC	??_C@_0BJ@LKNP@Sfx?2Towners?2Tavown27?4wav?$AA@	; `string'
PUBLIC	??_C@_0BJ@NLAP@Sfx?2Towners?2Tavown28?4wav?$AA@	; `string'
PUBLIC	??_C@_0BJ@HLCK@Sfx?2Towners?2Tavown29?4wav?$AA@	; `string'
PUBLIC	??_C@_0BJ@EPIF@Sfx?2Towners?2Tavown30?4wav?$AA@	; `string'
PUBLIC	??_C@_0BJ@OPKA@Sfx?2Towners?2Tavown31?4wav?$AA@	; `string'
PUBLIC	??_C@_0BJ@PMP@Sfx?2Towners?2Tavown32?4wav?$AA@	; `string'
PUBLIC	??_C@_0BJ@KPOK@Sfx?2Towners?2Tavown33?4wav?$AA@	; `string'
PUBLIC	??_C@_0BJ@MPBA@Sfx?2Towners?2Tavown34?4wav?$AA@	; `string'
PUBLIC	??_C@_0BJ@GPDF@Sfx?2Towners?2Tavown35?4wav?$AA@	; `string'
PUBLIC	??_C@_0BJ@IPFK@Sfx?2Towners?2Tavown36?4wav?$AA@	; `string'
PUBLIC	??_C@_0BJ@CPHP@Sfx?2Towners?2Tavown37?4wav?$AA@	; `string'
PUBLIC	??_C@_0BJ@EOKP@Sfx?2Towners?2Tavown38?4wav?$AA@	; `string'
PUBLIC	??_C@_0BJ@OOIK@Sfx?2Towners?2Tavown39?4wav?$AA@	; `string'
PUBLIC	??_C@_0BJ@KHOF@Sfx?2Towners?2Tavown40?4wav?$AA@	; `string'
PUBLIC	??_C@_0BJ@HMA@Sfx?2Towners?2Tavown41?4wav?$AA@	; `string'
PUBLIC	??_C@_0BJ@OHKP@Sfx?2Towners?2Tavown42?4wav?$AA@	; `string'
PUBLIC	??_C@_0BJ@EHIK@Sfx?2Towners?2Tavown43?4wav?$AA@	; `string'
PUBLIC	??_C@_0BJ@CHHA@Sfx?2Towners?2Tavown44?4wav?$AA@	; `string'
PUBLIC	??_C@_0BJ@IHFF@Sfx?2Towners?2Tavown45?4wav?$AA@	; `string'
PUBLIC	??_C@_0BI@NCKL@Sfx?2Towners?2Witch01?4wav?$AA@	; `string'
PUBLIC	??_C@_0BI@DCME@Sfx?2Towners?2Witch02?4wav?$AA@	; `string'
PUBLIC	??_C@_0BI@JCOB@Sfx?2Towners?2Witch03?4wav?$AA@	; `string'
PUBLIC	??_C@_0BI@PCBL@Sfx?2Towners?2Witch04?4wav?$AA@	; `string'
PUBLIC	??_C@_0BI@FCDO@Sfx?2Towners?2Witch05?4wav?$AA@	; `string'
PUBLIC	??_C@_0BI@LCFB@Sfx?2Towners?2Witch06?4wav?$AA@	; `string'
PUBLIC	??_C@_0BI@BCHE@Sfx?2Towners?2Witch07?4wav?$AA@	; `string'
PUBLIC	??_C@_0BI@HDKE@Sfx?2Towners?2Witch08?4wav?$AA@	; `string'
PUBLIC	??_C@_0BI@NDIB@Sfx?2Towners?2Witch09?4wav?$AA@	; `string'
PUBLIC	??_C@_0BI@OHCO@Sfx?2Towners?2Witch10?4wav?$AA@	; `string'
PUBLIC	??_C@_0BI@EHAL@Sfx?2Towners?2Witch11?4wav?$AA@	; `string'
PUBLIC	??_C@_0BI@KHGE@Sfx?2Towners?2Witch12?4wav?$AA@	; `string'
PUBLIC	??_C@_0BI@HEB@Sfx?2Towners?2Witch13?4wav?$AA@	; `string'
PUBLIC	??_C@_0BI@GHLL@Sfx?2Towners?2Witch14?4wav?$AA@	; `string'
PUBLIC	??_C@_0BI@MHJO@Sfx?2Towners?2Witch15?4wav?$AA@	; `string'
PUBLIC	??_C@_0BI@CHPB@Sfx?2Towners?2Witch16?4wav?$AA@	; `string'
PUBLIC	??_C@_0BI@IHNE@Sfx?2Towners?2Witch17?4wav?$AA@	; `string'
PUBLIC	??_C@_0BI@OGAE@Sfx?2Towners?2Witch18?4wav?$AA@	; `string'
PUBLIC	??_C@_0BI@EGCB@Sfx?2Towners?2Witch19?4wav?$AA@	; `string'
PUBLIC	??_C@_0BI@FJMO@Sfx?2Towners?2Witch20?4wav?$AA@	; `string'
PUBLIC	??_C@_0BI@PJOL@Sfx?2Towners?2Witch21?4wav?$AA@	; `string'
PUBLIC	??_C@_0BI@BJIE@Sfx?2Towners?2Witch22?4wav?$AA@	; `string'
PUBLIC	??_C@_0BI@LJKB@Sfx?2Towners?2Witch23?4wav?$AA@	; `string'
PUBLIC	??_C@_0BI@NJFL@Sfx?2Towners?2Witch24?4wav?$AA@	; `string'
PUBLIC	??_C@_0BI@HJHO@Sfx?2Towners?2Witch25?4wav?$AA@	; `string'
PUBLIC	??_C@_0BI@JJBB@Sfx?2Towners?2Witch26?4wav?$AA@	; `string'
PUBLIC	??_C@_0BI@DJDE@Sfx?2Towners?2Witch27?4wav?$AA@	; `string'
PUBLIC	??_C@_0BI@FIOE@Sfx?2Towners?2Witch28?4wav?$AA@	; `string'
PUBLIC	??_C@_0BI@PIMB@Sfx?2Towners?2Witch29?4wav?$AA@	; `string'
PUBLIC	??_C@_0BI@MMGO@Sfx?2Towners?2Witch30?4wav?$AA@	; `string'
PUBLIC	??_C@_0BI@GMEL@Sfx?2Towners?2Witch31?4wav?$AA@	; `string'
PUBLIC	??_C@_0BI@IMCE@Sfx?2Towners?2Witch32?4wav?$AA@	; `string'
PUBLIC	??_C@_0BI@CMAB@Sfx?2Towners?2Witch33?4wav?$AA@	; `string'
PUBLIC	??_C@_0BI@EMPL@Sfx?2Towners?2Witch34?4wav?$AA@	; `string'
PUBLIC	??_C@_0BI@OMNO@Sfx?2Towners?2Witch35?4wav?$AA@	; `string'
PUBLIC	??_C@_0BI@MLB@Sfx?2Towners?2Witch36?4wav?$AA@	; `string'
PUBLIC	??_C@_0BI@KMJE@Sfx?2Towners?2Witch37?4wav?$AA@	; `string'
PUBLIC	??_C@_0BI@MNEE@Sfx?2Towners?2Witch38?4wav?$AA@	; `string'
PUBLIC	??_C@_0BI@GNGB@Sfx?2Towners?2Witch39?4wav?$AA@	; `string'
PUBLIC	??_C@_0BI@CEAO@Sfx?2Towners?2Witch40?4wav?$AA@	; `string'
PUBLIC	??_C@_0BI@IECL@Sfx?2Towners?2Witch41?4wav?$AA@	; `string'
PUBLIC	??_C@_0BI@GEEE@Sfx?2Towners?2Witch42?4wav?$AA@	; `string'
PUBLIC	??_C@_0BI@MEGB@Sfx?2Towners?2Witch43?4wav?$AA@	; `string'
PUBLIC	??_C@_0BI@KEJL@Sfx?2Towners?2Witch44?4wav?$AA@	; `string'
PUBLIC	??_C@_0BI@ELO@Sfx?2Towners?2Witch45?4wav?$AA@	; `string'
PUBLIC	??_C@_0BI@OENB@Sfx?2Towners?2Witch46?4wav?$AA@	; `string'
PUBLIC	??_C@_0BI@EEPE@Sfx?2Towners?2Witch47?4wav?$AA@	; `string'
PUBLIC	??_C@_0BI@CFCE@Sfx?2Towners?2Witch48?4wav?$AA@	; `string'
PUBLIC	??_C@_0BI@IFAB@Sfx?2Towners?2Witch49?4wav?$AA@	; `string'
PUBLIC	??_C@_0BI@LBKO@Sfx?2Towners?2Witch50?4wav?$AA@	; `string'
PUBLIC	??_C@_0BI@NHHF@Sfx?2Towners?2Wound01?4wav?$AA@	; `string'
PUBLIC	_sgSFX
PUBLIC	??_C@_0BI@EBFF@Sfx?2Sorceror?2Mage01?4wav?$AA@	; `string'
PUBLIC	??_C@_0BD@HLNG@Sfx?2Misc?2Walk1?4wav?$AA@	; `string'
PUBLIC	??_C@_0BI@KBDK@Sfx?2Sorceror?2Mage02?4wav?$AA@	; `string'
PUBLIC	??_C@_0BD@JLLJ@Sfx?2Misc?2Walk2?4wav?$AA@	; `string'
PUBLIC	??_C@_0BI@BBP@Sfx?2Sorceror?2Mage03?4wav?$AA@	; `string'
PUBLIC	??_C@_0BD@DLJM@Sfx?2Misc?2Walk3?4wav?$AA@	; `string'
PUBLIC	??_C@_0BI@GBOF@Sfx?2Sorceror?2Mage04?4wav?$AA@	; `string'
PUBLIC	??_C@_0BD@FLGG@Sfx?2Misc?2Walk4?4wav?$AA@	; `string'
PUBLIC	??_C@_0BI@MBMA@Sfx?2Sorceror?2Mage05?4wav?$AA@	; `string'
PUBLIC	??_C@_0BD@BEND@Sfx?2Misc?2BFire?4wav?$AA@	; `string'
PUBLIC	??_C@_0BI@CBKP@Sfx?2Sorceror?2Mage06?4wav?$AA@	; `string'
PUBLIC	??_C@_0BC@BNBJ@Sfx?2Misc?2Fmag?4wav?$AA@	; `string'
PUBLIC	??_C@_0BI@IBIK@Sfx?2Sorceror?2Mage07?4wav?$AA@	; `string'
PUBLIC	??_C@_0BC@PKN@Sfx?2Misc?2Tmag?4wav?$AA@		; `string'
PUBLIC	??_C@_0BI@OAFK@Sfx?2Sorceror?2Mage08?4wav?$AA@	; `string'
PUBLIC	??_C@_0BD@DNI@Sfx?2Misc?2Lghit?4wav?$AA@	; `string'
PUBLIC	??_C@_0BI@EAHP@Sfx?2Sorceror?2Mage09?4wav?$AA@	; `string'
PUBLIC	??_C@_0BE@HDCD@Sfx?2Misc?2Lghit1?4wav?$AA@	; `string'
PUBLIC	??_C@_0BI@HENA@Sfx?2Sorceror?2Mage10?4wav?$AA@	; `string'
PUBLIC	??_C@_0BD@NMMF@Sfx?2Misc?2Swing?4wav?$AA@	; `string'
PUBLIC	??_C@_0BI@NEPF@Sfx?2Sorceror?2Mage11?4wav?$AA@	; `string'
PUBLIC	??_C@_0BE@PPJD@Sfx?2Misc?2Swing2?4wav?$AA@	; `string'
PUBLIC	??_C@_0BI@DEJK@Sfx?2Sorceror?2Mage12?4wav?$AA@	; `string'
PUBLIC	??_C@_0BC@BJIG@Sfx?2Misc?2Dead?4wav?$AA@	; `string'
PUBLIC	??_C@_0BI@JELP@Sfx?2Sorceror?2Mage13?4wav?$AA@	; `string'
PUBLIC	??_C@_0BG@PKD@Sfx?2Misc?2Questdon?4wav?$AA@	; `string'
PUBLIC	??_C@_0BI@PEEF@Sfx?2Sorceror?2Mage14?4wav?$AA@	; `string'
PUBLIC	??_C@_0BG@OJLD@Sfx?2Items?2Armrfkd?4wav?$AA@	; `string'
PUBLIC	??_C@_0BI@FEGA@Sfx?2Sorceror?2Mage15?4wav?$AA@	; `string'
PUBLIC	??_C@_0BH@PHON@Sfx?2Items?2Barlfire?4wav?$AA@	; `string'
PUBLIC	??_C@_0BI@LEAP@Sfx?2Sorceror?2Mage16?4wav?$AA@	; `string'
PUBLIC	??_C@_0BF@DFOJ@Sfx?2Items?2Barrel?4wav?$AA@	; `string'
PUBLIC	??_C@_0BI@BECK@Sfx?2Sorceror?2Mage17?4wav?$AA@	; `string'
PUBLIC	??_C@_0BD@PCKP@Sfx?2Items?2Bhit?4wav?$AA@	; `string'
PUBLIC	??_C@_0BI@HFPK@Sfx?2Sorceror?2Mage18?4wav?$AA@	; `string'
PUBLIC	??_C@_0BE@EDNC@Sfx?2Items?2Bhit1?4wav?$AA@	; `string'
PUBLIC	??_C@_0BI@NFNP@Sfx?2Sorceror?2Mage19?4wav?$AA@	; `string'
PUBLIC	??_C@_0BE@IOOF@Sfx?2Items?2Chest?4wav?$AA@	; `string'
PUBLIC	??_C@_0BI@MKDA@Sfx?2Sorceror?2Mage20?4wav?$AA@	; `string'
PUBLIC	??_C@_0BH@DDLM@Sfx?2Items?2Doorclos?4wav?$AA@	; `string'
PUBLIC	??_C@_0BI@GKBF@Sfx?2Sorceror?2Mage21?4wav?$AA@	; `string'
PUBLIC	??_C@_0BH@NAFN@Sfx?2Items?2Dooropen?4wav?$AA@	; `string'
PUBLIC	??_C@_0BI@IKHK@Sfx?2Sorceror?2Mage22?4wav?$AA@	; `string'
PUBLIC	??_C@_0BH@LPLE@Sfx?2Items?2Flipanvl?4wav?$AA@	; `string'
PUBLIC	??_C@_0BI@CKFP@Sfx?2Sorceror?2Mage23?4wav?$AA@	; `string'
PUBLIC	??_C@_0BG@MKPF@Sfx?2Items?2Flipaxe?4wav?$AA@	; `string'
PUBLIC	??_C@_0BI@EKKF@Sfx?2Sorceror?2Mage24?4wav?$AA@	; `string'
PUBLIC	??_C@_0BH@PKLD@Sfx?2Items?2Flipblst?4wav?$AA@	; `string'
PUBLIC	??_C@_0BI@OKIA@Sfx?2Sorceror?2Mage25?4wav?$AA@	; `string'
PUBLIC	??_C@_0BH@BKPF@Sfx?2Items?2Flipbody?4wav?$AA@	; `string'
PUBLIC	??_C@_0BI@KOP@Sfx?2Sorceror?2Mage26?4wav?$AA@	; `string'
PUBLIC	??_C@_0BH@ELAL@Sfx?2Items?2Flipbook?4wav?$AA@	; `string'
PUBLIC	??_C@_0BI@KKMK@Sfx?2Sorceror?2Mage27?4wav?$AA@	; `string'
PUBLIC	??_C@_0BG@EJDG@Sfx?2Items?2Flipbow?4wav?$AA@	; `string'
PUBLIC	??_C@_0BI@MLBK@Sfx?2Sorceror?2Mage28?4wav?$AA@	; `string'
PUBLIC	??_C@_0BG@NHJI@Sfx?2Items?2Flipcap?4wav?$AA@	; `string'
PUBLIC	??_C@_0BI@GLDP@Sfx?2Sorceror?2Mage29?4wav?$AA@	; `string'
PUBLIC	??_C@_0BH@PNAO@Sfx?2Items?2Flipharm?4wav?$AA@	; `string'
PUBLIC	??_C@_0BI@FPJA@Sfx?2Sorceror?2Mage30?4wav?$AA@	; `string'
PUBLIC	??_C@_0BH@NNLE@Sfx?2Items?2Fliplarm?4wav?$AA@	; `string'
PUBLIC	??_C@_0BI@PPLF@Sfx?2Sorceror?2Mage31?4wav?$AA@	; `string'
PUBLIC	??_C@_0BG@CGOH@Sfx?2Items?2Flipmag?4wav?$AA@	; `string'
PUBLIC	??_C@_0BI@BPNK@Sfx?2Sorceror?2Mage32?4wav?$AA@	; `string'
PUBLIC	??_C@_0BH@IGAG@Sfx?2Items?2Flipmag1?4wav?$AA@	; `string'
PUBLIC	??_C@_0BI@LPPP@Sfx?2Sorceror?2Mage33?4wav?$AA@	; `string'
PUBLIC	??_C@_0BH@HDIG@Sfx?2Items?2Flipmush?4wav?$AA@	; `string'
PUBLIC	??_C@_0BI@NPAF@Sfx?2Sorceror?2Mage34?4wav?$AA@	; `string'
PUBLIC	??_C@_0BG@BNCI@Sfx?2Items?2Flippot?4wav?$AA@	; `string'
PUBLIC	??_C@_0BI@HPCA@Sfx?2Sorceror?2Mage35?4wav?$AA@	; `string'
PUBLIC	??_C@_0BH@DKIA@Sfx?2Items?2Flipring?4wav?$AA@	; `string'
PUBLIC	??_C@_0BI@JPEP@Sfx?2Sorceror?2Mage36?4wav?$AA@	; `string'
PUBLIC	??_C@_0BH@DCGD@Sfx?2Items?2Fliprock?4wav?$AA@	; `string'
PUBLIC	??_C@_0BI@DPGK@Sfx?2Sorceror?2Mage37?4wav?$AA@	; `string'
PUBLIC	??_C@_0BH@BLOO@Sfx?2Items?2Flipscrl?4wav?$AA@	; `string'
PUBLIC	??_C@_0BI@FOLK@Sfx?2Sorceror?2Mage38?4wav?$AA@	; `string'
PUBLIC	??_C@_0BH@JHBE@Sfx?2Items?2Flipshld?4wav?$AA@	; `string'
PUBLIC	??_C@_0BI@POJP@Sfx?2Sorceror?2Mage39?4wav?$AA@	; `string'
PUBLIC	??_C@_0BH@OLAA@Sfx?2Items?2Flipsign?4wav?$AA@	; `string'
PUBLIC	??_C@_0BI@LHPA@Sfx?2Sorceror?2Mage40?4wav?$AA@	; `string'
PUBLIC	??_C@_0BH@JONO@Sfx?2Items?2Flipstaf?4wav?$AA@	; `string'
PUBLIC	??_C@_0BI@BHNF@Sfx?2Sorceror?2Mage41?4wav?$AA@	; `string'
PUBLIC	??_C@_0BH@LPGB@Sfx?2Items?2Flipswor?4wav?$AA@	; `string'
PUBLIC	??_C@_0BI@PHLK@Sfx?2Sorceror?2Mage42?4wav?$AA@	; `string'
PUBLIC	??_C@_0BD@JCKG@Sfx?2Items?2Gold?4wav?$AA@	; `string'
PUBLIC	??_C@_0BI@FHJP@Sfx?2Sorceror?2Mage43?4wav?$AA@	; `string'
PUBLIC	??_C@_0BG@EFBO@Sfx?2Items?2Hlmtfkd?4wav?$AA@	; `string'
PUBLIC	??_C@_0BI@DHGF@Sfx?2Sorceror?2Mage44?4wav?$AA@	; `string'
PUBLIC	??_C@_0BG@GLNH@Sfx?2Items?2Invanvl?4wav?$AA@	; `string'
PUBLIC	??_C@_0BI@JHEA@Sfx?2Sorceror?2Mage45?4wav?$AA@	; `string'
PUBLIC	??_C@_0BF@KJHG@Sfx?2Items?2Invaxe?4wav?$AA@	; `string'
PUBLIC	??_C@_0BI@HHCP@Sfx?2Sorceror?2Mage46?4wav?$AA@	; `string'
PUBLIC	??_C@_0BG@CONA@Sfx?2Items?2Invblst?4wav?$AA@	; `string'
PUBLIC	??_C@_0BI@NHAK@Sfx?2Sorceror?2Mage47?4wav?$AA@	; `string'
PUBLIC	??_C@_0BG@MOJG@Sfx?2Items?2Invbody?4wav?$AA@	; `string'
PUBLIC	??_C@_0BI@LGNK@Sfx?2Sorceror?2Mage48?4wav?$AA@	; `string'
PUBLIC	??_C@_0BG@JPGI@Sfx?2Items?2Invbook?4wav?$AA@	; `string'
PUBLIC	??_C@_0BI@BGPP@Sfx?2Sorceror?2Mage49?4wav?$AA@	; `string'
PUBLIC	??_C@_0BF@CKLF@Sfx?2Items?2Invbow?4wav?$AA@	; `string'
PUBLIC	??_C@_0BI@CCFA@Sfx?2Sorceror?2Mage50?4wav?$AA@	; `string'
PUBLIC	??_C@_0BF@LEBL@Sfx?2Items?2Invcap?4wav?$AA@	; `string'
PUBLIC	??_C@_0BI@ICHF@Sfx?2Sorceror?2Mage51?4wav?$AA@	; `string'
PUBLIC	??_C@_0BG@IPAG@Sfx?2Items?2Invgrab?4wav?$AA@	; `string'
PUBLIC	??_C@_0BI@GCBK@Sfx?2Sorceror?2Mage52?4wav?$AA@	; `string'
PUBLIC	??_C@_0BG@CJGN@Sfx?2Items?2Invharm?4wav?$AA@	; `string'
PUBLIC	??_C@_0BI@MCDP@Sfx?2Sorceror?2Mage53?4wav?$AA@	; `string'
PUBLIC	??_C@_0BG@JNH@Sfx?2Items?2Invlarm?4wav?$AA@	; `string'
PUBLIC	??_C@_0BI@KCMF@Sfx?2Sorceror?2Mage54?4wav?$AA@	; `string'
PUBLIC	??_C@_0BG@KHOF@Sfx?2Items?2Invmush?4wav?$AA@	; `string'
PUBLIC	??_C@_0BI@COA@Sfx?2Sorceror?2Mage55?4wav?$AA@	; `string'
PUBLIC	??_C@_0BF@HOKL@Sfx?2Items?2Invpot?4wav?$AA@	; `string'
PUBLIC	??_C@_0BI@OCIP@Sfx?2Sorceror?2Mage56?4wav?$AA@	; `string'
PUBLIC	??_C@_0BG@OOOD@Sfx?2Items?2Invring?4wav?$AA@	; `string'
PUBLIC	??_C@_0BI@ECKK@Sfx?2Sorceror?2Mage57?4wav?$AA@	; `string'
PUBLIC	??_C@_0BG@OGAA@Sfx?2Items?2Invrock?4wav?$AA@	; `string'
PUBLIC	??_C@_0BI@CDHK@Sfx?2Sorceror?2Mage58?4wav?$AA@	; `string'
PUBLIC	??_C@_0BH@LKJE@Sfx?2Items?2Invscrol?4wav?$AA@	; `string'
PUBLIC	??_C@_0BI@IDFP@Sfx?2Sorceror?2Mage59?4wav?$AA@	; `string'
PUBLIC	??_C@_0BH@ELJL@Sfx?2Items?2Invshiel?4wav?$AA@	; `string'
PUBLIC	??_C@_0BI@JMLA@Sfx?2Sorceror?2Mage60?4wav?$AA@	; `string'
PUBLIC	??_C@_0BG@DPGD@Sfx?2Items?2Invsign?4wav?$AA@	; `string'
PUBLIC	??_C@_0BI@DMJF@Sfx?2Sorceror?2Mage61?4wav?$AA@	; `string'
PUBLIC	??_C@_0BG@EKLN@Sfx?2Items?2Invstaf?4wav?$AA@	; `string'
PUBLIC	??_C@_0BI@NMPK@Sfx?2Sorceror?2Mage62?4wav?$AA@	; `string'
PUBLIC	??_C@_0BH@CEPK@Sfx?2Items?2Invsword?4wav?$AA@	; `string'
PUBLIC	??_C@_0BI@HMNP@Sfx?2Sorceror?2Mage63?4wav?$AA@	; `string'
PUBLIC	??_C@_0BE@IHEF@Sfx?2Items?2Lever?4wav?$AA@	; `string'
PUBLIC	??_C@_0BI@BMCF@Sfx?2Sorceror?2Mage64?4wav?$AA@	; `string'
PUBLIC	??_C@_0BE@PLIJ@Sfx?2Items?2Magic?4wav?$AA@	; `string'
PUBLIC	??_C@_0BI@LMAA@Sfx?2Sorceror?2Mage65?4wav?$AA@	; `string'
PUBLIC	??_C@_0BF@LHNL@Sfx?2Items?2Magic1?4wav?$AA@	; `string'
PUBLIC	??_C@_0BI@FMGP@Sfx?2Sorceror?2Mage66?4wav?$AA@	; `string'
PUBLIC	??_C@_0BH@MPEI@Sfx?2Items?2Readbook?4wav?$AA@	; `string'
PUBLIC	??_C@_0BI@PMEK@Sfx?2Sorceror?2Mage67?4wav?$AA@	; `string'
PUBLIC	??_C@_0BD@EJBM@Sfx?2Items?2Sarc?4wav?$AA@	; `string'
PUBLIC	??_C@_0BI@JNJK@Sfx?2Sorceror?2Mage68?4wav?$AA@	; `string'
PUBLIC	??_C@_0BH@JGMN@Sfx?2Items?2Shielfkd?4wav?$AA@	; `string'
PUBLIC	??_C@_0BI@DNLP@Sfx?2Sorceror?2Mage69?4wav?$AA@	; `string'
PUBLIC	??_C@_0BG@GPKO@Sfx?2Items?2Swrdfkd?4wav?$AA@	; `string'
PUBLIC	??_C@_0BJ@OCHD@Sfx?2Sorceror?2Mage69b?4wav?$AA@	; `string'
PUBLIC	??_C@_0BH@IFPF@Sfx?2Items?2Titlemov?4wav?$AA@	; `string'
PUBLIC	??_C@_0BI@JBA@Sfx?2Sorceror?2Mage70?4wav?$AA@	; `string'
PUBLIC	??_C@_0BH@CCKF@Sfx?2Items?2Titlslct?4wav?$AA@	; `string'
PUBLIC	??_C@_0BI@KJDF@Sfx?2Sorceror?2Mage71?4wav?$AA@	; `string'
PUBLIC	??_C@_0BD@JNPG@Sfx?2Misc?2blank?4wav?$AA@	; `string'
PUBLIC	??_C@_0BI@EJFK@Sfx?2Sorceror?2Mage72?4wav?$AA@	; `string'
PUBLIC	??_C@_0BD@CNOJ@Sfx?2Items?2Trap?4wav?$AA@	; `string'
PUBLIC	??_C@_0BI@OJHP@Sfx?2Sorceror?2Mage73?4wav?$AA@	; `string'
PUBLIC	??_C@_0BD@BNAI@Sfx?2Misc?2Cast1?4wav?$AA@	; `string'
PUBLIC	??_C@_0BI@IJIF@Sfx?2Sorceror?2Mage74?4wav?$AA@	; `string'
PUBLIC	??_C@_0BE@DGBI@Sfx?2Misc?2Cast10?4wav?$AA@	; `string'
PUBLIC	??_C@_0BI@CJKA@Sfx?2Sorceror?2Mage75?4wav?$AA@	; `string'
PUBLIC	??_C@_0BE@HGFC@Sfx?2Misc?2Cast12?4wav?$AA@	; `string'
PUBLIC	??_C@_0BI@MJMP@Sfx?2Sorceror?2Mage76?4wav?$AA@	; `string'
PUBLIC	??_C@_0BD@PNGH@Sfx?2Misc?2Cast2?4wav?$AA@	; `string'
PUBLIC	??_C@_0BI@GJOK@Sfx?2Sorceror?2Mage77?4wav?$AA@	; `string'
PUBLIC	??_C@_0BD@FNEC@Sfx?2Misc?2Cast3?4wav?$AA@	; `string'
PUBLIC	??_C@_0BI@IDK@Sfx?2Sorceror?2Mage78?4wav?$AA@	; `string'
PUBLIC	??_C@_0BD@DNLI@Sfx?2Misc?2Cast4?4wav?$AA@	; `string'
PUBLIC	??_C@_0BI@KIBP@Sfx?2Sorceror?2Mage79?4wav?$AA@	; `string'
PUBLIC	??_C@_0BD@JNJN@Sfx?2Misc?2Cast5?4wav?$AA@	; `string'
PUBLIC	??_C@_0BI@EMHB@Sfx?2Sorceror?2Mage80?4wav?$AA@	; `string'
PUBLIC	??_C@_0BD@HNPC@Sfx?2Misc?2Cast6?4wav?$AA@	; `string'
PUBLIC	??_C@_0BI@OMFE@Sfx?2Sorceror?2Mage81?4wav?$AA@	; `string'
PUBLIC	??_C@_0BD@NNNH@Sfx?2Misc?2Cast7?4wav?$AA@	; `string'
PUBLIC	??_C@_0BI@MDL@Sfx?2Sorceror?2Mage82?4wav?$AA@	; `string'
PUBLIC	??_C@_0BD@LMAH@Sfx?2Misc?2Cast8?4wav?$AA@	; `string'
PUBLIC	??_C@_0BI@KMBO@Sfx?2Sorceror?2Mage83?4wav?$AA@	; `string'
PUBLIC	??_C@_0BD@BMCC@Sfx?2Misc?2Cast9?4wav?$AA@	; `string'
PUBLIC	??_C@_0BI@MMOE@Sfx?2Sorceror?2Mage84?4wav?$AA@	; `string'
PUBLIC	??_C@_0BF@EPF@Sfx?2Misc?2Healing?4wav?$AA@	; `string'
PUBLIC	??_C@_0BI@GMMB@Sfx?2Sorceror?2Mage85?4wav?$AA@	; `string'
PUBLIC	??_C@_0BE@DPCA@Sfx?2Misc?2Repair?4wav?$AA@	; `string'
PUBLIC	??_C@_0BI@IMKO@Sfx?2Sorceror?2Mage86?4wav?$AA@	; `string'
PUBLIC	??_C@_0BE@PEPK@Sfx?2Misc?2Acids1?4wav?$AA@	; `string'
PUBLIC	??_C@_0BI@CMIL@Sfx?2Sorceror?2Mage87?4wav?$AA@	; `string'
PUBLIC	??_C@_0BE@BEJF@Sfx?2Misc?2Acids2?4wav?$AA@	; `string'
PUBLIC	??_C@_0BI@ENFL@Sfx?2Sorceror?2Mage88?4wav?$AA@	; `string'
PUBLIC	??_C@_0BC@LMLA@Sfx?2Misc?2Apoc?4wav?$AA@	; `string'
PUBLIC	??_C@_0BI@ONHO@Sfx?2Sorceror?2Mage89?4wav?$AA@	; `string'
PUBLIC	??_C@_0BG@JKDG@Sfx?2Misc?2Arrowall?4wav?$AA@	; `string'
PUBLIC	??_C@_0BI@NJNB@Sfx?2Sorceror?2Mage90?4wav?$AA@	; `string'
PUBLIC	??_C@_0BF@KAOH@Sfx?2Misc?2Bldboil?4wav?$AA@	; `string'
PUBLIC	??_C@_0BI@HJPE@Sfx?2Sorceror?2Mage91?4wav?$AA@	; `string'
PUBLIC	??_C@_0BG@DJGN@Sfx?2Misc?2Blodstar?4wav?$AA@	; `string'
PUBLIC	??_C@_0BI@JJJL@Sfx?2Sorceror?2Mage92?4wav?$AA@	; `string'
PUBLIC	??_C@_0BF@GOGN@Sfx?2Misc?2Blsimpt?4wav?$AA@	; `string'
PUBLIC	??_C@_0BI@DJLO@Sfx?2Sorceror?2Mage93?4wav?$AA@	; `string'
PUBLIC	??_C@_0BE@PA@Sfx?2Misc?2Bonesp?4wav?$AA@	; `string'
PUBLIC	??_C@_0BI@FJEE@Sfx?2Sorceror?2Mage94?4wav?$AA@	; `string'
PUBLIC	??_C@_0BF@DMCL@Sfx?2Misc?2Bsimpct?4wav?$AA@	; `string'
PUBLIC	??_C@_0BI@PJGB@Sfx?2Sorceror?2Mage95?4wav?$AA@	; `string'
PUBLIC	??_C@_0BF@BCKJ@Sfx?2Misc?2Caldron?4wav?$AA@	; `string'
PUBLIC	??_C@_0BI@BJAO@Sfx?2Sorceror?2Mage96?4wav?$AA@	; `string'
PUBLIC	??_C@_0BD@DMDN@Sfx?2Misc?2Cbolt?4wav?$AA@	; `string'
PUBLIC	??_C@_0BI@LJCL@Sfx?2Sorceror?2Mage97?4wav?$AA@	; `string'
PUBLIC	??_C@_0BG@IPMF@Sfx?2Misc?2Chltning?4wav?$AA@	; `string'
PUBLIC	??_C@_0BI@NIPL@Sfx?2Sorceror?2Mage98?4wav?$AA@	; `string'
PUBLIC	??_C@_0BD@JPAA@Sfx?2Misc?2DSerp?4wav?$AA@	; `string'
PUBLIC	??_C@_0BI@HINO@Sfx?2Sorceror?2Mage99?4wav?$AA@	; `string'
PUBLIC	??_C@_0BG@NAKN@Sfx?2Misc?2Elecimp1?4wav?$AA@	; `string'
PUBLIC	??_C@_0BJ@FIHB@Sfx?2Sorceror?2Mage100?4wav?$AA@	; `string'
PUBLIC	??_C@_0BG@CBDH@Sfx?2Misc?2Elementl?4wav?$AA@	; `string'
PUBLIC	??_C@_0BJ@PIFE@Sfx?2Sorceror?2Mage101?4wav?$AA@	; `string'
PUBLIC	??_C@_0BG@OFDM@Sfx?2Misc?2Ethereal?4wav?$AA@	; `string'
PUBLIC	??_C@_0BJ@BIDL@Sfx?2Sorceror?2Mage102?4wav?$AA@	; `string'
PUBLIC	??_C@_0BD@GHPK@Sfx?2Misc?2Fball?4wav?$AA@	; `string'
PUBLIC	??_C@_0BG@KHLI@Sfx?2Rogue?2Rogue01?4wav?$AA@	; `string'
PUBLIC	??_C@_0BE@LFNH@Sfx?2Misc?2Fbolt1?4wav?$AA@	; `string'
PUBLIC	??_C@_0BG@EHNH@Sfx?2Rogue?2Rogue02?4wav?$AA@	; `string'
PUBLIC	??_C@_0BE@FFLI@Sfx?2Misc?2Fbolt2?4wav?$AA@	; `string'
PUBLIC	??_C@_0BG@OHPC@Sfx?2Rogue?2Rogue03?4wav?$AA@	; `string'
PUBLIC	??_C@_0BF@JPDF@Sfx?2Misc?2Firimp1?4wav?$AA@	; `string'
PUBLIC	??_C@_0BG@IHAI@Sfx?2Rogue?2Rogue04?4wav?$AA@	; `string'
PUBLIC	??_C@_0BF@HPFK@Sfx?2Misc?2Firimp2?4wav?$AA@	; `string'
PUBLIC	??_C@_0BG@CHCN@Sfx?2Rogue?2Rogue05?4wav?$AA@	; `string'
PUBLIC	??_C@_0BG@INLP@Sfx?2Misc?2Flamwave?4wav?$AA@	; `string'
PUBLIC	??_C@_0BG@MHEC@Sfx?2Rogue?2Rogue06?4wav?$AA@	; `string'
PUBLIC	??_C@_0BD@JJP@Sfx?2Misc?2Flash?4wav?$AA@	; `string'
PUBLIC	??_C@_0BG@GHGH@Sfx?2Rogue?2Rogue07?4wav?$AA@	; `string'
PUBLIC	??_C@_0BG@BBIP@Sfx?2Misc?2Fountain?4wav?$AA@	; `string'
PUBLIC	??_C@_0BG@GLH@Sfx?2Rogue?2Rogue08?4wav?$AA@	; `string'
PUBLIC	??_C@_0BD@KOLK@Sfx?2Misc?2Golum?4wav?$AA@	; `string'
PUBLIC	??_C@_0BG@KGJC@Sfx?2Rogue?2Rogue09?4wav?$AA@	; `string'
PUBLIC	??_C@_0BG@KEBL@Sfx?2Misc?2Golumded?4wav?$AA@	; `string'
PUBLIC	??_C@_0BG@JCDN@Sfx?2Rogue?2Rogue10?4wav?$AA@	; `string'
PUBLIC	??_C@_0BF@PKLE@Sfx?2Misc?2Gshrine?4wav?$AA@	; `string'
PUBLIC	??_C@_0BG@DCBI@Sfx?2Rogue?2Rogue11?4wav?$AA@	; `string'
PUBLIC	??_C@_0BD@FEHL@Sfx?2Misc?2Guard?4wav?$AA@	; `string'
PUBLIC	??_C@_0BG@NCHH@Sfx?2Rogue?2Rogue12?4wav?$AA@	; `string'
PUBLIC	??_C@_0BG@CGIH@Sfx?2Misc?2Grdlanch?4wav?$AA@	; `string'
PUBLIC	??_C@_0BG@HCFC@Sfx?2Rogue?2Rogue13?4wav?$AA@	; `string'
PUBLIC	??_C@_0BG@FFOB@Sfx?2Misc?2Holybolt?4wav?$AA@	; `string'
PUBLIC	??_C@_0BG@BCKI@Sfx?2Rogue?2Rogue14?4wav?$AA@	; `string'
PUBLIC	??_C@_0BD@NPCL@Sfx?2Misc?2Hyper?4wav?$AA@	; `string'
PUBLIC	??_C@_0BG@LCIN@Sfx?2Rogue?2Rogue15?4wav?$AA@	; `string'
PUBLIC	??_C@_0BG@CPEA@Sfx?2Misc?2Infravis?4wav?$AA@	; `string'
PUBLIC	??_C@_0BG@FCOC@Sfx?2Rogue?2Rogue16?4wav?$AA@	; `string'
PUBLIC	??_C@_0BG@JFLA@Sfx?2Misc?2Invisibl?4wav?$AA@	; `string'
PUBLIC	??_C@_0BG@PCMH@Sfx?2Rogue?2Rogue17?4wav?$AA@	; `string'
PUBLIC	??_C@_0BE@LDPO@Sfx?2Misc?2Invpot?4wav?$AA@	; `string'
PUBLIC	??_C@_0BG@JDBH@Sfx?2Rogue?2Rogue18?4wav?$AA@	; `string'
PUBLIC	??_C@_0BE@MGAO@Sfx?2Misc?2Lning1?4wav?$AA@	; `string'
PUBLIC	??_C@_0BG@DDDC@Sfx?2Rogue?2Rogue19?4wav?$AA@	; `string'
PUBLIC	??_C@_0BE@LGAD@Sfx?2Misc?2Ltning?4wav?$AA@	; `string'
PUBLIC	??_C@_0BG@CMNN@Sfx?2Rogue?2Rogue20?4wav?$AA@	; `string'
PUBLIC	??_C@_0BF@CFKF@Sfx?2Misc?2Mshield?4wav?$AA@	; `string'
PUBLIC	??_C@_0BG@IMPI@Sfx?2Rogue?2Rogue21?4wav?$AA@	; `string'
PUBLIC	??_C@_0BC@HDPL@Sfx?2Misc?2Nova?4wav?$AA@	; `string'
PUBLIC	??_C@_0BG@GMJH@Sfx?2Rogue?2Rogue22?4wav?$AA@	; `string'
PUBLIC	??_C@_0BE@DFBA@Sfx?2Misc?2Portal?4wav?$AA@	; `string'
PUBLIC	??_C@_0BG@MMLC@Sfx?2Rogue?2Rogue23?4wav?$AA@	; `string'
PUBLIC	??_C@_0BE@JDDJ@Sfx?2Misc?2Puddle?4wav?$AA@	; `string'
PUBLIC	??_C@_0BG@KMEI@Sfx?2Rogue?2Rogue24?4wav?$AA@	; `string'
PUBLIC	??_C@_0BD@KHOD@Sfx?2Misc?2Resur?4wav?$AA@	; `string'
PUBLIC	??_C@_0BG@MGN@Sfx?2Rogue?2Rogue25?4wav?$AA@	; `string'
PUBLIC	??_C@_0BE@HBMO@Sfx?2Misc?2Scurse?4wav?$AA@	; `string'
PUBLIC	??_C@_0BG@OMAC@Sfx?2Rogue?2Rogue26?4wav?$AA@	; `string'
PUBLIC	??_C@_0BF@GFPN@Sfx?2Misc?2Scurimp?4wav?$AA@	; `string'
PUBLIC	??_C@_0BG@EMCH@Sfx?2Rogue?2Rogue27?4wav?$AA@	; `string'
PUBLIC	??_C@_0BG@JJKC@Sfx?2Misc?2Sentinel?4wav?$AA@	; `string'
PUBLIC	??_C@_0BG@CNPH@Sfx?2Rogue?2Rogue28?4wav?$AA@	; `string'
PUBLIC	??_C@_0BF@PCJD@Sfx?2Misc?2Shatter?4wav?$AA@	; `string'
PUBLIC	??_C@_0BG@INNC@Sfx?2Rogue?2Rogue29?4wav?$AA@	; `string'
PUBLIC	??_C@_0BG@FPEI@Sfx?2Misc?2Soulfire?4wav?$AA@	; `string'
PUBLIC	??_C@_0BG@LJHN@Sfx?2Rogue?2Rogue30?4wav?$AA@	; `string'
PUBLIC	??_C@_0BG@MPON@Sfx?2Misc?2Spoutlop?4wav?$AA@	; `string'
PUBLIC	??_C@_0BG@BJFI@Sfx?2Rogue?2Rogue31?4wav?$AA@	; `string'
PUBLIC	??_C@_0BG@JCFL@Sfx?2Misc?2Spoutstr?4wav?$AA@	; `string'
PUBLIC	??_C@_0BG@PJDH@Sfx?2Rogue?2Rogue32?4wav?$AA@	; `string'
PUBLIC	??_C@_0BD@DCI@Sfx?2Misc?2Storm?4wav?$AA@	; `string'
PUBLIC	??_C@_0BG@FJBC@Sfx?2Rogue?2Rogue33?4wav?$AA@	; `string'
PUBLIC	??_C@_0BF@GIMK@Sfx?2Misc?2Trapdis?4wav?$AA@	; `string'
PUBLIC	??_C@_0BG@DJOI@Sfx?2Rogue?2Rogue34?4wav?$AA@	; `string'
PUBLIC	??_C@_0BG@HFEC@Sfx?2Misc?2Teleport?4wav?$AA@	; `string'
PUBLIC	??_C@_0BG@JJMN@Sfx?2Rogue?2Rogue35?4wav?$AA@	; `string'
PUBLIC	??_C@_0BE@BKJG@Sfx?2Misc?2Vtheft?4wav?$AA@	; `string'
PUBLIC	??_C@_0BG@HJKC@Sfx?2Rogue?2Rogue36?4wav?$AA@	; `string'
PUBLIC	??_C@_0BG@OONK@Sfx?2Misc?2Wallloop?4wav?$AA@	; `string'
PUBLIC	??_C@_0BG@NJIH@Sfx?2Rogue?2Rogue37?4wav?$AA@	; `string'
PUBLIC	??_C@_0BG@IPHB@Sfx?2Misc?2Wallstrt?4wav?$AA@	; `string'
PUBLIC	??_C@_0BG@LIFH@Sfx?2Rogue?2Rogue38?4wav?$AA@	; `string'
PUBLIC	??_C@_0BI@PFNG@Sfx?2Towners?2Bmaid01?4wav?$AA@	; `string'
PUBLIC	??_C@_0BG@BIHC@Sfx?2Rogue?2Rogue39?4wav?$AA@	; `string'
PUBLIC	??_C@_0BI@BFLJ@Sfx?2Towners?2Bmaid02?4wav?$AA@	; `string'
PUBLIC	??_C@_0BG@FBBN@Sfx?2Rogue?2Rogue40?4wav?$AA@	; `string'
PUBLIC	??_C@_0BI@LFJM@Sfx?2Towners?2Bmaid03?4wav?$AA@	; `string'
PUBLIC	??_C@_0BG@PBDI@Sfx?2Rogue?2Rogue41?4wav?$AA@	; `string'
PUBLIC	??_C@_0BI@NFGG@Sfx?2Towners?2Bmaid04?4wav?$AA@	; `string'
PUBLIC	??_C@_0BG@BBFH@Sfx?2Rogue?2Rogue42?4wav?$AA@	; `string'
PUBLIC	??_C@_0BI@HFED@Sfx?2Towners?2Bmaid05?4wav?$AA@	; `string'
PUBLIC	??_C@_0BG@LBHC@Sfx?2Rogue?2Rogue43?4wav?$AA@	; `string'
PUBLIC	??_C@_0BI@JFCM@Sfx?2Towners?2Bmaid06?4wav?$AA@	; `string'
PUBLIC	??_C@_0BG@NBII@Sfx?2Rogue?2Rogue44?4wav?$AA@	; `string'
PUBLIC	??_C@_0BI@DFAJ@Sfx?2Towners?2Bmaid07?4wav?$AA@	; `string'
PUBLIC	??_C@_0BG@HBKN@Sfx?2Rogue?2Rogue45?4wav?$AA@	; `string'
PUBLIC	??_C@_0BI@FENJ@Sfx?2Towners?2Bmaid08?4wav?$AA@	; `string'
PUBLIC	??_C@_0BG@JBMC@Sfx?2Rogue?2Rogue46?4wav?$AA@	; `string'
PUBLIC	??_C@_0BI@PEPM@Sfx?2Towners?2Bmaid09?4wav?$AA@	; `string'
PUBLIC	??_C@_0BG@DBOH@Sfx?2Rogue?2Rogue47?4wav?$AA@	; `string'
PUBLIC	??_C@_0BI@MAFD@Sfx?2Towners?2Bmaid10?4wav?$AA@	; `string'
PUBLIC	??_C@_0BG@FADH@Sfx?2Rogue?2Rogue48?4wav?$AA@	; `string'
PUBLIC	??_C@_0BI@GAHG@Sfx?2Towners?2Bmaid11?4wav?$AA@	; `string'
PUBLIC	??_C@_0BG@PABC@Sfx?2Rogue?2Rogue49?4wav?$AA@	; `string'
PUBLIC	??_C@_0BI@IABJ@Sfx?2Towners?2Bmaid12?4wav?$AA@	; `string'
PUBLIC	??_C@_0BG@MELN@Sfx?2Rogue?2Rogue50?4wav?$AA@	; `string'
PUBLIC	??_C@_0BI@CADM@Sfx?2Towners?2Bmaid13?4wav?$AA@	; `string'
PUBLIC	??_C@_0BG@GEJI@Sfx?2Rogue?2Rogue51?4wav?$AA@	; `string'
PUBLIC	??_C@_0BI@EAMG@Sfx?2Towners?2Bmaid14?4wav?$AA@	; `string'
PUBLIC	??_C@_0BG@IEPH@Sfx?2Rogue?2Rogue52?4wav?$AA@	; `string'
PUBLIC	??_C@_0BI@OAOD@Sfx?2Towners?2Bmaid15?4wav?$AA@	; `string'
PUBLIC	??_C@_0BG@CENC@Sfx?2Rogue?2Rogue53?4wav?$AA@	; `string'
PUBLIC	??_C@_0BI@IM@Sfx?2Towners?2Bmaid16?4wav?$AA@	; `string'
PUBLIC	??_C@_0BG@EECI@Sfx?2Rogue?2Rogue54?4wav?$AA@	; `string'
PUBLIC	??_C@_0BI@KAKJ@Sfx?2Towners?2Bmaid17?4wav?$AA@	; `string'
PUBLIC	??_C@_0BG@OEAN@Sfx?2Rogue?2Rogue55?4wav?$AA@	; `string'
PUBLIC	??_C@_0BI@MBHJ@Sfx?2Towners?2Bmaid18?4wav?$AA@	; `string'
PUBLIC	??_C@_0BG@EGC@Sfx?2Rogue?2Rogue56?4wav?$AA@	; `string'
PUBLIC	??_C@_0BI@GBFM@Sfx?2Towners?2Bmaid19?4wav?$AA@	; `string'
PUBLIC	??_C@_0BG@KEEH@Sfx?2Rogue?2Rogue57?4wav?$AA@	; `string'
PUBLIC	??_C@_0BI@HOLD@Sfx?2Towners?2Bmaid20?4wav?$AA@	; `string'
PUBLIC	??_C@_0BG@MFJH@Sfx?2Rogue?2Rogue58?4wav?$AA@	; `string'
PUBLIC	??_C@_0BI@NOJG@Sfx?2Towners?2Bmaid21?4wav?$AA@	; `string'
PUBLIC	??_C@_0BG@GFLC@Sfx?2Rogue?2Rogue59?4wav?$AA@	; `string'
PUBLIC	??_C@_0BI@DOPJ@Sfx?2Towners?2Bmaid22?4wav?$AA@	; `string'
PUBLIC	??_C@_0BG@HKFN@Sfx?2Rogue?2Rogue60?4wav?$AA@	; `string'
PUBLIC	??_C@_0BI@JONM@Sfx?2Towners?2Bmaid23?4wav?$AA@	; `string'
PUBLIC	??_C@_0BG@NKHI@Sfx?2Rogue?2Rogue61?4wav?$AA@	; `string'
PUBLIC	??_C@_0BI@POCG@Sfx?2Towners?2Bmaid24?4wav?$AA@	; `string'
PUBLIC	??_C@_0BG@DKBH@Sfx?2Rogue?2Rogue62?4wav?$AA@	; `string'
PUBLIC	??_C@_0BI@FOAD@Sfx?2Towners?2Bmaid25?4wav?$AA@	; `string'
PUBLIC	??_C@_0BG@JKDC@Sfx?2Rogue?2Rogue63?4wav?$AA@	; `string'
PUBLIC	??_C@_0BI@LOGM@Sfx?2Towners?2Bmaid26?4wav?$AA@	; `string'
PUBLIC	??_C@_0BG@PKMI@Sfx?2Rogue?2Rogue64?4wav?$AA@	; `string'
PUBLIC	??_C@_0BI@BOEJ@Sfx?2Towners?2Bmaid27?4wav?$AA@	; `string'
PUBLIC	??_C@_0BG@FKON@Sfx?2Rogue?2Rogue65?4wav?$AA@	; `string'
PUBLIC	??_C@_0BI@HPJJ@Sfx?2Towners?2Bmaid28?4wav?$AA@	; `string'
PUBLIC	??_C@_0BG@LKIC@Sfx?2Rogue?2Rogue66?4wav?$AA@	; `string'
PUBLIC	??_C@_0BI@NPLM@Sfx?2Towners?2Bmaid29?4wav?$AA@	; `string'
PUBLIC	??_C@_0BG@BKKH@Sfx?2Rogue?2Rogue67?4wav?$AA@	; `string'
PUBLIC	??_C@_0BI@OLBD@Sfx?2Towners?2Bmaid30?4wav?$AA@	; `string'
PUBLIC	??_C@_0BG@HLHH@Sfx?2Rogue?2Rogue68?4wav?$AA@	; `string'
PUBLIC	??_C@_0BI@ELDG@Sfx?2Towners?2Bmaid31?4wav?$AA@	; `string'
PUBLIC	??_C@_0BG@NLFC@Sfx?2Rogue?2Rogue69?4wav?$AA@	; `string'
PUBLIC	??_C@_0BI@KLFJ@Sfx?2Towners?2Bmaid32?4wav?$AA@	; `string'
PUBLIC	??_C@_0BH@BJF@Sfx?2Rogue?2Rogue69b?4wav?$AA@	; `string'
PUBLIC	??_C@_0BI@LHM@Sfx?2Towners?2Bmaid33?4wav?$AA@	; `string'
PUBLIC	??_C@_0BG@OPPN@Sfx?2Rogue?2Rogue70?4wav?$AA@	; `string'
PUBLIC	??_C@_0BI@GLIG@Sfx?2Towners?2Bmaid34?4wav?$AA@	; `string'
PUBLIC	??_C@_0BG@EPNI@Sfx?2Rogue?2Rogue71?4wav?$AA@	; `string'
PUBLIC	??_C@_0BI@MLKD@Sfx?2Towners?2Bmaid35?4wav?$AA@	; `string'
PUBLIC	??_C@_0BG@KPLH@Sfx?2Rogue?2Rogue72?4wav?$AA@	; `string'
PUBLIC	??_C@_0BI@CLMM@Sfx?2Towners?2Bmaid36?4wav?$AA@	; `string'
PUBLIC	??_C@_0BG@PJC@Sfx?2Rogue?2Rogue73?4wav?$AA@	; `string'
PUBLIC	??_C@_0BI@ILOJ@Sfx?2Towners?2Bmaid37?4wav?$AA@	; `string'
PUBLIC	??_C@_0BG@GPGI@Sfx?2Rogue?2Rogue74?4wav?$AA@	; `string'
PUBLIC	??_C@_0BI@OKDJ@Sfx?2Towners?2Bmaid38?4wav?$AA@	; `string'
PUBLIC	??_C@_0BG@MPEN@Sfx?2Rogue?2Rogue75?4wav?$AA@	; `string'
PUBLIC	??_C@_0BI@EKBM@Sfx?2Towners?2Bmaid39?4wav?$AA@	; `string'
PUBLIC	??_C@_0BG@CPCC@Sfx?2Rogue?2Rogue76?4wav?$AA@	; `string'
PUBLIC	??_C@_0BI@DHD@Sfx?2Towners?2Bmaid40?4wav?$AA@	; `string'
PUBLIC	??_C@_0BG@IPAH@Sfx?2Rogue?2Rogue77?4wav?$AA@	; `string'
PUBLIC	??_C@_0BJ@DOLK@Sfx?2Towners?2Bsmith01?4wav?$AA@	; `string'
_DATA	SEGMENT
COMM	_sfxdelay:DWORD
COMM	_sfxdnum:DWORD
COMM	_sfx_stream:DWORD
COMM	_sfx_data_cur:DWORD
_DATA	ENDS
CONST	SEGMENT
_monster_action_sounds DB 061H
	DB	068H
	DB	064H
	DB	073H
CONST	ENDS
;	COMDAT ??_C@_0BD@HLNG@Sfx?2Misc?2Walk1?4wav?$AA@
_DATA	SEGMENT
??_C@_0BD@HLNG@Sfx?2Misc?2Walk1?4wav?$AA@ DB 'Sfx\Misc\Walk1.wav', 00H ; `string'
_DATA	ENDS
;	COMDAT ??_C@_0BD@JLLJ@Sfx?2Misc?2Walk2?4wav?$AA@
_DATA	SEGMENT
??_C@_0BD@JLLJ@Sfx?2Misc?2Walk2?4wav?$AA@ DB 'Sfx\Misc\Walk2.wav', 00H ; `string'
_DATA	ENDS
;	COMDAT ??_C@_0BD@DLJM@Sfx?2Misc?2Walk3?4wav?$AA@
_DATA	SEGMENT
??_C@_0BD@DLJM@Sfx?2Misc?2Walk3?4wav?$AA@ DB 'Sfx\Misc\Walk3.wav', 00H ; `string'
_DATA	ENDS
;	COMDAT ??_C@_0BD@FLGG@Sfx?2Misc?2Walk4?4wav?$AA@
_DATA	SEGMENT
??_C@_0BD@FLGG@Sfx?2Misc?2Walk4?4wav?$AA@ DB 'Sfx\Misc\Walk4.wav', 00H ; `string'
_DATA	ENDS
;	COMDAT ??_C@_0BD@BEND@Sfx?2Misc?2BFire?4wav?$AA@
_DATA	SEGMENT
??_C@_0BD@BEND@Sfx?2Misc?2BFire?4wav?$AA@ DB 'Sfx\Misc\BFire.wav', 00H ; `string'
_DATA	ENDS
;	COMDAT ??_C@_0BC@BNBJ@Sfx?2Misc?2Fmag?4wav?$AA@
_DATA	SEGMENT
??_C@_0BC@BNBJ@Sfx?2Misc?2Fmag?4wav?$AA@ DB 'Sfx\Misc\Fmag.wav', 00H ; `string'
_DATA	ENDS
;	COMDAT ??_C@_0BC@PKN@Sfx?2Misc?2Tmag?4wav?$AA@
_DATA	SEGMENT
??_C@_0BC@PKN@Sfx?2Misc?2Tmag?4wav?$AA@ DB 'Sfx\Misc\Tmag.wav', 00H ; `string'
_DATA	ENDS
;	COMDAT ??_C@_0BD@DNI@Sfx?2Misc?2Lghit?4wav?$AA@
_DATA	SEGMENT
??_C@_0BD@DNI@Sfx?2Misc?2Lghit?4wav?$AA@ DB 'Sfx\Misc\Lghit.wav', 00H ; `string'
_DATA	ENDS
;	COMDAT ??_C@_0BE@HDCD@Sfx?2Misc?2Lghit1?4wav?$AA@
_DATA	SEGMENT
??_C@_0BE@HDCD@Sfx?2Misc?2Lghit1?4wav?$AA@ DB 'Sfx\Misc\Lghit1.wav', 00H ; `string'
_DATA	ENDS
;	COMDAT ??_C@_0BD@NMMF@Sfx?2Misc?2Swing?4wav?$AA@
_DATA	SEGMENT
??_C@_0BD@NMMF@Sfx?2Misc?2Swing?4wav?$AA@ DB 'Sfx\Misc\Swing.wav', 00H ; `string'
_DATA	ENDS
;	COMDAT ??_C@_0BE@PPJD@Sfx?2Misc?2Swing2?4wav?$AA@
_DATA	SEGMENT
??_C@_0BE@PPJD@Sfx?2Misc?2Swing2?4wav?$AA@ DB 'Sfx\Misc\Swing2.wav', 00H ; `string'
_DATA	ENDS
;	COMDAT ??_C@_0BC@BJIG@Sfx?2Misc?2Dead?4wav?$AA@
_DATA	SEGMENT
??_C@_0BC@BJIG@Sfx?2Misc?2Dead?4wav?$AA@ DB 'Sfx\Misc\Dead.wav', 00H ; `string'
_DATA	ENDS
;	COMDAT ??_C@_0BG@PKD@Sfx?2Misc?2Questdon?4wav?$AA@
_DATA	SEGMENT
??_C@_0BG@PKD@Sfx?2Misc?2Questdon?4wav?$AA@ DB 'Sfx\Misc\Questdon.wav', 00H ; `string'
_DATA	ENDS
;	COMDAT ??_C@_0BG@OJLD@Sfx?2Items?2Armrfkd?4wav?$AA@
_DATA	SEGMENT
??_C@_0BG@OJLD@Sfx?2Items?2Armrfkd?4wav?$AA@ DB 'Sfx\Items\Armrfkd.wav', 00H ; `string'
_DATA	ENDS
;	COMDAT ??_C@_0BH@PHON@Sfx?2Items?2Barlfire?4wav?$AA@
_DATA	SEGMENT
??_C@_0BH@PHON@Sfx?2Items?2Barlfire?4wav?$AA@ DB 'Sfx\Items\Barlfire.wav', 00H ; `string'
_DATA	ENDS
;	COMDAT ??_C@_0BF@DFOJ@Sfx?2Items?2Barrel?4wav?$AA@
_DATA	SEGMENT
??_C@_0BF@DFOJ@Sfx?2Items?2Barrel?4wav?$AA@ DB 'Sfx\Items\Barrel.wav', 00H ; `string'
_DATA	ENDS
;	COMDAT ??_C@_0BD@PCKP@Sfx?2Items?2Bhit?4wav?$AA@
_DATA	SEGMENT
??_C@_0BD@PCKP@Sfx?2Items?2Bhit?4wav?$AA@ DB 'Sfx\Items\Bhit.wav', 00H ; `string'
_DATA	ENDS
;	COMDAT ??_C@_0BE@EDNC@Sfx?2Items?2Bhit1?4wav?$AA@
_DATA	SEGMENT
??_C@_0BE@EDNC@Sfx?2Items?2Bhit1?4wav?$AA@ DB 'Sfx\Items\Bhit1.wav', 00H ; `string'
_DATA	ENDS
;	COMDAT ??_C@_0BE@IOOF@Sfx?2Items?2Chest?4wav?$AA@
_DATA	SEGMENT
??_C@_0BE@IOOF@Sfx?2Items?2Chest?4wav?$AA@ DB 'Sfx\Items\Chest.wav', 00H ; `string'
_DATA	ENDS
;	COMDAT ??_C@_0BH@DDLM@Sfx?2Items?2Doorclos?4wav?$AA@
_DATA	SEGMENT
??_C@_0BH@DDLM@Sfx?2Items?2Doorclos?4wav?$AA@ DB 'Sfx\Items\Doorclos.wav', 00H ; `string'
_DATA	ENDS
;	COMDAT ??_C@_0BH@NAFN@Sfx?2Items?2Dooropen?4wav?$AA@
_DATA	SEGMENT
??_C@_0BH@NAFN@Sfx?2Items?2Dooropen?4wav?$AA@ DB 'Sfx\Items\Dooropen.wav', 00H ; `string'
_DATA	ENDS
;	COMDAT ??_C@_0BH@LPLE@Sfx?2Items?2Flipanvl?4wav?$AA@
_DATA	SEGMENT
??_C@_0BH@LPLE@Sfx?2Items?2Flipanvl?4wav?$AA@ DB 'Sfx\Items\Flipanvl.wav', 00H ; `string'
_DATA	ENDS
;	COMDAT ??_C@_0BG@MKPF@Sfx?2Items?2Flipaxe?4wav?$AA@
_DATA	SEGMENT
??_C@_0BG@MKPF@Sfx?2Items?2Flipaxe?4wav?$AA@ DB 'Sfx\Items\Flipaxe.wav', 00H ; `string'
_DATA	ENDS
;	COMDAT ??_C@_0BH@PKLD@Sfx?2Items?2Flipblst?4wav?$AA@
_DATA	SEGMENT
??_C@_0BH@PKLD@Sfx?2Items?2Flipblst?4wav?$AA@ DB 'Sfx\Items\Flipblst.wav', 00H ; `string'
_DATA	ENDS
;	COMDAT ??_C@_0BH@BKPF@Sfx?2Items?2Flipbody?4wav?$AA@
_DATA	SEGMENT
??_C@_0BH@BKPF@Sfx?2Items?2Flipbody?4wav?$AA@ DB 'Sfx\Items\Flipbody.wav', 00H ; `string'
_DATA	ENDS
;	COMDAT ??_C@_0BH@ELAL@Sfx?2Items?2Flipbook?4wav?$AA@
_DATA	SEGMENT
??_C@_0BH@ELAL@Sfx?2Items?2Flipbook?4wav?$AA@ DB 'Sfx\Items\Flipbook.wav', 00H ; `string'
_DATA	ENDS
;	COMDAT ??_C@_0BG@EJDG@Sfx?2Items?2Flipbow?4wav?$AA@
_DATA	SEGMENT
??_C@_0BG@EJDG@Sfx?2Items?2Flipbow?4wav?$AA@ DB 'Sfx\Items\Flipbow.wav', 00H ; `string'
_DATA	ENDS
;	COMDAT ??_C@_0BG@NHJI@Sfx?2Items?2Flipcap?4wav?$AA@
_DATA	SEGMENT
??_C@_0BG@NHJI@Sfx?2Items?2Flipcap?4wav?$AA@ DB 'Sfx\Items\Flipcap.wav', 00H ; `string'
_DATA	ENDS
;	COMDAT ??_C@_0BH@PNAO@Sfx?2Items?2Flipharm?4wav?$AA@
_DATA	SEGMENT
??_C@_0BH@PNAO@Sfx?2Items?2Flipharm?4wav?$AA@ DB 'Sfx\Items\Flipharm.wav', 00H ; `string'
_DATA	ENDS
;	COMDAT ??_C@_0BH@NNLE@Sfx?2Items?2Fliplarm?4wav?$AA@
_DATA	SEGMENT
??_C@_0BH@NNLE@Sfx?2Items?2Fliplarm?4wav?$AA@ DB 'Sfx\Items\Fliplarm.wav', 00H ; `string'
_DATA	ENDS
;	COMDAT ??_C@_0BG@CGOH@Sfx?2Items?2Flipmag?4wav?$AA@
_DATA	SEGMENT
??_C@_0BG@CGOH@Sfx?2Items?2Flipmag?4wav?$AA@ DB 'Sfx\Items\Flipmag.wav', 00H ; `string'
_DATA	ENDS
;	COMDAT ??_C@_0BH@IGAG@Sfx?2Items?2Flipmag1?4wav?$AA@
_DATA	SEGMENT
??_C@_0BH@IGAG@Sfx?2Items?2Flipmag1?4wav?$AA@ DB 'Sfx\Items\Flipmag1.wav', 00H ; `string'
_DATA	ENDS
;	COMDAT ??_C@_0BH@HDIG@Sfx?2Items?2Flipmush?4wav?$AA@
_DATA	SEGMENT
??_C@_0BH@HDIG@Sfx?2Items?2Flipmush?4wav?$AA@ DB 'Sfx\Items\Flipmush.wav', 00H ; `string'
_DATA	ENDS
;	COMDAT ??_C@_0BG@BNCI@Sfx?2Items?2Flippot?4wav?$AA@
_DATA	SEGMENT
??_C@_0BG@BNCI@Sfx?2Items?2Flippot?4wav?$AA@ DB 'Sfx\Items\Flippot.wav', 00H ; `string'
_DATA	ENDS
;	COMDAT ??_C@_0BH@DKIA@Sfx?2Items?2Flipring?4wav?$AA@
_DATA	SEGMENT
??_C@_0BH@DKIA@Sfx?2Items?2Flipring?4wav?$AA@ DB 'Sfx\Items\Flipring.wav', 00H ; `string'
_DATA	ENDS
;	COMDAT ??_C@_0BH@DCGD@Sfx?2Items?2Fliprock?4wav?$AA@
_DATA	SEGMENT
??_C@_0BH@DCGD@Sfx?2Items?2Fliprock?4wav?$AA@ DB 'Sfx\Items\Fliprock.wav', 00H ; `string'
_DATA	ENDS
;	COMDAT ??_C@_0BH@BLOO@Sfx?2Items?2Flipscrl?4wav?$AA@
_DATA	SEGMENT
??_C@_0BH@BLOO@Sfx?2Items?2Flipscrl?4wav?$AA@ DB 'Sfx\Items\Flipscrl.wav', 00H ; `string'
_DATA	ENDS
;	COMDAT ??_C@_0BH@JHBE@Sfx?2Items?2Flipshld?4wav?$AA@
_DATA	SEGMENT
??_C@_0BH@JHBE@Sfx?2Items?2Flipshld?4wav?$AA@ DB 'Sfx\Items\Flipshld.wav', 00H ; `string'
_DATA	ENDS
;	COMDAT ??_C@_0BH@OLAA@Sfx?2Items?2Flipsign?4wav?$AA@
_DATA	SEGMENT
??_C@_0BH@OLAA@Sfx?2Items?2Flipsign?4wav?$AA@ DB 'Sfx\Items\Flipsign.wav', 00H ; `string'
_DATA	ENDS
;	COMDAT ??_C@_0BH@JONO@Sfx?2Items?2Flipstaf?4wav?$AA@
_DATA	SEGMENT
??_C@_0BH@JONO@Sfx?2Items?2Flipstaf?4wav?$AA@ DB 'Sfx\Items\Flipstaf.wav', 00H ; `string'
_DATA	ENDS
;	COMDAT ??_C@_0BH@LPGB@Sfx?2Items?2Flipswor?4wav?$AA@
_DATA	SEGMENT
??_C@_0BH@LPGB@Sfx?2Items?2Flipswor?4wav?$AA@ DB 'Sfx\Items\Flipswor.wav', 00H ; `string'
_DATA	ENDS
;	COMDAT ??_C@_0BD@JCKG@Sfx?2Items?2Gold?4wav?$AA@
_DATA	SEGMENT
??_C@_0BD@JCKG@Sfx?2Items?2Gold?4wav?$AA@ DB 'Sfx\Items\Gold.wav', 00H ; `string'
_DATA	ENDS
;	COMDAT ??_C@_0BG@EFBO@Sfx?2Items?2Hlmtfkd?4wav?$AA@
_DATA	SEGMENT
??_C@_0BG@EFBO@Sfx?2Items?2Hlmtfkd?4wav?$AA@ DB 'Sfx\Items\Hlmtfkd.wav', 00H ; `string'
_DATA	ENDS
;	COMDAT ??_C@_0BG@GLNH@Sfx?2Items?2Invanvl?4wav?$AA@
_DATA	SEGMENT
??_C@_0BG@GLNH@Sfx?2Items?2Invanvl?4wav?$AA@ DB 'Sfx\Items\Invanvl.wav', 00H ; `string'
_DATA	ENDS
;	COMDAT ??_C@_0BF@KJHG@Sfx?2Items?2Invaxe?4wav?$AA@
_DATA	SEGMENT
??_C@_0BF@KJHG@Sfx?2Items?2Invaxe?4wav?$AA@ DB 'Sfx\Items\Invaxe.wav', 00H ; `string'
_DATA	ENDS
;	COMDAT ??_C@_0BG@CONA@Sfx?2Items?2Invblst?4wav?$AA@
_DATA	SEGMENT
??_C@_0BG@CONA@Sfx?2Items?2Invblst?4wav?$AA@ DB 'Sfx\Items\Invblst.wav', 00H ; `string'
_DATA	ENDS
;	COMDAT ??_C@_0BG@MOJG@Sfx?2Items?2Invbody?4wav?$AA@
_DATA	SEGMENT
??_C@_0BG@MOJG@Sfx?2Items?2Invbody?4wav?$AA@ DB 'Sfx\Items\Invbody.wav', 00H ; `string'
_DATA	ENDS
;	COMDAT ??_C@_0BG@JPGI@Sfx?2Items?2Invbook?4wav?$AA@
_DATA	SEGMENT
??_C@_0BG@JPGI@Sfx?2Items?2Invbook?4wav?$AA@ DB 'Sfx\Items\Invbook.wav', 00H ; `string'
_DATA	ENDS
;	COMDAT ??_C@_0BF@CKLF@Sfx?2Items?2Invbow?4wav?$AA@
_DATA	SEGMENT
??_C@_0BF@CKLF@Sfx?2Items?2Invbow?4wav?$AA@ DB 'Sfx\Items\Invbow.wav', 00H ; `string'
_DATA	ENDS
;	COMDAT ??_C@_0BF@LEBL@Sfx?2Items?2Invcap?4wav?$AA@
_DATA	SEGMENT
??_C@_0BF@LEBL@Sfx?2Items?2Invcap?4wav?$AA@ DB 'Sfx\Items\Invcap.wav', 00H ; `string'
_DATA	ENDS
;	COMDAT ??_C@_0BG@IPAG@Sfx?2Items?2Invgrab?4wav?$AA@
_DATA	SEGMENT
??_C@_0BG@IPAG@Sfx?2Items?2Invgrab?4wav?$AA@ DB 'Sfx\Items\Invgrab.wav', 00H ; `string'
_DATA	ENDS
;	COMDAT ??_C@_0BG@CJGN@Sfx?2Items?2Invharm?4wav?$AA@
_DATA	SEGMENT
??_C@_0BG@CJGN@Sfx?2Items?2Invharm?4wav?$AA@ DB 'Sfx\Items\Invharm.wav', 00H ; `string'
_DATA	ENDS
;	COMDAT ??_C@_0BG@JNH@Sfx?2Items?2Invlarm?4wav?$AA@
_DATA	SEGMENT
??_C@_0BG@JNH@Sfx?2Items?2Invlarm?4wav?$AA@ DB 'Sfx\Items\Invlarm.wav', 00H ; `string'
_DATA	ENDS
;	COMDAT ??_C@_0BG@KHOF@Sfx?2Items?2Invmush?4wav?$AA@
_DATA	SEGMENT
??_C@_0BG@KHOF@Sfx?2Items?2Invmush?4wav?$AA@ DB 'Sfx\Items\Invmush.wav', 00H ; `string'
_DATA	ENDS
;	COMDAT ??_C@_0BF@HOKL@Sfx?2Items?2Invpot?4wav?$AA@
_DATA	SEGMENT
??_C@_0BF@HOKL@Sfx?2Items?2Invpot?4wav?$AA@ DB 'Sfx\Items\Invpot.wav', 00H ; `string'
_DATA	ENDS
;	COMDAT ??_C@_0BG@OOOD@Sfx?2Items?2Invring?4wav?$AA@
_DATA	SEGMENT
??_C@_0BG@OOOD@Sfx?2Items?2Invring?4wav?$AA@ DB 'Sfx\Items\Invring.wav', 00H ; `string'
_DATA	ENDS
;	COMDAT ??_C@_0BG@OGAA@Sfx?2Items?2Invrock?4wav?$AA@
_DATA	SEGMENT
??_C@_0BG@OGAA@Sfx?2Items?2Invrock?4wav?$AA@ DB 'Sfx\Items\Invrock.wav', 00H ; `string'
_DATA	ENDS
;	COMDAT ??_C@_0BH@LKJE@Sfx?2Items?2Invscrol?4wav?$AA@
_DATA	SEGMENT
??_C@_0BH@LKJE@Sfx?2Items?2Invscrol?4wav?$AA@ DB 'Sfx\Items\Invscrol.wav', 00H ; `string'
_DATA	ENDS
;	COMDAT ??_C@_0BH@ELJL@Sfx?2Items?2Invshiel?4wav?$AA@
_DATA	SEGMENT
??_C@_0BH@ELJL@Sfx?2Items?2Invshiel?4wav?$AA@ DB 'Sfx\Items\Invshiel.wav', 00H ; `string'
_DATA	ENDS
;	COMDAT ??_C@_0BG@DPGD@Sfx?2Items?2Invsign?4wav?$AA@
_DATA	SEGMENT
??_C@_0BG@DPGD@Sfx?2Items?2Invsign?4wav?$AA@ DB 'Sfx\Items\Invsign.wav', 00H ; `string'
_DATA	ENDS
;	COMDAT ??_C@_0BG@EKLN@Sfx?2Items?2Invstaf?4wav?$AA@
_DATA	SEGMENT
??_C@_0BG@EKLN@Sfx?2Items?2Invstaf?4wav?$AA@ DB 'Sfx\Items\Invstaf.wav', 00H ; `string'
_DATA	ENDS
;	COMDAT ??_C@_0BH@CEPK@Sfx?2Items?2Invsword?4wav?$AA@
_DATA	SEGMENT
??_C@_0BH@CEPK@Sfx?2Items?2Invsword?4wav?$AA@ DB 'Sfx\Items\Invsword.wav', 00H ; `string'
_DATA	ENDS
;	COMDAT ??_C@_0BE@IHEF@Sfx?2Items?2Lever?4wav?$AA@
_DATA	SEGMENT
??_C@_0BE@IHEF@Sfx?2Items?2Lever?4wav?$AA@ DB 'Sfx\Items\Lever.wav', 00H ; `string'
_DATA	ENDS
;	COMDAT ??_C@_0BE@PLIJ@Sfx?2Items?2Magic?4wav?$AA@
_DATA	SEGMENT
??_C@_0BE@PLIJ@Sfx?2Items?2Magic?4wav?$AA@ DB 'Sfx\Items\Magic.wav', 00H ; `string'
_DATA	ENDS
;	COMDAT ??_C@_0BF@LHNL@Sfx?2Items?2Magic1?4wav?$AA@
_DATA	SEGMENT
??_C@_0BF@LHNL@Sfx?2Items?2Magic1?4wav?$AA@ DB 'Sfx\Items\Magic1.wav', 00H ; `string'
_DATA	ENDS
;	COMDAT ??_C@_0BH@MPEI@Sfx?2Items?2Readbook?4wav?$AA@
_DATA	SEGMENT
??_C@_0BH@MPEI@Sfx?2Items?2Readbook?4wav?$AA@ DB 'Sfx\Items\Readbook.wav', 00H ; `string'
_DATA	ENDS
;	COMDAT ??_C@_0BD@EJBM@Sfx?2Items?2Sarc?4wav?$AA@
_DATA	SEGMENT
??_C@_0BD@EJBM@Sfx?2Items?2Sarc?4wav?$AA@ DB 'Sfx\Items\Sarc.wav', 00H ; `string'
_DATA	ENDS
;	COMDAT ??_C@_0BH@JGMN@Sfx?2Items?2Shielfkd?4wav?$AA@
_DATA	SEGMENT
??_C@_0BH@JGMN@Sfx?2Items?2Shielfkd?4wav?$AA@ DB 'Sfx\Items\Shielfkd.wav', 00H ; `string'
_DATA	ENDS
;	COMDAT ??_C@_0BG@GPKO@Sfx?2Items?2Swrdfkd?4wav?$AA@
_DATA	SEGMENT
??_C@_0BG@GPKO@Sfx?2Items?2Swrdfkd?4wav?$AA@ DB 'Sfx\Items\Swrdfkd.wav', 00H ; `string'
_DATA	ENDS
;	COMDAT ??_C@_0BH@IFPF@Sfx?2Items?2Titlemov?4wav?$AA@
_DATA	SEGMENT
??_C@_0BH@IFPF@Sfx?2Items?2Titlemov?4wav?$AA@ DB 'Sfx\Items\Titlemov.wav', 00H ; `string'
_DATA	ENDS
;	COMDAT ??_C@_0BH@CCKF@Sfx?2Items?2Titlslct?4wav?$AA@
_DATA	SEGMENT
??_C@_0BH@CCKF@Sfx?2Items?2Titlslct?4wav?$AA@ DB 'Sfx\Items\Titlslct.wav', 00H ; `string'
_DATA	ENDS
;	COMDAT ??_C@_0BD@JNPG@Sfx?2Misc?2blank?4wav?$AA@
_DATA	SEGMENT
??_C@_0BD@JNPG@Sfx?2Misc?2blank?4wav?$AA@ DB 'Sfx\Misc\blank.wav', 00H ; `string'
_DATA	ENDS
;	COMDAT ??_C@_0BD@CNOJ@Sfx?2Items?2Trap?4wav?$AA@
_DATA	SEGMENT
??_C@_0BD@CNOJ@Sfx?2Items?2Trap?4wav?$AA@ DB 'Sfx\Items\Trap.wav', 00H ; `string'
_DATA	ENDS
;	COMDAT ??_C@_0BD@BNAI@Sfx?2Misc?2Cast1?4wav?$AA@
_DATA	SEGMENT
??_C@_0BD@BNAI@Sfx?2Misc?2Cast1?4wav?$AA@ DB 'Sfx\Misc\Cast1.wav', 00H ; `string'
_DATA	ENDS
;	COMDAT ??_C@_0BE@DGBI@Sfx?2Misc?2Cast10?4wav?$AA@
_DATA	SEGMENT
??_C@_0BE@DGBI@Sfx?2Misc?2Cast10?4wav?$AA@ DB 'Sfx\Misc\Cast10.wav', 00H ; `string'
_DATA	ENDS
;	COMDAT ??_C@_0BE@HGFC@Sfx?2Misc?2Cast12?4wav?$AA@
_DATA	SEGMENT
??_C@_0BE@HGFC@Sfx?2Misc?2Cast12?4wav?$AA@ DB 'Sfx\Misc\Cast12.wav', 00H ; `string'
_DATA	ENDS
;	COMDAT ??_C@_0BD@PNGH@Sfx?2Misc?2Cast2?4wav?$AA@
_DATA	SEGMENT
??_C@_0BD@PNGH@Sfx?2Misc?2Cast2?4wav?$AA@ DB 'Sfx\Misc\Cast2.wav', 00H ; `string'
_DATA	ENDS
;	COMDAT ??_C@_0BD@FNEC@Sfx?2Misc?2Cast3?4wav?$AA@
_DATA	SEGMENT
??_C@_0BD@FNEC@Sfx?2Misc?2Cast3?4wav?$AA@ DB 'Sfx\Misc\Cast3.wav', 00H ; `string'
_DATA	ENDS
;	COMDAT ??_C@_0BD@DNLI@Sfx?2Misc?2Cast4?4wav?$AA@
_DATA	SEGMENT
??_C@_0BD@DNLI@Sfx?2Misc?2Cast4?4wav?$AA@ DB 'Sfx\Misc\Cast4.wav', 00H ; `string'
_DATA	ENDS
;	COMDAT ??_C@_0BD@JNJN@Sfx?2Misc?2Cast5?4wav?$AA@
_DATA	SEGMENT
??_C@_0BD@JNJN@Sfx?2Misc?2Cast5?4wav?$AA@ DB 'Sfx\Misc\Cast5.wav', 00H ; `string'
_DATA	ENDS
;	COMDAT ??_C@_0BD@HNPC@Sfx?2Misc?2Cast6?4wav?$AA@
_DATA	SEGMENT
??_C@_0BD@HNPC@Sfx?2Misc?2Cast6?4wav?$AA@ DB 'Sfx\Misc\Cast6.wav', 00H ; `string'
_DATA	ENDS
;	COMDAT ??_C@_0BD@NNNH@Sfx?2Misc?2Cast7?4wav?$AA@
_DATA	SEGMENT
??_C@_0BD@NNNH@Sfx?2Misc?2Cast7?4wav?$AA@ DB 'Sfx\Misc\Cast7.wav', 00H ; `string'
_DATA	ENDS
;	COMDAT ??_C@_0BD@LMAH@Sfx?2Misc?2Cast8?4wav?$AA@
_DATA	SEGMENT
??_C@_0BD@LMAH@Sfx?2Misc?2Cast8?4wav?$AA@ DB 'Sfx\Misc\Cast8.wav', 00H ; `string'
_DATA	ENDS
;	COMDAT ??_C@_0BD@BMCC@Sfx?2Misc?2Cast9?4wav?$AA@
_DATA	SEGMENT
??_C@_0BD@BMCC@Sfx?2Misc?2Cast9?4wav?$AA@ DB 'Sfx\Misc\Cast9.wav', 00H ; `string'
_DATA	ENDS
;	COMDAT ??_C@_0BF@EPF@Sfx?2Misc?2Healing?4wav?$AA@
_DATA	SEGMENT
??_C@_0BF@EPF@Sfx?2Misc?2Healing?4wav?$AA@ DB 'Sfx\Misc\Healing.wav', 00H ; `string'
_DATA	ENDS
;	COMDAT ??_C@_0BE@DPCA@Sfx?2Misc?2Repair?4wav?$AA@
_DATA	SEGMENT
??_C@_0BE@DPCA@Sfx?2Misc?2Repair?4wav?$AA@ DB 'Sfx\Misc\Repair.wav', 00H ; `string'
_DATA	ENDS
;	COMDAT ??_C@_0BE@PEPK@Sfx?2Misc?2Acids1?4wav?$AA@
_DATA	SEGMENT
??_C@_0BE@PEPK@Sfx?2Misc?2Acids1?4wav?$AA@ DB 'Sfx\Misc\Acids1.wav', 00H ; `string'
_DATA	ENDS
;	COMDAT ??_C@_0BE@BEJF@Sfx?2Misc?2Acids2?4wav?$AA@
_DATA	SEGMENT
??_C@_0BE@BEJF@Sfx?2Misc?2Acids2?4wav?$AA@ DB 'Sfx\Misc\Acids2.wav', 00H ; `string'
_DATA	ENDS
;	COMDAT ??_C@_0BC@LMLA@Sfx?2Misc?2Apoc?4wav?$AA@
_DATA	SEGMENT
??_C@_0BC@LMLA@Sfx?2Misc?2Apoc?4wav?$AA@ DB 'Sfx\Misc\Apoc.wav', 00H ; `string'
_DATA	ENDS
;	COMDAT ??_C@_0BG@JKDG@Sfx?2Misc?2Arrowall?4wav?$AA@
_DATA	SEGMENT
??_C@_0BG@JKDG@Sfx?2Misc?2Arrowall?4wav?$AA@ DB 'Sfx\Misc\Arrowall.wav', 00H ; `string'
_DATA	ENDS
;	COMDAT ??_C@_0BF@KAOH@Sfx?2Misc?2Bldboil?4wav?$AA@
_DATA	SEGMENT
??_C@_0BF@KAOH@Sfx?2Misc?2Bldboil?4wav?$AA@ DB 'Sfx\Misc\Bldboil.wav', 00H ; `string'
_DATA	ENDS
;	COMDAT ??_C@_0BG@DJGN@Sfx?2Misc?2Blodstar?4wav?$AA@
_DATA	SEGMENT
??_C@_0BG@DJGN@Sfx?2Misc?2Blodstar?4wav?$AA@ DB 'Sfx\Misc\Blodstar.wav', 00H ; `string'
_DATA	ENDS
;	COMDAT ??_C@_0BF@GOGN@Sfx?2Misc?2Blsimpt?4wav?$AA@
_DATA	SEGMENT
??_C@_0BF@GOGN@Sfx?2Misc?2Blsimpt?4wav?$AA@ DB 'Sfx\Misc\Blsimpt.wav', 00H ; `string'
_DATA	ENDS
;	COMDAT ??_C@_0BE@PA@Sfx?2Misc?2Bonesp?4wav?$AA@
_DATA	SEGMENT
??_C@_0BE@PA@Sfx?2Misc?2Bonesp?4wav?$AA@ DB 'Sfx\Misc\Bonesp.wav', 00H ; `string'
_DATA	ENDS
;	COMDAT ??_C@_0BF@DMCL@Sfx?2Misc?2Bsimpct?4wav?$AA@
_DATA	SEGMENT
??_C@_0BF@DMCL@Sfx?2Misc?2Bsimpct?4wav?$AA@ DB 'Sfx\Misc\Bsimpct.wav', 00H ; `string'
_DATA	ENDS
;	COMDAT ??_C@_0BF@BCKJ@Sfx?2Misc?2Caldron?4wav?$AA@
_DATA	SEGMENT
??_C@_0BF@BCKJ@Sfx?2Misc?2Caldron?4wav?$AA@ DB 'Sfx\Misc\Caldron.wav', 00H ; `string'
_DATA	ENDS
;	COMDAT ??_C@_0BD@DMDN@Sfx?2Misc?2Cbolt?4wav?$AA@
_DATA	SEGMENT
??_C@_0BD@DMDN@Sfx?2Misc?2Cbolt?4wav?$AA@ DB 'Sfx\Misc\Cbolt.wav', 00H ; `string'
_DATA	ENDS
;	COMDAT ??_C@_0BG@IPMF@Sfx?2Misc?2Chltning?4wav?$AA@
_DATA	SEGMENT
??_C@_0BG@IPMF@Sfx?2Misc?2Chltning?4wav?$AA@ DB 'Sfx\Misc\Chltning.wav', 00H ; `string'
_DATA	ENDS
;	COMDAT ??_C@_0BD@JPAA@Sfx?2Misc?2DSerp?4wav?$AA@
_DATA	SEGMENT
??_C@_0BD@JPAA@Sfx?2Misc?2DSerp?4wav?$AA@ DB 'Sfx\Misc\DSerp.wav', 00H ; `string'
_DATA	ENDS
;	COMDAT ??_C@_0BG@NAKN@Sfx?2Misc?2Elecimp1?4wav?$AA@
_DATA	SEGMENT
??_C@_0BG@NAKN@Sfx?2Misc?2Elecimp1?4wav?$AA@ DB 'Sfx\Misc\Elecimp1.wav', 00H ; `string'
_DATA	ENDS
;	COMDAT ??_C@_0BG@CBDH@Sfx?2Misc?2Elementl?4wav?$AA@
_DATA	SEGMENT
??_C@_0BG@CBDH@Sfx?2Misc?2Elementl?4wav?$AA@ DB 'Sfx\Misc\Elementl.wav', 00H ; `string'
_DATA	ENDS
;	COMDAT ??_C@_0BG@OFDM@Sfx?2Misc?2Ethereal?4wav?$AA@
_DATA	SEGMENT
??_C@_0BG@OFDM@Sfx?2Misc?2Ethereal?4wav?$AA@ DB 'Sfx\Misc\Ethereal.wav', 00H ; `string'
_DATA	ENDS
;	COMDAT ??_C@_0BD@GHPK@Sfx?2Misc?2Fball?4wav?$AA@
_DATA	SEGMENT
??_C@_0BD@GHPK@Sfx?2Misc?2Fball?4wav?$AA@ DB 'Sfx\Misc\Fball.wav', 00H ; `string'
_DATA	ENDS
;	COMDAT ??_C@_0BE@LFNH@Sfx?2Misc?2Fbolt1?4wav?$AA@
_DATA	SEGMENT
??_C@_0BE@LFNH@Sfx?2Misc?2Fbolt1?4wav?$AA@ DB 'Sfx\Misc\Fbolt1.wav', 00H ; `string'
_DATA	ENDS
;	COMDAT ??_C@_0BE@FFLI@Sfx?2Misc?2Fbolt2?4wav?$AA@
_DATA	SEGMENT
??_C@_0BE@FFLI@Sfx?2Misc?2Fbolt2?4wav?$AA@ DB 'Sfx\Misc\Fbolt2.wav', 00H ; `string'
_DATA	ENDS
;	COMDAT ??_C@_0BF@JPDF@Sfx?2Misc?2Firimp1?4wav?$AA@
_DATA	SEGMENT
??_C@_0BF@JPDF@Sfx?2Misc?2Firimp1?4wav?$AA@ DB 'Sfx\Misc\Firimp1.wav', 00H ; `string'
_DATA	ENDS
;	COMDAT ??_C@_0BF@HPFK@Sfx?2Misc?2Firimp2?4wav?$AA@
_DATA	SEGMENT
??_C@_0BF@HPFK@Sfx?2Misc?2Firimp2?4wav?$AA@ DB 'Sfx\Misc\Firimp2.wav', 00H ; `string'
_DATA	ENDS
;	COMDAT ??_C@_0BG@INLP@Sfx?2Misc?2Flamwave?4wav?$AA@
_DATA	SEGMENT
??_C@_0BG@INLP@Sfx?2Misc?2Flamwave?4wav?$AA@ DB 'Sfx\Misc\Flamwave.wav', 00H ; `string'
_DATA	ENDS
;	COMDAT ??_C@_0BD@JJP@Sfx?2Misc?2Flash?4wav?$AA@
_DATA	SEGMENT
??_C@_0BD@JJP@Sfx?2Misc?2Flash?4wav?$AA@ DB 'Sfx\Misc\Flash.wav', 00H ; `string'
_DATA	ENDS
;	COMDAT ??_C@_0BG@BBIP@Sfx?2Misc?2Fountain?4wav?$AA@
_DATA	SEGMENT
??_C@_0BG@BBIP@Sfx?2Misc?2Fountain?4wav?$AA@ DB 'Sfx\Misc\Fountain.wav', 00H ; `string'
_DATA	ENDS
;	COMDAT ??_C@_0BD@KOLK@Sfx?2Misc?2Golum?4wav?$AA@
_DATA	SEGMENT
??_C@_0BD@KOLK@Sfx?2Misc?2Golum?4wav?$AA@ DB 'Sfx\Misc\Golum.wav', 00H ; `string'
_DATA	ENDS
;	COMDAT ??_C@_0BG@KEBL@Sfx?2Misc?2Golumded?4wav?$AA@
_DATA	SEGMENT
??_C@_0BG@KEBL@Sfx?2Misc?2Golumded?4wav?$AA@ DB 'Sfx\Misc\Golumded.wav', 00H ; `string'
_DATA	ENDS
;	COMDAT ??_C@_0BF@PKLE@Sfx?2Misc?2Gshrine?4wav?$AA@
_DATA	SEGMENT
??_C@_0BF@PKLE@Sfx?2Misc?2Gshrine?4wav?$AA@ DB 'Sfx\Misc\Gshrine.wav', 00H ; `string'
_DATA	ENDS
;	COMDAT ??_C@_0BD@FEHL@Sfx?2Misc?2Guard?4wav?$AA@
_DATA	SEGMENT
??_C@_0BD@FEHL@Sfx?2Misc?2Guard?4wav?$AA@ DB 'Sfx\Misc\Guard.wav', 00H ; `string'
_DATA	ENDS
;	COMDAT ??_C@_0BG@CGIH@Sfx?2Misc?2Grdlanch?4wav?$AA@
_DATA	SEGMENT
??_C@_0BG@CGIH@Sfx?2Misc?2Grdlanch?4wav?$AA@ DB 'Sfx\Misc\Grdlanch.wav', 00H ; `string'
_DATA	ENDS
;	COMDAT ??_C@_0BG@FFOB@Sfx?2Misc?2Holybolt?4wav?$AA@
_DATA	SEGMENT
??_C@_0BG@FFOB@Sfx?2Misc?2Holybolt?4wav?$AA@ DB 'Sfx\Misc\Holybolt.wav', 00H ; `string'
_DATA	ENDS
;	COMDAT ??_C@_0BD@NPCL@Sfx?2Misc?2Hyper?4wav?$AA@
_DATA	SEGMENT
??_C@_0BD@NPCL@Sfx?2Misc?2Hyper?4wav?$AA@ DB 'Sfx\Misc\Hyper.wav', 00H ; `string'
_DATA	ENDS
;	COMDAT ??_C@_0BG@CPEA@Sfx?2Misc?2Infravis?4wav?$AA@
_DATA	SEGMENT
??_C@_0BG@CPEA@Sfx?2Misc?2Infravis?4wav?$AA@ DB 'Sfx\Misc\Infravis.wav', 00H ; `string'
_DATA	ENDS
;	COMDAT ??_C@_0BG@JFLA@Sfx?2Misc?2Invisibl?4wav?$AA@
_DATA	SEGMENT
??_C@_0BG@JFLA@Sfx?2Misc?2Invisibl?4wav?$AA@ DB 'Sfx\Misc\Invisibl.wav', 00H ; `string'
_DATA	ENDS
;	COMDAT ??_C@_0BE@LDPO@Sfx?2Misc?2Invpot?4wav?$AA@
_DATA	SEGMENT
??_C@_0BE@LDPO@Sfx?2Misc?2Invpot?4wav?$AA@ DB 'Sfx\Misc\Invpot.wav', 00H ; `string'
_DATA	ENDS
;	COMDAT ??_C@_0BE@MGAO@Sfx?2Misc?2Lning1?4wav?$AA@
_DATA	SEGMENT
??_C@_0BE@MGAO@Sfx?2Misc?2Lning1?4wav?$AA@ DB 'Sfx\Misc\Lning1.wav', 00H ; `string'
_DATA	ENDS
;	COMDAT ??_C@_0BE@LGAD@Sfx?2Misc?2Ltning?4wav?$AA@
_DATA	SEGMENT
??_C@_0BE@LGAD@Sfx?2Misc?2Ltning?4wav?$AA@ DB 'Sfx\Misc\Ltning.wav', 00H ; `string'
_DATA	ENDS
;	COMDAT ??_C@_0BF@CFKF@Sfx?2Misc?2Mshield?4wav?$AA@
_DATA	SEGMENT
??_C@_0BF@CFKF@Sfx?2Misc?2Mshield?4wav?$AA@ DB 'Sfx\Misc\Mshield.wav', 00H ; `string'
_DATA	ENDS
;	COMDAT ??_C@_0BC@HDPL@Sfx?2Misc?2Nova?4wav?$AA@
_DATA	SEGMENT
??_C@_0BC@HDPL@Sfx?2Misc?2Nova?4wav?$AA@ DB 'Sfx\Misc\Nova.wav', 00H ; `string'
_DATA	ENDS
;	COMDAT ??_C@_0BE@DFBA@Sfx?2Misc?2Portal?4wav?$AA@
_DATA	SEGMENT
??_C@_0BE@DFBA@Sfx?2Misc?2Portal?4wav?$AA@ DB 'Sfx\Misc\Portal.wav', 00H ; `string'
_DATA	ENDS
;	COMDAT ??_C@_0BE@JDDJ@Sfx?2Misc?2Puddle?4wav?$AA@
_DATA	SEGMENT
??_C@_0BE@JDDJ@Sfx?2Misc?2Puddle?4wav?$AA@ DB 'Sfx\Misc\Puddle.wav', 00H ; `string'
_DATA	ENDS
;	COMDAT ??_C@_0BD@KHOD@Sfx?2Misc?2Resur?4wav?$AA@
_DATA	SEGMENT
??_C@_0BD@KHOD@Sfx?2Misc?2Resur?4wav?$AA@ DB 'Sfx\Misc\Resur.wav', 00H ; `string'
_DATA	ENDS
;	COMDAT ??_C@_0BE@HBMO@Sfx?2Misc?2Scurse?4wav?$AA@
_DATA	SEGMENT
??_C@_0BE@HBMO@Sfx?2Misc?2Scurse?4wav?$AA@ DB 'Sfx\Misc\Scurse.wav', 00H ; `string'
_DATA	ENDS
;	COMDAT ??_C@_0BF@GFPN@Sfx?2Misc?2Scurimp?4wav?$AA@
_DATA	SEGMENT
??_C@_0BF@GFPN@Sfx?2Misc?2Scurimp?4wav?$AA@ DB 'Sfx\Misc\Scurimp.wav', 00H ; `string'
_DATA	ENDS
;	COMDAT ??_C@_0BG@JJKC@Sfx?2Misc?2Sentinel?4wav?$AA@
_DATA	SEGMENT
??_C@_0BG@JJKC@Sfx?2Misc?2Sentinel?4wav?$AA@ DB 'Sfx\Misc\Sentinel.wav', 00H ; `string'
_DATA	ENDS
;	COMDAT ??_C@_0BF@PCJD@Sfx?2Misc?2Shatter?4wav?$AA@
_DATA	SEGMENT
??_C@_0BF@PCJD@Sfx?2Misc?2Shatter?4wav?$AA@ DB 'Sfx\Misc\Shatter.wav', 00H ; `string'
_DATA	ENDS
;	COMDAT ??_C@_0BG@FPEI@Sfx?2Misc?2Soulfire?4wav?$AA@
_DATA	SEGMENT
??_C@_0BG@FPEI@Sfx?2Misc?2Soulfire?4wav?$AA@ DB 'Sfx\Misc\Soulfire.wav', 00H ; `string'
_DATA	ENDS
;	COMDAT ??_C@_0BG@MPON@Sfx?2Misc?2Spoutlop?4wav?$AA@
_DATA	SEGMENT
??_C@_0BG@MPON@Sfx?2Misc?2Spoutlop?4wav?$AA@ DB 'Sfx\Misc\Spoutlop.wav', 00H ; `string'
_DATA	ENDS
;	COMDAT ??_C@_0BG@JCFL@Sfx?2Misc?2Spoutstr?4wav?$AA@
_DATA	SEGMENT
??_C@_0BG@JCFL@Sfx?2Misc?2Spoutstr?4wav?$AA@ DB 'Sfx\Misc\Spoutstr.wav', 00H ; `string'
_DATA	ENDS
;	COMDAT ??_C@_0BD@DCI@Sfx?2Misc?2Storm?4wav?$AA@
_DATA	SEGMENT
??_C@_0BD@DCI@Sfx?2Misc?2Storm?4wav?$AA@ DB 'Sfx\Misc\Storm.wav', 00H ; `string'
_DATA	ENDS
;	COMDAT ??_C@_0BF@GIMK@Sfx?2Misc?2Trapdis?4wav?$AA@
_DATA	SEGMENT
??_C@_0BF@GIMK@Sfx?2Misc?2Trapdis?4wav?$AA@ DB 'Sfx\Misc\Trapdis.wav', 00H ; `string'
_DATA	ENDS
;	COMDAT ??_C@_0BG@HFEC@Sfx?2Misc?2Teleport?4wav?$AA@
_DATA	SEGMENT
??_C@_0BG@HFEC@Sfx?2Misc?2Teleport?4wav?$AA@ DB 'Sfx\Misc\Teleport.wav', 00H ; `string'
_DATA	ENDS
;	COMDAT ??_C@_0BE@BKJG@Sfx?2Misc?2Vtheft?4wav?$AA@
_DATA	SEGMENT
??_C@_0BE@BKJG@Sfx?2Misc?2Vtheft?4wav?$AA@ DB 'Sfx\Misc\Vtheft.wav', 00H ; `string'
_DATA	ENDS
;	COMDAT ??_C@_0BG@OONK@Sfx?2Misc?2Wallloop?4wav?$AA@
_DATA	SEGMENT
??_C@_0BG@OONK@Sfx?2Misc?2Wallloop?4wav?$AA@ DB 'Sfx\Misc\Wallloop.wav', 00H ; `string'
_DATA	ENDS
;	COMDAT ??_C@_0BG@IPHB@Sfx?2Misc?2Wallstrt?4wav?$AA@
_DATA	SEGMENT
??_C@_0BG@IPHB@Sfx?2Misc?2Wallstrt?4wav?$AA@ DB 'Sfx\Misc\Wallstrt.wav', 00H ; `string'
_DATA	ENDS
;	COMDAT ??_C@_0BI@PFNG@Sfx?2Towners?2Bmaid01?4wav?$AA@
_DATA	SEGMENT
??_C@_0BI@PFNG@Sfx?2Towners?2Bmaid01?4wav?$AA@ DB 'Sfx\Towners\Bmaid01.wa'
	DB	'v', 00H					; `string'
_DATA	ENDS
;	COMDAT ??_C@_0BI@BFLJ@Sfx?2Towners?2Bmaid02?4wav?$AA@
_DATA	SEGMENT
??_C@_0BI@BFLJ@Sfx?2Towners?2Bmaid02?4wav?$AA@ DB 'Sfx\Towners\Bmaid02.wa'
	DB	'v', 00H					; `string'
_DATA	ENDS
;	COMDAT ??_C@_0BI@LFJM@Sfx?2Towners?2Bmaid03?4wav?$AA@
_DATA	SEGMENT
??_C@_0BI@LFJM@Sfx?2Towners?2Bmaid03?4wav?$AA@ DB 'Sfx\Towners\Bmaid03.wa'
	DB	'v', 00H					; `string'
_DATA	ENDS
;	COMDAT ??_C@_0BI@NFGG@Sfx?2Towners?2Bmaid04?4wav?$AA@
_DATA	SEGMENT
??_C@_0BI@NFGG@Sfx?2Towners?2Bmaid04?4wav?$AA@ DB 'Sfx\Towners\Bmaid04.wa'
	DB	'v', 00H					; `string'
_DATA	ENDS
;	COMDAT ??_C@_0BI@HFED@Sfx?2Towners?2Bmaid05?4wav?$AA@
_DATA	SEGMENT
??_C@_0BI@HFED@Sfx?2Towners?2Bmaid05?4wav?$AA@ DB 'Sfx\Towners\Bmaid05.wa'
	DB	'v', 00H					; `string'
_DATA	ENDS
;	COMDAT ??_C@_0BI@JFCM@Sfx?2Towners?2Bmaid06?4wav?$AA@
_DATA	SEGMENT
??_C@_0BI@JFCM@Sfx?2Towners?2Bmaid06?4wav?$AA@ DB 'Sfx\Towners\Bmaid06.wa'
	DB	'v', 00H					; `string'
_DATA	ENDS
;	COMDAT ??_C@_0BI@DFAJ@Sfx?2Towners?2Bmaid07?4wav?$AA@
_DATA	SEGMENT
??_C@_0BI@DFAJ@Sfx?2Towners?2Bmaid07?4wav?$AA@ DB 'Sfx\Towners\Bmaid07.wa'
	DB	'v', 00H					; `string'
_DATA	ENDS
;	COMDAT ??_C@_0BI@FENJ@Sfx?2Towners?2Bmaid08?4wav?$AA@
_DATA	SEGMENT
??_C@_0BI@FENJ@Sfx?2Towners?2Bmaid08?4wav?$AA@ DB 'Sfx\Towners\Bmaid08.wa'
	DB	'v', 00H					; `string'
_DATA	ENDS
;	COMDAT ??_C@_0BI@PEPM@Sfx?2Towners?2Bmaid09?4wav?$AA@
_DATA	SEGMENT
??_C@_0BI@PEPM@Sfx?2Towners?2Bmaid09?4wav?$AA@ DB 'Sfx\Towners\Bmaid09.wa'
	DB	'v', 00H					; `string'
_DATA	ENDS
;	COMDAT ??_C@_0BI@MAFD@Sfx?2Towners?2Bmaid10?4wav?$AA@
_DATA	SEGMENT
??_C@_0BI@MAFD@Sfx?2Towners?2Bmaid10?4wav?$AA@ DB 'Sfx\Towners\Bmaid10.wa'
	DB	'v', 00H					; `string'
_DATA	ENDS
;	COMDAT ??_C@_0BI@GAHG@Sfx?2Towners?2Bmaid11?4wav?$AA@
_DATA	SEGMENT
??_C@_0BI@GAHG@Sfx?2Towners?2Bmaid11?4wav?$AA@ DB 'Sfx\Towners\Bmaid11.wa'
	DB	'v', 00H					; `string'
_DATA	ENDS
;	COMDAT ??_C@_0BI@IABJ@Sfx?2Towners?2Bmaid12?4wav?$AA@
_DATA	SEGMENT
??_C@_0BI@IABJ@Sfx?2Towners?2Bmaid12?4wav?$AA@ DB 'Sfx\Towners\Bmaid12.wa'
	DB	'v', 00H					; `string'
_DATA	ENDS
;	COMDAT ??_C@_0BI@CADM@Sfx?2Towners?2Bmaid13?4wav?$AA@
_DATA	SEGMENT
??_C@_0BI@CADM@Sfx?2Towners?2Bmaid13?4wav?$AA@ DB 'Sfx\Towners\Bmaid13.wa'
	DB	'v', 00H					; `string'
_DATA	ENDS
;	COMDAT ??_C@_0BI@EAMG@Sfx?2Towners?2Bmaid14?4wav?$AA@
_DATA	SEGMENT
??_C@_0BI@EAMG@Sfx?2Towners?2Bmaid14?4wav?$AA@ DB 'Sfx\Towners\Bmaid14.wa'
	DB	'v', 00H					; `string'
_DATA	ENDS
;	COMDAT ??_C@_0BI@OAOD@Sfx?2Towners?2Bmaid15?4wav?$AA@
_DATA	SEGMENT
??_C@_0BI@OAOD@Sfx?2Towners?2Bmaid15?4wav?$AA@ DB 'Sfx\Towners\Bmaid15.wa'
	DB	'v', 00H					; `string'
_DATA	ENDS
;	COMDAT ??_C@_0BI@IM@Sfx?2Towners?2Bmaid16?4wav?$AA@
_DATA	SEGMENT
??_C@_0BI@IM@Sfx?2Towners?2Bmaid16?4wav?$AA@ DB 'Sfx\Towners\Bmaid16.wav', 00H ; `string'
_DATA	ENDS
;	COMDAT ??_C@_0BI@KAKJ@Sfx?2Towners?2Bmaid17?4wav?$AA@
_DATA	SEGMENT
??_C@_0BI@KAKJ@Sfx?2Towners?2Bmaid17?4wav?$AA@ DB 'Sfx\Towners\Bmaid17.wa'
	DB	'v', 00H					; `string'
_DATA	ENDS
;	COMDAT ??_C@_0BI@MBHJ@Sfx?2Towners?2Bmaid18?4wav?$AA@
_DATA	SEGMENT
??_C@_0BI@MBHJ@Sfx?2Towners?2Bmaid18?4wav?$AA@ DB 'Sfx\Towners\Bmaid18.wa'
	DB	'v', 00H					; `string'
_DATA	ENDS
;	COMDAT ??_C@_0BI@GBFM@Sfx?2Towners?2Bmaid19?4wav?$AA@
_DATA	SEGMENT
??_C@_0BI@GBFM@Sfx?2Towners?2Bmaid19?4wav?$AA@ DB 'Sfx\Towners\Bmaid19.wa'
	DB	'v', 00H					; `string'
_DATA	ENDS
;	COMDAT ??_C@_0BI@HOLD@Sfx?2Towners?2Bmaid20?4wav?$AA@
_DATA	SEGMENT
??_C@_0BI@HOLD@Sfx?2Towners?2Bmaid20?4wav?$AA@ DB 'Sfx\Towners\Bmaid20.wa'
	DB	'v', 00H					; `string'
_DATA	ENDS
;	COMDAT ??_C@_0BI@NOJG@Sfx?2Towners?2Bmaid21?4wav?$AA@
_DATA	SEGMENT
??_C@_0BI@NOJG@Sfx?2Towners?2Bmaid21?4wav?$AA@ DB 'Sfx\Towners\Bmaid21.wa'
	DB	'v', 00H					; `string'
_DATA	ENDS
;	COMDAT ??_C@_0BI@DOPJ@Sfx?2Towners?2Bmaid22?4wav?$AA@
_DATA	SEGMENT
??_C@_0BI@DOPJ@Sfx?2Towners?2Bmaid22?4wav?$AA@ DB 'Sfx\Towners\Bmaid22.wa'
	DB	'v', 00H					; `string'
_DATA	ENDS
;	COMDAT ??_C@_0BI@JONM@Sfx?2Towners?2Bmaid23?4wav?$AA@
_DATA	SEGMENT
??_C@_0BI@JONM@Sfx?2Towners?2Bmaid23?4wav?$AA@ DB 'Sfx\Towners\Bmaid23.wa'
	DB	'v', 00H					; `string'
_DATA	ENDS
;	COMDAT ??_C@_0BI@POCG@Sfx?2Towners?2Bmaid24?4wav?$AA@
_DATA	SEGMENT
??_C@_0BI@POCG@Sfx?2Towners?2Bmaid24?4wav?$AA@ DB 'Sfx\Towners\Bmaid24.wa'
	DB	'v', 00H					; `string'
_DATA	ENDS
;	COMDAT ??_C@_0BI@FOAD@Sfx?2Towners?2Bmaid25?4wav?$AA@
_DATA	SEGMENT
??_C@_0BI@FOAD@Sfx?2Towners?2Bmaid25?4wav?$AA@ DB 'Sfx\Towners\Bmaid25.wa'
	DB	'v', 00H					; `string'
_DATA	ENDS
;	COMDAT ??_C@_0BI@LOGM@Sfx?2Towners?2Bmaid26?4wav?$AA@
_DATA	SEGMENT
??_C@_0BI@LOGM@Sfx?2Towners?2Bmaid26?4wav?$AA@ DB 'Sfx\Towners\Bmaid26.wa'
	DB	'v', 00H					; `string'
_DATA	ENDS
;	COMDAT ??_C@_0BI@BOEJ@Sfx?2Towners?2Bmaid27?4wav?$AA@
_DATA	SEGMENT
??_C@_0BI@BOEJ@Sfx?2Towners?2Bmaid27?4wav?$AA@ DB 'Sfx\Towners\Bmaid27.wa'
	DB	'v', 00H					; `string'
_DATA	ENDS
;	COMDAT ??_C@_0BI@HPJJ@Sfx?2Towners?2Bmaid28?4wav?$AA@
_DATA	SEGMENT
??_C@_0BI@HPJJ@Sfx?2Towners?2Bmaid28?4wav?$AA@ DB 'Sfx\Towners\Bmaid28.wa'
	DB	'v', 00H					; `string'
_DATA	ENDS
;	COMDAT ??_C@_0BI@NPLM@Sfx?2Towners?2Bmaid29?4wav?$AA@
_DATA	SEGMENT
??_C@_0BI@NPLM@Sfx?2Towners?2Bmaid29?4wav?$AA@ DB 'Sfx\Towners\Bmaid29.wa'
	DB	'v', 00H					; `string'
_DATA	ENDS
;	COMDAT ??_C@_0BI@OLBD@Sfx?2Towners?2Bmaid30?4wav?$AA@
_DATA	SEGMENT
??_C@_0BI@OLBD@Sfx?2Towners?2Bmaid30?4wav?$AA@ DB 'Sfx\Towners\Bmaid30.wa'
	DB	'v', 00H					; `string'
_DATA	ENDS
;	COMDAT ??_C@_0BI@ELDG@Sfx?2Towners?2Bmaid31?4wav?$AA@
_DATA	SEGMENT
??_C@_0BI@ELDG@Sfx?2Towners?2Bmaid31?4wav?$AA@ DB 'Sfx\Towners\Bmaid31.wa'
	DB	'v', 00H					; `string'
_DATA	ENDS
;	COMDAT ??_C@_0BI@KLFJ@Sfx?2Towners?2Bmaid32?4wav?$AA@
_DATA	SEGMENT
??_C@_0BI@KLFJ@Sfx?2Towners?2Bmaid32?4wav?$AA@ DB 'Sfx\Towners\Bmaid32.wa'
	DB	'v', 00H					; `string'
_DATA	ENDS
;	COMDAT ??_C@_0BI@LHM@Sfx?2Towners?2Bmaid33?4wav?$AA@
_DATA	SEGMENT
??_C@_0BI@LHM@Sfx?2Towners?2Bmaid33?4wav?$AA@ DB 'Sfx\Towners\Bmaid33.wav'
	DB	00H						; `string'
_DATA	ENDS
;	COMDAT ??_C@_0BI@GLIG@Sfx?2Towners?2Bmaid34?4wav?$AA@
_DATA	SEGMENT
??_C@_0BI@GLIG@Sfx?2Towners?2Bmaid34?4wav?$AA@ DB 'Sfx\Towners\Bmaid34.wa'
	DB	'v', 00H					; `string'
_DATA	ENDS
;	COMDAT ??_C@_0BI@MLKD@Sfx?2Towners?2Bmaid35?4wav?$AA@
_DATA	SEGMENT
??_C@_0BI@MLKD@Sfx?2Towners?2Bmaid35?4wav?$AA@ DB 'Sfx\Towners\Bmaid35.wa'
	DB	'v', 00H					; `string'
_DATA	ENDS
;	COMDAT ??_C@_0BI@CLMM@Sfx?2Towners?2Bmaid36?4wav?$AA@
_DATA	SEGMENT
??_C@_0BI@CLMM@Sfx?2Towners?2Bmaid36?4wav?$AA@ DB 'Sfx\Towners\Bmaid36.wa'
	DB	'v', 00H					; `string'
_DATA	ENDS
;	COMDAT ??_C@_0BI@ILOJ@Sfx?2Towners?2Bmaid37?4wav?$AA@
_DATA	SEGMENT
??_C@_0BI@ILOJ@Sfx?2Towners?2Bmaid37?4wav?$AA@ DB 'Sfx\Towners\Bmaid37.wa'
	DB	'v', 00H					; `string'
_DATA	ENDS
;	COMDAT ??_C@_0BI@OKDJ@Sfx?2Towners?2Bmaid38?4wav?$AA@
_DATA	SEGMENT
??_C@_0BI@OKDJ@Sfx?2Towners?2Bmaid38?4wav?$AA@ DB 'Sfx\Towners\Bmaid38.wa'
	DB	'v', 00H					; `string'
_DATA	ENDS
;	COMDAT ??_C@_0BI@EKBM@Sfx?2Towners?2Bmaid39?4wav?$AA@
_DATA	SEGMENT
??_C@_0BI@EKBM@Sfx?2Towners?2Bmaid39?4wav?$AA@ DB 'Sfx\Towners\Bmaid39.wa'
	DB	'v', 00H					; `string'
_DATA	ENDS
;	COMDAT ??_C@_0BI@DHD@Sfx?2Towners?2Bmaid40?4wav?$AA@
_DATA	SEGMENT
??_C@_0BI@DHD@Sfx?2Towners?2Bmaid40?4wav?$AA@ DB 'Sfx\Towners\Bmaid40.wav'
	DB	00H						; `string'
_DATA	ENDS
;	COMDAT ??_C@_0BJ@DOLK@Sfx?2Towners?2Bsmith01?4wav?$AA@
_DATA	SEGMENT
??_C@_0BJ@DOLK@Sfx?2Towners?2Bsmith01?4wav?$AA@ DB 'Sfx\Towners\Bsmith01.'
	DB	'wav', 00H					; `string'
_DATA	ENDS
;	COMDAT ??_C@_0BJ@NONF@Sfx?2Towners?2Bsmith02?4wav?$AA@
_DATA	SEGMENT
??_C@_0BJ@NONF@Sfx?2Towners?2Bsmith02?4wav?$AA@ DB 'Sfx\Towners\Bsmith02.'
	DB	'wav', 00H					; `string'
_DATA	ENDS
;	COMDAT ??_C@_0BJ@HOPA@Sfx?2Towners?2Bsmith03?4wav?$AA@
_DATA	SEGMENT
??_C@_0BJ@HOPA@Sfx?2Towners?2Bsmith03?4wav?$AA@ DB 'Sfx\Towners\Bsmith03.'
	DB	'wav', 00H					; `string'
_DATA	ENDS
;	COMDAT ??_C@_0BJ@BOAK@Sfx?2Towners?2Bsmith04?4wav?$AA@
_DATA	SEGMENT
??_C@_0BJ@BOAK@Sfx?2Towners?2Bsmith04?4wav?$AA@ DB 'Sfx\Towners\Bsmith04.'
	DB	'wav', 00H					; `string'
_DATA	ENDS
;	COMDAT ??_C@_0BJ@LOCP@Sfx?2Towners?2Bsmith05?4wav?$AA@
_DATA	SEGMENT
??_C@_0BJ@LOCP@Sfx?2Towners?2Bsmith05?4wav?$AA@ DB 'Sfx\Towners\Bsmith05.'
	DB	'wav', 00H					; `string'
_DATA	ENDS
;	COMDAT ??_C@_0BJ@FOEA@Sfx?2Towners?2Bsmith06?4wav?$AA@
_DATA	SEGMENT
??_C@_0BJ@FOEA@Sfx?2Towners?2Bsmith06?4wav?$AA@ DB 'Sfx\Towners\Bsmith06.'
	DB	'wav', 00H					; `string'
_DATA	ENDS
;	COMDAT ??_C@_0BJ@POGF@Sfx?2Towners?2Bsmith07?4wav?$AA@
_DATA	SEGMENT
??_C@_0BJ@POGF@Sfx?2Towners?2Bsmith07?4wav?$AA@ DB 'Sfx\Towners\Bsmith07.'
	DB	'wav', 00H					; `string'
_DATA	ENDS
;	COMDAT ??_C@_0BJ@JPLF@Sfx?2Towners?2Bsmith08?4wav?$AA@
_DATA	SEGMENT
??_C@_0BJ@JPLF@Sfx?2Towners?2Bsmith08?4wav?$AA@ DB 'Sfx\Towners\Bsmith08.'
	DB	'wav', 00H					; `string'
_DATA	ENDS
;	COMDAT ??_C@_0BJ@DPJA@Sfx?2Towners?2Bsmith09?4wav?$AA@
_DATA	SEGMENT
??_C@_0BJ@DPJA@Sfx?2Towners?2Bsmith09?4wav?$AA@ DB 'Sfx\Towners\Bsmith09.'
	DB	'wav', 00H					; `string'
_DATA	ENDS
;	COMDAT ??_C@_0BJ@LDP@Sfx?2Towners?2Bsmith10?4wav?$AA@
_DATA	SEGMENT
??_C@_0BJ@LDP@Sfx?2Towners?2Bsmith10?4wav?$AA@ DB 'Sfx\Towners\Bsmith10.w'
	DB	'av', 00H					; `string'
_DATA	ENDS
;	COMDAT ??_C@_0BJ@KLBK@Sfx?2Towners?2Bsmith11?4wav?$AA@
_DATA	SEGMENT
??_C@_0BJ@KLBK@Sfx?2Towners?2Bsmith11?4wav?$AA@ DB 'Sfx\Towners\Bsmith11.'
	DB	'wav', 00H					; `string'
_DATA	ENDS
;	COMDAT ??_C@_0BJ@ELHF@Sfx?2Towners?2Bsmith12?4wav?$AA@
_DATA	SEGMENT
??_C@_0BJ@ELHF@Sfx?2Towners?2Bsmith12?4wav?$AA@ DB 'Sfx\Towners\Bsmith12.'
	DB	'wav', 00H					; `string'
_DATA	ENDS
;	COMDAT ??_C@_0BJ@OLFA@Sfx?2Towners?2Bsmith13?4wav?$AA@
_DATA	SEGMENT
??_C@_0BJ@OLFA@Sfx?2Towners?2Bsmith13?4wav?$AA@ DB 'Sfx\Towners\Bsmith13.'
	DB	'wav', 00H					; `string'
_DATA	ENDS
;	COMDAT ??_C@_0BJ@ILKK@Sfx?2Towners?2Bsmith14?4wav?$AA@
_DATA	SEGMENT
??_C@_0BJ@ILKK@Sfx?2Towners?2Bsmith14?4wav?$AA@ DB 'Sfx\Towners\Bsmith14.'
	DB	'wav', 00H					; `string'
_DATA	ENDS
;	COMDAT ??_C@_0BJ@CLIP@Sfx?2Towners?2Bsmith15?4wav?$AA@
_DATA	SEGMENT
??_C@_0BJ@CLIP@Sfx?2Towners?2Bsmith15?4wav?$AA@ DB 'Sfx\Towners\Bsmith15.'
	DB	'wav', 00H					; `string'
_DATA	ENDS
;	COMDAT ??_C@_0BJ@MLOA@Sfx?2Towners?2Bsmith16?4wav?$AA@
_DATA	SEGMENT
??_C@_0BJ@MLOA@Sfx?2Towners?2Bsmith16?4wav?$AA@ DB 'Sfx\Towners\Bsmith16.'
	DB	'wav', 00H					; `string'
_DATA	ENDS
;	COMDAT ??_C@_0BJ@GLMF@Sfx?2Towners?2Bsmith17?4wav?$AA@
_DATA	SEGMENT
??_C@_0BJ@GLMF@Sfx?2Towners?2Bsmith17?4wav?$AA@ DB 'Sfx\Towners\Bsmith17.'
	DB	'wav', 00H					; `string'
_DATA	ENDS
;	COMDAT ??_C@_0BJ@KBF@Sfx?2Towners?2Bsmith18?4wav?$AA@
_DATA	SEGMENT
??_C@_0BJ@KBF@Sfx?2Towners?2Bsmith18?4wav?$AA@ DB 'Sfx\Towners\Bsmith18.w'
	DB	'av', 00H					; `string'
_DATA	ENDS
;	COMDAT ??_C@_0BJ@KKDA@Sfx?2Towners?2Bsmith19?4wav?$AA@
_DATA	SEGMENT
??_C@_0BJ@KKDA@Sfx?2Towners?2Bsmith19?4wav?$AA@ DB 'Sfx\Towners\Bsmith19.'
	DB	'wav', 00H					; `string'
_DATA	ENDS
;	COMDAT ??_C@_0BJ@LFNP@Sfx?2Towners?2Bsmith20?4wav?$AA@
_DATA	SEGMENT
??_C@_0BJ@LFNP@Sfx?2Towners?2Bsmith20?4wav?$AA@ DB 'Sfx\Towners\Bsmith20.'
	DB	'wav', 00H					; `string'
_DATA	ENDS
;	COMDAT ??_C@_0BJ@BFPK@Sfx?2Towners?2Bsmith21?4wav?$AA@
_DATA	SEGMENT
??_C@_0BJ@BFPK@Sfx?2Towners?2Bsmith21?4wav?$AA@ DB 'Sfx\Towners\Bsmith21.'
	DB	'wav', 00H					; `string'
_DATA	ENDS
;	COMDAT ??_C@_0BJ@PFJF@Sfx?2Towners?2Bsmith22?4wav?$AA@
_DATA	SEGMENT
??_C@_0BJ@PFJF@Sfx?2Towners?2Bsmith22?4wav?$AA@ DB 'Sfx\Towners\Bsmith22.'
	DB	'wav', 00H					; `string'
_DATA	ENDS
;	COMDAT ??_C@_0BJ@FFLA@Sfx?2Towners?2Bsmith23?4wav?$AA@
_DATA	SEGMENT
??_C@_0BJ@FFLA@Sfx?2Towners?2Bsmith23?4wav?$AA@ DB 'Sfx\Towners\Bsmith23.'
	DB	'wav', 00H					; `string'
_DATA	ENDS
;	COMDAT ??_C@_0BJ@DFEK@Sfx?2Towners?2Bsmith24?4wav?$AA@
_DATA	SEGMENT
??_C@_0BJ@DFEK@Sfx?2Towners?2Bsmith24?4wav?$AA@ DB 'Sfx\Towners\Bsmith24.'
	DB	'wav', 00H					; `string'
_DATA	ENDS
;	COMDAT ??_C@_0BJ@JFGP@Sfx?2Towners?2Bsmith25?4wav?$AA@
_DATA	SEGMENT
??_C@_0BJ@JFGP@Sfx?2Towners?2Bsmith25?4wav?$AA@ DB 'Sfx\Towners\Bsmith25.'
	DB	'wav', 00H					; `string'
_DATA	ENDS
;	COMDAT ??_C@_0BJ@HFAA@Sfx?2Towners?2Bsmith26?4wav?$AA@
_DATA	SEGMENT
??_C@_0BJ@HFAA@Sfx?2Towners?2Bsmith26?4wav?$AA@ DB 'Sfx\Towners\Bsmith26.'
	DB	'wav', 00H					; `string'
_DATA	ENDS
;	COMDAT ??_C@_0BJ@NFCF@Sfx?2Towners?2Bsmith27?4wav?$AA@
_DATA	SEGMENT
??_C@_0BJ@NFCF@Sfx?2Towners?2Bsmith27?4wav?$AA@ DB 'Sfx\Towners\Bsmith27.'
	DB	'wav', 00H					; `string'
_DATA	ENDS
;	COMDAT ??_C@_0BJ@LEPF@Sfx?2Towners?2Bsmith28?4wav?$AA@
_DATA	SEGMENT
??_C@_0BJ@LEPF@Sfx?2Towners?2Bsmith28?4wav?$AA@ DB 'Sfx\Towners\Bsmith28.'
	DB	'wav', 00H					; `string'
_DATA	ENDS
;	COMDAT ??_C@_0BJ@BENA@Sfx?2Towners?2Bsmith29?4wav?$AA@
_DATA	SEGMENT
??_C@_0BJ@BENA@Sfx?2Towners?2Bsmith29?4wav?$AA@ DB 'Sfx\Towners\Bsmith29.'
	DB	'wav', 00H					; `string'
_DATA	ENDS
;	COMDAT ??_C@_0BJ@CAHP@Sfx?2Towners?2Bsmith30?4wav?$AA@
_DATA	SEGMENT
??_C@_0BJ@CAHP@Sfx?2Towners?2Bsmith30?4wav?$AA@ DB 'Sfx\Towners\Bsmith30.'
	DB	'wav', 00H					; `string'
_DATA	ENDS
;	COMDAT ??_C@_0BJ@IAFK@Sfx?2Towners?2Bsmith31?4wav?$AA@
_DATA	SEGMENT
??_C@_0BJ@IAFK@Sfx?2Towners?2Bsmith31?4wav?$AA@ DB 'Sfx\Towners\Bsmith31.'
	DB	'wav', 00H					; `string'
_DATA	ENDS
;	COMDAT ??_C@_0BJ@GADF@Sfx?2Towners?2Bsmith32?4wav?$AA@
_DATA	SEGMENT
??_C@_0BJ@GADF@Sfx?2Towners?2Bsmith32?4wav?$AA@ DB 'Sfx\Towners\Bsmith32.'
	DB	'wav', 00H					; `string'
_DATA	ENDS
;	COMDAT ??_C@_0BJ@MABA@Sfx?2Towners?2Bsmith33?4wav?$AA@
_DATA	SEGMENT
??_C@_0BJ@MABA@Sfx?2Towners?2Bsmith33?4wav?$AA@ DB 'Sfx\Towners\Bsmith33.'
	DB	'wav', 00H					; `string'
_DATA	ENDS
;	COMDAT ??_C@_0BJ@KAOK@Sfx?2Towners?2Bsmith34?4wav?$AA@
_DATA	SEGMENT
??_C@_0BJ@KAOK@Sfx?2Towners?2Bsmith34?4wav?$AA@ DB 'Sfx\Towners\Bsmith34.'
	DB	'wav', 00H					; `string'
_DATA	ENDS
;	COMDAT ??_C@_0BJ@MP@Sfx?2Towners?2Bsmith35?4wav?$AA@
_DATA	SEGMENT
??_C@_0BJ@MP@Sfx?2Towners?2Bsmith35?4wav?$AA@ DB 'Sfx\Towners\Bsmith35.wa'
	DB	'v', 00H					; `string'
_DATA	ENDS
;	COMDAT ??_C@_0BJ@OAKA@Sfx?2Towners?2Bsmith36?4wav?$AA@
_DATA	SEGMENT
??_C@_0BJ@OAKA@Sfx?2Towners?2Bsmith36?4wav?$AA@ DB 'Sfx\Towners\Bsmith36.'
	DB	'wav', 00H					; `string'
_DATA	ENDS
;	COMDAT ??_C@_0BJ@EAIF@Sfx?2Towners?2Bsmith37?4wav?$AA@
_DATA	SEGMENT
??_C@_0BJ@EAIF@Sfx?2Towners?2Bsmith37?4wav?$AA@ DB 'Sfx\Towners\Bsmith37.'
	DB	'wav', 00H					; `string'
_DATA	ENDS
;	COMDAT ??_C@_0BJ@CBFF@Sfx?2Towners?2Bsmith38?4wav?$AA@
_DATA	SEGMENT
??_C@_0BJ@CBFF@Sfx?2Towners?2Bsmith38?4wav?$AA@ DB 'Sfx\Towners\Bsmith38.'
	DB	'wav', 00H					; `string'
_DATA	ENDS
;	COMDAT ??_C@_0BJ@IBHA@Sfx?2Towners?2Bsmith39?4wav?$AA@
_DATA	SEGMENT
??_C@_0BJ@IBHA@Sfx?2Towners?2Bsmith39?4wav?$AA@ DB 'Sfx\Towners\Bsmith39.'
	DB	'wav', 00H					; `string'
_DATA	ENDS
;	COMDAT ??_C@_0BJ@MIBP@Sfx?2Towners?2Bsmith40?4wav?$AA@
_DATA	SEGMENT
??_C@_0BJ@MIBP@Sfx?2Towners?2Bsmith40?4wav?$AA@ DB 'Sfx\Towners\Bsmith40.'
	DB	'wav', 00H					; `string'
_DATA	ENDS
;	COMDAT ??_C@_0BJ@GIDK@Sfx?2Towners?2Bsmith41?4wav?$AA@
_DATA	SEGMENT
??_C@_0BJ@GIDK@Sfx?2Towners?2Bsmith41?4wav?$AA@ DB 'Sfx\Towners\Bsmith41.'
	DB	'wav', 00H					; `string'
_DATA	ENDS
;	COMDAT ??_C@_0BJ@IIFF@Sfx?2Towners?2Bsmith42?4wav?$AA@
_DATA	SEGMENT
??_C@_0BJ@IIFF@Sfx?2Towners?2Bsmith42?4wav?$AA@ DB 'Sfx\Towners\Bsmith42.'
	DB	'wav', 00H					; `string'
_DATA	ENDS
;	COMDAT ??_C@_0BJ@CIHA@Sfx?2Towners?2Bsmith43?4wav?$AA@
_DATA	SEGMENT
??_C@_0BJ@CIHA@Sfx?2Towners?2Bsmith43?4wav?$AA@ DB 'Sfx\Towners\Bsmith43.'
	DB	'wav', 00H					; `string'
_DATA	ENDS
;	COMDAT ??_C@_0BJ@EIIK@Sfx?2Towners?2Bsmith44?4wav?$AA@
_DATA	SEGMENT
??_C@_0BJ@EIIK@Sfx?2Towners?2Bsmith44?4wav?$AA@ DB 'Sfx\Towners\Bsmith44.'
	DB	'wav', 00H					; `string'
_DATA	ENDS
;	COMDAT ??_C@_0BJ@OIKP@Sfx?2Towners?2Bsmith45?4wav?$AA@
_DATA	SEGMENT
??_C@_0BJ@OIKP@Sfx?2Towners?2Bsmith45?4wav?$AA@ DB 'Sfx\Towners\Bsmith45.'
	DB	'wav', 00H					; `string'
_DATA	ENDS
;	COMDAT ??_C@_0BJ@IMA@Sfx?2Towners?2Bsmith46?4wav?$AA@
_DATA	SEGMENT
??_C@_0BJ@IMA@Sfx?2Towners?2Bsmith46?4wav?$AA@ DB 'Sfx\Towners\Bsmith46.w'
	DB	'av', 00H					; `string'
_DATA	ENDS
;	COMDAT ??_C@_0BJ@KIOF@Sfx?2Towners?2Bsmith47?4wav?$AA@
_DATA	SEGMENT
??_C@_0BJ@KIOF@Sfx?2Towners?2Bsmith47?4wav?$AA@ DB 'Sfx\Towners\Bsmith47.'
	DB	'wav', 00H					; `string'
_DATA	ENDS
;	COMDAT ??_C@_0BJ@MJDF@Sfx?2Towners?2Bsmith48?4wav?$AA@
_DATA	SEGMENT
??_C@_0BJ@MJDF@Sfx?2Towners?2Bsmith48?4wav?$AA@ DB 'Sfx\Towners\Bsmith48.'
	DB	'wav', 00H					; `string'
_DATA	ENDS
;	COMDAT ??_C@_0BJ@GJBA@Sfx?2Towners?2Bsmith49?4wav?$AA@
_DATA	SEGMENT
??_C@_0BJ@GJBA@Sfx?2Towners?2Bsmith49?4wav?$AA@ DB 'Sfx\Towners\Bsmith49.'
	DB	'wav', 00H					; `string'
_DATA	ENDS
;	COMDAT ??_C@_0BJ@FNLP@Sfx?2Towners?2Bsmith50?4wav?$AA@
_DATA	SEGMENT
??_C@_0BJ@FNLP@Sfx?2Towners?2Bsmith50?4wav?$AA@ DB 'Sfx\Towners\Bsmith50.'
	DB	'wav', 00H					; `string'
_DATA	ENDS
;	COMDAT ??_C@_0BJ@PNJK@Sfx?2Towners?2Bsmith51?4wav?$AA@
_DATA	SEGMENT
??_C@_0BJ@PNJK@Sfx?2Towners?2Bsmith51?4wav?$AA@ DB 'Sfx\Towners\Bsmith51.'
	DB	'wav', 00H					; `string'
_DATA	ENDS
;	COMDAT ??_C@_0BJ@BNPF@Sfx?2Towners?2Bsmith52?4wav?$AA@
_DATA	SEGMENT
??_C@_0BJ@BNPF@Sfx?2Towners?2Bsmith52?4wav?$AA@ DB 'Sfx\Towners\Bsmith52.'
	DB	'wav', 00H					; `string'
_DATA	ENDS
;	COMDAT ??_C@_0BJ@LNNA@Sfx?2Towners?2Bsmith53?4wav?$AA@
_DATA	SEGMENT
??_C@_0BJ@LNNA@Sfx?2Towners?2Bsmith53?4wav?$AA@ DB 'Sfx\Towners\Bsmith53.'
	DB	'wav', 00H					; `string'
_DATA	ENDS
;	COMDAT ??_C@_0BJ@NNCK@Sfx?2Towners?2Bsmith54?4wav?$AA@
_DATA	SEGMENT
??_C@_0BJ@NNCK@Sfx?2Towners?2Bsmith54?4wav?$AA@ DB 'Sfx\Towners\Bsmith54.'
	DB	'wav', 00H					; `string'
_DATA	ENDS
;	COMDAT ??_C@_0BJ@HNAP@Sfx?2Towners?2Bsmith55?4wav?$AA@
_DATA	SEGMENT
??_C@_0BJ@HNAP@Sfx?2Towners?2Bsmith55?4wav?$AA@ DB 'Sfx\Towners\Bsmith55.'
	DB	'wav', 00H					; `string'
_DATA	ENDS
;	COMDAT ??_C@_0BJ@JNGA@Sfx?2Towners?2Bsmith56?4wav?$AA@
_DATA	SEGMENT
??_C@_0BJ@JNGA@Sfx?2Towners?2Bsmith56?4wav?$AA@ DB 'Sfx\Towners\Bsmith56.'
	DB	'wav', 00H					; `string'
_DATA	ENDS
;	COMDAT ??_C@_0BF@CFHD@Sfx?2Towners?2Cow1?4wav?$AA@
_DATA	SEGMENT
??_C@_0BF@CFHD@Sfx?2Towners?2Cow1?4wav?$AA@ DB 'Sfx\Towners\Cow1.wav', 00H ; `string'
_DATA	ENDS
;	COMDAT ??_C@_0BF@MFBM@Sfx?2Towners?2Cow2?4wav?$AA@
_DATA	SEGMENT
??_C@_0BF@MFBM@Sfx?2Towners?2Cow2?4wav?$AA@ DB 'Sfx\Towners\Cow2.wav', 00H ; `string'
_DATA	ENDS
;	COMDAT ??_C@_0BJ@POEC@Sfx?2Towners?2Deadguy2?4wav?$AA@
_DATA	SEGMENT
??_C@_0BJ@POEC@Sfx?2Towners?2Deadguy2?4wav?$AA@ DB 'Sfx\Towners\Deadguy2.'
	DB	'wav', 00H					; `string'
_DATA	ENDS
;	COMDAT ??_C@_0BI@MPKB@Sfx?2Towners?2Drunk01?4wav?$AA@
_DATA	SEGMENT
??_C@_0BI@MPKB@Sfx?2Towners?2Drunk01?4wav?$AA@ DB 'Sfx\Towners\Drunk01.wa'
	DB	'v', 00H					; `string'
_DATA	ENDS
;	COMDAT ??_C@_0BI@CPMO@Sfx?2Towners?2Drunk02?4wav?$AA@
_DATA	SEGMENT
??_C@_0BI@CPMO@Sfx?2Towners?2Drunk02?4wav?$AA@ DB 'Sfx\Towners\Drunk02.wa'
	DB	'v', 00H					; `string'
_DATA	ENDS
;	COMDAT ??_C@_0BI@IPOL@Sfx?2Towners?2Drunk03?4wav?$AA@
_DATA	SEGMENT
??_C@_0BI@IPOL@Sfx?2Towners?2Drunk03?4wav?$AA@ DB 'Sfx\Towners\Drunk03.wa'
	DB	'v', 00H					; `string'
_DATA	ENDS
;	COMDAT ??_C@_0BI@OPBB@Sfx?2Towners?2Drunk04?4wav?$AA@
_DATA	SEGMENT
??_C@_0BI@OPBB@Sfx?2Towners?2Drunk04?4wav?$AA@ DB 'Sfx\Towners\Drunk04.wa'
	DB	'v', 00H					; `string'
_DATA	ENDS
;	COMDAT ??_C@_0BI@EPDE@Sfx?2Towners?2Drunk05?4wav?$AA@
_DATA	SEGMENT
??_C@_0BI@EPDE@Sfx?2Towners?2Drunk05?4wav?$AA@ DB 'Sfx\Towners\Drunk05.wa'
	DB	'v', 00H					; `string'
_DATA	ENDS
;	COMDAT ??_C@_0BI@KPFL@Sfx?2Towners?2Drunk06?4wav?$AA@
_DATA	SEGMENT
??_C@_0BI@KPFL@Sfx?2Towners?2Drunk06?4wav?$AA@ DB 'Sfx\Towners\Drunk06.wa'
	DB	'v', 00H					; `string'
_DATA	ENDS
;	COMDAT ??_C@_0BI@PHO@Sfx?2Towners?2Drunk07?4wav?$AA@
_DATA	SEGMENT
??_C@_0BI@PHO@Sfx?2Towners?2Drunk07?4wav?$AA@ DB 'Sfx\Towners\Drunk07.wav'
	DB	00H						; `string'
_DATA	ENDS
;	COMDAT ??_C@_0BI@GOKO@Sfx?2Towners?2Drunk08?4wav?$AA@
_DATA	SEGMENT
??_C@_0BI@GOKO@Sfx?2Towners?2Drunk08?4wav?$AA@ DB 'Sfx\Towners\Drunk08.wa'
	DB	'v', 00H					; `string'
_DATA	ENDS
;	COMDAT ??_C@_0BI@MOIL@Sfx?2Towners?2Drunk09?4wav?$AA@
_DATA	SEGMENT
??_C@_0BI@MOIL@Sfx?2Towners?2Drunk09?4wav?$AA@ DB 'Sfx\Towners\Drunk09.wa'
	DB	'v', 00H					; `string'
_DATA	ENDS
;	COMDAT ??_C@_0BI@PKCE@Sfx?2Towners?2Drunk10?4wav?$AA@
_DATA	SEGMENT
??_C@_0BI@PKCE@Sfx?2Towners?2Drunk10?4wav?$AA@ DB 'Sfx\Towners\Drunk10.wa'
	DB	'v', 00H					; `string'
_DATA	ENDS
;	COMDAT ??_C@_0BI@FKAB@Sfx?2Towners?2Drunk11?4wav?$AA@
_DATA	SEGMENT
??_C@_0BI@FKAB@Sfx?2Towners?2Drunk11?4wav?$AA@ DB 'Sfx\Towners\Drunk11.wa'
	DB	'v', 00H					; `string'
_DATA	ENDS
;	COMDAT ??_C@_0BI@LKGO@Sfx?2Towners?2Drunk12?4wav?$AA@
_DATA	SEGMENT
??_C@_0BI@LKGO@Sfx?2Towners?2Drunk12?4wav?$AA@ DB 'Sfx\Towners\Drunk12.wa'
	DB	'v', 00H					; `string'
_DATA	ENDS
;	COMDAT ??_C@_0BI@BKEL@Sfx?2Towners?2Drunk13?4wav?$AA@
_DATA	SEGMENT
??_C@_0BI@BKEL@Sfx?2Towners?2Drunk13?4wav?$AA@ DB 'Sfx\Towners\Drunk13.wa'
	DB	'v', 00H					; `string'
_DATA	ENDS
;	COMDAT ??_C@_0BI@HKLB@Sfx?2Towners?2Drunk14?4wav?$AA@
_DATA	SEGMENT
??_C@_0BI@HKLB@Sfx?2Towners?2Drunk14?4wav?$AA@ DB 'Sfx\Towners\Drunk14.wa'
	DB	'v', 00H					; `string'
_DATA	ENDS
;	COMDAT ??_C@_0BI@NKJE@Sfx?2Towners?2Drunk15?4wav?$AA@
_DATA	SEGMENT
??_C@_0BI@NKJE@Sfx?2Towners?2Drunk15?4wav?$AA@ DB 'Sfx\Towners\Drunk15.wa'
	DB	'v', 00H					; `string'
_DATA	ENDS
;	COMDAT ??_C@_0BI@DKPL@Sfx?2Towners?2Drunk16?4wav?$AA@
_DATA	SEGMENT
??_C@_0BI@DKPL@Sfx?2Towners?2Drunk16?4wav?$AA@ DB 'Sfx\Towners\Drunk16.wa'
	DB	'v', 00H					; `string'
_DATA	ENDS
;	COMDAT ??_C@_0BI@JKNO@Sfx?2Towners?2Drunk17?4wav?$AA@
_DATA	SEGMENT
??_C@_0BI@JKNO@Sfx?2Towners?2Drunk17?4wav?$AA@ DB 'Sfx\Towners\Drunk17.wa'
	DB	'v', 00H					; `string'
_DATA	ENDS
;	COMDAT ??_C@_0BI@PLAO@Sfx?2Towners?2Drunk18?4wav?$AA@
_DATA	SEGMENT
??_C@_0BI@PLAO@Sfx?2Towners?2Drunk18?4wav?$AA@ DB 'Sfx\Towners\Drunk18.wa'
	DB	'v', 00H					; `string'
_DATA	ENDS
;	COMDAT ??_C@_0BI@FLCL@Sfx?2Towners?2Drunk19?4wav?$AA@
_DATA	SEGMENT
??_C@_0BI@FLCL@Sfx?2Towners?2Drunk19?4wav?$AA@ DB 'Sfx\Towners\Drunk19.wa'
	DB	'v', 00H					; `string'
_DATA	ENDS
;	COMDAT ??_C@_0BI@EEME@Sfx?2Towners?2Drunk20?4wav?$AA@
_DATA	SEGMENT
??_C@_0BI@EEME@Sfx?2Towners?2Drunk20?4wav?$AA@ DB 'Sfx\Towners\Drunk20.wa'
	DB	'v', 00H					; `string'
_DATA	ENDS
;	COMDAT ??_C@_0BI@OEOB@Sfx?2Towners?2Drunk21?4wav?$AA@
_DATA	SEGMENT
??_C@_0BI@OEOB@Sfx?2Towners?2Drunk21?4wav?$AA@ DB 'Sfx\Towners\Drunk21.wa'
	DB	'v', 00H					; `string'
_DATA	ENDS
;	COMDAT ??_C@_0BI@EIO@Sfx?2Towners?2Drunk22?4wav?$AA@
_DATA	SEGMENT
??_C@_0BI@EIO@Sfx?2Towners?2Drunk22?4wav?$AA@ DB 'Sfx\Towners\Drunk22.wav'
	DB	00H						; `string'
_DATA	ENDS
;	COMDAT ??_C@_0BI@KEKL@Sfx?2Towners?2Drunk23?4wav?$AA@
_DATA	SEGMENT
??_C@_0BI@KEKL@Sfx?2Towners?2Drunk23?4wav?$AA@ DB 'Sfx\Towners\Drunk23.wa'
	DB	'v', 00H					; `string'
_DATA	ENDS
;	COMDAT ??_C@_0BI@MEFB@Sfx?2Towners?2Drunk24?4wav?$AA@
_DATA	SEGMENT
??_C@_0BI@MEFB@Sfx?2Towners?2Drunk24?4wav?$AA@ DB 'Sfx\Towners\Drunk24.wa'
	DB	'v', 00H					; `string'
_DATA	ENDS
;	COMDAT ??_C@_0BI@GEHE@Sfx?2Towners?2Drunk25?4wav?$AA@
_DATA	SEGMENT
??_C@_0BI@GEHE@Sfx?2Towners?2Drunk25?4wav?$AA@ DB 'Sfx\Towners\Drunk25.wa'
	DB	'v', 00H					; `string'
_DATA	ENDS
;	COMDAT ??_C@_0BI@IEBL@Sfx?2Towners?2Drunk26?4wav?$AA@
_DATA	SEGMENT
??_C@_0BI@IEBL@Sfx?2Towners?2Drunk26?4wav?$AA@ DB 'Sfx\Towners\Drunk26.wa'
	DB	'v', 00H					; `string'
_DATA	ENDS
;	COMDAT ??_C@_0BI@CEDO@Sfx?2Towners?2Drunk27?4wav?$AA@
_DATA	SEGMENT
??_C@_0BI@CEDO@Sfx?2Towners?2Drunk27?4wav?$AA@ DB 'Sfx\Towners\Drunk27.wa'
	DB	'v', 00H					; `string'
_DATA	ENDS
;	COMDAT ??_C@_0BI@EFOO@Sfx?2Towners?2Drunk28?4wav?$AA@
_DATA	SEGMENT
??_C@_0BI@EFOO@Sfx?2Towners?2Drunk28?4wav?$AA@ DB 'Sfx\Towners\Drunk28.wa'
	DB	'v', 00H					; `string'
_DATA	ENDS
;	COMDAT ??_C@_0BI@OFML@Sfx?2Towners?2Drunk29?4wav?$AA@
_DATA	SEGMENT
??_C@_0BI@OFML@Sfx?2Towners?2Drunk29?4wav?$AA@ DB 'Sfx\Towners\Drunk29.wa'
	DB	'v', 00H					; `string'
_DATA	ENDS
;	COMDAT ??_C@_0BI@NBGE@Sfx?2Towners?2Drunk30?4wav?$AA@
_DATA	SEGMENT
??_C@_0BI@NBGE@Sfx?2Towners?2Drunk30?4wav?$AA@ DB 'Sfx\Towners\Drunk30.wa'
	DB	'v', 00H					; `string'
_DATA	ENDS
;	COMDAT ??_C@_0BI@HBEB@Sfx?2Towners?2Drunk31?4wav?$AA@
_DATA	SEGMENT
??_C@_0BI@HBEB@Sfx?2Towners?2Drunk31?4wav?$AA@ DB 'Sfx\Towners\Drunk31.wa'
	DB	'v', 00H					; `string'
_DATA	ENDS
;	COMDAT ??_C@_0BI@JBCO@Sfx?2Towners?2Drunk32?4wav?$AA@
_DATA	SEGMENT
??_C@_0BI@JBCO@Sfx?2Towners?2Drunk32?4wav?$AA@ DB 'Sfx\Towners\Drunk32.wa'
	DB	'v', 00H					; `string'
_DATA	ENDS
;	COMDAT ??_C@_0BI@DBAL@Sfx?2Towners?2Drunk33?4wav?$AA@
_DATA	SEGMENT
??_C@_0BI@DBAL@Sfx?2Towners?2Drunk33?4wav?$AA@ DB 'Sfx\Towners\Drunk33.wa'
	DB	'v', 00H					; `string'
_DATA	ENDS
;	COMDAT ??_C@_0BI@FBPB@Sfx?2Towners?2Drunk34?4wav?$AA@
_DATA	SEGMENT
??_C@_0BI@FBPB@Sfx?2Towners?2Drunk34?4wav?$AA@ DB 'Sfx\Towners\Drunk34.wa'
	DB	'v', 00H					; `string'
_DATA	ENDS
;	COMDAT ??_C@_0BI@PBNE@Sfx?2Towners?2Drunk35?4wav?$AA@
_DATA	SEGMENT
??_C@_0BI@PBNE@Sfx?2Towners?2Drunk35?4wav?$AA@ DB 'Sfx\Towners\Drunk35.wa'
	DB	'v', 00H					; `string'
_DATA	ENDS
;	COMDAT ??_C@_0BJ@NNIP@Sfx?2Towners?2Healer01?4wav?$AA@
_DATA	SEGMENT
??_C@_0BJ@NNIP@Sfx?2Towners?2Healer01?4wav?$AA@ DB 'Sfx\Towners\Healer01.'
	DB	'wav', 00H					; `string'
_DATA	ENDS
;	COMDAT ??_C@_0BJ@DNOA@Sfx?2Towners?2Healer02?4wav?$AA@
_DATA	SEGMENT
??_C@_0BJ@DNOA@Sfx?2Towners?2Healer02?4wav?$AA@ DB 'Sfx\Towners\Healer02.'
	DB	'wav', 00H					; `string'
_DATA	ENDS
;	COMDAT ??_C@_0BJ@JNMF@Sfx?2Towners?2Healer03?4wav?$AA@
_DATA	SEGMENT
??_C@_0BJ@JNMF@Sfx?2Towners?2Healer03?4wav?$AA@ DB 'Sfx\Towners\Healer03.'
	DB	'wav', 00H					; `string'
_DATA	ENDS
;	COMDAT ??_C@_0BJ@PNDP@Sfx?2Towners?2Healer04?4wav?$AA@
_DATA	SEGMENT
??_C@_0BJ@PNDP@Sfx?2Towners?2Healer04?4wav?$AA@ DB 'Sfx\Towners\Healer04.'
	DB	'wav', 00H					; `string'
_DATA	ENDS
;	COMDAT ??_C@_0BJ@FNBK@Sfx?2Towners?2Healer05?4wav?$AA@
_DATA	SEGMENT
??_C@_0BJ@FNBK@Sfx?2Towners?2Healer05?4wav?$AA@ DB 'Sfx\Towners\Healer05.'
	DB	'wav', 00H					; `string'
_DATA	ENDS
;	COMDAT ??_C@_0BJ@LNHF@Sfx?2Towners?2Healer06?4wav?$AA@
_DATA	SEGMENT
??_C@_0BJ@LNHF@Sfx?2Towners?2Healer06?4wav?$AA@ DB 'Sfx\Towners\Healer06.'
	DB	'wav', 00H					; `string'
_DATA	ENDS
;	COMDAT ??_C@_0BJ@BNFA@Sfx?2Towners?2Healer07?4wav?$AA@
_DATA	SEGMENT
??_C@_0BJ@BNFA@Sfx?2Towners?2Healer07?4wav?$AA@ DB 'Sfx\Towners\Healer07.'
	DB	'wav', 00H					; `string'
_DATA	ENDS
;	COMDAT ??_C@_0BJ@HMIA@Sfx?2Towners?2Healer08?4wav?$AA@
_DATA	SEGMENT
??_C@_0BJ@HMIA@Sfx?2Towners?2Healer08?4wav?$AA@ DB 'Sfx\Towners\Healer08.'
	DB	'wav', 00H					; `string'
_DATA	ENDS
;	COMDAT ??_C@_0BJ@NMKF@Sfx?2Towners?2Healer09?4wav?$AA@
_DATA	SEGMENT
??_C@_0BJ@NMKF@Sfx?2Towners?2Healer09?4wav?$AA@ DB 'Sfx\Towners\Healer09.'
	DB	'wav', 00H					; `string'
_DATA	ENDS
;	COMDAT ??_C@_0BJ@OIAK@Sfx?2Towners?2Healer10?4wav?$AA@
_DATA	SEGMENT
??_C@_0BJ@OIAK@Sfx?2Towners?2Healer10?4wav?$AA@ DB 'Sfx\Towners\Healer10.'
	DB	'wav', 00H					; `string'
_DATA	ENDS
;	COMDAT ??_C@_0BJ@EICP@Sfx?2Towners?2Healer11?4wav?$AA@
_DATA	SEGMENT
??_C@_0BJ@EICP@Sfx?2Towners?2Healer11?4wav?$AA@ DB 'Sfx\Towners\Healer11.'
	DB	'wav', 00H					; `string'
_DATA	ENDS
;	COMDAT ??_C@_0BJ@KIEA@Sfx?2Towners?2Healer12?4wav?$AA@
_DATA	SEGMENT
??_C@_0BJ@KIEA@Sfx?2Towners?2Healer12?4wav?$AA@ DB 'Sfx\Towners\Healer12.'
	DB	'wav', 00H					; `string'
_DATA	ENDS
;	COMDAT ??_C@_0BJ@IGF@Sfx?2Towners?2Healer13?4wav?$AA@
_DATA	SEGMENT
??_C@_0BJ@IGF@Sfx?2Towners?2Healer13?4wav?$AA@ DB 'Sfx\Towners\Healer13.w'
	DB	'av', 00H					; `string'
_DATA	ENDS
;	COMDAT ??_C@_0BJ@GIJP@Sfx?2Towners?2Healer14?4wav?$AA@
_DATA	SEGMENT
??_C@_0BJ@GIJP@Sfx?2Towners?2Healer14?4wav?$AA@ DB 'Sfx\Towners\Healer14.'
	DB	'wav', 00H					; `string'
_DATA	ENDS
;	COMDAT ??_C@_0BJ@MILK@Sfx?2Towners?2Healer15?4wav?$AA@
_DATA	SEGMENT
??_C@_0BJ@MILK@Sfx?2Towners?2Healer15?4wav?$AA@ DB 'Sfx\Towners\Healer15.'
	DB	'wav', 00H					; `string'
_DATA	ENDS
;	COMDAT ??_C@_0BJ@CINF@Sfx?2Towners?2Healer16?4wav?$AA@
_DATA	SEGMENT
??_C@_0BJ@CINF@Sfx?2Towners?2Healer16?4wav?$AA@ DB 'Sfx\Towners\Healer16.'
	DB	'wav', 00H					; `string'
_DATA	ENDS
;	COMDAT ??_C@_0BJ@IIPA@Sfx?2Towners?2Healer17?4wav?$AA@
_DATA	SEGMENT
??_C@_0BJ@IIPA@Sfx?2Towners?2Healer17?4wav?$AA@ DB 'Sfx\Towners\Healer17.'
	DB	'wav', 00H					; `string'
_DATA	ENDS
;	COMDAT ??_C@_0BJ@OJCA@Sfx?2Towners?2Healer18?4wav?$AA@
_DATA	SEGMENT
??_C@_0BJ@OJCA@Sfx?2Towners?2Healer18?4wav?$AA@ DB 'Sfx\Towners\Healer18.'
	DB	'wav', 00H					; `string'
_DATA	ENDS
;	COMDAT ??_C@_0BJ@EJAF@Sfx?2Towners?2Healer19?4wav?$AA@
_DATA	SEGMENT
??_C@_0BJ@EJAF@Sfx?2Towners?2Healer19?4wav?$AA@ DB 'Sfx\Towners\Healer19.'
	DB	'wav', 00H					; `string'
_DATA	ENDS
;	COMDAT ??_C@_0BJ@FGOK@Sfx?2Towners?2Healer20?4wav?$AA@
_DATA	SEGMENT
??_C@_0BJ@FGOK@Sfx?2Towners?2Healer20?4wav?$AA@ DB 'Sfx\Towners\Healer20.'
	DB	'wav', 00H					; `string'
_DATA	ENDS
;	COMDAT ??_C@_0BJ@PGMP@Sfx?2Towners?2Healer21?4wav?$AA@
_DATA	SEGMENT
??_C@_0BJ@PGMP@Sfx?2Towners?2Healer21?4wav?$AA@ DB 'Sfx\Towners\Healer21.'
	DB	'wav', 00H					; `string'
_DATA	ENDS
;	COMDAT ??_C@_0BJ@BGKA@Sfx?2Towners?2Healer22?4wav?$AA@
_DATA	SEGMENT
??_C@_0BJ@BGKA@Sfx?2Towners?2Healer22?4wav?$AA@ DB 'Sfx\Towners\Healer22.'
	DB	'wav', 00H					; `string'
_DATA	ENDS
;	COMDAT ??_C@_0BJ@LGIF@Sfx?2Towners?2Healer23?4wav?$AA@
_DATA	SEGMENT
??_C@_0BJ@LGIF@Sfx?2Towners?2Healer23?4wav?$AA@ DB 'Sfx\Towners\Healer23.'
	DB	'wav', 00H					; `string'
_DATA	ENDS
;	COMDAT ??_C@_0BJ@NGHP@Sfx?2Towners?2Healer24?4wav?$AA@
_DATA	SEGMENT
??_C@_0BJ@NGHP@Sfx?2Towners?2Healer24?4wav?$AA@ DB 'Sfx\Towners\Healer24.'
	DB	'wav', 00H					; `string'
_DATA	ENDS
;	COMDAT ??_C@_0BJ@HGFK@Sfx?2Towners?2Healer25?4wav?$AA@
_DATA	SEGMENT
??_C@_0BJ@HGFK@Sfx?2Towners?2Healer25?4wav?$AA@ DB 'Sfx\Towners\Healer25.'
	DB	'wav', 00H					; `string'
_DATA	ENDS
;	COMDAT ??_C@_0BJ@JGDF@Sfx?2Towners?2Healer26?4wav?$AA@
_DATA	SEGMENT
??_C@_0BJ@JGDF@Sfx?2Towners?2Healer26?4wav?$AA@ DB 'Sfx\Towners\Healer26.'
	DB	'wav', 00H					; `string'
_DATA	ENDS
;	COMDAT ??_C@_0BJ@DGBA@Sfx?2Towners?2Healer27?4wav?$AA@
_DATA	SEGMENT
??_C@_0BJ@DGBA@Sfx?2Towners?2Healer27?4wav?$AA@ DB 'Sfx\Towners\Healer27.'
	DB	'wav', 00H					; `string'
_DATA	ENDS
;	COMDAT ??_C@_0BJ@FHMA@Sfx?2Towners?2Healer28?4wav?$AA@
_DATA	SEGMENT
??_C@_0BJ@FHMA@Sfx?2Towners?2Healer28?4wav?$AA@ DB 'Sfx\Towners\Healer28.'
	DB	'wav', 00H					; `string'
_DATA	ENDS
;	COMDAT ??_C@_0BJ@PHOF@Sfx?2Towners?2Healer29?4wav?$AA@
_DATA	SEGMENT
??_C@_0BJ@PHOF@Sfx?2Towners?2Healer29?4wav?$AA@ DB 'Sfx\Towners\Healer29.'
	DB	'wav', 00H					; `string'
_DATA	ENDS
;	COMDAT ??_C@_0BJ@MDEK@Sfx?2Towners?2Healer30?4wav?$AA@
_DATA	SEGMENT
??_C@_0BJ@MDEK@Sfx?2Towners?2Healer30?4wav?$AA@ DB 'Sfx\Towners\Healer30.'
	DB	'wav', 00H					; `string'
_DATA	ENDS
;	COMDAT ??_C@_0BJ@GDGP@Sfx?2Towners?2Healer31?4wav?$AA@
_DATA	SEGMENT
??_C@_0BJ@GDGP@Sfx?2Towners?2Healer31?4wav?$AA@ DB 'Sfx\Towners\Healer31.'
	DB	'wav', 00H					; `string'
_DATA	ENDS
;	COMDAT ??_C@_0BJ@IDAA@Sfx?2Towners?2Healer32?4wav?$AA@
_DATA	SEGMENT
??_C@_0BJ@IDAA@Sfx?2Towners?2Healer32?4wav?$AA@ DB 'Sfx\Towners\Healer32.'
	DB	'wav', 00H					; `string'
_DATA	ENDS
;	COMDAT ??_C@_0BJ@CDCF@Sfx?2Towners?2Healer33?4wav?$AA@
_DATA	SEGMENT
??_C@_0BJ@CDCF@Sfx?2Towners?2Healer33?4wav?$AA@ DB 'Sfx\Towners\Healer33.'
	DB	'wav', 00H					; `string'
_DATA	ENDS
;	COMDAT ??_C@_0BJ@EDNP@Sfx?2Towners?2Healer34?4wav?$AA@
_DATA	SEGMENT
??_C@_0BJ@EDNP@Sfx?2Towners?2Healer34?4wav?$AA@ DB 'Sfx\Towners\Healer34.'
	DB	'wav', 00H					; `string'
_DATA	ENDS
;	COMDAT ??_C@_0BJ@ODPK@Sfx?2Towners?2Healer35?4wav?$AA@
_DATA	SEGMENT
??_C@_0BJ@ODPK@Sfx?2Towners?2Healer35?4wav?$AA@ DB 'Sfx\Towners\Healer35.'
	DB	'wav', 00H					; `string'
_DATA	ENDS
;	COMDAT ??_C@_0BJ@DJF@Sfx?2Towners?2Healer36?4wav?$AA@
_DATA	SEGMENT
??_C@_0BJ@DJF@Sfx?2Towners?2Healer36?4wav?$AA@ DB 'Sfx\Towners\Healer36.w'
	DB	'av', 00H					; `string'
_DATA	ENDS
;	COMDAT ??_C@_0BJ@KDLA@Sfx?2Towners?2Healer37?4wav?$AA@
_DATA	SEGMENT
??_C@_0BJ@KDLA@Sfx?2Towners?2Healer37?4wav?$AA@ DB 'Sfx\Towners\Healer37.'
	DB	'wav', 00H					; `string'
_DATA	ENDS
;	COMDAT ??_C@_0BJ@MCGA@Sfx?2Towners?2Healer38?4wav?$AA@
_DATA	SEGMENT
??_C@_0BJ@MCGA@Sfx?2Towners?2Healer38?4wav?$AA@ DB 'Sfx\Towners\Healer38.'
	DB	'wav', 00H					; `string'
_DATA	ENDS
;	COMDAT ??_C@_0BJ@GCEF@Sfx?2Towners?2Healer39?4wav?$AA@
_DATA	SEGMENT
??_C@_0BJ@GCEF@Sfx?2Towners?2Healer39?4wav?$AA@ DB 'Sfx\Towners\Healer39.'
	DB	'wav', 00H					; `string'
_DATA	ENDS
;	COMDAT ??_C@_0BJ@CLCK@Sfx?2Towners?2Healer40?4wav?$AA@
_DATA	SEGMENT
??_C@_0BJ@CLCK@Sfx?2Towners?2Healer40?4wav?$AA@ DB 'Sfx\Towners\Healer40.'
	DB	'wav', 00H					; `string'
_DATA	ENDS
;	COMDAT ??_C@_0BJ@ILAP@Sfx?2Towners?2Healer41?4wav?$AA@
_DATA	SEGMENT
??_C@_0BJ@ILAP@Sfx?2Towners?2Healer41?4wav?$AA@ DB 'Sfx\Towners\Healer41.'
	DB	'wav', 00H					; `string'
_DATA	ENDS
;	COMDAT ??_C@_0BJ@GLGA@Sfx?2Towners?2Healer42?4wav?$AA@
_DATA	SEGMENT
??_C@_0BJ@GLGA@Sfx?2Towners?2Healer42?4wav?$AA@ DB 'Sfx\Towners\Healer42.'
	DB	'wav', 00H					; `string'
_DATA	ENDS
;	COMDAT ??_C@_0BJ@MLEF@Sfx?2Towners?2Healer43?4wav?$AA@
_DATA	SEGMENT
??_C@_0BJ@MLEF@Sfx?2Towners?2Healer43?4wav?$AA@ DB 'Sfx\Towners\Healer43.'
	DB	'wav', 00H					; `string'
_DATA	ENDS
;	COMDAT ??_C@_0BJ@KLLP@Sfx?2Towners?2Healer44?4wav?$AA@
_DATA	SEGMENT
??_C@_0BJ@KLLP@Sfx?2Towners?2Healer44?4wav?$AA@ DB 'Sfx\Towners\Healer44.'
	DB	'wav', 00H					; `string'
_DATA	ENDS
;	COMDAT ??_C@_0BJ@LJK@Sfx?2Towners?2Healer45?4wav?$AA@
_DATA	SEGMENT
??_C@_0BJ@LJK@Sfx?2Towners?2Healer45?4wav?$AA@ DB 'Sfx\Towners\Healer45.w'
	DB	'av', 00H					; `string'
_DATA	ENDS
;	COMDAT ??_C@_0BJ@OLPF@Sfx?2Towners?2Healer46?4wav?$AA@
_DATA	SEGMENT
??_C@_0BJ@OLPF@Sfx?2Towners?2Healer46?4wav?$AA@ DB 'Sfx\Towners\Healer46.'
	DB	'wav', 00H					; `string'
_DATA	ENDS
;	COMDAT ??_C@_0BJ@ELNA@Sfx?2Towners?2Healer47?4wav?$AA@
_DATA	SEGMENT
??_C@_0BJ@ELNA@Sfx?2Towners?2Healer47?4wav?$AA@ DB 'Sfx\Towners\Healer47.'
	DB	'wav', 00H					; `string'
_DATA	ENDS
;	COMDAT ??_C@_0BJ@FDF@Sfx?2Towners?2Pegboy01?4wav?$AA@
_DATA	SEGMENT
??_C@_0BJ@FDF@Sfx?2Towners?2Pegboy01?4wav?$AA@ DB 'Sfx\Towners\Pegboy01.w'
	DB	'av', 00H					; `string'
_DATA	ENDS
;	COMDAT ??_C@_0BJ@OFFK@Sfx?2Towners?2Pegboy02?4wav?$AA@
_DATA	SEGMENT
??_C@_0BJ@OFFK@Sfx?2Towners?2Pegboy02?4wav?$AA@ DB 'Sfx\Towners\Pegboy02.'
	DB	'wav', 00H					; `string'
_DATA	ENDS
;	COMDAT ??_C@_0BJ@EFHP@Sfx?2Towners?2Pegboy03?4wav?$AA@
_DATA	SEGMENT
??_C@_0BJ@EFHP@Sfx?2Towners?2Pegboy03?4wav?$AA@ DB 'Sfx\Towners\Pegboy03.'
	DB	'wav', 00H					; `string'
_DATA	ENDS
;	COMDAT ??_C@_0BJ@CFIF@Sfx?2Towners?2Pegboy04?4wav?$AA@
_DATA	SEGMENT
??_C@_0BJ@CFIF@Sfx?2Towners?2Pegboy04?4wav?$AA@ DB 'Sfx\Towners\Pegboy04.'
	DB	'wav', 00H					; `string'
_DATA	ENDS
;	COMDAT ??_C@_0BJ@IFKA@Sfx?2Towners?2Pegboy05?4wav?$AA@
_DATA	SEGMENT
??_C@_0BJ@IFKA@Sfx?2Towners?2Pegboy05?4wav?$AA@ DB 'Sfx\Towners\Pegboy05.'
	DB	'wav', 00H					; `string'
_DATA	ENDS
;	COMDAT ??_C@_0BJ@GFMP@Sfx?2Towners?2Pegboy06?4wav?$AA@
_DATA	SEGMENT
??_C@_0BJ@GFMP@Sfx?2Towners?2Pegboy06?4wav?$AA@ DB 'Sfx\Towners\Pegboy06.'
	DB	'wav', 00H					; `string'
_DATA	ENDS
;	COMDAT ??_C@_0BJ@MFOK@Sfx?2Towners?2Pegboy07?4wav?$AA@
_DATA	SEGMENT
??_C@_0BJ@MFOK@Sfx?2Towners?2Pegboy07?4wav?$AA@ DB 'Sfx\Towners\Pegboy07.'
	DB	'wav', 00H					; `string'
_DATA	ENDS
;	COMDAT ??_C@_0BJ@KEDK@Sfx?2Towners?2Pegboy08?4wav?$AA@
_DATA	SEGMENT
??_C@_0BJ@KEDK@Sfx?2Towners?2Pegboy08?4wav?$AA@ DB 'Sfx\Towners\Pegboy08.'
	DB	'wav', 00H					; `string'
_DATA	ENDS
;	COMDAT ??_C@_0BJ@EBP@Sfx?2Towners?2Pegboy09?4wav?$AA@
_DATA	SEGMENT
??_C@_0BJ@EBP@Sfx?2Towners?2Pegboy09?4wav?$AA@ DB 'Sfx\Towners\Pegboy09.w'
	DB	'av', 00H					; `string'
_DATA	ENDS
;	COMDAT ??_C@_0BJ@DALA@Sfx?2Towners?2Pegboy10?4wav?$AA@
_DATA	SEGMENT
??_C@_0BJ@DALA@Sfx?2Towners?2Pegboy10?4wav?$AA@ DB 'Sfx\Towners\Pegboy10.'
	DB	'wav', 00H					; `string'
_DATA	ENDS
;	COMDAT ??_C@_0BJ@JAJF@Sfx?2Towners?2Pegboy11?4wav?$AA@
_DATA	SEGMENT
??_C@_0BJ@JAJF@Sfx?2Towners?2Pegboy11?4wav?$AA@ DB 'Sfx\Towners\Pegboy11.'
	DB	'wav', 00H					; `string'
_DATA	ENDS
;	COMDAT ??_C@_0BJ@HAPK@Sfx?2Towners?2Pegboy12?4wav?$AA@
_DATA	SEGMENT
??_C@_0BJ@HAPK@Sfx?2Towners?2Pegboy12?4wav?$AA@ DB 'Sfx\Towners\Pegboy12.'
	DB	'wav', 00H					; `string'
_DATA	ENDS
;	COMDAT ??_C@_0BJ@NANP@Sfx?2Towners?2Pegboy13?4wav?$AA@
_DATA	SEGMENT
??_C@_0BJ@NANP@Sfx?2Towners?2Pegboy13?4wav?$AA@ DB 'Sfx\Towners\Pegboy13.'
	DB	'wav', 00H					; `string'
_DATA	ENDS
;	COMDAT ??_C@_0BJ@LACF@Sfx?2Towners?2Pegboy14?4wav?$AA@
_DATA	SEGMENT
??_C@_0BJ@LACF@Sfx?2Towners?2Pegboy14?4wav?$AA@ DB 'Sfx\Towners\Pegboy14.'
	DB	'wav', 00H					; `string'
_DATA	ENDS
;	COMDAT ??_C@_0BJ@BAAA@Sfx?2Towners?2Pegboy15?4wav?$AA@
_DATA	SEGMENT
??_C@_0BJ@BAAA@Sfx?2Towners?2Pegboy15?4wav?$AA@ DB 'Sfx\Towners\Pegboy15.'
	DB	'wav', 00H					; `string'
_DATA	ENDS
;	COMDAT ??_C@_0BJ@PAGP@Sfx?2Towners?2Pegboy16?4wav?$AA@
_DATA	SEGMENT
??_C@_0BJ@PAGP@Sfx?2Towners?2Pegboy16?4wav?$AA@ DB 'Sfx\Towners\Pegboy16.'
	DB	'wav', 00H					; `string'
_DATA	ENDS
;	COMDAT ??_C@_0BJ@FAEK@Sfx?2Towners?2Pegboy17?4wav?$AA@
_DATA	SEGMENT
??_C@_0BJ@FAEK@Sfx?2Towners?2Pegboy17?4wav?$AA@ DB 'Sfx\Towners\Pegboy17.'
	DB	'wav', 00H					; `string'
_DATA	ENDS
;	COMDAT ??_C@_0BJ@DBJK@Sfx?2Towners?2Pegboy18?4wav?$AA@
_DATA	SEGMENT
??_C@_0BJ@DBJK@Sfx?2Towners?2Pegboy18?4wav?$AA@ DB 'Sfx\Towners\Pegboy18.'
	DB	'wav', 00H					; `string'
_DATA	ENDS
;	COMDAT ??_C@_0BJ@JBLP@Sfx?2Towners?2Pegboy19?4wav?$AA@
_DATA	SEGMENT
??_C@_0BJ@JBLP@Sfx?2Towners?2Pegboy19?4wav?$AA@ DB 'Sfx\Towners\Pegboy19.'
	DB	'wav', 00H					; `string'
_DATA	ENDS
;	COMDAT ??_C@_0BJ@IOFA@Sfx?2Towners?2Pegboy20?4wav?$AA@
_DATA	SEGMENT
??_C@_0BJ@IOFA@Sfx?2Towners?2Pegboy20?4wav?$AA@ DB 'Sfx\Towners\Pegboy20.'
	DB	'wav', 00H					; `string'
_DATA	ENDS
;	COMDAT ??_C@_0BJ@COHF@Sfx?2Towners?2Pegboy21?4wav?$AA@
_DATA	SEGMENT
??_C@_0BJ@COHF@Sfx?2Towners?2Pegboy21?4wav?$AA@ DB 'Sfx\Towners\Pegboy21.'
	DB	'wav', 00H					; `string'
_DATA	ENDS
;	COMDAT ??_C@_0BJ@MOBK@Sfx?2Towners?2Pegboy22?4wav?$AA@
_DATA	SEGMENT
??_C@_0BJ@MOBK@Sfx?2Towners?2Pegboy22?4wav?$AA@ DB 'Sfx\Towners\Pegboy22.'
	DB	'wav', 00H					; `string'
_DATA	ENDS
;	COMDAT ??_C@_0BJ@GODP@Sfx?2Towners?2Pegboy23?4wav?$AA@
_DATA	SEGMENT
??_C@_0BJ@GODP@Sfx?2Towners?2Pegboy23?4wav?$AA@ DB 'Sfx\Towners\Pegboy23.'
	DB	'wav', 00H					; `string'
_DATA	ENDS
;	COMDAT ??_C@_0BJ@OMF@Sfx?2Towners?2Pegboy24?4wav?$AA@
_DATA	SEGMENT
??_C@_0BJ@OMF@Sfx?2Towners?2Pegboy24?4wav?$AA@ DB 'Sfx\Towners\Pegboy24.w'
	DB	'av', 00H					; `string'
_DATA	ENDS
;	COMDAT ??_C@_0BJ@KOOA@Sfx?2Towners?2Pegboy25?4wav?$AA@
_DATA	SEGMENT
??_C@_0BJ@KOOA@Sfx?2Towners?2Pegboy25?4wav?$AA@ DB 'Sfx\Towners\Pegboy25.'
	DB	'wav', 00H					; `string'
_DATA	ENDS
;	COMDAT ??_C@_0BJ@EOIP@Sfx?2Towners?2Pegboy26?4wav?$AA@
_DATA	SEGMENT
??_C@_0BJ@EOIP@Sfx?2Towners?2Pegboy26?4wav?$AA@ DB 'Sfx\Towners\Pegboy26.'
	DB	'wav', 00H					; `string'
_DATA	ENDS
;	COMDAT ??_C@_0BJ@OOKK@Sfx?2Towners?2Pegboy27?4wav?$AA@
_DATA	SEGMENT
??_C@_0BJ@OOKK@Sfx?2Towners?2Pegboy27?4wav?$AA@ DB 'Sfx\Towners\Pegboy27.'
	DB	'wav', 00H					; `string'
_DATA	ENDS
;	COMDAT ??_C@_0BJ@IPHK@Sfx?2Towners?2Pegboy28?4wav?$AA@
_DATA	SEGMENT
??_C@_0BJ@IPHK@Sfx?2Towners?2Pegboy28?4wav?$AA@ DB 'Sfx\Towners\Pegboy28.'
	DB	'wav', 00H					; `string'
_DATA	ENDS
;	COMDAT ??_C@_0BJ@CPFP@Sfx?2Towners?2Pegboy29?4wav?$AA@
_DATA	SEGMENT
??_C@_0BJ@CPFP@Sfx?2Towners?2Pegboy29?4wav?$AA@ DB 'Sfx\Towners\Pegboy29.'
	DB	'wav', 00H					; `string'
_DATA	ENDS
;	COMDAT ??_C@_0BJ@BLPA@Sfx?2Towners?2Pegboy30?4wav?$AA@
_DATA	SEGMENT
??_C@_0BJ@BLPA@Sfx?2Towners?2Pegboy30?4wav?$AA@ DB 'Sfx\Towners\Pegboy30.'
	DB	'wav', 00H					; `string'
_DATA	ENDS
;	COMDAT ??_C@_0BJ@LLNF@Sfx?2Towners?2Pegboy31?4wav?$AA@
_DATA	SEGMENT
??_C@_0BJ@LLNF@Sfx?2Towners?2Pegboy31?4wav?$AA@ DB 'Sfx\Towners\Pegboy31.'
	DB	'wav', 00H					; `string'
_DATA	ENDS
;	COMDAT ??_C@_0BJ@FLLK@Sfx?2Towners?2Pegboy32?4wav?$AA@
_DATA	SEGMENT
??_C@_0BJ@FLLK@Sfx?2Towners?2Pegboy32?4wav?$AA@ DB 'Sfx\Towners\Pegboy32.'
	DB	'wav', 00H					; `string'
_DATA	ENDS
;	COMDAT ??_C@_0BJ@PLJP@Sfx?2Towners?2Pegboy33?4wav?$AA@
_DATA	SEGMENT
??_C@_0BJ@PLJP@Sfx?2Towners?2Pegboy33?4wav?$AA@ DB 'Sfx\Towners\Pegboy33.'
	DB	'wav', 00H					; `string'
_DATA	ENDS
;	COMDAT ??_C@_0BJ@JLGF@Sfx?2Towners?2Pegboy34?4wav?$AA@
_DATA	SEGMENT
??_C@_0BJ@JLGF@Sfx?2Towners?2Pegboy34?4wav?$AA@ DB 'Sfx\Towners\Pegboy34.'
	DB	'wav', 00H					; `string'
_DATA	ENDS
;	COMDAT ??_C@_0BJ@DLEA@Sfx?2Towners?2Pegboy35?4wav?$AA@
_DATA	SEGMENT
??_C@_0BJ@DLEA@Sfx?2Towners?2Pegboy35?4wav?$AA@ DB 'Sfx\Towners\Pegboy35.'
	DB	'wav', 00H					; `string'
_DATA	ENDS
;	COMDAT ??_C@_0BJ@NLCP@Sfx?2Towners?2Pegboy36?4wav?$AA@
_DATA	SEGMENT
??_C@_0BJ@NLCP@Sfx?2Towners?2Pegboy36?4wav?$AA@ DB 'Sfx\Towners\Pegboy36.'
	DB	'wav', 00H					; `string'
_DATA	ENDS
;	COMDAT ??_C@_0BJ@HLAK@Sfx?2Towners?2Pegboy37?4wav?$AA@
_DATA	SEGMENT
??_C@_0BJ@HLAK@Sfx?2Towners?2Pegboy37?4wav?$AA@ DB 'Sfx\Towners\Pegboy37.'
	DB	'wav', 00H					; `string'
_DATA	ENDS
;	COMDAT ??_C@_0BJ@BKNK@Sfx?2Towners?2Pegboy38?4wav?$AA@
_DATA	SEGMENT
??_C@_0BJ@BKNK@Sfx?2Towners?2Pegboy38?4wav?$AA@ DB 'Sfx\Towners\Pegboy38.'
	DB	'wav', 00H					; `string'
_DATA	ENDS
;	COMDAT ??_C@_0BJ@LKPP@Sfx?2Towners?2Pegboy39?4wav?$AA@
_DATA	SEGMENT
??_C@_0BJ@LKPP@Sfx?2Towners?2Pegboy39?4wav?$AA@ DB 'Sfx\Towners\Pegboy39.'
	DB	'wav', 00H					; `string'
_DATA	ENDS
;	COMDAT ??_C@_0BJ@PDJA@Sfx?2Towners?2Pegboy40?4wav?$AA@
_DATA	SEGMENT
??_C@_0BJ@PDJA@Sfx?2Towners?2Pegboy40?4wav?$AA@ DB 'Sfx\Towners\Pegboy40.'
	DB	'wav', 00H					; `string'
_DATA	ENDS
;	COMDAT ??_C@_0BJ@FDLF@Sfx?2Towners?2Pegboy41?4wav?$AA@
_DATA	SEGMENT
??_C@_0BJ@FDLF@Sfx?2Towners?2Pegboy41?4wav?$AA@ DB 'Sfx\Towners\Pegboy41.'
	DB	'wav', 00H					; `string'
_DATA	ENDS
;	COMDAT ??_C@_0BJ@LDNK@Sfx?2Towners?2Pegboy42?4wav?$AA@
_DATA	SEGMENT
??_C@_0BJ@LDNK@Sfx?2Towners?2Pegboy42?4wav?$AA@ DB 'Sfx\Towners\Pegboy42.'
	DB	'wav', 00H					; `string'
_DATA	ENDS
;	COMDAT ??_C@_0BJ@BDPP@Sfx?2Towners?2Pegboy43?4wav?$AA@
_DATA	SEGMENT
??_C@_0BJ@BDPP@Sfx?2Towners?2Pegboy43?4wav?$AA@ DB 'Sfx\Towners\Pegboy43.'
	DB	'wav', 00H					; `string'
_DATA	ENDS
;	COMDAT ??_C@_0BJ@IKGN@Sfx?2Towners?2Priest00?4wav?$AA@
_DATA	SEGMENT
??_C@_0BJ@IKGN@Sfx?2Towners?2Priest00?4wav?$AA@ DB 'Sfx\Towners\Priest00.'
	DB	'wav', 00H					; `string'
_DATA	ENDS
;	COMDAT ??_C@_0BJ@CKEI@Sfx?2Towners?2Priest01?4wav?$AA@
_DATA	SEGMENT
??_C@_0BJ@CKEI@Sfx?2Towners?2Priest01?4wav?$AA@ DB 'Sfx\Towners\Priest01.'
	DB	'wav', 00H					; `string'
_DATA	ENDS
;	COMDAT ??_C@_0BJ@MKCH@Sfx?2Towners?2Priest02?4wav?$AA@
_DATA	SEGMENT
??_C@_0BJ@MKCH@Sfx?2Towners?2Priest02?4wav?$AA@ DB 'Sfx\Towners\Priest02.'
	DB	'wav', 00H					; `string'
_DATA	ENDS
;	COMDAT ??_C@_0BJ@GKAC@Sfx?2Towners?2Priest03?4wav?$AA@
_DATA	SEGMENT
??_C@_0BJ@GKAC@Sfx?2Towners?2Priest03?4wav?$AA@ DB 'Sfx\Towners\Priest03.'
	DB	'wav', 00H					; `string'
_DATA	ENDS
;	COMDAT ??_C@_0BJ@KPI@Sfx?2Towners?2Priest04?4wav?$AA@
_DATA	SEGMENT
??_C@_0BJ@KPI@Sfx?2Towners?2Priest04?4wav?$AA@ DB 'Sfx\Towners\Priest04.w'
	DB	'av', 00H					; `string'
_DATA	ENDS
;	COMDAT ??_C@_0BJ@KKNN@Sfx?2Towners?2Priest05?4wav?$AA@
_DATA	SEGMENT
??_C@_0BJ@KKNN@Sfx?2Towners?2Priest05?4wav?$AA@ DB 'Sfx\Towners\Priest05.'
	DB	'wav', 00H					; `string'
_DATA	ENDS
;	COMDAT ??_C@_0BJ@EKLC@Sfx?2Towners?2Priest06?4wav?$AA@
_DATA	SEGMENT
??_C@_0BJ@EKLC@Sfx?2Towners?2Priest06?4wav?$AA@ DB 'Sfx\Towners\Priest06.'
	DB	'wav', 00H					; `string'
_DATA	ENDS
;	COMDAT ??_C@_0BJ@OKJH@Sfx?2Towners?2Priest07?4wav?$AA@
_DATA	SEGMENT
??_C@_0BJ@OKJH@Sfx?2Towners?2Priest07?4wav?$AA@ DB 'Sfx\Towners\Priest07.'
	DB	'wav', 00H					; `string'
_DATA	ENDS
;	COMDAT ??_C@_0BJ@NJKM@Sfx?2Towners?2Storyt00?4wav?$AA@
_DATA	SEGMENT
??_C@_0BJ@NJKM@Sfx?2Towners?2Storyt00?4wav?$AA@ DB 'Sfx\Towners\Storyt00.'
	DB	'wav', 00H					; `string'
_DATA	ENDS
;	COMDAT ??_C@_0BJ@HJIJ@Sfx?2Towners?2Storyt01?4wav?$AA@
_DATA	SEGMENT
??_C@_0BJ@HJIJ@Sfx?2Towners?2Storyt01?4wav?$AA@ DB 'Sfx\Towners\Storyt01.'
	DB	'wav', 00H					; `string'
_DATA	ENDS
;	COMDAT ??_C@_0BJ@JJOG@Sfx?2Towners?2Storyt02?4wav?$AA@
_DATA	SEGMENT
??_C@_0BJ@JJOG@Sfx?2Towners?2Storyt02?4wav?$AA@ DB 'Sfx\Towners\Storyt02.'
	DB	'wav', 00H					; `string'
_DATA	ENDS
;	COMDAT ??_C@_0BJ@DJMD@Sfx?2Towners?2Storyt03?4wav?$AA@
_DATA	SEGMENT
??_C@_0BJ@DJMD@Sfx?2Towners?2Storyt03?4wav?$AA@ DB 'Sfx\Towners\Storyt03.'
	DB	'wav', 00H					; `string'
_DATA	ENDS
;	COMDAT ??_C@_0BJ@FJDJ@Sfx?2Towners?2Storyt04?4wav?$AA@
_DATA	SEGMENT
??_C@_0BJ@FJDJ@Sfx?2Towners?2Storyt04?4wav?$AA@ DB 'Sfx\Towners\Storyt04.'
	DB	'wav', 00H					; `string'
_DATA	ENDS
;	COMDAT ??_C@_0BJ@PJBM@Sfx?2Towners?2Storyt05?4wav?$AA@
_DATA	SEGMENT
??_C@_0BJ@PJBM@Sfx?2Towners?2Storyt05?4wav?$AA@ DB 'Sfx\Towners\Storyt05.'
	DB	'wav', 00H					; `string'
_DATA	ENDS
;	COMDAT ??_C@_0BJ@BJHD@Sfx?2Towners?2Storyt06?4wav?$AA@
_DATA	SEGMENT
??_C@_0BJ@BJHD@Sfx?2Towners?2Storyt06?4wav?$AA@ DB 'Sfx\Towners\Storyt06.'
	DB	'wav', 00H					; `string'
_DATA	ENDS
;	COMDAT ??_C@_0BJ@LJFG@Sfx?2Towners?2Storyt07?4wav?$AA@
_DATA	SEGMENT
??_C@_0BJ@LJFG@Sfx?2Towners?2Storyt07?4wav?$AA@ DB 'Sfx\Towners\Storyt07.'
	DB	'wav', 00H					; `string'
_DATA	ENDS
;	COMDAT ??_C@_0BJ@NIIG@Sfx?2Towners?2Storyt08?4wav?$AA@
_DATA	SEGMENT
??_C@_0BJ@NIIG@Sfx?2Towners?2Storyt08?4wav?$AA@ DB 'Sfx\Towners\Storyt08.'
	DB	'wav', 00H					; `string'
_DATA	ENDS
;	COMDAT ??_C@_0BJ@HIKD@Sfx?2Towners?2Storyt09?4wav?$AA@
_DATA	SEGMENT
??_C@_0BJ@HIKD@Sfx?2Towners?2Storyt09?4wav?$AA@ DB 'Sfx\Towners\Storyt09.'
	DB	'wav', 00H					; `string'
_DATA	ENDS
;	COMDAT ??_C@_0BJ@EMAM@Sfx?2Towners?2Storyt10?4wav?$AA@
_DATA	SEGMENT
??_C@_0BJ@EMAM@Sfx?2Towners?2Storyt10?4wav?$AA@ DB 'Sfx\Towners\Storyt10.'
	DB	'wav', 00H					; `string'
_DATA	ENDS
;	COMDAT ??_C@_0BJ@OMCJ@Sfx?2Towners?2Storyt11?4wav?$AA@
_DATA	SEGMENT
??_C@_0BJ@OMCJ@Sfx?2Towners?2Storyt11?4wav?$AA@ DB 'Sfx\Towners\Storyt11.'
	DB	'wav', 00H					; `string'
_DATA	ENDS
;	COMDAT ??_C@_0BJ@MEG@Sfx?2Towners?2Storyt12?4wav?$AA@
_DATA	SEGMENT
??_C@_0BJ@MEG@Sfx?2Towners?2Storyt12?4wav?$AA@ DB 'Sfx\Towners\Storyt12.w'
	DB	'av', 00H					; `string'
_DATA	ENDS
;	COMDAT ??_C@_0BJ@KMGD@Sfx?2Towners?2Storyt13?4wav?$AA@
_DATA	SEGMENT
??_C@_0BJ@KMGD@Sfx?2Towners?2Storyt13?4wav?$AA@ DB 'Sfx\Towners\Storyt13.'
	DB	'wav', 00H					; `string'
_DATA	ENDS
;	COMDAT ??_C@_0BJ@MMJJ@Sfx?2Towners?2Storyt14?4wav?$AA@
_DATA	SEGMENT
??_C@_0BJ@MMJJ@Sfx?2Towners?2Storyt14?4wav?$AA@ DB 'Sfx\Towners\Storyt14.'
	DB	'wav', 00H					; `string'
_DATA	ENDS
;	COMDAT ??_C@_0BJ@GMLM@Sfx?2Towners?2Storyt15?4wav?$AA@
_DATA	SEGMENT
??_C@_0BJ@GMLM@Sfx?2Towners?2Storyt15?4wav?$AA@ DB 'Sfx\Towners\Storyt15.'
	DB	'wav', 00H					; `string'
_DATA	ENDS
;	COMDAT ??_C@_0BJ@IMND@Sfx?2Towners?2Storyt16?4wav?$AA@
_DATA	SEGMENT
??_C@_0BJ@IMND@Sfx?2Towners?2Storyt16?4wav?$AA@ DB 'Sfx\Towners\Storyt16.'
	DB	'wav', 00H					; `string'
_DATA	ENDS
;	COMDAT ??_C@_0BJ@CMPG@Sfx?2Towners?2Storyt17?4wav?$AA@
_DATA	SEGMENT
??_C@_0BJ@CMPG@Sfx?2Towners?2Storyt17?4wav?$AA@ DB 'Sfx\Towners\Storyt17.'
	DB	'wav', 00H					; `string'
_DATA	ENDS
;	COMDAT ??_C@_0BJ@ENCG@Sfx?2Towners?2Storyt18?4wav?$AA@
_DATA	SEGMENT
??_C@_0BJ@ENCG@Sfx?2Towners?2Storyt18?4wav?$AA@ DB 'Sfx\Towners\Storyt18.'
	DB	'wav', 00H					; `string'
_DATA	ENDS
;	COMDAT ??_C@_0BJ@ONAD@Sfx?2Towners?2Storyt19?4wav?$AA@
_DATA	SEGMENT
??_C@_0BJ@ONAD@Sfx?2Towners?2Storyt19?4wav?$AA@ DB 'Sfx\Towners\Storyt19.'
	DB	'wav', 00H					; `string'
_DATA	ENDS
;	COMDAT ??_C@_0BJ@PCOM@Sfx?2Towners?2Storyt20?4wav?$AA@
_DATA	SEGMENT
??_C@_0BJ@PCOM@Sfx?2Towners?2Storyt20?4wav?$AA@ DB 'Sfx\Towners\Storyt20.'
	DB	'wav', 00H					; `string'
_DATA	ENDS
;	COMDAT ??_C@_0BJ@FCMJ@Sfx?2Towners?2Storyt21?4wav?$AA@
_DATA	SEGMENT
??_C@_0BJ@FCMJ@Sfx?2Towners?2Storyt21?4wav?$AA@ DB 'Sfx\Towners\Storyt21.'
	DB	'wav', 00H					; `string'
_DATA	ENDS
;	COMDAT ??_C@_0BJ@LCKG@Sfx?2Towners?2Storyt22?4wav?$AA@
_DATA	SEGMENT
??_C@_0BJ@LCKG@Sfx?2Towners?2Storyt22?4wav?$AA@ DB 'Sfx\Towners\Storyt22.'
	DB	'wav', 00H					; `string'
_DATA	ENDS
;	COMDAT ??_C@_0BJ@BCID@Sfx?2Towners?2Storyt23?4wav?$AA@
_DATA	SEGMENT
??_C@_0BJ@BCID@Sfx?2Towners?2Storyt23?4wav?$AA@ DB 'Sfx\Towners\Storyt23.'
	DB	'wav', 00H					; `string'
_DATA	ENDS
;	COMDAT ??_C@_0BJ@HCHJ@Sfx?2Towners?2Storyt24?4wav?$AA@
_DATA	SEGMENT
??_C@_0BJ@HCHJ@Sfx?2Towners?2Storyt24?4wav?$AA@ DB 'Sfx\Towners\Storyt24.'
	DB	'wav', 00H					; `string'
_DATA	ENDS
;	COMDAT ??_C@_0BJ@NCFM@Sfx?2Towners?2Storyt25?4wav?$AA@
_DATA	SEGMENT
??_C@_0BJ@NCFM@Sfx?2Towners?2Storyt25?4wav?$AA@ DB 'Sfx\Towners\Storyt25.'
	DB	'wav', 00H					; `string'
_DATA	ENDS
;	COMDAT ??_C@_0BJ@DCDD@Sfx?2Towners?2Storyt26?4wav?$AA@
_DATA	SEGMENT
??_C@_0BJ@DCDD@Sfx?2Towners?2Storyt26?4wav?$AA@ DB 'Sfx\Towners\Storyt26.'
	DB	'wav', 00H					; `string'
_DATA	ENDS
;	COMDAT ??_C@_0BJ@JCBG@Sfx?2Towners?2Storyt27?4wav?$AA@
_DATA	SEGMENT
??_C@_0BJ@JCBG@Sfx?2Towners?2Storyt27?4wav?$AA@ DB 'Sfx\Towners\Storyt27.'
	DB	'wav', 00H					; `string'
_DATA	ENDS
;	COMDAT ??_C@_0BJ@PDMG@Sfx?2Towners?2Storyt28?4wav?$AA@
_DATA	SEGMENT
??_C@_0BJ@PDMG@Sfx?2Towners?2Storyt28?4wav?$AA@ DB 'Sfx\Towners\Storyt28.'
	DB	'wav', 00H					; `string'
_DATA	ENDS
;	COMDAT ??_C@_0BJ@FDOD@Sfx?2Towners?2Storyt29?4wav?$AA@
_DATA	SEGMENT
??_C@_0BJ@FDOD@Sfx?2Towners?2Storyt29?4wav?$AA@ DB 'Sfx\Towners\Storyt29.'
	DB	'wav', 00H					; `string'
_DATA	ENDS
;	COMDAT ??_C@_0BJ@GHEM@Sfx?2Towners?2Storyt30?4wav?$AA@
_DATA	SEGMENT
??_C@_0BJ@GHEM@Sfx?2Towners?2Storyt30?4wav?$AA@ DB 'Sfx\Towners\Storyt30.'
	DB	'wav', 00H					; `string'
_DATA	ENDS
;	COMDAT ??_C@_0BJ@MHGJ@Sfx?2Towners?2Storyt31?4wav?$AA@
_DATA	SEGMENT
??_C@_0BJ@MHGJ@Sfx?2Towners?2Storyt31?4wav?$AA@ DB 'Sfx\Towners\Storyt31.'
	DB	'wav', 00H					; `string'
_DATA	ENDS
;	COMDAT ??_C@_0BJ@CHAG@Sfx?2Towners?2Storyt32?4wav?$AA@
_DATA	SEGMENT
??_C@_0BJ@CHAG@Sfx?2Towners?2Storyt32?4wav?$AA@ DB 'Sfx\Towners\Storyt32.'
	DB	'wav', 00H					; `string'
_DATA	ENDS
;	COMDAT ??_C@_0BJ@IHCD@Sfx?2Towners?2Storyt33?4wav?$AA@
_DATA	SEGMENT
??_C@_0BJ@IHCD@Sfx?2Towners?2Storyt33?4wav?$AA@ DB 'Sfx\Towners\Storyt33.'
	DB	'wav', 00H					; `string'
_DATA	ENDS
;	COMDAT ??_C@_0BJ@OHNJ@Sfx?2Towners?2Storyt34?4wav?$AA@
_DATA	SEGMENT
??_C@_0BJ@OHNJ@Sfx?2Towners?2Storyt34?4wav?$AA@ DB 'Sfx\Towners\Storyt34.'
	DB	'wav', 00H					; `string'
_DATA	ENDS
;	COMDAT ??_C@_0BJ@EHPM@Sfx?2Towners?2Storyt35?4wav?$AA@
_DATA	SEGMENT
??_C@_0BJ@EHPM@Sfx?2Towners?2Storyt35?4wav?$AA@ DB 'Sfx\Towners\Storyt35.'
	DB	'wav', 00H					; `string'
_DATA	ENDS
;	COMDAT ??_C@_0BJ@KHJD@Sfx?2Towners?2Storyt36?4wav?$AA@
_DATA	SEGMENT
??_C@_0BJ@KHJD@Sfx?2Towners?2Storyt36?4wav?$AA@ DB 'Sfx\Towners\Storyt36.'
	DB	'wav', 00H					; `string'
_DATA	ENDS
;	COMDAT ??_C@_0BJ@HLG@Sfx?2Towners?2Storyt37?4wav?$AA@
_DATA	SEGMENT
??_C@_0BJ@HLG@Sfx?2Towners?2Storyt37?4wav?$AA@ DB 'Sfx\Towners\Storyt37.w'
	DB	'av', 00H					; `string'
_DATA	ENDS
;	COMDAT ??_C@_0BJ@GGGG@Sfx?2Towners?2Storyt38?4wav?$AA@
_DATA	SEGMENT
??_C@_0BJ@GGGG@Sfx?2Towners?2Storyt38?4wav?$AA@ DB 'Sfx\Towners\Storyt38.'
	DB	'wav', 00H					; `string'
_DATA	ENDS
;	COMDAT ??_C@_0BJ@PBGF@Sfx?2Towners?2Tavown00?4wav?$AA@
_DATA	SEGMENT
??_C@_0BJ@PBGF@Sfx?2Towners?2Tavown00?4wav?$AA@ DB 'Sfx\Towners\Tavown00.'
	DB	'wav', 00H					; `string'
_DATA	ENDS
;	COMDAT ??_C@_0BJ@FBEA@Sfx?2Towners?2Tavown01?4wav?$AA@
_DATA	SEGMENT
??_C@_0BJ@FBEA@Sfx?2Towners?2Tavown01?4wav?$AA@ DB 'Sfx\Towners\Tavown01.'
	DB	'wav', 00H					; `string'
_DATA	ENDS
;	COMDAT ??_C@_0BJ@LBCP@Sfx?2Towners?2Tavown02?4wav?$AA@
_DATA	SEGMENT
??_C@_0BJ@LBCP@Sfx?2Towners?2Tavown02?4wav?$AA@ DB 'Sfx\Towners\Tavown02.'
	DB	'wav', 00H					; `string'
_DATA	ENDS
;	COMDAT ??_C@_0BJ@BBAK@Sfx?2Towners?2Tavown03?4wav?$AA@
_DATA	SEGMENT
??_C@_0BJ@BBAK@Sfx?2Towners?2Tavown03?4wav?$AA@ DB 'Sfx\Towners\Tavown03.'
	DB	'wav', 00H					; `string'
_DATA	ENDS
;	COMDAT ??_C@_0BJ@HBPA@Sfx?2Towners?2Tavown04?4wav?$AA@
_DATA	SEGMENT
??_C@_0BJ@HBPA@Sfx?2Towners?2Tavown04?4wav?$AA@ DB 'Sfx\Towners\Tavown04.'
	DB	'wav', 00H					; `string'
_DATA	ENDS
;	COMDAT ??_C@_0BJ@NBNF@Sfx?2Towners?2Tavown05?4wav?$AA@
_DATA	SEGMENT
??_C@_0BJ@NBNF@Sfx?2Towners?2Tavown05?4wav?$AA@ DB 'Sfx\Towners\Tavown05.'
	DB	'wav', 00H					; `string'
_DATA	ENDS
;	COMDAT ??_C@_0BJ@DBLK@Sfx?2Towners?2Tavown06?4wav?$AA@
_DATA	SEGMENT
??_C@_0BJ@DBLK@Sfx?2Towners?2Tavown06?4wav?$AA@ DB 'Sfx\Towners\Tavown06.'
	DB	'wav', 00H					; `string'
_DATA	ENDS
;	COMDAT ??_C@_0BJ@JBJP@Sfx?2Towners?2Tavown07?4wav?$AA@
_DATA	SEGMENT
??_C@_0BJ@JBJP@Sfx?2Towners?2Tavown07?4wav?$AA@ DB 'Sfx\Towners\Tavown07.'
	DB	'wav', 00H					; `string'
_DATA	ENDS
;	COMDAT ??_C@_0BJ@PAEP@Sfx?2Towners?2Tavown08?4wav?$AA@
_DATA	SEGMENT
??_C@_0BJ@PAEP@Sfx?2Towners?2Tavown08?4wav?$AA@ DB 'Sfx\Towners\Tavown08.'
	DB	'wav', 00H					; `string'
_DATA	ENDS
;	COMDAT ??_C@_0BJ@FAGK@Sfx?2Towners?2Tavown09?4wav?$AA@
_DATA	SEGMENT
??_C@_0BJ@FAGK@Sfx?2Towners?2Tavown09?4wav?$AA@ DB 'Sfx\Towners\Tavown09.'
	DB	'wav', 00H					; `string'
_DATA	ENDS
;	COMDAT ??_C@_0BJ@GEMF@Sfx?2Towners?2Tavown10?4wav?$AA@
_DATA	SEGMENT
??_C@_0BJ@GEMF@Sfx?2Towners?2Tavown10?4wav?$AA@ DB 'Sfx\Towners\Tavown10.'
	DB	'wav', 00H					; `string'
_DATA	ENDS
;	COMDAT ??_C@_0BJ@MEOA@Sfx?2Towners?2Tavown11?4wav?$AA@
_DATA	SEGMENT
??_C@_0BJ@MEOA@Sfx?2Towners?2Tavown11?4wav?$AA@ DB 'Sfx\Towners\Tavown11.'
	DB	'wav', 00H					; `string'
_DATA	ENDS
;	COMDAT ??_C@_0BJ@CEIP@Sfx?2Towners?2Tavown12?4wav?$AA@
_DATA	SEGMENT
??_C@_0BJ@CEIP@Sfx?2Towners?2Tavown12?4wav?$AA@ DB 'Sfx\Towners\Tavown12.'
	DB	'wav', 00H					; `string'
_DATA	ENDS
;	COMDAT ??_C@_0BJ@IEKK@Sfx?2Towners?2Tavown13?4wav?$AA@
_DATA	SEGMENT
??_C@_0BJ@IEKK@Sfx?2Towners?2Tavown13?4wav?$AA@ DB 'Sfx\Towners\Tavown13.'
	DB	'wav', 00H					; `string'
_DATA	ENDS
;	COMDAT ??_C@_0BJ@OEFA@Sfx?2Towners?2Tavown14?4wav?$AA@
_DATA	SEGMENT
??_C@_0BJ@OEFA@Sfx?2Towners?2Tavown14?4wav?$AA@ DB 'Sfx\Towners\Tavown14.'
	DB	'wav', 00H					; `string'
_DATA	ENDS
;	COMDAT ??_C@_0BJ@EEHF@Sfx?2Towners?2Tavown15?4wav?$AA@
_DATA	SEGMENT
??_C@_0BJ@EEHF@Sfx?2Towners?2Tavown15?4wav?$AA@ DB 'Sfx\Towners\Tavown15.'
	DB	'wav', 00H					; `string'
_DATA	ENDS
;	COMDAT ??_C@_0BJ@KEBK@Sfx?2Towners?2Tavown16?4wav?$AA@
_DATA	SEGMENT
??_C@_0BJ@KEBK@Sfx?2Towners?2Tavown16?4wav?$AA@ DB 'Sfx\Towners\Tavown16.'
	DB	'wav', 00H					; `string'
_DATA	ENDS
;	COMDAT ??_C@_0BJ@EDP@Sfx?2Towners?2Tavown17?4wav?$AA@
_DATA	SEGMENT
??_C@_0BJ@EDP@Sfx?2Towners?2Tavown17?4wav?$AA@ DB 'Sfx\Towners\Tavown17.w'
	DB	'av', 00H					; `string'
_DATA	ENDS
;	COMDAT ??_C@_0BJ@GFOP@Sfx?2Towners?2Tavown18?4wav?$AA@
_DATA	SEGMENT
??_C@_0BJ@GFOP@Sfx?2Towners?2Tavown18?4wav?$AA@ DB 'Sfx\Towners\Tavown18.'
	DB	'wav', 00H					; `string'
_DATA	ENDS
;	COMDAT ??_C@_0BJ@MFMK@Sfx?2Towners?2Tavown19?4wav?$AA@
_DATA	SEGMENT
??_C@_0BJ@MFMK@Sfx?2Towners?2Tavown19?4wav?$AA@ DB 'Sfx\Towners\Tavown19.'
	DB	'wav', 00H					; `string'
_DATA	ENDS
;	COMDAT ??_C@_0BJ@NKCF@Sfx?2Towners?2Tavown20?4wav?$AA@
_DATA	SEGMENT
??_C@_0BJ@NKCF@Sfx?2Towners?2Tavown20?4wav?$AA@ DB 'Sfx\Towners\Tavown20.'
	DB	'wav', 00H					; `string'
_DATA	ENDS
;	COMDAT ??_C@_0BJ@HKAA@Sfx?2Towners?2Tavown21?4wav?$AA@
_DATA	SEGMENT
??_C@_0BJ@HKAA@Sfx?2Towners?2Tavown21?4wav?$AA@ DB 'Sfx\Towners\Tavown21.'
	DB	'wav', 00H					; `string'
_DATA	ENDS
;	COMDAT ??_C@_0BJ@JKGP@Sfx?2Towners?2Tavown22?4wav?$AA@
_DATA	SEGMENT
??_C@_0BJ@JKGP@Sfx?2Towners?2Tavown22?4wav?$AA@ DB 'Sfx\Towners\Tavown22.'
	DB	'wav', 00H					; `string'
_DATA	ENDS
;	COMDAT ??_C@_0BJ@DKEK@Sfx?2Towners?2Tavown23?4wav?$AA@
_DATA	SEGMENT
??_C@_0BJ@DKEK@Sfx?2Towners?2Tavown23?4wav?$AA@ DB 'Sfx\Towners\Tavown23.'
	DB	'wav', 00H					; `string'
_DATA	ENDS
;	COMDAT ??_C@_0BJ@FKLA@Sfx?2Towners?2Tavown24?4wav?$AA@
_DATA	SEGMENT
??_C@_0BJ@FKLA@Sfx?2Towners?2Tavown24?4wav?$AA@ DB 'Sfx\Towners\Tavown24.'
	DB	'wav', 00H					; `string'
_DATA	ENDS
;	COMDAT ??_C@_0BJ@PKJF@Sfx?2Towners?2Tavown25?4wav?$AA@
_DATA	SEGMENT
??_C@_0BJ@PKJF@Sfx?2Towners?2Tavown25?4wav?$AA@ DB 'Sfx\Towners\Tavown25.'
	DB	'wav', 00H					; `string'
_DATA	ENDS
;	COMDAT ??_C@_0BJ@BKPK@Sfx?2Towners?2Tavown26?4wav?$AA@
_DATA	SEGMENT
??_C@_0BJ@BKPK@Sfx?2Towners?2Tavown26?4wav?$AA@ DB 'Sfx\Towners\Tavown26.'
	DB	'wav', 00H					; `string'
_DATA	ENDS
;	COMDAT ??_C@_0BJ@LKNP@Sfx?2Towners?2Tavown27?4wav?$AA@
_DATA	SEGMENT
??_C@_0BJ@LKNP@Sfx?2Towners?2Tavown27?4wav?$AA@ DB 'Sfx\Towners\Tavown27.'
	DB	'wav', 00H					; `string'
_DATA	ENDS
;	COMDAT ??_C@_0BJ@NLAP@Sfx?2Towners?2Tavown28?4wav?$AA@
_DATA	SEGMENT
??_C@_0BJ@NLAP@Sfx?2Towners?2Tavown28?4wav?$AA@ DB 'Sfx\Towners\Tavown28.'
	DB	'wav', 00H					; `string'
_DATA	ENDS
;	COMDAT ??_C@_0BJ@HLCK@Sfx?2Towners?2Tavown29?4wav?$AA@
_DATA	SEGMENT
??_C@_0BJ@HLCK@Sfx?2Towners?2Tavown29?4wav?$AA@ DB 'Sfx\Towners\Tavown29.'
	DB	'wav', 00H					; `string'
_DATA	ENDS
;	COMDAT ??_C@_0BJ@EPIF@Sfx?2Towners?2Tavown30?4wav?$AA@
_DATA	SEGMENT
??_C@_0BJ@EPIF@Sfx?2Towners?2Tavown30?4wav?$AA@ DB 'Sfx\Towners\Tavown30.'
	DB	'wav', 00H					; `string'
_DATA	ENDS
;	COMDAT ??_C@_0BJ@OPKA@Sfx?2Towners?2Tavown31?4wav?$AA@
_DATA	SEGMENT
??_C@_0BJ@OPKA@Sfx?2Towners?2Tavown31?4wav?$AA@ DB 'Sfx\Towners\Tavown31.'
	DB	'wav', 00H					; `string'
_DATA	ENDS
;	COMDAT ??_C@_0BJ@PMP@Sfx?2Towners?2Tavown32?4wav?$AA@
_DATA	SEGMENT
??_C@_0BJ@PMP@Sfx?2Towners?2Tavown32?4wav?$AA@ DB 'Sfx\Towners\Tavown32.w'
	DB	'av', 00H					; `string'
_DATA	ENDS
;	COMDAT ??_C@_0BJ@KPOK@Sfx?2Towners?2Tavown33?4wav?$AA@
_DATA	SEGMENT
??_C@_0BJ@KPOK@Sfx?2Towners?2Tavown33?4wav?$AA@ DB 'Sfx\Towners\Tavown33.'
	DB	'wav', 00H					; `string'
_DATA	ENDS
;	COMDAT ??_C@_0BJ@MPBA@Sfx?2Towners?2Tavown34?4wav?$AA@
_DATA	SEGMENT
??_C@_0BJ@MPBA@Sfx?2Towners?2Tavown34?4wav?$AA@ DB 'Sfx\Towners\Tavown34.'
	DB	'wav', 00H					; `string'
_DATA	ENDS
;	COMDAT ??_C@_0BJ@GPDF@Sfx?2Towners?2Tavown35?4wav?$AA@
_DATA	SEGMENT
??_C@_0BJ@GPDF@Sfx?2Towners?2Tavown35?4wav?$AA@ DB 'Sfx\Towners\Tavown35.'
	DB	'wav', 00H					; `string'
_DATA	ENDS
;	COMDAT ??_C@_0BJ@IPFK@Sfx?2Towners?2Tavown36?4wav?$AA@
_DATA	SEGMENT
??_C@_0BJ@IPFK@Sfx?2Towners?2Tavown36?4wav?$AA@ DB 'Sfx\Towners\Tavown36.'
	DB	'wav', 00H					; `string'
_DATA	ENDS
;	COMDAT ??_C@_0BJ@CPHP@Sfx?2Towners?2Tavown37?4wav?$AA@
_DATA	SEGMENT
??_C@_0BJ@CPHP@Sfx?2Towners?2Tavown37?4wav?$AA@ DB 'Sfx\Towners\Tavown37.'
	DB	'wav', 00H					; `string'
_DATA	ENDS
;	COMDAT ??_C@_0BJ@EOKP@Sfx?2Towners?2Tavown38?4wav?$AA@
_DATA	SEGMENT
??_C@_0BJ@EOKP@Sfx?2Towners?2Tavown38?4wav?$AA@ DB 'Sfx\Towners\Tavown38.'
	DB	'wav', 00H					; `string'
_DATA	ENDS
;	COMDAT ??_C@_0BJ@OOIK@Sfx?2Towners?2Tavown39?4wav?$AA@
_DATA	SEGMENT
??_C@_0BJ@OOIK@Sfx?2Towners?2Tavown39?4wav?$AA@ DB 'Sfx\Towners\Tavown39.'
	DB	'wav', 00H					; `string'
_DATA	ENDS
;	COMDAT ??_C@_0BJ@KHOF@Sfx?2Towners?2Tavown40?4wav?$AA@
_DATA	SEGMENT
??_C@_0BJ@KHOF@Sfx?2Towners?2Tavown40?4wav?$AA@ DB 'Sfx\Towners\Tavown40.'
	DB	'wav', 00H					; `string'
_DATA	ENDS
;	COMDAT ??_C@_0BJ@HMA@Sfx?2Towners?2Tavown41?4wav?$AA@
_DATA	SEGMENT
??_C@_0BJ@HMA@Sfx?2Towners?2Tavown41?4wav?$AA@ DB 'Sfx\Towners\Tavown41.w'
	DB	'av', 00H					; `string'
_DATA	ENDS
;	COMDAT ??_C@_0BJ@OHKP@Sfx?2Towners?2Tavown42?4wav?$AA@
_DATA	SEGMENT
??_C@_0BJ@OHKP@Sfx?2Towners?2Tavown42?4wav?$AA@ DB 'Sfx\Towners\Tavown42.'
	DB	'wav', 00H					; `string'
_DATA	ENDS
;	COMDAT ??_C@_0BJ@EHIK@Sfx?2Towners?2Tavown43?4wav?$AA@
_DATA	SEGMENT
??_C@_0BJ@EHIK@Sfx?2Towners?2Tavown43?4wav?$AA@ DB 'Sfx\Towners\Tavown43.'
	DB	'wav', 00H					; `string'
_DATA	ENDS
;	COMDAT ??_C@_0BJ@CHHA@Sfx?2Towners?2Tavown44?4wav?$AA@
_DATA	SEGMENT
??_C@_0BJ@CHHA@Sfx?2Towners?2Tavown44?4wav?$AA@ DB 'Sfx\Towners\Tavown44.'
	DB	'wav', 00H					; `string'
_DATA	ENDS
;	COMDAT ??_C@_0BJ@IHFF@Sfx?2Towners?2Tavown45?4wav?$AA@
_DATA	SEGMENT
??_C@_0BJ@IHFF@Sfx?2Towners?2Tavown45?4wav?$AA@ DB 'Sfx\Towners\Tavown45.'
	DB	'wav', 00H					; `string'
_DATA	ENDS
;	COMDAT ??_C@_0BI@NCKL@Sfx?2Towners?2Witch01?4wav?$AA@
_DATA	SEGMENT
??_C@_0BI@NCKL@Sfx?2Towners?2Witch01?4wav?$AA@ DB 'Sfx\Towners\Witch01.wa'
	DB	'v', 00H					; `string'
_DATA	ENDS
;	COMDAT ??_C@_0BI@DCME@Sfx?2Towners?2Witch02?4wav?$AA@
_DATA	SEGMENT
??_C@_0BI@DCME@Sfx?2Towners?2Witch02?4wav?$AA@ DB 'Sfx\Towners\Witch02.wa'
	DB	'v', 00H					; `string'
_DATA	ENDS
;	COMDAT ??_C@_0BI@JCOB@Sfx?2Towners?2Witch03?4wav?$AA@
_DATA	SEGMENT
??_C@_0BI@JCOB@Sfx?2Towners?2Witch03?4wav?$AA@ DB 'Sfx\Towners\Witch03.wa'
	DB	'v', 00H					; `string'
_DATA	ENDS
;	COMDAT ??_C@_0BI@PCBL@Sfx?2Towners?2Witch04?4wav?$AA@
_DATA	SEGMENT
??_C@_0BI@PCBL@Sfx?2Towners?2Witch04?4wav?$AA@ DB 'Sfx\Towners\Witch04.wa'
	DB	'v', 00H					; `string'
_DATA	ENDS
;	COMDAT ??_C@_0BI@FCDO@Sfx?2Towners?2Witch05?4wav?$AA@
_DATA	SEGMENT
??_C@_0BI@FCDO@Sfx?2Towners?2Witch05?4wav?$AA@ DB 'Sfx\Towners\Witch05.wa'
	DB	'v', 00H					; `string'
_DATA	ENDS
;	COMDAT ??_C@_0BI@LCFB@Sfx?2Towners?2Witch06?4wav?$AA@
_DATA	SEGMENT
??_C@_0BI@LCFB@Sfx?2Towners?2Witch06?4wav?$AA@ DB 'Sfx\Towners\Witch06.wa'
	DB	'v', 00H					; `string'
_DATA	ENDS
;	COMDAT ??_C@_0BI@BCHE@Sfx?2Towners?2Witch07?4wav?$AA@
_DATA	SEGMENT
??_C@_0BI@BCHE@Sfx?2Towners?2Witch07?4wav?$AA@ DB 'Sfx\Towners\Witch07.wa'
	DB	'v', 00H					; `string'
_DATA	ENDS
;	COMDAT ??_C@_0BI@HDKE@Sfx?2Towners?2Witch08?4wav?$AA@
_DATA	SEGMENT
??_C@_0BI@HDKE@Sfx?2Towners?2Witch08?4wav?$AA@ DB 'Sfx\Towners\Witch08.wa'
	DB	'v', 00H					; `string'
_DATA	ENDS
;	COMDAT ??_C@_0BI@NDIB@Sfx?2Towners?2Witch09?4wav?$AA@
_DATA	SEGMENT
??_C@_0BI@NDIB@Sfx?2Towners?2Witch09?4wav?$AA@ DB 'Sfx\Towners\Witch09.wa'
	DB	'v', 00H					; `string'
_DATA	ENDS
;	COMDAT ??_C@_0BI@OHCO@Sfx?2Towners?2Witch10?4wav?$AA@
_DATA	SEGMENT
??_C@_0BI@OHCO@Sfx?2Towners?2Witch10?4wav?$AA@ DB 'Sfx\Towners\Witch10.wa'
	DB	'v', 00H					; `string'
_DATA	ENDS
;	COMDAT ??_C@_0BI@EHAL@Sfx?2Towners?2Witch11?4wav?$AA@
_DATA	SEGMENT
??_C@_0BI@EHAL@Sfx?2Towners?2Witch11?4wav?$AA@ DB 'Sfx\Towners\Witch11.wa'
	DB	'v', 00H					; `string'
_DATA	ENDS
;	COMDAT ??_C@_0BI@KHGE@Sfx?2Towners?2Witch12?4wav?$AA@
_DATA	SEGMENT
??_C@_0BI@KHGE@Sfx?2Towners?2Witch12?4wav?$AA@ DB 'Sfx\Towners\Witch12.wa'
	DB	'v', 00H					; `string'
_DATA	ENDS
;	COMDAT ??_C@_0BI@HEB@Sfx?2Towners?2Witch13?4wav?$AA@
_DATA	SEGMENT
??_C@_0BI@HEB@Sfx?2Towners?2Witch13?4wav?$AA@ DB 'Sfx\Towners\Witch13.wav'
	DB	00H						; `string'
_DATA	ENDS
;	COMDAT ??_C@_0BI@GHLL@Sfx?2Towners?2Witch14?4wav?$AA@
_DATA	SEGMENT
??_C@_0BI@GHLL@Sfx?2Towners?2Witch14?4wav?$AA@ DB 'Sfx\Towners\Witch14.wa'
	DB	'v', 00H					; `string'
_DATA	ENDS
;	COMDAT ??_C@_0BI@MHJO@Sfx?2Towners?2Witch15?4wav?$AA@
_DATA	SEGMENT
??_C@_0BI@MHJO@Sfx?2Towners?2Witch15?4wav?$AA@ DB 'Sfx\Towners\Witch15.wa'
	DB	'v', 00H					; `string'
_DATA	ENDS
;	COMDAT ??_C@_0BI@CHPB@Sfx?2Towners?2Witch16?4wav?$AA@
_DATA	SEGMENT
??_C@_0BI@CHPB@Sfx?2Towners?2Witch16?4wav?$AA@ DB 'Sfx\Towners\Witch16.wa'
	DB	'v', 00H					; `string'
_DATA	ENDS
;	COMDAT ??_C@_0BI@IHNE@Sfx?2Towners?2Witch17?4wav?$AA@
_DATA	SEGMENT
??_C@_0BI@IHNE@Sfx?2Towners?2Witch17?4wav?$AA@ DB 'Sfx\Towners\Witch17.wa'
	DB	'v', 00H					; `string'
_DATA	ENDS
;	COMDAT ??_C@_0BI@OGAE@Sfx?2Towners?2Witch18?4wav?$AA@
_DATA	SEGMENT
??_C@_0BI@OGAE@Sfx?2Towners?2Witch18?4wav?$AA@ DB 'Sfx\Towners\Witch18.wa'
	DB	'v', 00H					; `string'
_DATA	ENDS
;	COMDAT ??_C@_0BI@EGCB@Sfx?2Towners?2Witch19?4wav?$AA@
_DATA	SEGMENT
??_C@_0BI@EGCB@Sfx?2Towners?2Witch19?4wav?$AA@ DB 'Sfx\Towners\Witch19.wa'
	DB	'v', 00H					; `string'
_DATA	ENDS
;	COMDAT ??_C@_0BI@FJMO@Sfx?2Towners?2Witch20?4wav?$AA@
_DATA	SEGMENT
??_C@_0BI@FJMO@Sfx?2Towners?2Witch20?4wav?$AA@ DB 'Sfx\Towners\Witch20.wa'
	DB	'v', 00H					; `string'
_DATA	ENDS
;	COMDAT ??_C@_0BI@PJOL@Sfx?2Towners?2Witch21?4wav?$AA@
_DATA	SEGMENT
??_C@_0BI@PJOL@Sfx?2Towners?2Witch21?4wav?$AA@ DB 'Sfx\Towners\Witch21.wa'
	DB	'v', 00H					; `string'
_DATA	ENDS
;	COMDAT ??_C@_0BI@BJIE@Sfx?2Towners?2Witch22?4wav?$AA@
_DATA	SEGMENT
??_C@_0BI@BJIE@Sfx?2Towners?2Witch22?4wav?$AA@ DB 'Sfx\Towners\Witch22.wa'
	DB	'v', 00H					; `string'
_DATA	ENDS
;	COMDAT ??_C@_0BI@LJKB@Sfx?2Towners?2Witch23?4wav?$AA@
_DATA	SEGMENT
??_C@_0BI@LJKB@Sfx?2Towners?2Witch23?4wav?$AA@ DB 'Sfx\Towners\Witch23.wa'
	DB	'v', 00H					; `string'
_DATA	ENDS
;	COMDAT ??_C@_0BI@NJFL@Sfx?2Towners?2Witch24?4wav?$AA@
_DATA	SEGMENT
??_C@_0BI@NJFL@Sfx?2Towners?2Witch24?4wav?$AA@ DB 'Sfx\Towners\Witch24.wa'
	DB	'v', 00H					; `string'
_DATA	ENDS
;	COMDAT ??_C@_0BI@HJHO@Sfx?2Towners?2Witch25?4wav?$AA@
_DATA	SEGMENT
??_C@_0BI@HJHO@Sfx?2Towners?2Witch25?4wav?$AA@ DB 'Sfx\Towners\Witch25.wa'
	DB	'v', 00H					; `string'
_DATA	ENDS
;	COMDAT ??_C@_0BI@JJBB@Sfx?2Towners?2Witch26?4wav?$AA@
_DATA	SEGMENT
??_C@_0BI@JJBB@Sfx?2Towners?2Witch26?4wav?$AA@ DB 'Sfx\Towners\Witch26.wa'
	DB	'v', 00H					; `string'
_DATA	ENDS
;	COMDAT ??_C@_0BI@DJDE@Sfx?2Towners?2Witch27?4wav?$AA@
_DATA	SEGMENT
??_C@_0BI@DJDE@Sfx?2Towners?2Witch27?4wav?$AA@ DB 'Sfx\Towners\Witch27.wa'
	DB	'v', 00H					; `string'
_DATA	ENDS
;	COMDAT ??_C@_0BI@FIOE@Sfx?2Towners?2Witch28?4wav?$AA@
_DATA	SEGMENT
??_C@_0BI@FIOE@Sfx?2Towners?2Witch28?4wav?$AA@ DB 'Sfx\Towners\Witch28.wa'
	DB	'v', 00H					; `string'
_DATA	ENDS
;	COMDAT ??_C@_0BI@PIMB@Sfx?2Towners?2Witch29?4wav?$AA@
_DATA	SEGMENT
??_C@_0BI@PIMB@Sfx?2Towners?2Witch29?4wav?$AA@ DB 'Sfx\Towners\Witch29.wa'
	DB	'v', 00H					; `string'
_DATA	ENDS
;	COMDAT ??_C@_0BI@MMGO@Sfx?2Towners?2Witch30?4wav?$AA@
_DATA	SEGMENT
??_C@_0BI@MMGO@Sfx?2Towners?2Witch30?4wav?$AA@ DB 'Sfx\Towners\Witch30.wa'
	DB	'v', 00H					; `string'
_DATA	ENDS
;	COMDAT ??_C@_0BI@GMEL@Sfx?2Towners?2Witch31?4wav?$AA@
_DATA	SEGMENT
??_C@_0BI@GMEL@Sfx?2Towners?2Witch31?4wav?$AA@ DB 'Sfx\Towners\Witch31.wa'
	DB	'v', 00H					; `string'
_DATA	ENDS
;	COMDAT ??_C@_0BI@IMCE@Sfx?2Towners?2Witch32?4wav?$AA@
_DATA	SEGMENT
??_C@_0BI@IMCE@Sfx?2Towners?2Witch32?4wav?$AA@ DB 'Sfx\Towners\Witch32.wa'
	DB	'v', 00H					; `string'
_DATA	ENDS
;	COMDAT ??_C@_0BI@CMAB@Sfx?2Towners?2Witch33?4wav?$AA@
_DATA	SEGMENT
??_C@_0BI@CMAB@Sfx?2Towners?2Witch33?4wav?$AA@ DB 'Sfx\Towners\Witch33.wa'
	DB	'v', 00H					; `string'
_DATA	ENDS
;	COMDAT ??_C@_0BI@EMPL@Sfx?2Towners?2Witch34?4wav?$AA@
_DATA	SEGMENT
??_C@_0BI@EMPL@Sfx?2Towners?2Witch34?4wav?$AA@ DB 'Sfx\Towners\Witch34.wa'
	DB	'v', 00H					; `string'
_DATA	ENDS
;	COMDAT ??_C@_0BI@OMNO@Sfx?2Towners?2Witch35?4wav?$AA@
_DATA	SEGMENT
??_C@_0BI@OMNO@Sfx?2Towners?2Witch35?4wav?$AA@ DB 'Sfx\Towners\Witch35.wa'
	DB	'v', 00H					; `string'
_DATA	ENDS
;	COMDAT ??_C@_0BI@MLB@Sfx?2Towners?2Witch36?4wav?$AA@
_DATA	SEGMENT
??_C@_0BI@MLB@Sfx?2Towners?2Witch36?4wav?$AA@ DB 'Sfx\Towners\Witch36.wav'
	DB	00H						; `string'
_DATA	ENDS
;	COMDAT ??_C@_0BI@KMJE@Sfx?2Towners?2Witch37?4wav?$AA@
_DATA	SEGMENT
??_C@_0BI@KMJE@Sfx?2Towners?2Witch37?4wav?$AA@ DB 'Sfx\Towners\Witch37.wa'
	DB	'v', 00H					; `string'
_DATA	ENDS
;	COMDAT ??_C@_0BI@MNEE@Sfx?2Towners?2Witch38?4wav?$AA@
_DATA	SEGMENT
??_C@_0BI@MNEE@Sfx?2Towners?2Witch38?4wav?$AA@ DB 'Sfx\Towners\Witch38.wa'
	DB	'v', 00H					; `string'
_DATA	ENDS
;	COMDAT ??_C@_0BI@GNGB@Sfx?2Towners?2Witch39?4wav?$AA@
_DATA	SEGMENT
??_C@_0BI@GNGB@Sfx?2Towners?2Witch39?4wav?$AA@ DB 'Sfx\Towners\Witch39.wa'
	DB	'v', 00H					; `string'
_DATA	ENDS
;	COMDAT ??_C@_0BI@CEAO@Sfx?2Towners?2Witch40?4wav?$AA@
_DATA	SEGMENT
??_C@_0BI@CEAO@Sfx?2Towners?2Witch40?4wav?$AA@ DB 'Sfx\Towners\Witch40.wa'
	DB	'v', 00H					; `string'
_DATA	ENDS
;	COMDAT ??_C@_0BI@IECL@Sfx?2Towners?2Witch41?4wav?$AA@
_DATA	SEGMENT
??_C@_0BI@IECL@Sfx?2Towners?2Witch41?4wav?$AA@ DB 'Sfx\Towners\Witch41.wa'
	DB	'v', 00H					; `string'
_DATA	ENDS
;	COMDAT ??_C@_0BI@GEEE@Sfx?2Towners?2Witch42?4wav?$AA@
_DATA	SEGMENT
??_C@_0BI@GEEE@Sfx?2Towners?2Witch42?4wav?$AA@ DB 'Sfx\Towners\Witch42.wa'
	DB	'v', 00H					; `string'
_DATA	ENDS
;	COMDAT ??_C@_0BI@MEGB@Sfx?2Towners?2Witch43?4wav?$AA@
_DATA	SEGMENT
??_C@_0BI@MEGB@Sfx?2Towners?2Witch43?4wav?$AA@ DB 'Sfx\Towners\Witch43.wa'
	DB	'v', 00H					; `string'
_DATA	ENDS
;	COMDAT ??_C@_0BI@KEJL@Sfx?2Towners?2Witch44?4wav?$AA@
_DATA	SEGMENT
??_C@_0BI@KEJL@Sfx?2Towners?2Witch44?4wav?$AA@ DB 'Sfx\Towners\Witch44.wa'
	DB	'v', 00H					; `string'
_DATA	ENDS
;	COMDAT ??_C@_0BI@ELO@Sfx?2Towners?2Witch45?4wav?$AA@
_DATA	SEGMENT
??_C@_0BI@ELO@Sfx?2Towners?2Witch45?4wav?$AA@ DB 'Sfx\Towners\Witch45.wav'
	DB	00H						; `string'
_DATA	ENDS
;	COMDAT ??_C@_0BI@OENB@Sfx?2Towners?2Witch46?4wav?$AA@
_DATA	SEGMENT
??_C@_0BI@OENB@Sfx?2Towners?2Witch46?4wav?$AA@ DB 'Sfx\Towners\Witch46.wa'
	DB	'v', 00H					; `string'
_DATA	ENDS
;	COMDAT ??_C@_0BI@EEPE@Sfx?2Towners?2Witch47?4wav?$AA@
_DATA	SEGMENT
??_C@_0BI@EEPE@Sfx?2Towners?2Witch47?4wav?$AA@ DB 'Sfx\Towners\Witch47.wa'
	DB	'v', 00H					; `string'
_DATA	ENDS
;	COMDAT ??_C@_0BI@CFCE@Sfx?2Towners?2Witch48?4wav?$AA@
_DATA	SEGMENT
??_C@_0BI@CFCE@Sfx?2Towners?2Witch48?4wav?$AA@ DB 'Sfx\Towners\Witch48.wa'
	DB	'v', 00H					; `string'
_DATA	ENDS
;	COMDAT ??_C@_0BI@IFAB@Sfx?2Towners?2Witch49?4wav?$AA@
_DATA	SEGMENT
??_C@_0BI@IFAB@Sfx?2Towners?2Witch49?4wav?$AA@ DB 'Sfx\Towners\Witch49.wa'
	DB	'v', 00H					; `string'
_DATA	ENDS
;	COMDAT ??_C@_0BI@LBKO@Sfx?2Towners?2Witch50?4wav?$AA@
_DATA	SEGMENT
??_C@_0BI@LBKO@Sfx?2Towners?2Witch50?4wav?$AA@ DB 'Sfx\Towners\Witch50.wa'
	DB	'v', 00H					; `string'
_DATA	ENDS
;	COMDAT ??_C@_0BI@NHHF@Sfx?2Towners?2Wound01?4wav?$AA@
_DATA	SEGMENT
??_C@_0BI@NHHF@Sfx?2Towners?2Wound01?4wav?$AA@ DB 'Sfx\Towners\Wound01.wa'
	DB	'v', 00H					; `string'
_DATA	ENDS
;	COMDAT ??_C@_0BI@EBFF@Sfx?2Sorceror?2Mage01?4wav?$AA@
_DATA	SEGMENT
??_C@_0BI@EBFF@Sfx?2Sorceror?2Mage01?4wav?$AA@ DB 'Sfx\Sorceror\Mage01.wa'
	DB	'v', 00H					; `string'
_DATA	ENDS
;	COMDAT ??_C@_0BI@KBDK@Sfx?2Sorceror?2Mage02?4wav?$AA@
_DATA	SEGMENT
??_C@_0BI@KBDK@Sfx?2Sorceror?2Mage02?4wav?$AA@ DB 'Sfx\Sorceror\Mage02.wa'
	DB	'v', 00H					; `string'
_DATA	ENDS
;	COMDAT ??_C@_0BI@BBP@Sfx?2Sorceror?2Mage03?4wav?$AA@
_DATA	SEGMENT
??_C@_0BI@BBP@Sfx?2Sorceror?2Mage03?4wav?$AA@ DB 'Sfx\Sorceror\Mage03.wav'
	DB	00H						; `string'
_DATA	ENDS
;	COMDAT ??_C@_0BI@GBOF@Sfx?2Sorceror?2Mage04?4wav?$AA@
_DATA	SEGMENT
??_C@_0BI@GBOF@Sfx?2Sorceror?2Mage04?4wav?$AA@ DB 'Sfx\Sorceror\Mage04.wa'
	DB	'v', 00H					; `string'
_DATA	ENDS
;	COMDAT ??_C@_0BI@MBMA@Sfx?2Sorceror?2Mage05?4wav?$AA@
_DATA	SEGMENT
??_C@_0BI@MBMA@Sfx?2Sorceror?2Mage05?4wav?$AA@ DB 'Sfx\Sorceror\Mage05.wa'
	DB	'v', 00H					; `string'
_DATA	ENDS
;	COMDAT ??_C@_0BI@CBKP@Sfx?2Sorceror?2Mage06?4wav?$AA@
_DATA	SEGMENT
??_C@_0BI@CBKP@Sfx?2Sorceror?2Mage06?4wav?$AA@ DB 'Sfx\Sorceror\Mage06.wa'
	DB	'v', 00H					; `string'
_DATA	ENDS
;	COMDAT ??_C@_0BI@IBIK@Sfx?2Sorceror?2Mage07?4wav?$AA@
_DATA	SEGMENT
??_C@_0BI@IBIK@Sfx?2Sorceror?2Mage07?4wav?$AA@ DB 'Sfx\Sorceror\Mage07.wa'
	DB	'v', 00H					; `string'
_DATA	ENDS
;	COMDAT ??_C@_0BI@OAFK@Sfx?2Sorceror?2Mage08?4wav?$AA@
_DATA	SEGMENT
??_C@_0BI@OAFK@Sfx?2Sorceror?2Mage08?4wav?$AA@ DB 'Sfx\Sorceror\Mage08.wa'
	DB	'v', 00H					; `string'
_DATA	ENDS
;	COMDAT ??_C@_0BI@EAHP@Sfx?2Sorceror?2Mage09?4wav?$AA@
_DATA	SEGMENT
??_C@_0BI@EAHP@Sfx?2Sorceror?2Mage09?4wav?$AA@ DB 'Sfx\Sorceror\Mage09.wa'
	DB	'v', 00H					; `string'
_DATA	ENDS
;	COMDAT ??_C@_0BI@HENA@Sfx?2Sorceror?2Mage10?4wav?$AA@
_DATA	SEGMENT
??_C@_0BI@HENA@Sfx?2Sorceror?2Mage10?4wav?$AA@ DB 'Sfx\Sorceror\Mage10.wa'
	DB	'v', 00H					; `string'
_DATA	ENDS
;	COMDAT ??_C@_0BI@NEPF@Sfx?2Sorceror?2Mage11?4wav?$AA@
_DATA	SEGMENT
??_C@_0BI@NEPF@Sfx?2Sorceror?2Mage11?4wav?$AA@ DB 'Sfx\Sorceror\Mage11.wa'
	DB	'v', 00H					; `string'
_DATA	ENDS
;	COMDAT ??_C@_0BI@DEJK@Sfx?2Sorceror?2Mage12?4wav?$AA@
_DATA	SEGMENT
??_C@_0BI@DEJK@Sfx?2Sorceror?2Mage12?4wav?$AA@ DB 'Sfx\Sorceror\Mage12.wa'
	DB	'v', 00H					; `string'
_DATA	ENDS
;	COMDAT ??_C@_0BI@JELP@Sfx?2Sorceror?2Mage13?4wav?$AA@
_DATA	SEGMENT
??_C@_0BI@JELP@Sfx?2Sorceror?2Mage13?4wav?$AA@ DB 'Sfx\Sorceror\Mage13.wa'
	DB	'v', 00H					; `string'
_DATA	ENDS
;	COMDAT ??_C@_0BI@PEEF@Sfx?2Sorceror?2Mage14?4wav?$AA@
_DATA	SEGMENT
??_C@_0BI@PEEF@Sfx?2Sorceror?2Mage14?4wav?$AA@ DB 'Sfx\Sorceror\Mage14.wa'
	DB	'v', 00H					; `string'
_DATA	ENDS
;	COMDAT ??_C@_0BI@FEGA@Sfx?2Sorceror?2Mage15?4wav?$AA@
_DATA	SEGMENT
??_C@_0BI@FEGA@Sfx?2Sorceror?2Mage15?4wav?$AA@ DB 'Sfx\Sorceror\Mage15.wa'
	DB	'v', 00H					; `string'
_DATA	ENDS
;	COMDAT ??_C@_0BI@LEAP@Sfx?2Sorceror?2Mage16?4wav?$AA@
_DATA	SEGMENT
??_C@_0BI@LEAP@Sfx?2Sorceror?2Mage16?4wav?$AA@ DB 'Sfx\Sorceror\Mage16.wa'
	DB	'v', 00H					; `string'
_DATA	ENDS
;	COMDAT ??_C@_0BI@BECK@Sfx?2Sorceror?2Mage17?4wav?$AA@
_DATA	SEGMENT
??_C@_0BI@BECK@Sfx?2Sorceror?2Mage17?4wav?$AA@ DB 'Sfx\Sorceror\Mage17.wa'
	DB	'v', 00H					; `string'
_DATA	ENDS
;	COMDAT ??_C@_0BI@HFPK@Sfx?2Sorceror?2Mage18?4wav?$AA@
_DATA	SEGMENT
??_C@_0BI@HFPK@Sfx?2Sorceror?2Mage18?4wav?$AA@ DB 'Sfx\Sorceror\Mage18.wa'
	DB	'v', 00H					; `string'
_DATA	ENDS
;	COMDAT ??_C@_0BI@NFNP@Sfx?2Sorceror?2Mage19?4wav?$AA@
_DATA	SEGMENT
