; Listing generated by Microsoft (R) Optimizing Compiler Version 12.00.9044.0 

	TITLE	Source/error.cpp
	.386P
include listing.inc
if @Version gt 510
.model FLAT
else
_TEXT	SEGMENT PARA USE32 PUBLIC 'CODE'
_TEXT	ENDS
_DATA	SEGMENT DWORD USE32 PUBLIC 'DATA'
_DATA	ENDS
CONST	SEGMENT DWORD USE32 PUBLIC 'CONST'
CONST	ENDS
_BSS	SEGMENT DWORD USE32 PUBLIC 'BSS'
_BSS	ENDS
$$SYMBOLS	SEGMENT BYTE USE32 'DEBSYM'
$$SYMBOLS	ENDS
$$TYPES	SEGMENT BYTE USE32 'DEBTYP'
$$TYPES	ENDS
_TLS	SEGMENT DWORD USE32 PUBLIC 'TLS'
_TLS	ENDS
;	COMDAT ??_C@_00A@?$AA@
_DATA	SEGMENT DWORD USE32 PUBLIC 'DATA'
_DATA	ENDS
;	COMDAT ??_C@_0BN@LJOF@No?5automap?5available?5in?5town?$AA@
_DATA	SEGMENT DWORD USE32 PUBLIC 'DATA'
_DATA	ENDS
;	COMDAT ??_C@_0CB@CDLN@No?5multiplayer?5functions?5in?5demo@
_DATA	SEGMENT DWORD USE32 PUBLIC 'DATA'
_DATA	ENDS
;	COMDAT ??_C@_0BN@MCIE@Direct?5Sound?5Creation?5Failed?$AA@
_DATA	SEGMENT DWORD USE32 PUBLIC 'DATA'
_DATA	ENDS
;	COMDAT ??_C@_0CD@KANB@Not?5available?5in?5shareware?5versi@
_DATA	SEGMENT DWORD USE32 PUBLIC 'DATA'
_DATA	ENDS
;	COMDAT ??_C@_0BJ@PIBJ@Not?5enough?5space?5to?5save?$AA@
_DATA	SEGMENT DWORD USE32 PUBLIC 'DATA'
_DATA	ENDS
;	COMDAT ??_C@_0BB@ECPB@No?5Pause?5in?5town?$AA@
_DATA	SEGMENT DWORD USE32 PUBLIC 'DATA'
_DATA	ENDS
;	COMDAT ??_C@_0CG@PFBF@Copying?5to?5a?5hard?5disk?5is?5recomm@
_DATA	SEGMENT DWORD USE32 PUBLIC 'DATA'
_DATA	ENDS
;	COMDAT ??_C@_0BJ@NOJA@Multiplayer?5sync?5problem?$AA@
_DATA	SEGMENT DWORD USE32 PUBLIC 'DATA'
_DATA	ENDS
;	COMDAT ??_C@_0BI@KKJ@No?5pause?5in?5multiplayer?$AA@
_DATA	SEGMENT DWORD USE32 PUBLIC 'DATA'
_DATA	ENDS
;	COMDAT ??_C@_0L@EAPH@Loading?4?4?4?$AA@
_DATA	SEGMENT DWORD USE32 PUBLIC 'DATA'
_DATA	ENDS
;	COMDAT ??_C@_09DDOJ@Saving?4?4?4?$AA@
_DATA	SEGMENT DWORD USE32 PUBLIC 'DATA'
_DATA	ENDS
;	COMDAT ??_C@_0CG@KFCE@Some?5are?5weakened?5as?5one?5grows?5s@
_DATA	SEGMENT DWORD USE32 PUBLIC 'DATA'
_DATA	ENDS
;	COMDAT ??_C@_0CL@LICP@New?5strength?5is?5forged?5through?5d@
_DATA	SEGMENT DWORD USE32 PUBLIC 'DATA'
_DATA	ENDS
;	COMDAT ??_C@_0BP@IFIP@Those?5who?5defend?5seldom?5attack?$AA@
_DATA	SEGMENT DWORD USE32 PUBLIC 'DATA'
_DATA	ENDS
;	COMDAT ??_C@_0CI@DAIK@The?5sword?5of?5justice?5is?5swift?5an@
_DATA	SEGMENT DWORD USE32 PUBLIC 'DATA'
_DATA	ENDS
;	COMDAT ??_C@_0CO@LNPH@While?5the?5spirit?5is?5vigilant?5the@
_DATA	SEGMENT DWORD USE32 PUBLIC 'DATA'
_DATA	ENDS
;	COMDAT ??_C@_0CE@CLCE@The?5powers?5of?5mana?5refocused?5ren@
_DATA	SEGMENT DWORD USE32 PUBLIC 'DATA'
_DATA	ENDS
;	COMDAT ??_C@_0CI@FNLM@Time?5cannot?5diminish?5the?5power?5o@
_DATA	SEGMENT DWORD USE32 PUBLIC 'DATA'
_DATA	ENDS
;	COMDAT ??_C@_0CI@MKCL@Magic?5is?5not?5always?5what?5it?5seem@
_DATA	SEGMENT DWORD USE32 PUBLIC 'DATA'
_DATA	ENDS
;	COMDAT ??_C@_0CD@NGIF@What?5once?5was?5opened?5now?5is?5clos@
_DATA	SEGMENT DWORD USE32 PUBLIC 'DATA'
_DATA	ENDS
;	COMDAT ??_C@_0CG@HGEN@Intensity?5comes?5at?5the?5cost?5of?5w@
_DATA	SEGMENT DWORD USE32 PUBLIC 'DATA'
_DATA	ENDS
;	COMDAT ??_C@_0CA@HAOG@Arcane?5power?5brings?5destruction?$AA@
_DATA	SEGMENT DWORD USE32 PUBLIC 'DATA'
_DATA	ENDS
;	COMDAT ??_C@_0CL@BDLB@That?5which?5cannot?5be?5held?5cannot@
_DATA	SEGMENT DWORD USE32 PUBLIC 'DATA'
_DATA	ENDS
;	COMDAT ??_C@_0CE@IGKH@Crimson?5and?5Azure?5become?5as?5the?5@
_DATA	SEGMENT DWORD USE32 PUBLIC 'DATA'
_DATA	ENDS
;	COMDAT ??_C@_0CJ@JLIK@Knowledge?5and?5wisdom?5at?5the?5cost@
_DATA	SEGMENT DWORD USE32 PUBLIC 'DATA'
_DATA	ENDS
;	COMDAT ??_C@_0BH@FAIM@Drink?5and?5be?5refreshed?$AA@
_DATA	SEGMENT DWORD USE32 PUBLIC 'DATA'
_DATA	ENDS
;	COMDAT ??_C@_0BP@GJBH@Wherever?5you?5go?0?5there?5you?5are?$AA@
_DATA	SEGMENT DWORD USE32 PUBLIC 'DATA'
_DATA	ENDS
;	COMDAT ??_C@_0CD@HFOA@Energy?5comes?5at?5the?5cost?5of?5wisd@
_DATA	SEGMENT DWORD USE32 PUBLIC 'DATA'
_DATA	ENDS
;	COMDAT ??_C@_0CC@CDHP@Riches?5abound?5when?5least?5expecte@
_DATA	SEGMENT DWORD USE32 PUBLIC 'DATA'
_DATA	ENDS
;	COMDAT ??_C@_0CL@PL@Where?5avarice?5fails?0?5patience?5ga@
_DATA	SEGMENT DWORD USE32 PUBLIC 'DATA'
_DATA	ENDS
;	COMDAT ??_C@_0CD@HAKH@Blessed?5by?5a?5benevolent?5companio@
_DATA	SEGMENT DWORD USE32 PUBLIC 'DATA'
_DATA	ENDS
;	COMDAT ??_C@_0CH@CAAP@The?5hands?5of?5men?5may?5be?5guided?5b@
_DATA	SEGMENT DWORD USE32 PUBLIC 'DATA'
_DATA	ENDS
;	COMDAT ??_C@_0CI@OPG@Strength?5is?5bolstered?5by?5heavenl@
_DATA	SEGMENT DWORD USE32 PUBLIC 'DATA'
_DATA	ENDS
;	COMDAT ??_C@_0CG@MHHI@The?5essence?5of?5life?5flows?5from?5w@
_DATA	SEGMENT DWORD USE32 PUBLIC 'DATA'
_DATA	ENDS
;	COMDAT ??_C@_0CN@MMFF@The?5way?5is?5made?5clear?5when?5viewe@
_DATA	SEGMENT DWORD USE32 PUBLIC 'DATA'
_DATA	ENDS
;	COMDAT ??_C@_0CG@IMON@Salvation?5comes?5at?5the?5cost?5of?5w@
_DATA	SEGMENT DWORD USE32 PUBLIC 'DATA'
_DATA	ENDS
;	COMDAT ??_C@_0CO@GPHM@Mysteries?5are?5revealed?5in?5the?5li@
_DATA	SEGMENT DWORD USE32 PUBLIC 'DATA'
_DATA	ENDS
;	COMDAT ??_C@_0CE@KIPP@Those?5who?5are?5last?5may?5yet?5be?5fi@
_DATA	SEGMENT DWORD USE32 PUBLIC 'DATA'
_DATA	ENDS
;	COMDAT ??_C@_0CC@BOGM@Generosity?5brings?5its?5own?5reward@
_DATA	SEGMENT DWORD USE32 PUBLIC 'DATA'
_DATA	ENDS
;	COMDAT ??_C@_0CK@NBD@You?5must?5be?5at?5least?5level?58?5to?5@
_DATA	SEGMENT DWORD USE32 PUBLIC 'DATA'
_DATA	ENDS
;	COMDAT ??_C@_0CL@ONGA@You?5must?5be?5at?5least?5level?513?5to@
_DATA	SEGMENT DWORD USE32 PUBLIC 'DATA'
_DATA	ENDS
;	COMDAT ??_C@_0CL@GMCF@You?5must?5be?5at?5least?5level?517?5to@
_DATA	SEGMENT DWORD USE32 PUBLIC 'DATA'
_DATA	ENDS
;	COMDAT ??_C@_0BJ@NGLL@Arcane?5knowledge?5gained?$CB?$AA@
_DATA	SEGMENT DWORD USE32 PUBLIC 'DATA'
_DATA	ENDS
CRT$XCU	SEGMENT DWORD USE32 PUBLIC ''
CRT$XCU	ENDS
;	COMDAT @InitDiabloMsg@4
_TEXT	SEGMENT PARA USE32 PUBLIC 'CODE'
_TEXT	ENDS
;	COMDAT _ClrDiabloMsg
_TEXT	SEGMENT PARA USE32 PUBLIC 'CODE'
_TEXT	ENDS
;	COMDAT _DrawDiabloMsg
_TEXT	SEGMENT PARA USE32 PUBLIC 'CODE'
_TEXT	ENDS
FLAT	GROUP _DATA, CONST, _BSS, CRT$XCU
	ASSUME	CS: FLAT, DS: FLAT, SS: FLAT
endif

INCLUDELIB LIBCMT
INCLUDELIB OLDNAMES

PUBLIC	??_C@_00A@?$AA@					; `string'
PUBLIC	??_C@_0BN@LJOF@No?5automap?5available?5in?5town?$AA@ ; `string'
PUBLIC	??_C@_0CB@CDLN@No?5multiplayer?5functions?5in?5demo@ ; `string'
PUBLIC	??_C@_0BN@MCIE@Direct?5Sound?5Creation?5Failed?$AA@ ; `string'
PUBLIC	??_C@_0CD@KANB@Not?5available?5in?5shareware?5versi@ ; `string'
PUBLIC	??_C@_0BJ@PIBJ@Not?5enough?5space?5to?5save?$AA@ ; `string'
PUBLIC	??_C@_0BB@ECPB@No?5Pause?5in?5town?$AA@		; `string'
PUBLIC	??_C@_0CG@PFBF@Copying?5to?5a?5hard?5disk?5is?5recomm@ ; `string'
PUBLIC	??_C@_0BJ@NOJA@Multiplayer?5sync?5problem?$AA@	; `string'
PUBLIC	??_C@_0BI@KKJ@No?5pause?5in?5multiplayer?$AA@	; `string'
PUBLIC	??_C@_0L@EAPH@Loading?4?4?4?$AA@		; `string'
PUBLIC	??_C@_09DDOJ@Saving?4?4?4?$AA@			; `string'
PUBLIC	??_C@_0CG@KFCE@Some?5are?5weakened?5as?5one?5grows?5s@ ; `string'
PUBLIC	??_C@_0CL@LICP@New?5strength?5is?5forged?5through?5d@ ; `string'
PUBLIC	??_C@_0BP@IFIP@Those?5who?5defend?5seldom?5attack?$AA@ ; `string'
PUBLIC	??_C@_0CI@DAIK@The?5sword?5of?5justice?5is?5swift?5an@ ; `string'
PUBLIC	??_C@_0CO@LNPH@While?5the?5spirit?5is?5vigilant?5the@ ; `string'
PUBLIC	??_C@_0CE@CLCE@The?5powers?5of?5mana?5refocused?5ren@ ; `string'
PUBLIC	??_C@_0CI@FNLM@Time?5cannot?5diminish?5the?5power?5o@ ; `string'
PUBLIC	??_C@_0CI@MKCL@Magic?5is?5not?5always?5what?5it?5seem@ ; `string'
PUBLIC	??_C@_0CD@NGIF@What?5once?5was?5opened?5now?5is?5clos@ ; `string'
PUBLIC	??_C@_0CG@HGEN@Intensity?5comes?5at?5the?5cost?5of?5w@ ; `string'
PUBLIC	??_C@_0CA@HAOG@Arcane?5power?5brings?5destruction?$AA@ ; `string'
PUBLIC	??_C@_0CL@BDLB@That?5which?5cannot?5be?5held?5cannot@ ; `string'
PUBLIC	??_C@_0CE@IGKH@Crimson?5and?5Azure?5become?5as?5the?5@ ; `string'
PUBLIC	??_C@_0CJ@JLIK@Knowledge?5and?5wisdom?5at?5the?5cost@ ; `string'
PUBLIC	??_C@_0BH@FAIM@Drink?5and?5be?5refreshed?$AA@	; `string'
PUBLIC	??_C@_0BP@GJBH@Wherever?5you?5go?0?5there?5you?5are?$AA@ ; `string'
PUBLIC	??_C@_0CD@HFOA@Energy?5comes?5at?5the?5cost?5of?5wisd@ ; `string'
PUBLIC	??_C@_0CC@CDHP@Riches?5abound?5when?5least?5expecte@ ; `string'
PUBLIC	??_C@_0CL@PL@Where?5avarice?5fails?0?5patience?5ga@ ; `string'
PUBLIC	??_C@_0CD@HAKH@Blessed?5by?5a?5benevolent?5companio@ ; `string'
PUBLIC	??_C@_0CH@CAAP@The?5hands?5of?5men?5may?5be?5guided?5b@ ; `string'
PUBLIC	??_C@_0CI@OPG@Strength?5is?5bolstered?5by?5heavenl@ ; `string'
PUBLIC	??_C@_0CG@MHHI@The?5essence?5of?5life?5flows?5from?5w@ ; `string'
PUBLIC	??_C@_0CN@MMFF@The?5way?5is?5made?5clear?5when?5viewe@ ; `string'
PUBLIC	??_C@_0CG@IMON@Salvation?5comes?5at?5the?5cost?5of?5w@ ; `string'
PUBLIC	??_C@_0CO@GPHM@Mysteries?5are?5revealed?5in?5the?5li@ ; `string'
PUBLIC	??_C@_0CE@KIPP@Those?5who?5are?5last?5may?5yet?5be?5fi@ ; `string'
PUBLIC	??_C@_0CC@BOGM@Generosity?5brings?5its?5own?5reward@ ; `string'
PUBLIC	??_C@_0CK@NBD@You?5must?5be?5at?5least?5level?58?5to?5@ ; `string'
PUBLIC	??_C@_0CL@ONGA@You?5must?5be?5at?5least?5level?513?5to@ ; `string'
PUBLIC	??_C@_0CL@GMCF@You?5must?5be?5at?5least?5level?517?5to@ ; `string'
PUBLIC	??_C@_0BJ@NGLL@Arcane?5knowledge?5gained?$CB?$AA@ ; `string'
PUBLIC	_MsgStrings
;	COMDAT ??_C@_00A@?$AA@
_BSS	SEGMENT
??_C@_00A@?$AA@ DB 01H DUP (?)				; `string'
_BSS	ENDS
_DATA	SEGMENT
COMM	_msgtable:BYTE:050H
COMM	_msgdelay:BYTE
COMM	_msgflag:BYTE
COMM	_msgcnt:BYTE
_DATA	ENDS
;	COMDAT ??_C@_0BN@LJOF@No?5automap?5available?5in?5town?$AA@
_DATA	SEGMENT
??_C@_0BN@LJOF@No?5automap?5available?5in?5town?$AA@ DB 'No automap avail'
	DB	'able in town', 00H				; `string'
_DATA	ENDS
;	COMDAT ??_C@_0CB@CDLN@No?5multiplayer?5functions?5in?5demo@
_DATA	SEGMENT
??_C@_0CB@CDLN@No?5multiplayer?5functions?5in?5demo@ DB 'No multiplayer f'
	DB	'unctions in demo', 00H			; `string'
_DATA	ENDS
;	COMDAT ??_C@_0BN@MCIE@Direct?5Sound?5Creation?5Failed?$AA@
_DATA	SEGMENT
??_C@_0BN@MCIE@Direct?5Sound?5Creation?5Failed?$AA@ DB 'Direct Sound Crea'
	DB	'tion Failed', 00H				; `string'
_DATA	ENDS
;	COMDAT ??_C@_0CD@KANB@Not?5available?5in?5shareware?5versi@
_DATA	SEGMENT
??_C@_0CD@KANB@Not?5available?5in?5shareware?5versi@ DB 'Not available in'
	DB	' shareware version', 00H			; `string'
_DATA	ENDS
;	COMDAT ??_C@_0BJ@PIBJ@Not?5enough?5space?5to?5save?$AA@
_DATA	SEGMENT
??_C@_0BJ@PIBJ@Not?5enough?5space?5to?5save?$AA@ DB 'Not enough space to '
	DB	'save', 00H					; `string'
_DATA	ENDS
;	COMDAT ??_C@_0BB@ECPB@No?5Pause?5in?5town?$AA@
_DATA	SEGMENT
??_C@_0BB@ECPB@No?5Pause?5in?5town?$AA@ DB 'No Pause in town', 00H ; `string'
_DATA	ENDS
;	COMDAT ??_C@_0CG@PFBF@Copying?5to?5a?5hard?5disk?5is?5recomm@
_DATA	SEGMENT
??_C@_0CG@PFBF@Copying?5to?5a?5hard?5disk?5is?5recomm@ DB 'Copying to a h'
	DB	'ard disk is recommended', 00H		; `string'
_DATA	ENDS
;	COMDAT ??_C@_0BJ@NOJA@Multiplayer?5sync?5problem?$AA@
_DATA	SEGMENT
??_C@_0BJ@NOJA@Multiplayer?5sync?5problem?$AA@ DB 'Multiplayer sync probl'
	DB	'em', 00H					; `string'
_DATA	ENDS
;	COMDAT ??_C@_0BI@KKJ@No?5pause?5in?5multiplayer?$AA@
_DATA	SEGMENT
??_C@_0BI@KKJ@No?5pause?5in?5multiplayer?$AA@ DB 'No pause in multiplayer'
	DB	00H						; `string'
_DATA	ENDS
;	COMDAT ??_C@_0L@EAPH@Loading?4?4?4?$AA@
_DATA	SEGMENT
??_C@_0L@EAPH@Loading?4?4?4?$AA@ DB 'Loading...', 00H	; `string'
_DATA	ENDS
;	COMDAT ??_C@_09DDOJ@Saving?4?4?4?$AA@
_DATA	SEGMENT
??_C@_09DDOJ@Saving?4?4?4?$AA@ DB 'Saving...', 00H	; `string'
_DATA	ENDS
;	COMDAT ??_C@_0CG@KFCE@Some?5are?5weakened?5as?5one?5grows?5s@
_DATA	SEGMENT
??_C@_0CG@KFCE@Some?5are?5weakened?5as?5one?5grows?5s@ DB 'Some are weake'
	DB	'ned as one grows strong', 00H		; `string'
_DATA	ENDS
;	COMDAT ??_C@_0CL@LICP@New?5strength?5is?5forged?5through?5d@
_DATA	SEGMENT
??_C@_0CL@LICP@New?5strength?5is?5forged?5through?5d@ DB 'New strength is'
	DB	' forged through destruction', 00H		; `string'
_DATA	ENDS
;	COMDAT ??_C@_0BP@IFIP@Those?5who?5defend?5seldom?5attack?$AA@
_DATA	SEGMENT
??_C@_0BP@IFIP@Those?5who?5defend?5seldom?5attack?$AA@ DB 'Those who defe'
	DB	'nd seldom attack', 00H			; `string'
_DATA	ENDS
;	COMDAT ??_C@_0CI@DAIK@The?5sword?5of?5justice?5is?5swift?5an@
_DATA	SEGMENT
??_C@_0CI@DAIK@The?5sword?5of?5justice?5is?5swift?5an@ DB 'The sword of j'
	DB	'ustice is swift and sharp', 00H		; `string'
_DATA	ENDS
;	COMDAT ??_C@_0CO@LNPH@While?5the?5spirit?5is?5vigilant?5the@
_DATA	SEGMENT
??_C@_0CO@LNPH@While?5the?5spirit?5is?5vigilant?5the@ DB 'While the spiri'
	DB	't is vigilant the body thrives', 00H	; `string'
_DATA	ENDS
;	COMDAT ??_C@_0CE@CLCE@The?5powers?5of?5mana?5refocused?5ren@
_DATA	SEGMENT
??_C@_0CE@CLCE@The?5powers?5of?5mana?5refocused?5ren@ DB 'The powers of m'
	DB	'ana refocused renews', 00H			; `string'
_DATA	ENDS
;	COMDAT ??_C@_0CI@FNLM@Time?5cannot?5diminish?5the?5power?5o@
_DATA	SEGMENT
??_C@_0CI@FNLM@Time?5cannot?5diminish?5the?5power?5o@ DB 'Time cannot dim'
	DB	'inish the power of steel', 00H		; `string'
_DATA	ENDS
;	COMDAT ??_C@_0CI@MKCL@Magic?5is?5not?5always?5what?5it?5seem@
_DATA	SEGMENT
??_C@_0CI@MKCL@Magic?5is?5not?5always?5what?5it?5seem@ DB 'Magic is not a'
	DB	'lways what it seems to be', 00H		; `string'
_DATA	ENDS
;	COMDAT ??_C@_0CD@NGIF@What?5once?5was?5opened?5now?5is?5clos@
_DATA	SEGMENT
??_C@_0CD@NGIF@What?5once?5was?5opened?5now?5is?5clos@ DB 'What once was '
	DB	'opened now is closed', 00H			; `string'
_DATA	ENDS
;	COMDAT ??_C@_0CG@HGEN@Intensity?5comes?5at?5the?5cost?5of?5w@
_DATA	SEGMENT
??_C@_0CG@HGEN@Intensity?5comes?5at?5the?5cost?5of?5w@ DB 'Intensity come'
	DB	's at the cost of wisdom', 00H		; `string'
_DATA	ENDS
;	COMDAT ??_C@_0CA@HAOG@Arcane?5power?5brings?5destruction?$AA@
_DATA	SEGMENT
??_C@_0CA@HAOG@Arcane?5power?5brings?5destruction?$AA@ DB 'Arcane power b'
	DB	'rings destruction', 00H			; `string'
_DATA	ENDS
;	COMDAT ??_C@_0CL@BDLB@That?5which?5cannot?5be?5held?5cannot@
_DATA	SEGMENT
??_C@_0CL@BDLB@That?5which?5cannot?5be?5held?5cannot@ DB 'That which cann'
	DB	'ot be held cannot be harmed', 00H		; `string'
_DATA	ENDS
;	COMDAT ??_C@_0CE@IGKH@Crimson?5and?5Azure?5become?5as?5the?5@
_DATA	SEGMENT
??_C@_0CE@IGKH@Crimson?5and?5Azure?5become?5as?5the?5@ DB 'Crimson and Az'
	DB	'ure become as the sun', 00H			; `string'
_DATA	ENDS
;	COMDAT ??_C@_0CJ@JLIK@Knowledge?5and?5wisdom?5at?5the?5cost@
_DATA	SEGMENT
??_C@_0CJ@JLIK@Knowledge?5and?5wisdom?5at?5the?5cost@ DB 'Knowledge and w'
	DB	'isdom at the cost of self', 00H		; `string'
_DATA	ENDS
;	COMDAT ??_C@_0BH@FAIM@Drink?5and?5be?5refreshed?$AA@
_DATA	SEGMENT
??_C@_0BH@FAIM@Drink?5and?5be?5refreshed?$AA@ DB 'Drink and be refreshed', 00H ; `string'
_DATA	ENDS
;	COMDAT ??_C@_0BP@GJBH@Wherever?5you?5go?0?5there?5you?5are?$AA@
_DATA	SEGMENT
??_C@_0BP@GJBH@Wherever?5you?5go?0?5there?5you?5are?$AA@ DB 'Wherever you'
	DB	' go, there you are', 00H			; `string'
_DATA	ENDS
;	COMDAT ??_C@_0CD@HFOA@Energy?5comes?5at?5the?5cost?5of?5wisd@
_DATA	SEGMENT
??_C@_0CD@HFOA@Energy?5comes?5at?5the?5cost?5of?5wisd@ DB 'Energy comes a'
	DB	't the cost of wisdom', 00H			; `string'
_DATA	ENDS
;	COMDAT ??_C@_0CC@CDHP@Riches?5abound?5when?5least?5expecte@
_DATA	SEGMENT
??_C@_0CC@CDHP@Riches?5abound?5when?5least?5expecte@ DB 'Riches abound wh'
	DB	'en least expected', 00H			; `string'
_DATA	ENDS
;	COMDAT ??_C@_0CL@PL@Where?5avarice?5fails?0?5patience?5ga@
_DATA	SEGMENT
??_C@_0CL@PL@Where?5avarice?5fails?0?5patience?5ga@ DB 'Where avarice fai'
	DB	'ls, patience gains reward', 00H		; `string'
_DATA	ENDS
;	COMDAT ??_C@_0CD@HAKH@Blessed?5by?5a?5benevolent?5companio@
_DATA	SEGMENT
??_C@_0CD@HAKH@Blessed?5by?5a?5benevolent?5companio@ DB 'Blessed by a ben'
	DB	'evolent companion!', 00H			; `string'
_DATA	ENDS
;	COMDAT ??_C@_0CH@CAAP@The?5hands?5of?5men?5may?5be?5guided?5b@
_DATA	SEGMENT
??_C@_0CH@CAAP@The?5hands?5of?5men?5may?5be?5guided?5b@ DB 'The hands of '
	DB	'men may be guided by fate', 00H		; `string'
_DATA	ENDS
;	COMDAT ??_C@_0CI@OPG@Strength?5is?5bolstered?5by?5heavenl@
_DATA	SEGMENT
??_C@_0CI@OPG@Strength?5is?5bolstered?5by?5heavenl@ DB 'Strength is bolst'
	DB	'ered by heavenly faith', 00H		; `string'
_DATA	ENDS
;	COMDAT ??_C@_0CG@MHHI@The?5essence?5of?5life?5flows?5from?5w@
_DATA	SEGMENT
??_C@_0CG@MHHI@The?5essence?5of?5life?5flows?5from?5w@ DB 'The essence of'
	DB	' life flows from within', 00H		; `string'
_DATA	ENDS
;	COMDAT ??_C@_0CN@MMFF@The?5way?5is?5made?5clear?5when?5viewe@
_DATA	SEGMENT
??_C@_0CN@MMFF@The?5way?5is?5made?5clear?5when?5viewe@ DB 'The way is mad'
	DB	'e clear when viewed from above', 00H	; `string'
_DATA	ENDS
;	COMDAT ??_C@_0CG@IMON@Salvation?5comes?5at?5the?5cost?5of?5w@
_DATA	SEGMENT
??_C@_0CG@IMON@Salvation?5comes?5at?5the?5cost?5of?5w@ DB 'Salvation come'
	DB	's at the cost of wisdom', 00H		; `string'
_DATA	ENDS
;	COMDAT ??_C@_0CO@GPHM@Mysteries?5are?5revealed?5in?5the?5li@
_DATA	SEGMENT
??_C@_0CO@GPHM@Mysteries?5are?5revealed?5in?5the?5li@ DB 'Mysteries are r'
	DB	'evealed in the light of reason', 00H	; `string'
_DATA	ENDS
;	COMDAT ??_C@_0CE@KIPP@Those?5who?5are?5last?5may?5yet?5be?5fi@
_DATA	SEGMENT
??_C@_0CE@KIPP@Those?5who?5are?5last?5may?5yet?5be?5fi@ DB 'Those who are'
	DB	' last may yet be first', 00H		; `string'
_DATA	ENDS
;	COMDAT ??_C@_0CC@BOGM@Generosity?5brings?5its?5own?5reward@
_DATA	SEGMENT
??_C@_0CC@BOGM@Generosity?5brings?5its?5own?5reward@ DB 'Generosity bring'
	DB	's its own rewards', 00H			; `string'
_DATA	ENDS
;	COMDAT ??_C@_0CK@NBD@You?5must?5be?5at?5least?5level?58?5to?5@
_DATA	SEGMENT
??_C@_0CK@NBD@You?5must?5be?5at?5least?5level?58?5to?5@ DB 'You must be a'
	DB	't least level 8 to use this.', 00H		; `string'
_DATA	ENDS
;	COMDAT ??_C@_0CL@ONGA@You?5must?5be?5at?5least?5level?513?5to@
_DATA	SEGMENT
??_C@_0CL@ONGA@You?5must?5be?5at?5least?5level?513?5to@ DB 'You must be a'
	DB	't least level 13 to use this.', 00H		; `string'
_DATA	ENDS
;	COMDAT ??_C@_0CL@GMCF@You?5must?5be?5at?5least?5level?517?5to@
_DATA	SEGMENT
??_C@_0CL@GMCF@You?5must?5be?5at?5least?5level?517?5to@ DB 'You must be a'
	DB	't least level 17 to use this.', 00H		; `string'
_DATA	ENDS
;	COMDAT ??_C@_0BJ@NGLL@Arcane?5knowledge?5gained?$CB?$AA@
_DATA	SEGMENT
??_C@_0BJ@NGLL@Arcane?5knowledge?5gained?$CB?$AA@ DB 'Arcane knowledge ga'
	DB	'ined!', 00H					; `string'
_DATA	ENDS
_DATA	SEGMENT
_MsgStrings DD	FLAT:??_C@_00A@?$AA@
	DD	FLAT:??_C@_0BN@LJOF@No?5automap?5available?5in?5town?$AA@
	DD	FLAT:??_C@_0CB@CDLN@No?5multiplayer?5functions?5in?5demo@
	DD	FLAT:??_C@_0BN@MCIE@Direct?5Sound?5Creation?5Failed?$AA@
	DD	FLAT:??_C@_0CD@KANB@Not?5available?5in?5shareware?5versi@
	DD	FLAT:??_C@_0BJ@PIBJ@Not?5enough?5space?5to?5save?$AA@
	DD	FLAT:??_C@_0BB@ECPB@No?5Pause?5in?5town?$AA@
	DD	FLAT:??_C@_0CG@PFBF@Copying?5to?5a?5hard?5disk?5is?5recomm@
	DD	FLAT:??_C@_0BJ@NOJA@Multiplayer?5sync?5problem?$AA@
	DD	FLAT:??_C@_0BI@KKJ@No?5pause?5in?5multiplayer?$AA@
	DD	FLAT:??_C@_0L@EAPH@Loading?4?4?4?$AA@
	DD	FLAT:??_C@_09DDOJ@Saving?4?4?4?$AA@
	DD	FLAT:??_C@_0CG@KFCE@Some?5are?5weakened?5as?5one?5grows?5s@
	DD	FLAT:??_C@_0CL@LICP@New?5strength?5is?5forged?5through?5d@
	DD	FLAT:??_C@_0BP@IFIP@Those?5who?5defend?5seldom?5attack?$AA@
	DD	FLAT:??_C@_0CI@DAIK@The?5sword?5of?5justice?5is?5swift?5an@
	DD	FLAT:??_C@_0CO@LNPH@While?5the?5spirit?5is?5vigilant?5the@
	DD	FLAT:??_C@_0CE@CLCE@The?5powers?5of?5mana?5refocused?5ren@
	DD	FLAT:??_C@_0CI@FNLM@Time?5cannot?5diminish?5the?5power?5o@
	DD	FLAT:??_C@_0CI@MKCL@Magic?5is?5not?5always?5what?5it?5seem@
	DD	FLAT:??_C@_0CD@NGIF@What?5once?5was?5opened?5now?5is?5clos@
	DD	FLAT:??_C@_0CG@HGEN@Intensity?5comes?5at?5the?5cost?5of?5w@
	DD	FLAT:??_C@_0CA@HAOG@Arcane?5power?5brings?5destruction?$AA@
	DD	FLAT:??_C@_0CL@BDLB@That?5which?5cannot?5be?5held?5cannot@
	DD	FLAT:??_C@_0CE@IGKH@Crimson?5and?5Azure?5become?5as?5the?5@
	DD	FLAT:??_C@_0CJ@JLIK@Knowledge?5and?5wisdom?5at?5the?5cost@
	DD	FLAT:??_C@_0BH@FAIM@Drink?5and?5be?5refreshed?$AA@
	DD	FLAT:??_C@_0BP@GJBH@Wherever?5you?5go?0?5there?5you?5are?$AA@
	DD	FLAT:??_C@_0CD@HFOA@Energy?5comes?5at?5the?5cost?5of?5wisd@
	DD	FLAT:??_C@_0CC@CDHP@Riches?5abound?5when?5least?5expecte@
	DD	FLAT:??_C@_0CL@PL@Where?5avarice?5fails?0?5patience?5ga@
	DD	FLAT:??_C@_0CD@HAKH@Blessed?5by?5a?5benevolent?5companio@
	DD	FLAT:??_C@_0CH@CAAP@The?5hands?5of?5men?5may?5be?5guided?5b@
	DD	FLAT:??_C@_0CI@OPG@Strength?5is?5bolstered?5by?5heavenl@
	DD	FLAT:??_C@_0CG@MHHI@The?5essence?5of?5life?5flows?5from?5w@
	DD	FLAT:??_C@_0CN@MMFF@The?5way?5is?5made?5clear?5when?5viewe@
	DD	FLAT:??_C@_0CG@IMON@Salvation?5comes?5at?5the?5cost?5of?5w@
	DD	FLAT:??_C@_0CO@GPHM@Mysteries?5are?5revealed?5in?5the?5li@
	DD	FLAT:??_C@_0CE@KIPP@Those?5who?5are?5last?5may?5yet?5be?5fi@
	DD	FLAT:??_C@_0CC@BOGM@Generosity?5brings?5its?5own?5reward@
	DD	FLAT:??_C@_0CK@NBD@You?5must?5be?5at?5least?5level?58?5to?5@
	DD	FLAT:??_C@_0CL@ONGA@You?5must?5be?5at?5least?5level?513?5to@
	DD	FLAT:??_C@_0CL@GMCF@You?5must?5be?5at?5least?5level?517?5to@
	DD	FLAT:??_C@_0BJ@NGLL@Arcane?5knowledge?5gained?$CB?$AA@
_DATA	ENDS
PUBLIC	@InitDiabloMsg@4
; Function compile flags: /Ogsy
;	COMDAT @InitDiabloMsg@4
_TEXT	SEGMENT
@InitDiabloMsg@4 PROC NEAR				; COMDAT
; _e$ = cl
; File Source/error.cpp
; Line 61
	movsx	eax, BYTE PTR _msgcnt
	xor	edx, edx
	test	eax, eax
	jle	SHORT $L85032
$L85030:
; Line 62
	cmp	BYTE PTR _msgtable[edx], cl
	je	SHORT $L85028
	inc	edx
	cmp	edx, eax
	jl	SHORT $L85030
$L85032:
; Line 67
	cmp	BYTE PTR _msgcnt, 80			; 00000050H
	mov	BYTE PTR _msgtable[eax], cl
	jge	SHORT $L85035
; Line 68
	inc	BYTE PTR _msgcnt
$L85035:
; Line 70
	mov	al, BYTE PTR _msgtable
; Line 71
	mov	BYTE PTR _msgdelay, 70			; 00000046H
	mov	BYTE PTR _msgflag, al
$L85028:
; Line 72
	ret	0
@InitDiabloMsg@4 ENDP
_TEXT	ENDS
PUBLIC	_ClrDiabloMsg
; Function compile flags: /Ogsy
;	COMDAT _ClrDiabloMsg
_TEXT	SEGMENT
_ClrDiabloMsg PROC NEAR					; COMDAT
; Line 75
	push	edi
; Line 79
	push	20					; 00000014H
	pop	ecx
	xor	eax, eax
; Line 81
	and	BYTE PTR _msgflag, al
; Line 82
	and	BYTE PTR _msgcnt, al
	mov	edi, OFFSET FLAT:_msgtable
	rep stosd
	pop	edi
; Line 83
	ret	0
_ClrDiabloMsg ENDP
_TEXT	ENDS
PUBLIC	_DrawDiabloMsg
EXTRN	_fontframe:BYTE
EXTRN	_fontkern:BYTE
EXTRN	_fontidx:BYTE
EXTRN	_gpBuffer:DWORD
EXTRN	_screen_y_times_768:BYTE
EXTRN	@CelDecodeOnly@20:NEAR
EXTRN	_pSTextSlidCels:DWORD
EXTRN	_tempstr:BYTE
EXTRN	_strcpy:NEAR
EXTRN	_strlen:NEAR
EXTRN	@CPrintString@12:NEAR
; Function compile flags: /Ogsy
;	COMDAT _DrawDiabloMsg
_TEXT	SEGMENT
_v9$ = -8
_screen_x$ = -4
_DrawDiabloMsg PROC NEAR				; COMDAT
; Line 86
	push	ebp
	mov	ebp, esp
	push	ecx
	push	ecx
	push	ebx
	push	esi
	push	edi
; Line 101
	push	12					; 0000000cH
	pop	ebx
	mov	edi, 318				; 0000013eH
	push	ebx
	push	1
	push	DWORD PTR _pSTextSlidCels
	mov	edx, edi
	mov	ecx, 165				; 000000a5H
	call	@CelDecodeOnly@20
; Line 102
	push	ebx
	push	4
	push	DWORD PTR _pSTextSlidCels
	mov	edx, edi
	mov	ecx, 591				; 0000024fH
	call	@CelDecodeOnly@20
; Line 103
	push	ebx
	push	2
	push	DWORD PTR _pSTextSlidCels
	mov	esi, 366				; 0000016eH
	mov	edx, esi
	mov	ecx, 165				; 000000a5H
	call	@CelDecodeOnly@20
; Line 104
	push	ebx
	push	3
	push	DWORD PTR _pSTextSlidCels
	mov	edx, esi
	mov	ecx, 591				; 0000024fH
	call	@CelDecodeOnly@20
; Line 105
	mov	DWORD PTR _screen_x$[ebp], 173		; 000000adH
	mov	DWORD PTR -8+[ebp], 35			; 00000023H
$L85055:
; Line 108
	mov	ecx, DWORD PTR _screen_x$[ebp]
	push	ebx
	push	5
	mov	edx, edi
	push	DWORD PTR _pSTextSlidCels
	call	@CelDecodeOnly@20
; Line 109
	mov	ecx, DWORD PTR _screen_x$[ebp]
	push	ebx
	push	7
	mov	edx, esi
	push	DWORD PTR _pSTextSlidCels
	call	@CelDecodeOnly@20
; Line 110
	add	DWORD PTR _screen_x$[ebp], ebx
; Line 112
	dec	DWORD PTR -8+[ebp]
	jne	SHORT $L85055
; Line 113
	push	3
	mov	esi, 330				; 0000014aH
	pop	edi
$L85058:
; Line 116
	push	ebx
	push	6
	push	DWORD PTR _pSTextSlidCels
	mov	edx, esi
	mov	ecx, 165				; 000000a5H
	call	@CelDecodeOnly@20
; Line 117
	push	ebx
	push	8
	push	DWORD PTR _pSTextSlidCels
	mov	edx, esi
	mov	ecx, 591				; 0000024fH
	call	@CelDecodeOnly@20
; Line 118
	add	esi, ebx
; Line 120
	dec	edi
	jne	SHORT $L85058
; File Source/asm_trans_rect.inc
; Line 16
	mov	edi, DWORD PTR _gpBuffer
; Line 18
	add	edi, 278952				; 000441a8H
; Line 19
	xor	eax, eax
; Line 20
	mov	edx, 27					; 0000001bH
$yloop$85062:
; Line 22
	mov	ecx, 216				; 000000d8H
$x0loop$85063:
; Line 24
	stosb
; Line 25
	inc	edi
; Line 26
	loop	$x0loop$85063
; Line 30
	sub	edi, 1200				; 000004b0H
; Line 31
	mov	ecx, 216				; 000000d8H
$x1loop$85064:
; Line 33
	inc	edi
; Line 34
	stosb
; Line 35
	loop	$x1loop$85064
; Line 36
	sub	edi, 1200				; 000004b0H
; Line 37
	dec	edx
; Line 38
	jne	SHORT $yloop$85062
; File Source/error.cpp
; Line 128
	movsx	eax, BYTE PTR _msgflag
	mov	esi, OFFSET FLAT:_tempstr
	push	DWORD PTR _MsgStrings[eax*4]
	push	esi
	call	_strcpy
; Line 129
	mov	eax, DWORD PTR _screen_y_times_768+1368
; Line 130
	push	esi
	lea	edi, DWORD PTR [eax+165]
	call	_strlen
	mov	ebx, eax
	add	esp, 12					; 0000000cH
; Line 131
	xor	eax, eax
; Line 132
	xor	ecx, ecx
; Line 134
	test	ebx, ebx
	mov	DWORD PTR _v9$[ebp], ebx
	mov	esi, 442				; 000001baH
	jle	SHORT $LABEL_27$85066
$L85067:
; Line 137
	movzx	edx, BYTE PTR _tempstr[ecx]
	inc	ecx
; Line 138
	movzx	edx, BYTE PTR _fontidx[edx]
; Line 139
	cmp	ecx, ebx
	movzx	edx, BYTE PTR _fontframe[edx]
	movzx	edx, BYTE PTR _fontkern[edx]
	lea	eax, DWORD PTR [eax+edx+1]
	jl	SHORT $L85067
; Line 140
	cmp	eax, esi
	jge	SHORT $L85071
$LABEL_27$85066:
; Line 142
	sub	esi, eax
	sar	esi, 1
	add	edi, esi
$L85071:
; Line 143
	xor	esi, esi
; Line 144
	test	ebx, ebx
	jle	SHORT $L85075
$L85073:
; Line 146
	movzx	eax, BYTE PTR _tempstr[esi]
	movzx	eax, BYTE PTR _fontidx[eax]
	mov	bl, BYTE PTR _fontframe[eax]
; Line 147
	test	bl, bl
	je	SHORT $L85077
; Line 148
	movzx	edx, bl
	push	3
	mov	ecx, edi
	call	@CPrintString@12
$L85077:
; Line 150
	movzx	eax, bl
	inc	esi
	movzx	eax, BYTE PTR _fontkern[eax]
; Line 151
	cmp	esi, DWORD PTR _v9$[ebp]
	lea	edi, DWORD PTR [edi+eax+1]
	jl	SHORT $L85073
$L85075:
; Line 153
	mov	cl, BYTE PTR _msgdelay
	pop	edi
	test	cl, cl
	sete	al
	pop	esi
	pop	ebx
; Line 154
	test	cl, cl
	jle	SHORT $L85078
; Line 155
	dec	BYTE PTR _msgdelay
	sete	al
$L85078:
; Line 156
	test	al, al
	je	SHORT $L85081
; Line 157
	mov	al, BYTE PTR _msgcnt
	dec	BYTE PTR _msgcnt
	cmp	al, 1
	jne	SHORT $L85146
	jmp	SHORT $L85147
$L85146:
	xor	al, al
$L85147:
; Line 159
	test	al, al
	mov	BYTE PTR _msgdelay, 70			; 00000046H
	je	SHORT $L85080
; Line 160
	and	BYTE PTR _msgflag, 0
; Line 164
	leave
	ret	0
$L85080:
; Line 162
	movsx	eax, BYTE PTR _msgcnt
	mov	al, BYTE PTR _msgtable[eax]
	mov	BYTE PTR _msgflag, al
$L85081:
; Line 164
	leave
	ret	0
_DrawDiabloMsg ENDP
_TEXT	ENDS
END
