; Listing generated by Microsoft (R) Optimizing Compiler Version 12.00.9044.0 

	TITLE	Source/items.cpp
	.386P
include listing.inc
if @Version gt 510
.model FLAT
else
_TEXT	SEGMENT PARA USE32 PUBLIC 'CODE'
_TEXT	ENDS
_DATA	SEGMENT DWORD USE32 PUBLIC 'DATA'
_DATA	ENDS
CONST	SEGMENT DWORD USE32 PUBLIC 'CONST'
CONST	ENDS
_BSS	SEGMENT DWORD USE32 PUBLIC 'BSS'
_BSS	ENDS
$$SYMBOLS	SEGMENT BYTE USE32 'DEBSYM'
$$SYMBOLS	ENDS
$$TYPES	SEGMENT BYTE USE32 'DEBTYP'
$$TYPES	ENDS
_TLS	SEGMENT DWORD USE32 PUBLIC 'TLS'
_TLS	ENDS
;	COMDAT ??_C@_03GMHJ@Tin?$AA@
_DATA	SEGMENT DWORD USE32 PUBLIC 'DATA'
_DATA	ENDS
;	COMDAT ??_C@_05LCHN@Brass?$AA@
_DATA	SEGMENT DWORD USE32 PUBLIC 'DATA'
_DATA	ENDS
;	COMDAT ??_C@_06ODEI@Bronze?$AA@
_DATA	SEGMENT DWORD USE32 PUBLIC 'DATA'
_DATA	ENDS
;	COMDAT ??_C@_04OOGD@Iron?$AA@
_DATA	SEGMENT DWORD USE32 PUBLIC 'DATA'
_DATA	ENDS
;	COMDAT ??_C@_05DCMA@Steel?$AA@
_DATA	SEGMENT DWORD USE32 PUBLIC 'DATA'
_DATA	ENDS
;	COMDAT ??_C@_06FDOO@Silver?$AA@
_DATA	SEGMENT DWORD USE32 PUBLIC 'DATA'
_DATA	ENDS
;	COMDAT ??_C@_04IKOF@Gold?$AA@
_DATA	SEGMENT DWORD USE32 PUBLIC 'DATA'
_DATA	ENDS
;	COMDAT ??_C@_08EGEN@Platinum?$AA@
_DATA	SEGMENT DWORD USE32 PUBLIC 'DATA'
_DATA	ENDS
;	COMDAT ??_C@_07GNDG@Mithril?$AA@
_DATA	SEGMENT DWORD USE32 PUBLIC 'DATA'
_DATA	ENDS
;	COMDAT ??_C@_08IENK@Meteoric?$AA@
_DATA	SEGMENT DWORD USE32 PUBLIC 'DATA'
_DATA	ENDS
;	COMDAT ??_C@_05EFIN@Weird?$AA@
_DATA	SEGMENT DWORD USE32 PUBLIC 'DATA'
_DATA	ENDS
;	COMDAT ??_C@_07CJID@Strange?$AA@
_DATA	SEGMENT DWORD USE32 PUBLIC 'DATA'
_DATA	ENDS
;	COMDAT ??_C@_07NODE@Useless?$AA@
_DATA	SEGMENT DWORD USE32 PUBLIC 'DATA'
_DATA	ENDS
;	COMDAT ??_C@_04IKEC@Bent?$AA@
_DATA	SEGMENT DWORD USE32 PUBLIC 'DATA'
_DATA	ENDS
;	COMDAT ??_C@_04BDFF@Weak?$AA@
_DATA	SEGMENT DWORD USE32 PUBLIC 'DATA'
_DATA	ENDS
;	COMDAT ??_C@_06FAHP@Jagged?$AA@
_DATA	SEGMENT DWORD USE32 PUBLIC 'DATA'
_DATA	ENDS
;	COMDAT ??_C@_06HHAB@Deadly?$AA@
_DATA	SEGMENT DWORD USE32 PUBLIC 'DATA'
_DATA	ENDS
;	COMDAT ??_C@_05BBBE@Heavy?$AA@
_DATA	SEGMENT DWORD USE32 PUBLIC 'DATA'
_DATA	ENDS
;	COMDAT ??_C@_07ECGL@Vicious?$AA@
_DATA	SEGMENT DWORD USE32 PUBLIC 'DATA'
_DATA	ENDS
;	COMDAT ??_C@_06NJIC@Brutal?$AA@
_DATA	SEGMENT DWORD USE32 PUBLIC 'DATA'
_DATA	ENDS
;	COMDAT ??_C@_07LHOJ@Massive?$AA@
_DATA	SEGMENT DWORD USE32 PUBLIC 'DATA'
_DATA	ENDS
;	COMDAT ??_C@_06CJBK@Savage?$AA@
_DATA	SEGMENT DWORD USE32 PUBLIC 'DATA'
_DATA	ENDS
;	COMDAT ??_C@_08NMGL@Ruthless?$AA@
_DATA	SEGMENT DWORD USE32 PUBLIC 'DATA'
_DATA	ENDS
;	COMDAT ??_C@_09DDBE@Merciless?$AA@
_DATA	SEGMENT DWORD USE32 PUBLIC 'DATA'
_DATA	ENDS
;	COMDAT ??_C@_06ICAM@Clumsy?$AA@
_DATA	SEGMENT DWORD USE32 PUBLIC 'DATA'
_DATA	ENDS
;	COMDAT ??_C@_04KEFJ@Dull?$AA@
_DATA	SEGMENT DWORD USE32 PUBLIC 'DATA'
_DATA	ENDS
;	COMDAT ??_C@_05MMAL@Sharp?$AA@
_DATA	SEGMENT DWORD USE32 PUBLIC 'DATA'
_DATA	ENDS
;	COMDAT ??_C@_04MEAC@Fine?$AA@
_DATA	SEGMENT DWORD USE32 PUBLIC 'DATA'
_DATA	ENDS
;	COMDAT ??_C@_09EAE@Warrior?8s?$AA@
_DATA	SEGMENT DWORD USE32 PUBLIC 'DATA'
_DATA	ENDS
;	COMDAT ??_C@_09MBML@Soldier?8s?$AA@
_DATA	SEGMENT DWORD USE32 PUBLIC 'DATA'
_DATA	ENDS
;	COMDAT ??_C@_06IECP@Lord?8s?$AA@
_DATA	SEGMENT DWORD USE32 PUBLIC 'DATA'
_DATA	ENDS
;	COMDAT ??_C@_08JAPA@Knight?8s?$AA@
_DATA	SEGMENT DWORD USE32 PUBLIC 'DATA'
_DATA	ENDS
;	COMDAT ??_C@_08NFNG@Master?8s?$AA@
_DATA	SEGMENT DWORD USE32 PUBLIC 'DATA'
_DATA	ENDS
;	COMDAT ??_C@_0L@NCDE@Champion?8s?$AA@
_DATA	SEGMENT DWORD USE32 PUBLIC 'DATA'
_DATA	ENDS
;	COMDAT ??_C@_06LAFC@King?8s?$AA@
_DATA	SEGMENT DWORD USE32 PUBLIC 'DATA'
_DATA	ENDS
;	COMDAT ??_C@_0L@BMID@Vulnerable?$AA@
_DATA	SEGMENT DWORD USE32 PUBLIC 'DATA'
_DATA	ENDS
;	COMDAT ??_C@_06DCIE@Rusted?$AA@
_DATA	SEGMENT DWORD USE32 PUBLIC 'DATA'
_DATA	ENDS
;	COMDAT ??_C@_06BEKF@Strong?$AA@
_DATA	SEGMENT DWORD USE32 PUBLIC 'DATA'
_DATA	ENDS
;	COMDAT ??_C@_05PNKF@Grand?$AA@
_DATA	SEGMENT DWORD USE32 PUBLIC 'DATA'
_DATA	ENDS
;	COMDAT ??_C@_07EDJP@Valiant?$AA@
_DATA	SEGMENT DWORD USE32 PUBLIC 'DATA'
_DATA	ENDS
;	COMDAT ??_C@_08HMNP@Glorious?$AA@
_DATA	SEGMENT DWORD USE32 PUBLIC 'DATA'
_DATA	ENDS
;	COMDAT ??_C@_07EIDE@Blessed?$AA@
_DATA	SEGMENT DWORD USE32 PUBLIC 'DATA'
_DATA	ENDS
;	COMDAT ??_C@_07EPFC@Saintly?$AA@
_DATA	SEGMENT DWORD USE32 PUBLIC 'DATA'
_DATA	ENDS
;	COMDAT ??_C@_07JECP@Awesome?$AA@
_DATA	SEGMENT DWORD USE32 PUBLIC 'DATA'
_DATA	ENDS
;	COMDAT ??_C@_04KHMI@Holy?$AA@
_DATA	SEGMENT DWORD USE32 PUBLIC 'DATA'
_DATA	ENDS
;	COMDAT ??_C@_05PIBE@Godly?$AA@
_DATA	SEGMENT DWORD USE32 PUBLIC 'DATA'
_DATA	ENDS
;	COMDAT ??_C@_03GOGG@Red?$AA@
_DATA	SEGMENT DWORD USE32 PUBLIC 'DATA'
_DATA	ENDS
;	COMDAT ??_C@_07FEBH@Crimson?$AA@
_DATA	SEGMENT DWORD USE32 PUBLIC 'DATA'
_DATA	ENDS
;	COMDAT ??_C@_06LALG@Garnet?$AA@
_DATA	SEGMENT DWORD USE32 PUBLIC 'DATA'
_DATA	ENDS
;	COMDAT ??_C@_04EFIE@Ruby?$AA@
_DATA	SEGMENT DWORD USE32 PUBLIC 'DATA'
_DATA	ENDS
;	COMDAT ??_C@_04KPAE@Blue?$AA@
_DATA	SEGMENT DWORD USE32 PUBLIC 'DATA'
_DATA	ENDS
;	COMDAT ??_C@_05FBBK@Azure?$AA@
_DATA	SEGMENT DWORD USE32 PUBLIC 'DATA'
_DATA	ENDS
;	COMDAT ??_C@_05MIIL@Lapis?$AA@
_DATA	SEGMENT DWORD USE32 PUBLIC 'DATA'
_DATA	ENDS
;	COMDAT ??_C@_06PPMI@Cobalt?$AA@
_DATA	SEGMENT DWORD USE32 PUBLIC 'DATA'
_DATA	ENDS
;	COMDAT ??_C@_08JPLJ@Sapphire?$AA@
_DATA	SEGMENT DWORD USE32 PUBLIC 'DATA'
_DATA	ENDS
;	COMDAT ??_C@_05CGP@White?$AA@
_DATA	SEGMENT DWORD USE32 PUBLIC 'DATA'
_DATA	ENDS
;	COMDAT ??_C@_05OBHK@Pearl?$AA@
_DATA	SEGMENT DWORD USE32 PUBLIC 'DATA'
_DATA	ENDS
;	COMDAT ??_C@_05KNIO@Ivory?$AA@
_DATA	SEGMENT DWORD USE32 PUBLIC 'DATA'
_DATA	ENDS
;	COMDAT ??_C@_07NPPL@Crystal?$AA@
_DATA	SEGMENT DWORD USE32 PUBLIC 'DATA'
_DATA	ENDS
;	COMDAT ??_C@_07DLIP@Diamond?$AA@
_DATA	SEGMENT DWORD USE32 PUBLIC 'DATA'
_DATA	ENDS
;	COMDAT ??_C@_05HFPD@Topaz?$AA@
_DATA	SEGMENT DWORD USE32 PUBLIC 'DATA'
_DATA	ENDS
;	COMDAT ??_C@_05JGOH@Amber?$AA@
_DATA	SEGMENT DWORD USE32 PUBLIC 'DATA'
_DATA	ENDS
;	COMDAT ??_C@_04HDGO@Jade?$AA@
_DATA	SEGMENT DWORD USE32 PUBLIC 'DATA'
_DATA	ENDS
;	COMDAT ??_C@_08FHBF@Obsidian?$AA@
_DATA	SEGMENT DWORD USE32 PUBLIC 'DATA'
_DATA	ENDS
;	COMDAT ??_C@_07BHJH@Emerald?$AA@
_DATA	SEGMENT DWORD USE32 PUBLIC 'DATA'
_DATA	ENDS
;	COMDAT ??_C@_07MJBJ@Hyena?8s?$AA@
_DATA	SEGMENT DWORD USE32 PUBLIC 'DATA'
_DATA	ENDS
;	COMDAT ??_C@_06BIDB@Frog?8s?$AA@
_DATA	SEGMENT DWORD USE32 PUBLIC 'DATA'
_DATA	ENDS
;	COMDAT ??_C@_08LPHF@Spider?8s?$AA@
_DATA	SEGMENT DWORD USE32 PUBLIC 'DATA'
_DATA	ENDS
;	COMDAT ??_C@_07HHEO@Raven?8s?$AA@
_DATA	SEGMENT DWORD USE32 PUBLIC 'DATA'
_DATA	ENDS
;	COMDAT ??_C@_07ONOH@Snake?8s?$AA@
_DATA	SEGMENT DWORD USE32 PUBLIC 'DATA'
_DATA	ENDS
;	COMDAT ??_C@_09EOEE@Serpent?8s?$AA@
_DATA	SEGMENT DWORD USE32 PUBLIC 'DATA'
_DATA	ENDS
;	COMDAT ??_C@_07GMNG@Drake?8s?$AA@
_DATA	SEGMENT DWORD USE32 PUBLIC 'DATA'
_DATA	ENDS
;	COMDAT ??_C@_08EMKB@Dragon?8s?$AA@
_DATA	SEGMENT DWORD USE32 PUBLIC 'DATA'
_DATA	ENDS
;	COMDAT ??_C@_06MNOF@Wyrm?8s?$AA@
_DATA	SEGMENT DWORD USE32 PUBLIC 'DATA'
_DATA	ENDS
;	COMDAT ??_C@_07IDMF@Hydra?8s?$AA@
_DATA	SEGMENT DWORD USE32 PUBLIC 'DATA'
_DATA	ENDS
;	COMDAT ??_C@_07KOJG@Angel?8s?$AA@
_DATA	SEGMENT DWORD USE32 PUBLIC 'DATA'
_DATA	ENDS
;	COMDAT ??_C@_0N@ELNE@Arch?9Angel?8s?$AA@
_DATA	SEGMENT DWORD USE32 PUBLIC 'DATA'
_DATA	ENDS
;	COMDAT ??_C@_09DDEK@Plentiful?$AA@
_DATA	SEGMENT DWORD USE32 PUBLIC 'DATA'
_DATA	ENDS
;	COMDAT ??_C@_09KCHB@Bountiful?$AA@
_DATA	SEGMENT DWORD USE32 PUBLIC 'DATA'
_DATA	ENDS
;	COMDAT ??_C@_07LGEK@Flaming?$AA@
_DATA	SEGMENT DWORD USE32 PUBLIC 'DATA'
_DATA	ENDS
;	COMDAT ??_C@_09NPLP@Lightning?$AA@
_DATA	SEGMENT DWORD USE32 PUBLIC 'DATA'
_DATA	ENDS
;	COMDAT ??_C@_00A@?$AA@
_DATA	SEGMENT DWORD USE32 PUBLIC 'DATA'
_DATA	ENDS
;	COMDAT ??_C@_07PDKP@quality?$AA@
_DATA	SEGMENT DWORD USE32 PUBLIC 'DATA'
_DATA	ENDS
;	COMDAT ??_C@_07MOG@maiming?$AA@
_DATA	SEGMENT DWORD USE32 PUBLIC 'DATA'
_DATA	ENDS
;	COMDAT ??_C@_07NJAO@slaying?$AA@
_DATA	SEGMENT DWORD USE32 PUBLIC 'DATA'
_DATA	ENDS
;	COMDAT ??_C@_04CCDC@gore?$AA@
_DATA	SEGMENT DWORD USE32 PUBLIC 'DATA'
_DATA	ENDS
;	COMDAT ??_C@_07HFLF@carnage?$AA@
_DATA	SEGMENT DWORD USE32 PUBLIC 'DATA'
_DATA	ENDS
;	COMDAT ??_C@_09OFBO@slaughter?$AA@
_DATA	SEGMENT DWORD USE32 PUBLIC 'DATA'
_DATA	ENDS
;	COMDAT ??_C@_04LOGM@pain?$AA@
_DATA	SEGMENT DWORD USE32 PUBLIC 'DATA'
_DATA	ENDS
;	COMDAT ??_C@_05MNGI@tears?$AA@
_DATA	SEGMENT DWORD USE32 PUBLIC 'DATA'
_DATA	ENDS
;	COMDAT ??_C@_06HECL@health?$AA@
_DATA	SEGMENT DWORD USE32 PUBLIC 'DATA'
_DATA	ENDS
;	COMDAT ??_C@_0L@CCCL@protection?$AA@
_DATA	SEGMENT DWORD USE32 PUBLIC 'DATA'
_DATA	ENDS
;	COMDAT ??_C@_0L@CIHJ@absorption?$AA@
_DATA	SEGMENT DWORD USE32 PUBLIC 'DATA'
_DATA	ENDS
;	COMDAT ??_C@_0L@BONB@deflection?$AA@
_DATA	SEGMENT DWORD USE32 PUBLIC 'DATA'
_DATA	ENDS
;	COMDAT ??_C@_07JNDF@osmosis?$AA@
_DATA	SEGMENT DWORD USE32 PUBLIC 'DATA'
_DATA	ENDS
;	COMDAT ??_C@_07JBCL@frailty?$AA@
_DATA	SEGMENT DWORD USE32 PUBLIC 'DATA'
_DATA	ENDS
;	COMDAT ??_C@_08GLJO@weakness?$AA@
_DATA	SEGMENT DWORD USE32 PUBLIC 'DATA'
_DATA	ENDS
;	COMDAT ??_C@_08GOPF@strength?$AA@
_DATA	SEGMENT DWORD USE32 PUBLIC 'DATA'
_DATA	ENDS
;	COMDAT ??_C@_05JKNA@might?$AA@
_DATA	SEGMENT DWORD USE32 PUBLIC 'DATA'
_DATA	ENDS
;	COMDAT ??_C@_05EBLP@power?$AA@
_DATA	SEGMENT DWORD USE32 PUBLIC 'DATA'
_DATA	ENDS
;	COMDAT ??_C@_06BGKJ@giants?$AA@
_DATA	SEGMENT DWORD USE32 PUBLIC 'DATA'
_DATA	ENDS
;	COMDAT ??_C@_06MLAM@titans?$AA@
_DATA	SEGMENT DWORD USE32 PUBLIC 'DATA'
_DATA	ENDS
;	COMDAT ??_C@_09HGHO@paralysis?$AA@
_DATA	SEGMENT DWORD USE32 PUBLIC 'DATA'
_DATA	ENDS
;	COMDAT ??_C@_07GEAH@atrophy?$AA@
_DATA	SEGMENT DWORD USE32 PUBLIC 'DATA'
_DATA	ENDS
;	COMDAT ??_C@_09KIDC@dexterity?$AA@
_DATA	SEGMENT DWORD USE32 PUBLIC 'DATA'
_DATA	ENDS
;	COMDAT ??_C@_05MIHE@skill?$AA@
_DATA	SEGMENT DWORD USE32 PUBLIC 'DATA'
_DATA	ENDS
;	COMDAT ??_C@_08JPJB@accuracy?$AA@
_DATA	SEGMENT DWORD USE32 PUBLIC 'DATA'
_DATA	ENDS
;	COMDAT ??_C@_09PIJM@precision?$AA@
_DATA	SEGMENT DWORD USE32 PUBLIC 'DATA'
_DATA	ENDS
;	COMDAT ??_C@_0L@FGCJ@perfection?$AA@
_DATA	SEGMENT DWORD USE32 PUBLIC 'DATA'
_DATA	ENDS
;	COMDAT ??_C@_08NOGA@the?5fool?$AA@
_DATA	SEGMENT DWORD USE32 PUBLIC 'DATA'
_DATA	ENDS
;	COMDAT ??_C@_08OHBO@dyslexia?$AA@
_DATA	SEGMENT DWORD USE32 PUBLIC 'DATA'
_DATA	ENDS
;	COMDAT ??_C@_05FKHP@magic?$AA@
_DATA	SEGMENT DWORD USE32 PUBLIC 'DATA'
_DATA	ENDS
;	COMDAT ??_C@_08DFGD@the?5mind?$AA@
_DATA	SEGMENT DWORD USE32 PUBLIC 'DATA'
_DATA	ENDS
;	COMDAT ??_C@_0L@IKPP@brilliance?$AA@
_DATA	SEGMENT DWORD USE32 PUBLIC 'DATA'
_DATA	ENDS
;	COMDAT ??_C@_07OPMD@sorcery?$AA@
_DATA	SEGMENT DWORD USE32 PUBLIC 'DATA'
_DATA	ENDS
;	COMDAT ??_C@_08CDF@wizardry?$AA@
_DATA	SEGMENT DWORD USE32 PUBLIC 'DATA'
_DATA	ENDS
;	COMDAT ??_C@_07NPOJ@illness?$AA@
_DATA	SEGMENT DWORD USE32 PUBLIC 'DATA'
_DATA	ENDS
;	COMDAT ??_C@_07MEBM@disease?$AA@
_DATA	SEGMENT DWORD USE32 PUBLIC 'DATA'
_DATA	ENDS
;	COMDAT ??_C@_08MHIB@vitality?$AA@
_DATA	SEGMENT DWORD USE32 PUBLIC 'DATA'
_DATA	ENDS
;	COMDAT ??_C@_04MMEM@zest?$AA@
_DATA	SEGMENT DWORD USE32 PUBLIC 'DATA'
_DATA	ENDS
;	COMDAT ??_C@_03HFDI@vim?$AA@
_DATA	SEGMENT DWORD USE32 PUBLIC 'DATA'
_DATA	ENDS
;	COMDAT ??_C@_05OHOH@vigor?$AA@
_DATA	SEGMENT DWORD USE32 PUBLIC 'DATA'
_DATA	ENDS
;	COMDAT ??_C@_04LLCA@life?$AA@
_DATA	SEGMENT DWORD USE32 PUBLIC 'DATA'
_DATA	ENDS
;	COMDAT ??_C@_07PKPN@trouble?$AA@
_DATA	SEGMENT DWORD USE32 PUBLIC 'DATA'
_DATA	ENDS
;	COMDAT ??_C@_07BMMA@the?5pit?$AA@
_DATA	SEGMENT DWORD USE32 PUBLIC 'DATA'
_DATA	ENDS
;	COMDAT ??_C@_07JDNN@the?5sky?$AA@
_DATA	SEGMENT DWORD USE32 PUBLIC 'DATA'
_DATA	ENDS
;	COMDAT ??_C@_08MOCI@the?5moon?$AA@
_DATA	SEGMENT DWORD USE32 PUBLIC 'DATA'
_DATA	ENDS
;	COMDAT ??_C@_09DDFF@the?5stars?$AA@
_DATA	SEGMENT DWORD USE32 PUBLIC 'DATA'
_DATA	ENDS
;	COMDAT ??_C@_0M@JHLN@the?5heavens?$AA@
_DATA	SEGMENT DWORD USE32 PUBLIC 'DATA'
_DATA	ENDS
;	COMDAT ??_C@_0L@NFBJ@the?5zodiac?$AA@
_DATA	SEGMENT DWORD USE32 PUBLIC 'DATA'
_DATA	ENDS
;	COMDAT ??_C@_0M@CODE@the?5vulture?$AA@
_DATA	SEGMENT DWORD USE32 PUBLIC 'DATA'
_DATA	ENDS
;	COMDAT ??_C@_0L@BBCA@the?5jackal?$AA@
_DATA	SEGMENT DWORD USE32 PUBLIC 'DATA'
_DATA	ENDS
;	COMDAT ??_C@_07FIMG@the?5fox?$AA@
_DATA	SEGMENT DWORD USE32 PUBLIC 'DATA'
_DATA	ENDS
;	COMDAT ??_C@_0L@NLHK@the?5jaguar?$AA@
_DATA	SEGMENT DWORD USE32 PUBLIC 'DATA'
_DATA	ENDS
;	COMDAT ??_C@_09GJD@the?5eagle?$AA@
_DATA	SEGMENT DWORD USE32 PUBLIC 'DATA'
_DATA	ENDS
;	COMDAT ??_C@_08JEHK@the?5wolf?$AA@
_DATA	SEGMENT DWORD USE32 PUBLIC 'DATA'
_DATA	ENDS
;	COMDAT ??_C@_09NBBI@the?5tiger?$AA@
_DATA	SEGMENT DWORD USE32 PUBLIC 'DATA'
_DATA	ENDS
;	COMDAT ??_C@_08HAN@the?5lion?$AA@
_DATA	SEGMENT DWORD USE32 PUBLIC 'DATA'
_DATA	ENDS
;	COMDAT ??_C@_0M@EH@the?5mammoth?$AA@
_DATA	SEGMENT DWORD USE32 PUBLIC 'DATA'
_DATA	ENDS
;	COMDAT ??_C@_09KHDJ@the?5whale?$AA@
_DATA	SEGMENT DWORD USE32 PUBLIC 'DATA'
_DATA	ENDS
;	COMDAT ??_C@_09CAOA@fragility?$AA@
_DATA	SEGMENT DWORD USE32 PUBLIC 'DATA'
_DATA	ENDS
;	COMDAT ??_C@_0M@BMJN@brittleness?$AA@
_DATA	SEGMENT DWORD USE32 PUBLIC 'DATA'
_DATA	ENDS
;	COMDAT ??_C@_0L@MKAO@sturdiness?$AA@
_DATA	SEGMENT DWORD USE32 PUBLIC 'DATA'
_DATA	ENDS
;	COMDAT ??_C@_0O@NGPJ@craftsmanship?$AA@
_DATA	SEGMENT DWORD USE32 PUBLIC 'DATA'
_DATA	ENDS
;	COMDAT ??_C@_09HDHE@structure?$AA@
_DATA	SEGMENT DWORD USE32 PUBLIC 'DATA'
_DATA	ENDS
;	COMDAT ??_C@_08IEEH@the?5ages?$AA@
_DATA	SEGMENT DWORD USE32 PUBLIC 'DATA'
_DATA	ENDS
;	COMDAT ??_C@_08COBO@the?5dark?$AA@
_DATA	SEGMENT DWORD USE32 PUBLIC 'DATA'
_DATA	ENDS
;	COMDAT ??_C@_09JEAL@the?5night?$AA@
_DATA	SEGMENT DWORD USE32 PUBLIC 'DATA'
_DATA	ENDS
;	COMDAT ??_C@_05DKPF@light?$AA@
_DATA	SEGMENT DWORD USE32 PUBLIC 'DATA'
_DATA	ENDS
;	COMDAT ??_C@_08LADN@radiance?$AA@
_DATA	SEGMENT DWORD USE32 PUBLIC 'DATA'
_DATA	ENDS
;	COMDAT ??_C@_05GIBP@flame?$AA@
_DATA	SEGMENT DWORD USE32 PUBLIC 'DATA'
_DATA	ENDS
;	COMDAT ??_C@_04OLBH@fire?$AA@
_DATA	SEGMENT DWORD USE32 PUBLIC 'DATA'
_DATA	ENDS
;	COMDAT ??_C@_07DBMH@burning?$AA@
_DATA	SEGMENT DWORD USE32 PUBLIC 'DATA'
_DATA	ENDS
;	COMDAT ??_C@_05MKBB@shock?$AA@
_DATA	SEGMENT DWORD USE32 PUBLIC 'DATA'
_DATA	ENDS
;	COMDAT ??_C@_09JGLK@lightning?$AA@
_DATA	SEGMENT DWORD USE32 PUBLIC 'DATA'
_DATA	ENDS
;	COMDAT ??_C@_07MGNA@thunder?$AA@
_DATA	SEGMENT DWORD USE32 PUBLIC 'DATA'
_DATA	ENDS
;	COMDAT ??_C@_04OMAH@many?$AA@
_DATA	SEGMENT DWORD USE32 PUBLIC 'DATA'
_DATA	ENDS
;	COMDAT ??_C@_06BAKF@plenty?$AA@
_DATA	SEGMENT DWORD USE32 PUBLIC 'DATA'
_DATA	ENDS
;	COMDAT ??_C@_06KMDP@thorns?$AA@
_DATA	SEGMENT DWORD USE32 PUBLIC 'DATA'
_DATA	ENDS
;	COMDAT ??_C@_0L@EHKO@corruption?$AA@
_DATA	SEGMENT DWORD USE32 PUBLIC 'DATA'
_DATA	ENDS
;	COMDAT ??_C@_07CPIM@thieves?$AA@
_DATA	SEGMENT DWORD USE32 PUBLIC 'DATA'
_DATA	ENDS
;	COMDAT ??_C@_08LPKB@the?5bear?$AA@
_DATA	SEGMENT DWORD USE32 PUBLIC 'DATA'
_DATA	ENDS
;	COMDAT ??_C@_07CMND@the?5bat?$AA@
_DATA	SEGMENT DWORD USE32 PUBLIC 'DATA'
_DATA	ENDS
;	COMDAT ??_C@_08PJJE@vampires?$AA@
_DATA	SEGMENT DWORD USE32 PUBLIC 'DATA'
_DATA	ENDS
;	COMDAT ??_C@_09BGIL@the?5leech?$AA@
_DATA	SEGMENT DWORD USE32 PUBLIC 'DATA'
_DATA	ENDS
;	COMDAT ??_C@_05BDIK@blood?$AA@
_DATA	SEGMENT DWORD USE32 PUBLIC 'DATA'
_DATA	ENDS
;	COMDAT ??_C@_08HKMC@piercing?$AA@
_DATA	SEGMENT DWORD USE32 PUBLIC 'DATA'
_DATA	ENDS
;	COMDAT ??_C@_0L@DPAO@puncturing?$AA@
_DATA	SEGMENT DWORD USE32 PUBLIC 'DATA'
_DATA	ENDS
;	COMDAT ??_C@_07ECIM@bashing?$AA@
_DATA	SEGMENT DWORD USE32 PUBLIC 'DATA'
_DATA	ENDS
;	COMDAT ??_C@_09DLAK@readiness?$AA@
_DATA	SEGMENT DWORD USE32 PUBLIC 'DATA'
_DATA	ENDS
;	COMDAT ??_C@_09JHNE@swiftness?$AA@
_DATA	SEGMENT DWORD USE32 PUBLIC 'DATA'
_DATA	ENDS
;	COMDAT ??_C@_05PHJK@speed?$AA@
_DATA	SEGMENT DWORD USE32 PUBLIC 'DATA'
_DATA	ENDS
;	COMDAT ??_C@_05HPHA@haste?$AA@
_DATA	SEGMENT DWORD USE32 PUBLIC 'DATA'
_DATA	ENDS
;	COMDAT ??_C@_07DMNA@balance?$AA@
_DATA	SEGMENT DWORD USE32 PUBLIC 'DATA'
_DATA	ENDS
;	COMDAT ??_C@_09LMMN@stability?$AA@
_DATA	SEGMENT DWORD USE32 PUBLIC 'DATA'
_DATA	ENDS
;	COMDAT ??_C@_07JFPI@harmony?$AA@
_DATA	SEGMENT DWORD USE32 PUBLIC 'DATA'
_DATA	ENDS
;	COMDAT ??_C@_08PCBE@blocking?$AA@
_DATA	SEGMENT DWORD USE32 PUBLIC 'DATA'
_DATA	ENDS
;	COMDAT ??_C@_0BG@LEFE@The?5Butcher?8s?5Cleaver?$AA@
_DATA	SEGMENT DWORD USE32 PUBLIC 'DATA'
_DATA	ENDS
;	COMDAT ??_C@_0BB@GGAG@The?5Undead?5Crown?$AA@
_DATA	SEGMENT DWORD USE32 PUBLIC 'DATA'
_DATA	ENDS
;	COMDAT ??_C@_0O@EFCF@Empyrean?5Band?$AA@
_DATA	SEGMENT DWORD USE32 PUBLIC 'DATA'
_DATA	ENDS
;	COMDAT ??_C@_0N@JIIN@Optic?5Amulet?$AA@
_DATA	SEGMENT DWORD USE32 PUBLIC 'DATA'
_DATA	ENDS
;	COMDAT ??_C@_0O@PEHI@Ring?5of?5Truth?$AA@
_DATA	SEGMENT DWORD USE32 PUBLIC 'DATA'
_DATA	ENDS
;	COMDAT ??_C@_0BA@HLFM@Harlequin?5Crest?$AA@
_DATA	SEGMENT DWORD USE32 PUBLIC 'DATA'
_DATA	ENDS
;	COMDAT ??_C@_0O@FKOJ@Veil?5of?5Steel?$AA@
_DATA	SEGMENT DWORD USE32 PUBLIC 'DATA'
_DATA	ENDS
;	COMDAT ??_C@_0BA@JENP@Arkaine?8s?5Valor?$AA@
_DATA	SEGMENT DWORD USE32 PUBLIC 'DATA'
_DATA	ENDS
;	COMDAT ??_C@_0BA@OAIC@Griswold?8s?5Edge?$AA@
_DATA	SEGMENT DWORD USE32 PUBLIC 'DATA'
_DATA	ENDS
;	COMDAT ??_C@_0L@NHHH@Lightforge?$AA@
_DATA	SEGMENT DWORD USE32 PUBLIC 'DATA'
_DATA	ENDS
;	COMDAT ??_C@_0N@HFEC@The?5Rift?5Bow?$AA@
_DATA	SEGMENT DWORD USE32 PUBLIC 'DATA'
_DATA	ENDS
;	COMDAT ??_C@_0M@IKAD@The?5Needler?$AA@
_DATA	SEGMENT DWORD USE32 PUBLIC 'DATA'
_DATA	ENDS
;	COMDAT ??_C@_0BC@DFMJ@The?5Celestial?5Bow?$AA@
_DATA	SEGMENT DWORD USE32 PUBLIC 'DATA'
_DATA	ENDS
;	COMDAT ??_C@_0O@MMFL@Deadly?5Hunter?$AA@
_DATA	SEGMENT DWORD USE32 PUBLIC 'DATA'
_DATA	ENDS
;	COMDAT ??_C@_0BA@PFNB@Bow?5of?5the?5Dead?$AA@
_DATA	SEGMENT DWORD USE32 PUBLIC 'DATA'
_DATA	ENDS
;	COMDAT ??_C@_0BB@HEMC@The?5Blackoak?5Bow?$AA@
_DATA	SEGMENT DWORD USE32 PUBLIC 'DATA'
_DATA	ENDS
;	COMDAT ??_C@_09IEMI@Flamedart?$AA@
_DATA	SEGMENT DWORD USE32 PUBLIC 'DATA'
_DATA	ENDS
;	COMDAT ??_C@_0N@IPLI@Fleshstinger?$AA@
_DATA	SEGMENT DWORD USE32 PUBLIC 'DATA'
_DATA	ENDS
;	COMDAT ??_C@_09ICMO@Windforce?$AA@
_DATA	SEGMENT DWORD USE32 PUBLIC 'DATA'
_DATA	ENDS
;	COMDAT ??_C@_09PCNB@Eaglehorn?$AA@
_DATA	SEGMENT DWORD USE32 PUBLIC 'DATA'
_DATA	ENDS
;	COMDAT ??_C@_0BA@ION@Gonnagal?8s?5Dirk?$AA@
_DATA	SEGMENT DWORD USE32 PUBLIC 'DATA'
_DATA	ENDS
;	COMDAT ??_C@_0N@LMFG@The?5Defender?$AA@
_DATA	SEGMENT DWORD USE32 PUBLIC 'DATA'
_DATA	ENDS
;	COMDAT ??_C@_0O@NPMJ@Gryphons?5Claw?$AA@
_DATA	SEGMENT DWORD USE32 PUBLIC 'DATA'
_DATA	ENDS
;	COMDAT ??_C@_0M@NGHN@Black?5Razor?$AA@
_DATA	SEGMENT DWORD USE32 PUBLIC 'DATA'
_DATA	ENDS
;	COMDAT ??_C@_0N@COHM@Gibbous?5Moon?$AA@
_DATA	SEGMENT DWORD USE32 PUBLIC 'DATA'
_DATA	ENDS
;	COMDAT ??_C@_09IIDA@Ice?5Shank?$AA@
_DATA	SEGMENT DWORD USE32 PUBLIC 'DATA'
_DATA	ENDS
;	COMDAT ??_C@_0BI@JCLM@The?5Executioner?8s?5Blade?$AA@
_DATA	SEGMENT DWORD USE32 PUBLIC 'DATA'
_DATA	ENDS
;	COMDAT ??_C@_0M@FDHB@The?5Bonesaw?$AA@
_DATA	SEGMENT DWORD USE32 PUBLIC 'DATA'
_DATA	ENDS
;	COMDAT ??_C@_0L@EBEF@Shadowhawk?$AA@
_DATA	SEGMENT DWORD USE32 PUBLIC 'DATA'
_DATA	ENDS
;	COMDAT ??_C@_0M@EGMF@Wizardspike?$AA@
_DATA	SEGMENT DWORD USE32 PUBLIC 'DATA'
_DATA	ENDS
;	COMDAT ??_C@_0L@HCN@Lightsabre?$AA@
_DATA	SEGMENT DWORD USE32 PUBLIC 'DATA'
_DATA	ENDS
;	COMDAT ??_C@_0BD@EDLD@The?5Falcon?8s?5Talon?$AA@
_DATA	SEGMENT DWORD USE32 PUBLIC 'DATA'
_DATA	ENDS
;	COMDAT ??_C@_07HJHJ@Inferno?$AA@
_DATA	SEGMENT DWORD USE32 PUBLIC 'DATA'
_DATA	ENDS
;	COMDAT ??_C@_0M@BAAM@Doombringer?$AA@
_DATA	SEGMENT DWORD USE32 PUBLIC 'DATA'
_DATA	ENDS
;	COMDAT ??_C@_0M@IGFJ@The?5Grizzly?$AA@
_DATA	SEGMENT DWORD USE32 PUBLIC 'DATA'
_DATA	ENDS
;	COMDAT ??_C@_0BA@OANG@The?5Grandfather?$AA@
_DATA	SEGMENT DWORD USE32 PUBLIC 'DATA'
_DATA	ENDS
;	COMDAT ??_C@_0M@CBIO@The?5Mangler?$AA@
_DATA	SEGMENT DWORD USE32 PUBLIC 'DATA'
_DATA	ENDS
;	COMDAT ??_C@_0L@KEIA@Sharp?5Beak?$AA@
_DATA	SEGMENT DWORD USE32 PUBLIC 'DATA'
_DATA	ENDS
;	COMDAT ??_C@_0M@ENI@BloodSlayer?$AA@
_DATA	SEGMENT DWORD USE32 PUBLIC 'DATA'
_DATA	ENDS
;	COMDAT ??_C@_0BC@DEFA@The?5Celestial?5Axe?$AA@
_DATA	SEGMENT DWORD USE32 PUBLIC 'DATA'
_DATA	ENDS
;	COMDAT ??_C@_0L@LGGM@Wicked?5Axe?$AA@
_DATA	SEGMENT DWORD USE32 PUBLIC 'DATA'
_DATA	ENDS
;	COMDAT ??_C@_0N@POLL@Stonecleaver?$AA@
_DATA	SEGMENT DWORD USE32 PUBLIC 'DATA'
_DATA	ENDS
;	COMDAT ??_C@_0BD@CMJN@Aguinara?8s?5Hatchet?$AA@
_DATA	SEGMENT DWORD USE32 PUBLIC 'DATA'
_DATA	ENDS
;	COMDAT ??_C@_0L@DLHM@Hellslayer?$AA@
_DATA	SEGMENT DWORD USE32 PUBLIC 'DATA'
_DATA	ENDS
;	COMDAT ??_C@_0BH@CIE@Messerschmidt?8s?5Reaver?$AA@
_DATA	SEGMENT DWORD USE32 PUBLIC 'DATA'
_DATA	ENDS
;	COMDAT ??_C@_09NILJ@Crackrust?$AA@
_DATA	SEGMENT DWORD USE32 PUBLIC 'DATA'
_DATA	ENDS
;	COMDAT ??_C@_0BA@FNJO@Hammer?5of?5Jholm?$AA@
_DATA	SEGMENT DWORD USE32 PUBLIC 'DATA'
_DATA	ENDS
;	COMDAT ??_C@_0BA@NP@Civerb?8s?5Cudgel?$AA@
_DATA	SEGMENT DWORD USE32 PUBLIC 'DATA'
_DATA	ENDS
;	COMDAT ??_C@_0BD@JEIK@The?5Celestial?5Star?$AA@
_DATA	SEGMENT DWORD USE32 PUBLIC 'DATA'
_DATA	ENDS
;	COMDAT ??_C@_0P@HPLN@Baranar?8s?5Star?$AA@
_DATA	SEGMENT DWORD USE32 PUBLIC 'DATA'
_DATA	ENDS
;	COMDAT ??_C@_0N@KBLF@Gnarled?5Root?$AA@
_DATA	SEGMENT DWORD USE32 PUBLIC 'DATA'
_DATA	ENDS
;	COMDAT ??_C@_0BD@NKML@The?5Cranium?5Basher?$AA@
_DATA	SEGMENT DWORD USE32 PUBLIC 'DATA'
_DATA	ENDS
;	COMDAT ??_C@_0BC@ECOI@Schaefer?8s?5Hammer?$AA@
_DATA	SEGMENT DWORD USE32 PUBLIC 'DATA'
_DATA	ENDS
;	COMDAT ??_C@_0M@IHNE@Dreamflange?$AA@
_DATA	SEGMENT DWORD USE32 PUBLIC 'DATA'
_DATA	ENDS
;	COMDAT ??_C@_0BB@DJNB@Staff?5of?5Shadows?$AA@
_DATA	SEGMENT DWORD USE32 PUBLIC 'DATA'
_DATA	ENDS
;	COMDAT ??_C@_09DCFI@Immolator?$AA@
_DATA	SEGMENT DWORD USE32 PUBLIC 'DATA'
_DATA	ENDS
;	COMDAT ??_C@_0M@MMBM@Storm?5Spire?$AA@
_DATA	SEGMENT DWORD USE32 PUBLIC 'DATA'
_DATA	ENDS
;	COMDAT ??_C@_09GLO@Gleamsong?$AA@
_DATA	SEGMENT DWORD USE32 PUBLIC 'DATA'
_DATA	ENDS
;	COMDAT ??_C@_0M@BMCJ@Thundercall?$AA@
_DATA	SEGMENT DWORD USE32 PUBLIC 'DATA'
_DATA	ENDS
;	COMDAT ??_C@_0O@OIKA@The?5Protector?$AA@
_DATA	SEGMENT DWORD USE32 PUBLIC 'DATA'
_DATA	ENDS
;	COMDAT ??_C@_0O@KOJF@Naj?8s?5Puzzler?$AA@
_DATA	SEGMENT DWORD USE32 PUBLIC 'DATA'
_DATA	ENDS
;	COMDAT ??_C@_07KPBO@Mindcry?$AA@
_DATA	SEGMENT DWORD USE32 PUBLIC 'DATA'
_DATA	ENDS
;	COMDAT ??_C@_0M@LFDG@Rod?5of?5Onan?$AA@
_DATA	SEGMENT DWORD USE32 PUBLIC 'DATA'
_DATA	ENDS
;	COMDAT ??_C@_0P@BGBO@Helm?5of?5Sprits?$AA@
_DATA	SEGMENT DWORD USE32 PUBLIC 'DATA'
_DATA	ENDS
;	COMDAT ??_C@_0N@DNKB@Thinking?5Cap?$AA@
_DATA	SEGMENT DWORD USE32 PUBLIC 'DATA'
_DATA	ENDS
;	COMDAT ??_C@_0BA@OMOB@OverLord?8s?5Helm?$AA@
_DATA	SEGMENT DWORD USE32 PUBLIC 'DATA'
_DATA	ENDS
;	COMDAT ??_C@_0N@JHCM@Fool?8s?5Crest?$AA@
_DATA	SEGMENT DWORD USE32 PUBLIC 'DATA'
_DATA	ENDS
;	COMDAT ??_C@_0P@EJBH@Gotterdamerung?$AA@
_DATA	SEGMENT DWORD USE32 PUBLIC 'DATA'
_DATA	ENDS
;	COMDAT ??_C@_0O@NECM@Royal?5Circlet?$AA@
_DATA	SEGMENT DWORD USE32 PUBLIC 'DATA'
_DATA	ENDS
;	COMDAT ??_C@_0BE@NIAH@Torn?5Flesh?5of?5Souls?$AA@
_DATA	SEGMENT DWORD USE32 PUBLIC 'DATA'
_DATA	ENDS
;	COMDAT ??_C@_0BF@OMOA@The?5Gladiator?8s?5Bane?$AA@
_DATA	SEGMENT DWORD USE32 PUBLIC 'DATA'
_DATA	ENDS
;	COMDAT ??_C@_0BC@MCAH@The?5Rainbow?5Cloak?$AA@
_DATA	SEGMENT DWORD USE32 PUBLIC 'DATA'
_DATA	ENDS
;	COMDAT ??_C@_0P@IDGC@Leather?5of?5Aut?$AA@
_DATA	SEGMENT DWORD USE32 PUBLIC 'DATA'
_DATA	ENDS
;	COMDAT ??_C@_0O@GEEJ@Wisdom?8s?5Wrap?$AA@
_DATA	SEGMENT DWORD USE32 PUBLIC 'DATA'
_DATA	ENDS
;	COMDAT ??_C@_0O@IGGO@Sparking?5Mail?$AA@
_DATA	SEGMENT DWORD USE32 PUBLIC 'DATA'
_DATA	ENDS
;	COMDAT ??_C@_0BD@EIPI@Scavenger?5Carapace?$AA@
_DATA	SEGMENT DWORD USE32 PUBLIC 'DATA'
_DATA	ENDS
;	COMDAT ??_C@_0L@IJGD@Nightscape?$AA@
_DATA	SEGMENT DWORD USE32 PUBLIC 'DATA'
_DATA	ENDS
;	COMDAT ??_C@_0BC@FJEO@Naj?8s?5Light?5Plate?$AA@
_DATA	SEGMENT DWORD USE32 PUBLIC 'DATA'
_DATA	ENDS
;	COMDAT ??_C@_0BA@LMDJ@Demonspike?5Coat?$AA@
_DATA	SEGMENT DWORD USE32 PUBLIC 'DATA'
_DATA	ENDS
;	COMDAT ??_C@_0O@BCBJ@The?5Deflector?$AA@
_DATA	SEGMENT DWORD USE32 PUBLIC 'DATA'
_DATA	ENDS
;	COMDAT ??_C@_0BD@FMDN@Split?5Skull?5Shield?$AA@
_DATA	SEGMENT DWORD USE32 PUBLIC 'DATA'
_DATA	ENDS
;	COMDAT ??_C@_0BA@MNCP@Dragon?8s?5Breach?$AA@
_DATA	SEGMENT DWORD USE32 PUBLIC 'DATA'
_DATA	ENDS
;	COMDAT ??_C@_0BA@JLBF@Blackoak?5Shield?$AA@
_DATA	SEGMENT DWORD USE32 PUBLIC 'DATA'
_DATA	ENDS
;	COMDAT ??_C@_0O@MBNB@Holy?5Defender?$AA@
_DATA	SEGMENT DWORD USE32 PUBLIC 'DATA'
_DATA	ENDS
;	COMDAT ??_C@_0M@CHNE@Stormshield?$AA@
_DATA	SEGMENT DWORD USE32 PUBLIC 'DATA'
_DATA	ENDS
;	COMDAT ??_C@_07JICK@Bramble?$AA@
_DATA	SEGMENT DWORD USE32 PUBLIC 'DATA'
_DATA	ENDS
;	COMDAT ??_C@_0O@GFAH@Ring?5of?5Regha?$AA@
_DATA	SEGMENT DWORD USE32 PUBLIC 'DATA'
_DATA	ENDS
;	COMDAT ??_C@_0M@MJLO@The?5Bleeder?$AA@
_DATA	SEGMENT DWORD USE32 PUBLIC 'DATA'
_DATA	ENDS
;	COMDAT ??_C@_0BC@GNLC@Constricting?5Ring?$AA@
_DATA	SEGMENT DWORD USE32 PUBLIC 'DATA'
_DATA	ENDS
;	COMDAT ??_C@_0BD@BKHB@Ring?5of?5Engagement?$AA@
_DATA	SEGMENT DWORD USE32 PUBLIC 'DATA'
_DATA	ENDS
;	COMDAT ??_C@_0M@HOBP@Short?5Sword?$AA@
_DATA	SEGMENT DWORD USE32 PUBLIC 'DATA'
_DATA	ENDS
;	COMDAT ??_C@_07MMEF@Buckler?$AA@
_DATA	SEGMENT DWORD USE32 PUBLIC 'DATA'
_DATA	ENDS
;	COMDAT ??_C@_04NPLD@Club?$AA@
_DATA	SEGMENT DWORD USE32 PUBLIC 'DATA'
_DATA	ENDS
;	COMDAT ??_C@_09HMDM@Short?5Bow?$AA@
_DATA	SEGMENT DWORD USE32 PUBLIC 'DATA'
_DATA	ENDS
;	COMDAT ??_C@_0BM@FKFF@Short?5Staff?5of?5Charged?5Bolt?$AA@
_DATA	SEGMENT DWORD USE32 PUBLIC 'DATA'
_DATA	ENDS
;	COMDAT ??_C@_07DFGK@Cleaver?$AA@
_DATA	SEGMENT DWORD USE32 PUBLIC 'DATA'
_DATA	ENDS
;	COMDAT ??_C@_0L@CAJC@Magic?5Rock?$AA@
_DATA	SEGMENT DWORD USE32 PUBLIC 'DATA'
_DATA	ENDS
;	COMDAT ??_C@_0M@NAPI@Tavern?5Sign?$AA@
_DATA	SEGMENT DWORD USE32 PUBLIC 'DATA'
_DATA	ENDS
;	COMDAT ??_C@_0O@DFFP@Golden?5Elixir?$AA@
_DATA	SEGMENT DWORD USE32 PUBLIC 'DATA'
_DATA	ENDS
;	COMDAT ??_C@_0O@FHBG@Anvil?5of?5Fury?$AA@
_DATA	SEGMENT DWORD USE32 PUBLIC 'DATA'
_DATA	ENDS
;	COMDAT ??_C@_0P@DIJL@Black?5Mushroom?$AA@
_DATA	SEGMENT DWORD USE32 PUBLIC 'DATA'
_DATA	ENDS
;	COMDAT ??_C@_05LNNG@Brain?$AA@
_DATA	SEGMENT DWORD USE32 PUBLIC 'DATA'
_DATA	ENDS
;	COMDAT ??_C@_0M@FMMF@Fungal?5Tome?$AA@
_DATA	SEGMENT DWORD USE32 PUBLIC 'DATA'
_DATA	ENDS
;	COMDAT ??_C@_0BA@FAA@Spectral?5Elixir?$AA@
_DATA	SEGMENT DWORD USE32 PUBLIC 'DATA'
_DATA	ENDS
;	COMDAT ??_C@_0M@BAA@Blood?5Stone?$AA@
_DATA	SEGMENT DWORD USE32 PUBLIC 'DATA'
_DATA	ENDS
;	COMDAT ??_C@_0BB@DLLL@Map?5of?5the?5Stars?$AA@
_DATA	SEGMENT DWORD USE32 PUBLIC 'DATA'
_DATA	ENDS
;	COMDAT ??_C@_05BPMN@Heart?$AA@
_DATA	SEGMENT DWORD USE32 PUBLIC 'DATA'
_DATA	ENDS
;	COMDAT ??_C@_0BC@OFPF@Potion?5of?5Healing?$AA@
_DATA	SEGMENT DWORD USE32 PUBLIC 'DATA'
_DATA	ENDS
;	COMDAT ??_C@_0P@PEDF@Potion?5of?5Mana?$AA@
_DATA	SEGMENT DWORD USE32 PUBLIC 'DATA'
_DATA	ENDS
;	COMDAT ??_C@_0BD@HKHI@Scroll?5of?5Identify?$AA@
_DATA	SEGMENT DWORD USE32 PUBLIC 'DATA'
_DATA	ENDS
;	COMDAT ??_C@_0BG@BCKO@Scroll?5of?5Town?5Portal?$AA@
_DATA	SEGMENT DWORD USE32 PUBLIC 'DATA'
_DATA	ENDS
;	COMDAT ??_C@_0BH@FJIN@Potion?5of?5Full?5Healing?$AA@
_DATA	SEGMENT DWORD USE32 PUBLIC 'DATA'
_DATA	ENDS
;	COMDAT ??_C@_0BE@EKIO@Potion?5of?5Full?5Mana?$AA@
_DATA	SEGMENT DWORD USE32 PUBLIC 'DATA'
_DATA	ENDS
;	COMDAT ??_C@_0BB@IAKD@Staff?5of?5Lazarus?$AA@
_DATA	SEGMENT DWORD USE32 PUBLIC 'DATA'
_DATA	ENDS
;	COMDAT ??_C@_0BE@KOIM@Scroll?5of?5Resurrect?$AA@
_DATA	SEGMENT DWORD USE32 PUBLIC 'DATA'
_DATA	ENDS
;	COMDAT ??_C@_03EEJM@Cap?$AA@
_DATA	SEGMENT DWORD USE32 PUBLIC 'DATA'
_DATA	ENDS
;	COMDAT ??_C@_09CIHH@Skull?5Cap?$AA@
_DATA	SEGMENT DWORD USE32 PUBLIC 'DATA'
_DATA	ENDS
;	COMDAT ??_C@_04JAHM@Helm?$AA@
_DATA	SEGMENT DWORD USE32 PUBLIC 'DATA'
_DATA	ENDS
;	COMDAT ??_C@_09PBMM@Full?5Helm?$AA@
_DATA	SEGMENT DWORD USE32 PUBLIC 'DATA'
_DATA	ENDS
;	COMDAT ??_C@_05MJDD@Crown?$AA@
_DATA	SEGMENT DWORD USE32 PUBLIC 'DATA'
_DATA	ENDS
;	COMDAT ??_C@_0L@FPDC@Great?5Helm?$AA@
_DATA	SEGMENT DWORD USE32 PUBLIC 'DATA'
_DATA	ENDS
;	COMDAT ??_C@_04EMKP@Cape?$AA@
_DATA	SEGMENT DWORD USE32 PUBLIC 'DATA'
_DATA	ENDS
;	COMDAT ??_C@_04GBCC@Rags?$AA@
_DATA	SEGMENT DWORD USE32 PUBLIC 'DATA'
_DATA	ENDS
;	COMDAT ??_C@_05HEPD@Cloak?$AA@
_DATA	SEGMENT DWORD USE32 PUBLIC 'DATA'
_DATA	ENDS
;	COMDAT ??_C@_04HOC@Robe?$AA@
_DATA	SEGMENT DWORD USE32 PUBLIC 'DATA'
_DATA	ENDS
;	COMDAT ??_C@_0O@JGBG@Quilted?5Armor?$AA@
_DATA	SEGMENT DWORD USE32 PUBLIC 'DATA'
_DATA	ENDS
;	COMDAT ??_C@_05KFDN@Armor?$AA@
_DATA	SEGMENT DWORD USE32 PUBLIC 'DATA'
_DATA	ENDS
;	COMDAT ??_C@_0O@CGFJ@Leather?5Armor?$AA@
_DATA	SEGMENT DWORD USE32 PUBLIC 'DATA'
_DATA	ENDS
;	COMDAT ??_C@_0BD@GHHI@Hard?5Leather?5Armor?$AA@
_DATA	SEGMENT DWORD USE32 PUBLIC 'DATA'
_DATA	ENDS
;	COMDAT ??_C@_0BG@EIMI@Studded?5Leather?5Armor?$AA@
_DATA	SEGMENT DWORD USE32 PUBLIC 'DATA'
_DATA	ENDS
;	COMDAT ??_C@_09GPFE@Ring?5Mail?$AA@
_DATA	SEGMENT DWORD USE32 PUBLIC 'DATA'
_DATA	ENDS
;	COMDAT ??_C@_04IOKL@Mail?$AA@
_DATA	SEGMENT DWORD USE32 PUBLIC 'DATA'
_DATA	ENDS
;	COMDAT ??_C@_0L@EEOL@Chain?5Mail?$AA@
_DATA	SEGMENT DWORD USE32 PUBLIC 'DATA'
_DATA	ENDS
;	COMDAT ??_C@_0L@GLHE@Scale?5Mail?$AA@
_DATA	SEGMENT DWORD USE32 PUBLIC 'DATA'
_DATA	ENDS
;	COMDAT ??_C@_0N@CMJK@Breast?5Plate?$AA@
_DATA	SEGMENT DWORD USE32 PUBLIC 'DATA'
_DATA	ENDS
;	COMDAT ??_C@_05GHGI@Plate?$AA@
_DATA	SEGMENT DWORD USE32 PUBLIC 'DATA'
_DATA	ENDS
;	COMDAT ??_C@_0M@LJKD@Splint?5Mail?$AA@
_DATA	SEGMENT DWORD USE32 PUBLIC 'DATA'
_DATA	ENDS
;	COMDAT ??_C@_0L@DLHM@Plate?5Mail?$AA@
_DATA	SEGMENT DWORD USE32 PUBLIC 'DATA'
_DATA	ENDS
;	COMDAT ??_C@_0M@EEOC@Field?5Plate?$AA@
_DATA	SEGMENT DWORD USE32 PUBLIC 'DATA'
_DATA	ENDS
;	COMDAT ??_C@_0N@JKHF@Gothic?5Plate?$AA@
_DATA	SEGMENT DWORD USE32 PUBLIC 'DATA'
_DATA	ENDS
;	COMDAT ??_C@_0BA@NADG@Full?5Plate?5Mail?$AA@
_DATA	SEGMENT DWORD USE32 PUBLIC 'DATA'
_DATA	ENDS
;	COMDAT ??_C@_06GBHM@Shield?$AA@
_DATA	SEGMENT DWORD USE32 PUBLIC 'DATA'
_DATA	ENDS
;	COMDAT ??_C@_0N@GPPF@Small?5Shield?$AA@
_DATA	SEGMENT DWORD USE32 PUBLIC 'DATA'
_DATA	ENDS
;	COMDAT ??_C@_0N@BAHM@Large?5Shield?$AA@
_DATA	SEGMENT DWORD USE32 PUBLIC 'DATA'
_DATA	ENDS
;	COMDAT ??_C@_0M@BCJC@Kite?5Shield?$AA@
_DATA	SEGMENT DWORD USE32 PUBLIC 'DATA'
_DATA	ENDS
;	COMDAT ??_C@_0N@MEKF@Tower?5Shield?$AA@
_DATA	SEGMENT DWORD USE32 PUBLIC 'DATA'
_DATA	ENDS
;	COMDAT ??_C@_0O@KMIB@Gothic?5Shield?$AA@
_DATA	SEGMENT DWORD USE32 PUBLIC 'DATA'
_DATA	ENDS
;	COMDAT ??_C@_0BH@MDNB@Potion?5of?5Rejuvenation?$AA@
_DATA	SEGMENT DWORD USE32 PUBLIC 'DATA'
_DATA	ENDS
;	COMDAT ??_C@_0BM@HDFP@Potion?5of?5Full?5Rejuvenation?$AA@
_DATA	SEGMENT DWORD USE32 PUBLIC 'DATA'
_DATA	ENDS
;	COMDAT ??_C@_0BD@JMEN@Elixir?5of?5Strength?$AA@
_DATA	SEGMENT DWORD USE32 PUBLIC 'DATA'
_DATA	ENDS
;	COMDAT ??_C@_0BA@EHL@Elixir?5of?5Magic?$AA@
_DATA	SEGMENT DWORD USE32 PUBLIC 'DATA'
_DATA	ENDS
;	COMDAT ??_C@_0BE@FLMA@Elixir?5of?5Dexterity?$AA@
_DATA	SEGMENT DWORD USE32 PUBLIC 'DATA'
_DATA	ENDS
;	COMDAT ??_C@_0BD@DFDJ@Elixir?5of?5Vitality?$AA@
_DATA	SEGMENT DWORD USE32 PUBLIC 'DATA'
_DATA	ENDS
;	COMDAT ??_C@_0BC@BGMN@Scroll?5of?5Healing?$AA@
_DATA	SEGMENT DWORD USE32 PUBLIC 'DATA'
_DATA	ENDS
;	COMDAT ??_C@_0BE@EOEK@Scroll?5of?5Lightning?$AA@
_DATA	SEGMENT DWORD USE32 PUBLIC 'DATA'
_DATA	ENDS
;	COMDAT ??_C@_0BE@KGPH@Scroll?5of?5Fire?5Wall?$AA@
_DATA	SEGMENT DWORD USE32 PUBLIC 'DATA'
_DATA	ENDS
;	COMDAT ??_C@_0BC@FHNN@Scroll?5of?5Inferno?$AA@
_DATA	SEGMENT DWORD USE32 PUBLIC 'DATA'
_DATA	ENDS
;	COMDAT ??_C@_0BA@FPKC@Scroll?5of?5Flash?$AA@
_DATA	SEGMENT DWORD USE32 PUBLIC 'DATA'
_DATA	ENDS
;	COMDAT ??_C@_0BG@LPBB@Scroll?5of?5Infravision?$AA@
_DATA	SEGMENT DWORD USE32 PUBLIC 'DATA'
_DATA	ENDS
;	COMDAT ??_C@_0BC@GABE@Scroll?5of?5Phasing?$AA@
_DATA	SEGMENT DWORD USE32 PUBLIC 'DATA'
_DATA	ENDS
;	COMDAT ??_C@_0BG@HMH@Scroll?5of?5Mana?5Shield?$AA@
_DATA	SEGMENT DWORD USE32 PUBLIC 'DATA'
_DATA	ENDS
;	COMDAT ??_C@_0BF@KPLE@Scroll?5of?5Flame?5Wave?$AA@
_DATA	SEGMENT DWORD USE32 PUBLIC 'DATA'
_DATA	ENDS
;	COMDAT ??_C@_0BD@FLEO@Scroll?5of?5Fireball?$AA@
_DATA	SEGMENT DWORD USE32 PUBLIC 'DATA'
_DATA	ENDS
;	COMDAT ??_C@_0BG@DOBJ@Scroll?5of?5Stone?5Curse?$AA@
_DATA	SEGMENT DWORD USE32 PUBLIC 'DATA'
_DATA	ENDS
;	COMDAT ??_C@_0BK@ECBO@Scroll?5of?5Chain?5Lightning?$AA@
_DATA	SEGMENT DWORD USE32 PUBLIC 'DATA'
_DATA	ENDS
;	COMDAT ??_C@_0BD@FBKP@Scroll?5of?5Guardian?$AA@
_DATA	SEGMENT DWORD USE32 PUBLIC 'DATA'
_DATA	ENDS
;	COMDAT ??_C@_08FNGF@Non?5Item?$AA@
_DATA	SEGMENT DWORD USE32 PUBLIC 'DATA'
_DATA	ENDS
;	COMDAT ??_C@_0P@BBFO@Scroll?5of?5Nova?$AA@
_DATA	SEGMENT DWORD USE32 PUBLIC 'DATA'
_DATA	ENDS
;	COMDAT ??_C@_0BA@HBF@Scroll?5of?5Golem?$AA@
_DATA	SEGMENT DWORD USE32 PUBLIC 'DATA'
_DATA	ENDS
;	COMDAT ??_C@_0P@GEPP@Scroll?5of?5None?$AA@
_DATA	SEGMENT DWORD USE32 PUBLIC 'DATA'
_DATA	ENDS
;	COMDAT ??_C@_0BD@DLEP@Scroll?5of?5Teleport?$AA@
_DATA	SEGMENT DWORD USE32 PUBLIC 'DATA'
_DATA	ENDS
;	COMDAT ??_C@_0BF@ODHC@Scroll?5of?5Apocalypse?$AA@
_DATA	SEGMENT DWORD USE32 PUBLIC 'DATA'
_DATA	ENDS
;	COMDAT ??_C@_08DNLH@Book?5of?5?$AA@
_DATA	SEGMENT DWORD USE32 PUBLIC 'DATA'
_DATA	ENDS
;	COMDAT ??_C@_06NGLM@Dagger?$AA@
_DATA	SEGMENT DWORD USE32 PUBLIC 'DATA'
_DATA	ENDS
;	COMDAT ??_C@_05DGOK@Sword?$AA@
_DATA	SEGMENT DWORD USE32 PUBLIC 'DATA'
_DATA	ENDS
;	COMDAT ??_C@_08OIB@Falchion?$AA@
_DATA	SEGMENT DWORD USE32 PUBLIC 'DATA'
_DATA	ENDS
;	COMDAT ??_C@_08KAPM@Scimitar?$AA@
_DATA	SEGMENT DWORD USE32 PUBLIC 'DATA'
_DATA	ENDS
;	COMDAT ??_C@_08MPPO@Claymore?$AA@
_DATA	SEGMENT DWORD USE32 PUBLIC 'DATA'
_DATA	ENDS
;	COMDAT ??_C@_05EPNO@Blade?$AA@
_DATA	SEGMENT DWORD USE32 PUBLIC 'DATA'
_DATA	ENDS
;	COMDAT ??_C@_05JMEJ@Sabre?$AA@
_DATA	SEGMENT DWORD USE32 PUBLIC 'DATA'
_DATA	ENDS
;	COMDAT ??_C@_0L@PEAA@Long?5Sword?$AA@
_DATA	SEGMENT DWORD USE32 PUBLIC 'DATA'
_DATA	ENDS
;	COMDAT ??_C@_0M@BCBO@Broad?5Sword?$AA@
_DATA	SEGMENT DWORD USE32 PUBLIC 'DATA'
_DATA	ENDS
;	COMDAT ??_C@_0O@LHMK@Bastard?5Sword?$AA@
_DATA	SEGMENT DWORD USE32 PUBLIC 'DATA'
_DATA	ENDS
;	COMDAT ??_C@_0BB@BPCM@Two?9Handed?5Sword?$AA@
_DATA	SEGMENT DWORD USE32 PUBLIC 'DATA'
_DATA	ENDS
;	COMDAT ??_C@_0M@CNCF@Great?5Sword?$AA@
_DATA	SEGMENT DWORD USE32 PUBLIC 'DATA'
_DATA	ENDS
;	COMDAT ??_C@_09PFN@Small?5Axe?$AA@
_DATA	SEGMENT DWORD USE32 PUBLIC 'DATA'
_DATA	ENDS
;	COMDAT ??_C@_03IAFN@Axe?$AA@
_DATA	SEGMENT DWORD USE32 PUBLIC 'DATA'
_DATA	ENDS
;	COMDAT ??_C@_09DPKC@Large?5Axe?$AA@
_DATA	SEGMENT DWORD USE32 PUBLIC 'DATA'
_DATA	ENDS
;	COMDAT ??_C@_09COBI@Broad?5Axe?$AA@
_DATA	SEGMENT DWORD USE32 PUBLIC 'DATA'
_DATA	ENDS
;	COMDAT ??_C@_0L@FOHJ@Battle?5Axe?$AA@
_DATA	SEGMENT DWORD USE32 PUBLIC 'DATA'
_DATA	ENDS
;	COMDAT ??_C@_09MOKD@Great?5Axe?$AA@
_DATA	SEGMENT DWORD USE32 PUBLIC 'DATA'
_DATA	ENDS
;	COMDAT ??_C@_04OIIF@Mace?$AA@
_DATA	SEGMENT DWORD USE32 PUBLIC 'DATA'
_DATA	ENDS
;	COMDAT ??_C@_0N@CCDC@Morning?5Star?$AA@
_DATA	SEGMENT DWORD USE32 PUBLIC 'DATA'
_DATA	ENDS
;	COMDAT ??_C@_0L@NFJ@War?5Hammer?$AA@
_DATA	SEGMENT DWORD USE32 PUBLIC 'DATA'
_DATA	ENDS
;	COMDAT ??_C@_06HJJB@Hammer?$AA@
_DATA	SEGMENT DWORD USE32 PUBLIC 'DATA'
_DATA	ENDS
;	COMDAT ??_C@_0M@OOJP@Spiked?5Club?$AA@
_DATA	SEGMENT DWORD USE32 PUBLIC 'DATA'
_DATA	ENDS
;	COMDAT ??_C@_05MIDA@Flail?$AA@
_DATA	SEGMENT DWORD USE32 PUBLIC 'DATA'
_DATA	ENDS
;	COMDAT ??_C@_04LPM@Maul?$AA@
_DATA	SEGMENT DWORD USE32 PUBLIC 'DATA'
_DATA	ENDS
;	COMDAT ??_C@_03IBME@Bow?$AA@
_DATA	SEGMENT DWORD USE32 PUBLIC 'DATA'
_DATA	ENDS
;	COMDAT ??_C@_0N@JCDD@Hunter?8s?5Bow?$AA@
_DATA	SEGMENT DWORD USE32 PUBLIC 'DATA'
_DATA	ENDS
;	COMDAT ??_C@_08OKLM@Long?5Bow?$AA@
_DATA	SEGMENT DWORD USE32 PUBLIC 'DATA'
_DATA	ENDS
;	COMDAT ??_C@_0O@DKDP@Composite?5Bow?$AA@
_DATA	SEGMENT DWORD USE32 PUBLIC 'DATA'
_DATA	ENDS
;	COMDAT ??_C@_0BB@PILI@Short?5Battle?5Bow?$AA@
_DATA	SEGMENT DWORD USE32 PUBLIC 'DATA'
_DATA	ENDS
;	COMDAT ??_C@_0BA@BIGH@Long?5Battle?5Bow?$AA@
_DATA	SEGMENT DWORD USE32 PUBLIC 'DATA'
_DATA	ENDS
;	COMDAT ??_C@_0O@JFHI@Short?5War?5Bow?$AA@
_DATA	SEGMENT DWORD USE32 PUBLIC 'DATA'
_DATA	ENDS
;	COMDAT ??_C@_0N@POPE@Long?5War?5Bow?$AA@
_DATA	SEGMENT DWORD USE32 PUBLIC 'DATA'
_DATA	ENDS
;	COMDAT ??_C@_0M@IAG@Short?5Staff?$AA@
_DATA	SEGMENT DWORD USE32 PUBLIC 'DATA'
_DATA	ENDS
;	COMDAT ??_C@_05EAPD@Staff?$AA@
_DATA	SEGMENT DWORD USE32 PUBLIC 'DATA'
_DATA	ENDS
;	COMDAT ??_C@_0L@ICBJ@Long?5Staff?$AA@
_DATA	SEGMENT DWORD USE32 PUBLIC 'DATA'
_DATA	ENDS
;	COMDAT ??_C@_0BA@IFDM@Composite?5Staff?$AA@
_DATA	SEGMENT DWORD USE32 PUBLIC 'DATA'
_DATA	ENDS
;	COMDAT ??_C@_0O@ILDK@Quarter?5Staff?$AA@
_DATA	SEGMENT DWORD USE32 PUBLIC 'DATA'
_DATA	ENDS
;	COMDAT ??_C@_09IIHC@War?5Staff?$AA@
_DATA	SEGMENT DWORD USE32 PUBLIC 'DATA'
_DATA	ENDS
;	COMDAT ??_C@_04FBEF@Ring?$AA@
_DATA	SEGMENT DWORD USE32 PUBLIC 'DATA'
_DATA	ENDS
;	COMDAT ??_C@_06BCFK@Amulet?$AA@
_DATA	SEGMENT DWORD USE32 PUBLIC 'DATA'
_DATA	ENDS
;	COMDAT ??_C@_06KJBL@Armor2?$AA@
_DATA	SEGMENT DWORD USE32 PUBLIC 'DATA'
_DATA	ENDS
;	COMDAT ??_C@_06KLNE@FBttle?$AA@
_DATA	SEGMENT DWORD USE32 PUBLIC 'DATA'
_DATA	ENDS
;	COMDAT ??_C@_08IFLC@GoldFlip?$AA@
_DATA	SEGMENT DWORD USE32 PUBLIC 'DATA'
_DATA	ENDS
;	COMDAT ??_C@_06EJIN@Helmut?$AA@
_DATA	SEGMENT DWORD USE32 PUBLIC 'DATA'
_DATA	ENDS
;	COMDAT ??_C@_08DANF@SwrdFlip?$AA@
_DATA	SEGMENT DWORD USE32 PUBLIC 'DATA'
_DATA	ENDS
;	COMDAT ??_C@_04LKIC@Rock?$AA@
_DATA	SEGMENT DWORD USE32 PUBLIC 'DATA'
_DATA	ENDS
;	COMDAT ??_C@_06IHL@CrownF?$AA@
_DATA	SEGMENT DWORD USE32 PUBLIC 'DATA'
_DATA	ENDS
;	COMDAT ??_C@_06DGLF@LArmor?$AA@
_DATA	SEGMENT DWORD USE32 PUBLIC 'DATA'
_DATA	ENDS
;	COMDAT ??_C@_07OEKG@WShield?$AA@
_DATA	SEGMENT DWORD USE32 PUBLIC 'DATA'
_DATA	ENDS
;	COMDAT ??_C@_06PAFO@Scroll?$AA@
_DATA	SEGMENT DWORD USE32 PUBLIC 'DATA'
_DATA	ENDS
;	COMDAT ??_C@_08CJML@FPlateAr?$AA@
_DATA	SEGMENT DWORD USE32 PUBLIC 'DATA'
_DATA	ENDS
;	COMDAT ??_C@_05MJNG@FBook?$AA@
_DATA	SEGMENT DWORD USE32 PUBLIC 'DATA'
_DATA	ENDS
;	COMDAT ??_C@_04JEEI@Food?$AA@
_DATA	SEGMENT DWORD USE32 PUBLIC 'DATA'
_DATA	ENDS
;	COMDAT ??_C@_08PHIC@FBttleBB?$AA@
_DATA	SEGMENT DWORD USE32 PUBLIC 'DATA'
_DATA	ENDS
;	COMDAT ??_C@_08ICAM@FBttleDY?$AA@
_DATA	SEGMENT DWORD USE32 PUBLIC 'DATA'
_DATA	ENDS
;	COMDAT ??_C@_08KHKG@FBttleOR?$AA@
_DATA	SEGMENT DWORD USE32 PUBLIC 'DATA'
_DATA	ENDS
;	COMDAT ??_C@_08FOPC@FBttleBR?$AA@
_DATA	SEGMENT DWORD USE32 PUBLIC 'DATA'
_DATA	ENDS
;	COMDAT ??_C@_08FMEI@FBttleBL?$AA@
_DATA	SEGMENT DWORD USE32 PUBLIC 'DATA'
_DATA	ENDS
;	COMDAT ??_C@_08PFPD@FBttleBY?$AA@
_DATA	SEGMENT DWORD USE32 PUBLIC 'DATA'
_DATA	ENDS
;	COMDAT ??_C@_08NALN@FBttleWH?$AA@
_DATA	SEGMENT DWORD USE32 PUBLIC 'DATA'
_DATA	ENDS
;	COMDAT ??_C@_08IAHN@FBttleDB?$AA@
_DATA	SEGMENT DWORD USE32 PUBLIC 'DATA'
_DATA	ENDS
;	COMDAT ??_C@_04HGKM@FEar?$AA@
_DATA	SEGMENT DWORD USE32 PUBLIC 'DATA'
_DATA	ENDS
;	COMDAT ??_C@_06KIBP@FBrain?$AA@
_DATA	SEGMENT DWORD USE32 PUBLIC 'DATA'
_DATA	ENDS
;	COMDAT ??_C@_05HGOE@FMush?$AA@
_DATA	SEGMENT DWORD USE32 PUBLIC 'DATA'
_DATA	ENDS
;	COMDAT ??_C@_07LMBD@Innsign?$AA@
_DATA	SEGMENT DWORD USE32 PUBLIC 'DATA'
_DATA	ENDS
;	COMDAT ??_C@_06KHLH@Bldstn?$AA@
_DATA	SEGMENT DWORD USE32 PUBLIC 'DATA'
_DATA	ENDS
;	COMDAT ??_C@_06GMAG@Fanvil?$AA@
_DATA	SEGMENT DWORD USE32 PUBLIC 'DATA'
_DATA	ENDS
;	COMDAT ??_C@_08HGKF@FLazStaf?$AA@
_DATA	SEGMENT DWORD USE32 PUBLIC 'DATA'
_DATA	ENDS
;	COMDAT ??_C@_0N@ONAL@Items?2?$CFs?4CEL?$AA@
_DATA	SEGMENT DWORD USE32 PUBLIC 'DATA'
_DATA	ENDS
;	COMDAT ??_C@_05JKGE@?$CFs?5?$CFs?$AA@
_DATA	SEGMENT DWORD USE32 PUBLIC 'DATA'
_DATA	ENDS
;	COMDAT ??_C@_08DBB@?$CFs?5of?5?$CFs?$AA@
_DATA	SEGMENT DWORD USE32 PUBLIC 'DATA'
_DATA	ENDS
;	COMDAT ??_C@_0M@ELHC@Staff?5of?5?$CFs?$AA@
_DATA	SEGMENT DWORD USE32 PUBLIC 'DATA'
_DATA	ENDS
;	COMDAT ??_C@_09FPPI@Ear?5of?5?$CFs?$AA@
_DATA	SEGMENT DWORD USE32 PUBLIC 'DATA'
_DATA	ENDS
;	COMDAT ??_C@_0L@PMKP@?$CFi?5gold?5?$CFs?$AA@
_DATA	SEGMENT DWORD USE32 PUBLIC 'DATA'
_DATA	ENDS
;	COMDAT ??_C@_0BD@EAIB@fully?5recover?5life?$AA@
_DATA	SEGMENT DWORD USE32 PUBLIC 'DATA'
_DATA	ENDS
;	COMDAT ??_C@_0BF@GNJJ@recover?5partial?5life?$AA@
_DATA	SEGMENT DWORD USE32 PUBLIC 'DATA'
_DATA	ENDS
;	COMDAT ??_C@_0N@KDLO@recover?5life?$AA@
_DATA	SEGMENT DWORD USE32 PUBLIC 'DATA'
_DATA	ENDS
;	COMDAT ??_C@_0M@LNHC@deadly?5heal?$AA@
_DATA	SEGMENT DWORD USE32 PUBLIC 'DATA'
_DATA	ENDS
;	COMDAT ??_C@_0N@JFB@recover?5mana?$AA@
_DATA	SEGMENT DWORD USE32 PUBLIC 'DATA'
_DATA	ENDS
;	COMDAT ??_C@_0BD@OKGO@fully?5recover?5mana?$AA@
_DATA	SEGMENT DWORD USE32 PUBLIC 'DATA'
_DATA	ENDS
;	COMDAT ??_C@_0BC@IJLM@increase?5strength?$AA@
_DATA	SEGMENT DWORD USE32 PUBLIC 'DATA'
_DATA	ENDS
;	COMDAT ??_C@_0P@KAJB@increase?5magic?$AA@
_DATA	SEGMENT DWORD USE32 PUBLIC 'DATA'
_DATA	ENDS
;	COMDAT ??_C@_0BD@EANF@increase?5dexterity?$AA@
_DATA	SEGMENT DWORD USE32 PUBLIC 'DATA'
_DATA	ENDS
;	COMDAT ??_C@_0BC@CAMI@increase?5vitality?$AA@
_DATA	SEGMENT DWORD USE32 PUBLIC 'DATA'
_DATA	ENDS
;	COMDAT ??_C@_0BC@GAEG@decrease?5strength?$AA@
_DATA	SEGMENT DWORD USE32 PUBLIC 'DATA'
_DATA	ENDS
;	COMDAT ??_C@_0BD@BADM@decrease?5dexterity?$AA@
_DATA	SEGMENT DWORD USE32 PUBLIC 'DATA'
_DATA	ENDS
;	COMDAT ??_C@_0BC@MJDC@decrease?5vitality?$AA@
_DATA	SEGMENT DWORD USE32 PUBLIC 'DATA'
_DATA	ENDS
;	COMDAT ??_C@_0BG@MNGE@recover?5life?5and?5mana?$AA@
_DATA	SEGMENT DWORD USE32 PUBLIC 'DATA'
_DATA	ENDS
;	COMDAT ??_C@_0BM@IENB@fully?5recover?5life?5and?5mana?$AA@
_DATA	SEGMENT DWORD USE32 PUBLIC 'DATA'
_DATA	ENDS
;	COMDAT ??_C@_0BG@NHAN@chance?5to?5hit?5?3?5?$CF?$CLi?$CF?$CF?$AA@
_DATA	SEGMENT DWORD USE32 PUBLIC 'DATA'
_DATA	ENDS
;	COMDAT ??_C@_0N@KGKI@?$CF?$CLi?$CF?$CF?5damage?$AA@
_DATA	SEGMENT DWORD USE32 PUBLIC 'DATA'
_DATA	ENDS
;	COMDAT ??_C@_0BM@PKFE@to?5hit?3?5?$CF?$CLi?$CF?$CF?0?5?$CF?$CLi?$CF?$CF?5damage?$AA@
_DATA	SEGMENT DWORD USE32 PUBLIC 'DATA'
_DATA	ENDS
;	COMDAT ??_C@_0M@DCPA@?$CF?$CLi?$CF?$CF?5armor?$AA@
_DATA	SEGMENT DWORD USE32 PUBLIC 'DATA'
_DATA	ENDS
;	COMDAT ??_C@_0BE@INMC@Resist?5Fire?5?3?5?$CF?$CLi?$CF?$CF?$AA@
_DATA	SEGMENT DWORD USE32 PUBLIC 'DATA'
_DATA	ENDS
;	COMDAT ??_C@_0BH@DMII@Resist?5Fire?5?3?575?$CF?$CF?5MAX?$AA@
_DATA	SEGMENT DWORD USE32 PUBLIC 'DATA'
_DATA	ENDS
;	COMDAT ??_C@_0BJ@IJJI@Resist?5Lightning?5?3?5?$CF?$CLi?$CF?$CF?$AA@
_DATA	SEGMENT DWORD USE32 PUBLIC 'DATA'
_DATA	ENDS
;	COMDAT ??_C@_0BM@EKLI@Resist?5Lightning?5?3?575?$CF?$CF?5MAX?$AA@
_DATA	SEGMENT DWORD USE32 PUBLIC 'DATA'
_DATA	ENDS
;	COMDAT ??_C@_0BF@FGAC@Resist?5Magic?5?3?5?$CF?$CLi?$CF?$CF?$AA@
_DATA	SEGMENT DWORD USE32 PUBLIC 'DATA'
_DATA	ENDS
;	COMDAT ??_C@_0BI@CKDF@Resist?5Magic?5?3?575?$CF?$CF?5MAX?$AA@
_DATA	SEGMENT DWORD USE32 PUBLIC 'DATA'
_DATA	ENDS
;	COMDAT ??_C@_0BD@LJPI@Resist?5All?5?3?5?$CF?$CLi?$CF?$CF?$AA@
_DATA	SEGMENT DWORD USE32 PUBLIC 'DATA'
_DATA	ENDS
;	COMDAT ??_C@_0BG@NMHF@Resist?5All?5?3?575?$CF?$CF?5MAX?$AA@
_DATA	SEGMENT DWORD USE32 PUBLIC 'DATA'
_DATA	ENDS
;	COMDAT ??_C@_0BN@NICN@spells?5are?5increased?51?5level?$AA@
_DATA	SEGMENT DWORD USE32 PUBLIC 'DATA'
_DATA	ENDS
;	COMDAT ??_C@_0BO@GOEC@spells?5are?5increased?52?5levels?$AA@
_DATA	SEGMENT DWORD USE32 PUBLIC 'DATA'
_DATA	ENDS
;	COMDAT ??_C@_0BN@DBNH@spells?5are?5decreased?51?5level?$AA@
_DATA	SEGMENT DWORD USE32 PUBLIC 'DATA'
_DATA	ENDS
;	COMDAT ??_C@_0O@OMHN@Extra?5charges?$AA@
_DATA	SEGMENT DWORD USE32 PUBLIC 'DATA'
_DATA	ENDS
;	COMDAT ??_C@_0BH@LII@Fire?5hit?5damage?3?5?$CFi?9?$CFi?$AA@
_DATA	SEGMENT DWORD USE32 PUBLIC 'DATA'
_DATA	ENDS
;	COMDAT ??_C@_0BM@OGOK@Lightning?5hit?5damage?3?5?$CFi?9?$CFi?$AA@
_DATA	SEGMENT DWORD USE32 PUBLIC 'DATA'
_DATA	ENDS
;	COMDAT ??_C@_0BA@GLFH@?$CF?$CLi?5to?5strength?$AA@
_DATA	SEGMENT DWORD USE32 PUBLIC 'DATA'
_DATA	ENDS
;	COMDAT ??_C@_0N@GFMP@?$CF?$CLi?5to?5magic?$AA@
_DATA	SEGMENT DWORD USE32 PUBLIC 'DATA'
_DATA	ENDS
;	COMDAT ??_C@_0BB@MEDH@?$CF?$CLi?5to?5dexterity?$AA@
_DATA	SEGMENT DWORD USE32 PUBLIC 'DATA'
_DATA	ENDS
;	COMDAT ??_C@_0BA@MCCD@?$CF?$CLi?5to?5vitality?$AA@
_DATA	SEGMENT DWORD USE32 PUBLIC 'DATA'
_DATA	ENDS
;	COMDAT ??_C@_0BG@LLMG@?$CF?$CLi?5to?5all?5attributes?$AA@
_DATA	SEGMENT DWORD USE32 PUBLIC 'DATA'
_DATA	ENDS
;	COMDAT ??_C@_0BI@OKFD@?$CF?$CLi?5damage?5from?5enemies?$AA@
_DATA	SEGMENT DWORD USE32 PUBLIC 'DATA'
_DATA	ENDS
;	COMDAT ??_C@_0BB@NKBF@Hit?5Points?5?3?5?$CF?$CLi?$AA@
_DATA	SEGMENT DWORD USE32 PUBLIC 'DATA'
_DATA	ENDS
;	COMDAT ??_C@_0L@NCBG@Mana?5?3?5?$CF?$CLi?$AA@
_DATA	SEGMENT DWORD USE32 PUBLIC 'DATA'
_DATA	ENDS
;	COMDAT ??_C@_0BA@NKGA@high?5durability?$AA@
_DATA	SEGMENT DWORD USE32 PUBLIC 'DATA'
_DATA	ENDS
;	COMDAT ??_C@_0BF@MLFF@decreased?5durability?$AA@
_DATA	SEGMENT DWORD USE32 PUBLIC 'DATA'
_DATA	ENDS
;	COMDAT ??_C@_0P@PIHN@indestructible?$AA@
_DATA	SEGMENT DWORD USE32 PUBLIC 'DATA'
_DATA	ENDS
;	COMDAT ??_C@_0BD@KHON@?$CL?$CFi?$CF?$CF?5light?5radius?$AA@
_DATA	SEGMENT DWORD USE32 PUBLIC 'DATA'
_DATA	ENDS
;	COMDAT ??_C@_0BD@NLNF@?9?$CFi?$CF?$CF?5light?5radius?$AA@
_DATA	SEGMENT DWORD USE32 PUBLIC 'DATA'
_DATA	ENDS
;	COMDAT ??_C@_0BK@KNMA@fire?5arrows?5damage?3?5?$CFi?9?$CFi?$AA@
_DATA	SEGMENT DWORD USE32 PUBLIC 'DATA'
_DATA	ENDS
;	COMDAT ??_C@_0BO@OKME@lightning?5arrows?5damage?5?$CFi?9?$CFi?$AA@
_DATA	SEGMENT DWORD USE32 PUBLIC 'DATA'
_DATA	ENDS
;	COMDAT ??_C@_01FCOA@?5?$AA@
_DATA	SEGMENT DWORD USE32 PUBLIC 'DATA'
_DATA	ENDS
;	COMDAT ??_C@_0BK@BPDC@attacker?5takes?51?93?5damage?$AA@
_DATA	SEGMENT DWORD USE32 PUBLIC 'DATA'
_DATA	ENDS
;	COMDAT ??_C@_0BE@MCFM@user?5loses?5all?5mana?$AA@
_DATA	SEGMENT DWORD USE32 PUBLIC 'DATA'
_DATA	ENDS
;	COMDAT ??_C@_0P@LIEK@you?5can?8t?5heal?$AA@
_DATA	SEGMENT DWORD USE32 PUBLIC 'DATA'
_DATA	ENDS
;	COMDAT ??_C@_0BM@BOFO@absorbs?5half?5of?5trap?5damage?$AA@
_DATA	SEGMENT DWORD USE32 PUBLIC 'DATA'
_DATA	ENDS
;	COMDAT ??_C@_0BD@HJHA@knocks?5target?5back?$AA@
_DATA	SEGMENT DWORD USE32 PUBLIC 'DATA'
_DATA	ENDS
;	COMDAT ??_C@_0BJ@OIOH@hit?5monster?5doesn?8t?5heal?$AA@
_DATA	SEGMENT DWORD USE32 PUBLIC 'DATA'
_DATA	ENDS
;	COMDAT ??_C@_0BD@DGMD@hit?5steals?53?$CF?5mana?$AA@
_DATA	SEGMENT DWORD USE32 PUBLIC 'DATA'
_DATA	ENDS
;	COMDAT ??_C@_0BD@NBLO@hit?5steals?55?$CF?5mana?$AA@
_DATA	SEGMENT DWORD USE32 PUBLIC 'DATA'
_DATA	ENDS
;	COMDAT ??_C@_0BD@JMCM@hit?5steals?53?$CF?5life?$AA@
_DATA	SEGMENT DWORD USE32 PUBLIC 'DATA'
_DATA	ENDS
;	COMDAT ??_C@_0BD@HLFB@hit?5steals?55?$CF?5life?$AA@
_DATA	SEGMENT DWORD USE32 PUBLIC 'DATA'
_DATA	ENDS
;	COMDAT ??_C@_0BH@ENGD@damages?5target?8s?5armor?$AA@
_DATA	SEGMENT DWORD USE32 PUBLIC 'DATA'
_DATA	ENDS
;	COMDAT ??_C@_0N@DKJA@quick?5attack?$AA@
_DATA	SEGMENT DWORD USE32 PUBLIC 'DATA'
_DATA	ENDS
;	COMDAT ??_C@_0M@LIII@fast?5attack?$AA@
_DATA	SEGMENT DWORD USE32 PUBLIC 'DATA'
_DATA	ENDS
;	COMDAT ??_C@_0O@DOEN@faster?5attack?$AA@
_DATA	SEGMENT DWORD USE32 PUBLIC 'DATA'
_DATA	ENDS
;	COMDAT ??_C@_0P@KNDM@fastest?5attack?$AA@
_DATA	SEGMENT DWORD USE32 PUBLIC 'DATA'
_DATA	ENDS
;	COMDAT ??_C@_0BC@FNCP@fast?5hit?5recovery?$AA@
_DATA	SEGMENT DWORD USE32 PUBLIC 'DATA'
_DATA	ENDS
;	COMDAT ??_C@_0BE@HAJD@faster?5hit?5recovery?$AA@
_DATA	SEGMENT DWORD USE32 PUBLIC 'DATA'
_DATA	ENDS
;	COMDAT ??_C@_0BF@GDDN@fastest?5hit?5recovery?$AA@
_DATA	SEGMENT DWORD USE32 PUBLIC 'DATA'
_DATA	ENDS
;	COMDAT ??_C@_0L@IAA@fast?5block?$AA@
_DATA	SEGMENT DWORD USE32 PUBLIC 'DATA'
_DATA	ENDS
;	COMDAT ??_C@_0BJ@MLPI@adds?5?$CFi?5points?5to?5damage?$AA@
_DATA	SEGMENT DWORD USE32 PUBLIC 'DATA'
_DATA	ENDS
;	COMDAT ??_C@_0BK@CKCL@fires?5random?5speed?5arrows?$AA@
_DATA	SEGMENT DWORD USE32 PUBLIC 'DATA'
_DATA	ENDS
;	COMDAT ??_C@_0BE@JEIK@unusual?5item?5damage?$AA@
_DATA	SEGMENT DWORD USE32 PUBLIC 'DATA'
_DATA	ENDS
;	COMDAT ??_C@_0BD@GCGN@altered?5durability?$AA@
_DATA	SEGMENT DWORD USE32 PUBLIC 'DATA'
_DATA	ENDS
;	COMDAT ??_C@_0BI@JEHF@no?5strength?5requirement?$AA@
_DATA	SEGMENT DWORD USE32 PUBLIC 'DATA'
_DATA	ENDS
;	COMDAT ??_C@_0O@ILCA@?$CFi?5?$CFs?5charges?$AA@
_DATA	SEGMENT DWORD USE32 PUBLIC 'DATA'
_DATA	ENDS
;	COMDAT ??_C@_0BE@CKKG@Faster?5attack?5swing?$AA@
_DATA	SEGMENT DWORD USE32 PUBLIC 'DATA'
_DATA	ENDS
;	COMDAT ??_C@_0BB@MOMA@one?5handed?5sword?$AA@
_DATA	SEGMENT DWORD USE32 PUBLIC 'DATA'
_DATA	ENDS
;	COMDAT ??_C@_0BI@GCPK@?$CL200?$CF?5damage?5vs?4?5demons?$AA@
_DATA	SEGMENT DWORD USE32 PUBLIC 'DATA'
_DATA	ENDS
;	COMDAT ??_C@_0BI@MAJM@All?5Resistance?5equals?50?$AA@
_DATA	SEGMENT DWORD USE32 PUBLIC 'DATA'
_DATA	ENDS
;	COMDAT ??_C@_0BL@MJCM@constantly?5lose?5hit?5points?$AA@
_DATA	SEGMENT DWORD USE32 PUBLIC 'DATA'
_DATA	ENDS
;	COMDAT ??_C@_0O@JIPP@life?5stealing?$AA@
_DATA	SEGMENT DWORD USE32 PUBLIC 'DATA'
_DATA	ENDS
;	COMDAT ??_C@_0BF@BHCJ@see?5with?5infravision?$AA@
_DATA	SEGMENT DWORD USE32 PUBLIC 'DATA'
_DATA	ENDS
;	COMDAT ??_C@_0BA@GDEN@armor?5class?3?5?$CFi?$AA@
_DATA	SEGMENT DWORD USE32 PUBLIC 'DATA'
_DATA	ENDS
;	COMDAT ??_C@_0BK@EHGP@Armor?5class?5added?5to?5life?$AA@
_DATA	SEGMENT DWORD USE32 PUBLIC 'DATA'
_DATA	ENDS
;	COMDAT ??_C@_0BL@CKFN@10?$CF?5of?5mana?5added?5to?5armor?$AA@
_DATA	SEGMENT DWORD USE32 PUBLIC 'DATA'
_DATA	ENDS
;	COMDAT ??_C@_0BF@EJEO@Another?5ability?5?$CINW?$CJ?$AA@
_DATA	SEGMENT DWORD USE32 PUBLIC 'DATA'
_DATA	ENDS
;	COMDAT ??_C@_0BE@GHKG@Right?9click?5to?5read?$AA@
_DATA	SEGMENT DWORD USE32 PUBLIC 'DATA'
_DATA	ENDS
;	COMDAT ??_C@_0BK@KNNO@Right?9click?5to?5read?0?5then?$AA@
_DATA	SEGMENT DWORD USE32 PUBLIC 'DATA'
_DATA	ENDS
;	COMDAT ??_C@_0BF@MLOA@left?9click?5to?5target?$AA@
_DATA	SEGMENT DWORD USE32 PUBLIC 'DATA'
_DATA	ENDS
;	COMDAT ??_C@_0BD@EMJN@Right?5click?5to?5use?$AA@
_DATA	SEGMENT DWORD USE32 PUBLIC 'DATA'
_DATA	ENDS
;	COMDAT ??_C@_0BE@EEDJ@Right?5click?5to?5read?$AA@
_DATA	SEGMENT DWORD USE32 PUBLIC 'DATA'
_DATA	ENDS
;	COMDAT ??_C@_0BE@FPN@Right?5click?5to?5view?$AA@
_DATA	SEGMENT DWORD USE32 PUBLIC 'DATA'
_DATA	ENDS
;	COMDAT ??_C@_0L@BAHA@Level?5?3?5?$CFi?$AA@
_DATA	SEGMENT DWORD USE32 PUBLIC 'DATA'
_DATA	ENDS
;	COMDAT ??_C@_0BO@JJFH@damage?3?5?$CFi?9?$CFi?5?5Indestructible?$AA@
_DATA	SEGMENT DWORD USE32 PUBLIC 'DATA'
_DATA	ENDS
;	COMDAT ??_C@_0BK@FAGK@damage?3?5?$CFi?9?$CFi?5?5Dur?3?5?$CFi?1?$CFi?$AA@
_DATA	SEGMENT DWORD USE32 PUBLIC 'DATA'
_DATA	ENDS
;	COMDAT ??_C@_0BK@ICJI@armor?3?5?$CFi?5?5Indestructible?$AA@
_DATA	SEGMENT DWORD USE32 PUBLIC 'DATA'
_DATA	ENDS
;	COMDAT ??_C@_0BG@BMGD@armor?3?5?$CFi?5?5Dur?3?5?$CFi?1?$CFi?$AA@
_DATA	SEGMENT DWORD USE32 PUBLIC 'DATA'
_DATA	ENDS
;	COMDAT ??_C@_0BH@BLJA@dam?3?5?$CFi?9?$CFi?5?5Dur?3?5?$CFi?1?$CFi?$AA@
_DATA	SEGMENT DWORD USE32 PUBLIC 'DATA'
_DATA	ENDS
;	COMDAT ??_C@_0P@EAMD@Charges?3?5?$CFi?1?$CFi?$AA@
_DATA	SEGMENT DWORD USE32 PUBLIC 'DATA'
_DATA	ENDS
;	COMDAT ??_C@_0M@FNJL@unique?5item?$AA@
_DATA	SEGMENT DWORD USE32 PUBLIC 'DATA'
_DATA	ENDS
;	COMDAT ??_C@_09OOBN@Required?3?$AA@
_DATA	SEGMENT DWORD USE32 PUBLIC 'DATA'
_DATA	ENDS
;	COMDAT ??_C@_09GDNC@?$CFs?5?$CFi?5Str?$AA@
_DATA	SEGMENT DWORD USE32 PUBLIC 'DATA'
_DATA	ENDS
;	COMDAT ??_C@_09LBGI@?$CFs?5?$CFi?5Mag?$AA@
_DATA	SEGMENT DWORD USE32 PUBLIC 'DATA'
_DATA	ENDS
;	COMDAT ??_C@_09IBEM@?$CFs?5?$CFi?5Dex?$AA@
_DATA	SEGMENT DWORD USE32 PUBLIC 'DATA'
_DATA	ENDS
;	COMDAT ??_C@_0P@EBH@Not?5Identified?$AA@
_DATA	SEGMENT DWORD USE32 PUBLIC 'DATA'
_DATA	ENDS
CRT$XCU	SEGMENT DWORD USE32 PUBLIC ''
CRT$XCU	ENDS
;	COMDAT _qmemcpy
_TEXT	SEGMENT PARA USE32 PUBLIC 'CODE'
_TEXT	ENDS
;	COMDAT _InitItemGFX
_TEXT	SEGMENT PARA USE32 PUBLIC 'CODE'
_TEXT	ENDS
;	COMDAT @ItemPlace@8
_TEXT	SEGMENT PARA USE32 PUBLIC 'CODE'
_TEXT	ENDS
;	COMDAT _AddInitItems
_TEXT	SEGMENT PARA USE32 PUBLIC 'CODE'
_TEXT	ENDS
;	COMDAT _InitItems
_TEXT	SEGMENT PARA USE32 PUBLIC 'CODE'
_TEXT	ENDS
;	COMDAT @CalcPlrItemVals@8
_TEXT	SEGMENT PARA USE32 PUBLIC 'CODE'
_TEXT	ENDS
;	COMDAT @CalcPlrScrolls@4
_TEXT	SEGMENT PARA USE32 PUBLIC 'CODE'
_TEXT	ENDS
;	COMDAT @CalcPlrStaff@4
_TEXT	SEGMENT PARA USE32 PUBLIC 'CODE'
_TEXT	ENDS
;	COMDAT @CalcSelfItems@4
_TEXT	SEGMENT PARA USE32 PUBLIC 'CODE'
_TEXT	ENDS
;	COMDAT @CalcPlrItemMin@4
_TEXT	SEGMENT PARA USE32 PUBLIC 'CODE'
_TEXT	ENDS
;	COMDAT @ItemMinStats@8
_TEXT	SEGMENT PARA USE32 PUBLIC 'CODE'
_TEXT	ENDS
;	COMDAT @CalcPlrBookVals@4
_TEXT	SEGMENT PARA USE32 PUBLIC 'CODE'
_TEXT	ENDS
;	COMDAT @CalcPlrInv@8
_TEXT	SEGMENT PARA USE32 PUBLIC 'CODE'
_TEXT	ENDS
;	COMDAT @SetPlrHandItem@8
_TEXT	SEGMENT PARA USE32 PUBLIC 'CODE'
_TEXT	ENDS
;	COMDAT @GetPlrHandSeed@4
_TEXT	SEGMENT PARA USE32 PUBLIC 'CODE'
_TEXT	ENDS
;	COMDAT @GetGoldSeed@8
_TEXT	SEGMENT PARA USE32 PUBLIC 'CODE'
_TEXT	ENDS
;	COMDAT @SetPlrHandSeed@8
_TEXT	SEGMENT PARA USE32 PUBLIC 'CODE'
_TEXT	ENDS
;	COMDAT @SetPlrHandGoldCurs@4
_TEXT	SEGMENT PARA USE32 PUBLIC 'CODE'
_TEXT	ENDS
;	COMDAT @CreatePlrItems@4
_TEXT	SEGMENT PARA USE32 PUBLIC 'CODE'
_TEXT	ENDS
;	COMDAT @ItemSpaceOk@8
_TEXT	SEGMENT PARA USE32 PUBLIC 'CODE'
_TEXT	ENDS
;	COMDAT @GetItemSpace@12
_TEXT	SEGMENT PARA USE32 PUBLIC 'CODE'
_TEXT	ENDS
;	COMDAT @GetSuperItemSpace@12
_TEXT	SEGMENT PARA USE32 PUBLIC 'CODE'
_TEXT	ENDS
;	COMDAT @GetSuperItemLoc@16
_TEXT	SEGMENT PARA USE32 PUBLIC 'CODE'
_TEXT	ENDS
;	COMDAT @CalcItemValue@4
_TEXT	SEGMENT PARA USE32 PUBLIC 'CODE'
_TEXT	ENDS
;	COMDAT @GetBookSpell@8
_TEXT	SEGMENT PARA USE32 PUBLIC 'CODE'
_TEXT	ENDS
;	COMDAT @GetStaffPower@16
_TEXT	SEGMENT PARA USE32 PUBLIC 'CODE'
_TEXT	ENDS
;	COMDAT @GetStaffSpell@12
_TEXT	SEGMENT PARA USE32 PUBLIC 'CODE'
_TEXT	ENDS
;	COMDAT @GetItemAttrs@12
_TEXT	SEGMENT PARA USE32 PUBLIC 'CODE'
_TEXT	ENDS
;	COMDAT @RndPL@8
_TEXT	SEGMENT PARA USE32 PUBLIC 'CODE'
_TEXT	ENDS
;	COMDAT @PLVal@20
_TEXT	SEGMENT PARA USE32 PUBLIC 'CODE'
_TEXT	ENDS
;	COMDAT @SaveItemPower@28
_TEXT	SEGMENT PARA USE32 PUBLIC 'CODE'
_TEXT	ENDS
;	COMDAT @GetItemPower@20
_TEXT	SEGMENT PARA USE32 PUBLIC 'CODE'
_TEXT	ENDS
;	COMDAT @GetItemBonus@20
_TEXT	SEGMENT PARA USE32 PUBLIC 'CODE'
_TEXT	ENDS
;	COMDAT @SetupItem@4
_TEXT	SEGMENT PARA USE32 PUBLIC 'CODE'
_TEXT	ENDS
;	COMDAT @RndItem@4
_TEXT	SEGMENT PARA USE32 PUBLIC 'CODE'
_TEXT	ENDS
;	COMDAT @RndUItem@4
_TEXT	SEGMENT PARA USE32 PUBLIC 'CODE'
_TEXT	ENDS
;	COMDAT _RndAllItems
_TEXT	SEGMENT PARA USE32 PUBLIC 'CODE'
_TEXT	ENDS
;	COMDAT @RndTypeItems@8
_TEXT	SEGMENT PARA USE32 PUBLIC 'CODE'
_TEXT	ENDS
;	COMDAT @CheckUnique@16
_TEXT	SEGMENT PARA USE32 PUBLIC 'CODE'
_TEXT	ENDS
;	COMDAT @GetUniqueItem@8
_TEXT	SEGMENT PARA USE32 PUBLIC 'CODE'
_TEXT	ENDS
;	COMDAT @SpawnUnique@12
_TEXT	SEGMENT PARA USE32 PUBLIC 'CODE'
_TEXT	ENDS
;	COMDAT @ItemRndDur@4
_TEXT	SEGMENT PARA USE32 PUBLIC 'CODE'
_TEXT	ENDS
;	COMDAT @SetupAllItems@32
_TEXT	SEGMENT PARA USE32 PUBLIC 'CODE'
_TEXT	ENDS
;	COMDAT @SpawnItem@16
_TEXT	SEGMENT PARA USE32 PUBLIC 'CODE'
_TEXT	ENDS
;	COMDAT @CreateItem@12
_TEXT	SEGMENT PARA USE32 PUBLIC 'CODE'
_TEXT	ENDS
;	COMDAT @CreateRndItem@20
_TEXT	SEGMENT PARA USE32 PUBLIC 'CODE'
_TEXT	ENDS
;	COMDAT @SetupAllUseful@12
_TEXT	SEGMENT PARA USE32 PUBLIC 'CODE'
_TEXT	ENDS
;	COMDAT @CreateRndUseful@16
_TEXT	SEGMENT PARA USE32 PUBLIC 'CODE'
_TEXT	ENDS
;	COMDAT @CreateTypeItem@28
_TEXT	SEGMENT PARA USE32 PUBLIC 'CODE'
_TEXT	ENDS
;	COMDAT @RecreateItem@20
_TEXT	SEGMENT PARA USE32 PUBLIC 'CODE'
_TEXT	ENDS
;	COMDAT @RecreateEar@40
_TEXT	SEGMENT PARA USE32 PUBLIC 'CODE'
_TEXT	ENDS
;	COMDAT @SpawnQuestItem@20
_TEXT	SEGMENT PARA USE32 PUBLIC 'CODE'
_TEXT	ENDS
;	COMDAT _SpawnRock
_TEXT	SEGMENT PARA USE32 PUBLIC 'CODE'
_TEXT	ENDS
;	COMDAT @RespawnItem@8
_TEXT	SEGMENT PARA USE32 PUBLIC 'CODE'
_TEXT	ENDS
;	COMDAT @DeleteItem@8
_TEXT	SEGMENT PARA USE32 PUBLIC 'CODE'
_TEXT	ENDS
;	COMDAT _ItemDoppel
_TEXT	SEGMENT PARA USE32 PUBLIC 'CODE'
_TEXT	ENDS
;	COMDAT _ProcessItems
_TEXT	SEGMENT PARA USE32 PUBLIC 'CODE'
_TEXT	ENDS
;	COMDAT _FreeItemGFX
_TEXT	SEGMENT PARA USE32 PUBLIC 'CODE'
_TEXT	ENDS
;	COMDAT @GetItemFrm@4
_TEXT	SEGMENT PARA USE32 PUBLIC 'CODE'
_TEXT	ENDS
;	COMDAT @GetItemStr@4
_TEXT	SEGMENT PARA USE32 PUBLIC 'CODE'
_TEXT	ENDS
;	COMDAT @CheckIdentify@8
_TEXT	SEGMENT PARA USE32 PUBLIC 'CODE'
_TEXT	ENDS
;	COMDAT @DoRepair@8
_TEXT	SEGMENT PARA USE32 PUBLIC 'CODE'
_TEXT	ENDS
;	COMDAT @RepairItem@8
_TEXT	SEGMENT PARA USE32 PUBLIC 'CODE'
_TEXT	ENDS
;	COMDAT @DoRecharge@8
_TEXT	SEGMENT PARA USE32 PUBLIC 'CODE'
_TEXT	ENDS
;	COMDAT @RechargeItem@8
_TEXT	SEGMENT PARA USE32 PUBLIC 'CODE'
_TEXT	ENDS
;	COMDAT @PrintItemOil@4
_TEXT	SEGMENT PARA USE32 PUBLIC 'CODE'
_TEXT	ENDS
;	COMDAT @PrintItemPower@8
_TEXT	SEGMENT PARA USE32 PUBLIC 'CODE'
_TEXT	ENDS
;	COMDAT _DrawUBack
_TEXT	SEGMENT PARA USE32 PUBLIC 'CODE'
_TEXT	ENDS
;	COMDAT @PrintUString@20
_TEXT	SEGMENT PARA USE32 PUBLIC 'CODE'
_TEXT	ENDS
;	COMDAT @DrawULine@4
_TEXT	SEGMENT PARA USE32 PUBLIC 'CODE'
_TEXT	ENDS
;	COMDAT _DrawUniqueInfo
_TEXT	SEGMENT PARA USE32 PUBLIC 'CODE'
_TEXT	ENDS
;	COMDAT @PrintItemMisc@4
_TEXT	SEGMENT PARA USE32 PUBLIC 'CODE'
_TEXT	ENDS
;	COMDAT @PrintItemDetails@4
_TEXT	SEGMENT PARA USE32 PUBLIC 'CODE'
_TEXT	ENDS
;	COMDAT @PrintItemDur@4
_TEXT	SEGMENT PARA USE32 PUBLIC 'CODE'
_TEXT	ENDS
;	COMDAT @UseItem@12
_TEXT	SEGMENT PARA USE32 PUBLIC 'CODE'
_TEXT	ENDS
;	COMDAT @StoreStatOk@4
_TEXT	SEGMENT PARA USE32 PUBLIC 'CODE'
_TEXT	ENDS
;	COMDAT @SmithItemOk@4
_TEXT	SEGMENT PARA USE32 PUBLIC 'CODE'
_TEXT	ENDS
;	COMDAT @RndSmithItem@4
_TEXT	SEGMENT PARA USE32 PUBLIC 'CODE'
_TEXT	ENDS
;	COMDAT @BubbleSwapItem@8
_TEXT	SEGMENT PARA USE32 PUBLIC 'CODE'
_TEXT	ENDS
;	COMDAT _SortSmith
_TEXT	SEGMENT PARA USE32 PUBLIC 'CODE'
_TEXT	ENDS
;	COMDAT @SpawnSmith@4
_TEXT	SEGMENT PARA USE32 PUBLIC 'CODE'
_TEXT	ENDS
;	COMDAT @PremiumItemOk@4
_TEXT	SEGMENT PARA USE32 PUBLIC 'CODE'
_TEXT	ENDS
;	COMDAT @RndPremiumItem@8
_TEXT	SEGMENT PARA USE32 PUBLIC 'CODE'
_TEXT	ENDS
;	COMDAT @SpawnOnePremium@8
_TEXT	SEGMENT PARA USE32 PUBLIC 'CODE'
_TEXT	ENDS
;	COMDAT @SpawnPremium@4
_TEXT	SEGMENT PARA USE32 PUBLIC 'CODE'
_TEXT	ENDS
;	COMDAT @WitchItemOk@4
_TEXT	SEGMENT PARA USE32 PUBLIC 'CODE'
_TEXT	ENDS
;	COMDAT @RndWitchItem@4
_TEXT	SEGMENT PARA USE32 PUBLIC 'CODE'
_TEXT	ENDS
;	COMDAT _SortWitch
_TEXT	SEGMENT PARA USE32 PUBLIC 'CODE'
_TEXT	ENDS
;	COMDAT @WitchBookLevel@4
_TEXT	SEGMENT PARA USE32 PUBLIC 'CODE'
_TEXT	ENDS
;	COMDAT @SpawnWitch@4
_TEXT	SEGMENT PARA USE32 PUBLIC 'CODE'
_TEXT	ENDS
;	COMDAT @RndBoyItem@4
_TEXT	SEGMENT PARA USE32 PUBLIC 'CODE'
_TEXT	ENDS
;	COMDAT @SpawnBoy@4
_TEXT	SEGMENT PARA USE32 PUBLIC 'CODE'
_TEXT	ENDS
;	COMDAT @HealerItemOk@4
_TEXT	SEGMENT PARA USE32 PUBLIC 'CODE'
_TEXT	ENDS
;	COMDAT @RndHealerItem@4
_TEXT	SEGMENT PARA USE32 PUBLIC 'CODE'
_TEXT	ENDS
;	COMDAT _SortHealer
_TEXT	SEGMENT PARA USE32 PUBLIC 'CODE'
_TEXT	ENDS
;	COMDAT @SpawnHealer@4
_TEXT	SEGMENT PARA USE32 PUBLIC 'CODE'
_TEXT	ENDS
;	COMDAT _SpawnStoreGold
_TEXT	SEGMENT PARA USE32 PUBLIC 'CODE'
_TEXT	ENDS
;	COMDAT @RecreateSmithItem@16
_TEXT	SEGMENT PARA USE32 PUBLIC 'CODE'
_TEXT	ENDS
;	COMDAT @RecreatePremiumItem@16
_TEXT	SEGMENT PARA USE32 PUBLIC 'CODE'
_TEXT	ENDS
;	COMDAT @RecreateBoyItem@16
_TEXT	SEGMENT PARA USE32 PUBLIC 'CODE'
_TEXT	ENDS
;	COMDAT @RecreateWitchItem@16
_TEXT	SEGMENT PARA USE32 PUBLIC 'CODE'
_TEXT	ENDS
;	COMDAT @RecreateHealerItem@16
_TEXT	SEGMENT PARA USE32 PUBLIC 'CODE'
_TEXT	ENDS
;	COMDAT @RecreateTownItem@20
_TEXT	SEGMENT PARA USE32 PUBLIC 'CODE'
_TEXT	ENDS
;	COMDAT _RecalcStoreStats
_TEXT	SEGMENT PARA USE32 PUBLIC 'CODE'
_TEXT	ENDS
;	COMDAT _ItemNoFlippy
_TEXT	SEGMENT PARA USE32 PUBLIC 'CODE'
_TEXT	ENDS
;	COMDAT @CreateSpellBook@20
_TEXT	SEGMENT PARA USE32 PUBLIC 'CODE'
_TEXT	ENDS
;	COMDAT @CreateMagicArmor@24
_TEXT	SEGMENT PARA USE32 PUBLIC 'CODE'
_TEXT	ENDS
;	COMDAT @CreateMagicWeapon@24
_TEXT	SEGMENT PARA USE32 PUBLIC 'CODE'
_TEXT	ENDS
;	COMDAT @GetItemRecord@12
_TEXT	SEGMENT PARA USE32 PUBLIC 'CODE'
_TEXT	ENDS
;	COMDAT @NextItemRecord@4
_TEXT	SEGMENT PARA USE32 PUBLIC 'CODE'
_TEXT	ENDS
;	COMDAT @SetItemRecord@12
_TEXT	SEGMENT PARA USE32 PUBLIC 'CODE'
_TEXT	ENDS
;	COMDAT @PutItemRecord@12
_TEXT	SEGMENT PARA USE32 PUBLIC 'CODE'
_TEXT	ENDS
FLAT	GROUP _DATA, CONST, _BSS, CRT$XCU
	ASSUME	CS: FLAT, DS: FLAT, SS: FLAT
endif

INCLUDELIB LIBCMT
INCLUDELIB OLDNAMES

PUBLIC	??_C@_0O@JGBG@Quilted?5Armor?$AA@		; `string'
PUBLIC	??_C@_05KFDN@Armor?$AA@				; `string'
PUBLIC	??_C@_0O@CGFJ@Leather?5Armor?$AA@		; `string'
PUBLIC	??_C@_0BD@GHHI@Hard?5Leather?5Armor?$AA@	; `string'
PUBLIC	??_C@_0BG@EIMI@Studded?5Leather?5Armor?$AA@	; `string'
PUBLIC	??_C@_09GPFE@Ring?5Mail?$AA@			; `string'
PUBLIC	??_C@_04IOKL@Mail?$AA@				; `string'
PUBLIC	??_C@_0L@EEOL@Chain?5Mail?$AA@			; `string'
PUBLIC	??_C@_0L@GLHE@Scale?5Mail?$AA@			; `string'
PUBLIC	??_C@_0N@CMJK@Breast?5Plate?$AA@		; `string'
PUBLIC	??_C@_05GHGI@Plate?$AA@				; `string'
PUBLIC	??_C@_0M@LJKD@Splint?5Mail?$AA@			; `string'
PUBLIC	??_C@_0L@DLHM@Plate?5Mail?$AA@			; `string'
PUBLIC	??_C@_0M@EEOC@Field?5Plate?$AA@			; `string'
PUBLIC	??_C@_0N@JKHF@Gothic?5Plate?$AA@		; `string'
PUBLIC	??_C@_0BA@NADG@Full?5Plate?5Mail?$AA@		; `string'
PUBLIC	??_C@_06GBHM@Shield?$AA@			; `string'
PUBLIC	??_C@_0N@GPPF@Small?5Shield?$AA@		; `string'
PUBLIC	??_C@_0N@BAHM@Large?5Shield?$AA@		; `string'
PUBLIC	??_C@_0M@BCJC@Kite?5Shield?$AA@			; `string'
PUBLIC	??_C@_0N@MEKF@Tower?5Shield?$AA@		; `string'
PUBLIC	??_C@_0O@KMIB@Gothic?5Shield?$AA@		; `string'
PUBLIC	??_C@_0BH@MDNB@Potion?5of?5Rejuvenation?$AA@	; `string'
PUBLIC	??_C@_0BM@HDFP@Potion?5of?5Full?5Rejuvenation?$AA@ ; `string'
PUBLIC	??_C@_0BD@JMEN@Elixir?5of?5Strength?$AA@	; `string'
PUBLIC	??_C@_0BA@EHL@Elixir?5of?5Magic?$AA@		; `string'
PUBLIC	??_C@_0BE@FLMA@Elixir?5of?5Dexterity?$AA@	; `string'
PUBLIC	??_C@_0BD@DFDJ@Elixir?5of?5Vitality?$AA@	; `string'
PUBLIC	??_C@_0BC@BGMN@Scroll?5of?5Healing?$AA@		; `string'
PUBLIC	??_C@_0BE@EOEK@Scroll?5of?5Lightning?$AA@	; `string'
PUBLIC	??_C@_0BE@KGPH@Scroll?5of?5Fire?5Wall?$AA@	; `string'
PUBLIC	??_C@_0BC@FHNN@Scroll?5of?5Inferno?$AA@		; `string'
PUBLIC	??_C@_0BA@FPKC@Scroll?5of?5Flash?$AA@		; `string'
PUBLIC	??_C@_0BG@LPBB@Scroll?5of?5Infravision?$AA@	; `string'
PUBLIC	??_C@_0BC@GABE@Scroll?5of?5Phasing?$AA@		; `string'
PUBLIC	??_C@_0BG@HMH@Scroll?5of?5Mana?5Shield?$AA@	; `string'
PUBLIC	??_C@_0BF@KPLE@Scroll?5of?5Flame?5Wave?$AA@	; `string'
PUBLIC	??_C@_0BD@FLEO@Scroll?5of?5Fireball?$AA@	; `string'
PUBLIC	??_C@_0BG@DOBJ@Scroll?5of?5Stone?5Curse?$AA@	; `string'
PUBLIC	??_C@_0BK@ECBO@Scroll?5of?5Chain?5Lightning?$AA@ ; `string'
PUBLIC	??_C@_0BD@FBKP@Scroll?5of?5Guardian?$AA@	; `string'
PUBLIC	??_C@_08FNGF@Non?5Item?$AA@			; `string'
PUBLIC	??_C@_0P@BBFO@Scroll?5of?5Nova?$AA@		; `string'
PUBLIC	??_C@_0BA@HBF@Scroll?5of?5Golem?$AA@		; `string'
PUBLIC	??_C@_0P@GEPP@Scroll?5of?5None?$AA@		; `string'
PUBLIC	??_C@_0BD@DLEP@Scroll?5of?5Teleport?$AA@	; `string'
PUBLIC	??_C@_0BF@ODHC@Scroll?5of?5Apocalypse?$AA@	; `string'
PUBLIC	??_C@_08DNLH@Book?5of?5?$AA@			; `string'
PUBLIC	??_C@_06NGLM@Dagger?$AA@			; `string'
PUBLIC	??_C@_05DGOK@Sword?$AA@				; `string'
PUBLIC	??_C@_08OIB@Falchion?$AA@			; `string'
PUBLIC	??_C@_08KAPM@Scimitar?$AA@			; `string'
PUBLIC	??_C@_08MPPO@Claymore?$AA@			; `string'
PUBLIC	??_C@_05EPNO@Blade?$AA@				; `string'
PUBLIC	??_C@_05JMEJ@Sabre?$AA@				; `string'
PUBLIC	??_C@_0L@PEAA@Long?5Sword?$AA@			; `string'
PUBLIC	??_C@_0M@BCBO@Broad?5Sword?$AA@			; `string'
PUBLIC	??_C@_0O@LHMK@Bastard?5Sword?$AA@		; `string'
PUBLIC	??_C@_0BB@BPCM@Two?9Handed?5Sword?$AA@		; `string'
PUBLIC	??_C@_0M@CNCF@Great?5Sword?$AA@			; `string'
PUBLIC	??_C@_09PFN@Small?5Axe?$AA@			; `string'
PUBLIC	??_C@_03IAFN@Axe?$AA@				; `string'
PUBLIC	??_C@_09DPKC@Large?5Axe?$AA@			; `string'
PUBLIC	??_C@_09COBI@Broad?5Axe?$AA@			; `string'
PUBLIC	??_C@_0L@FOHJ@Battle?5Axe?$AA@			; `string'
PUBLIC	??_C@_09MOKD@Great?5Axe?$AA@			; `string'
PUBLIC	??_C@_04OIIF@Mace?$AA@				; `string'
PUBLIC	??_C@_0N@CCDC@Morning?5Star?$AA@		; `string'
PUBLIC	??_C@_0L@NFJ@War?5Hammer?$AA@			; `string'
PUBLIC	??_C@_06HJJB@Hammer?$AA@			; `string'
PUBLIC	??_C@_0M@OOJP@Spiked?5Club?$AA@			; `string'
PUBLIC	??_C@_05MIDA@Flail?$AA@				; `string'
PUBLIC	??_C@_04LPM@Maul?$AA@				; `string'
PUBLIC	??_C@_03IBME@Bow?$AA@				; `string'
PUBLIC	??_C@_0N@JCDD@Hunter?8s?5Bow?$AA@		; `string'
PUBLIC	??_C@_08OKLM@Long?5Bow?$AA@			; `string'
PUBLIC	??_C@_0O@DKDP@Composite?5Bow?$AA@		; `string'
PUBLIC	??_C@_0BB@PILI@Short?5Battle?5Bow?$AA@		; `string'
PUBLIC	??_C@_0BA@BIGH@Long?5Battle?5Bow?$AA@		; `string'
PUBLIC	??_C@_0O@JFHI@Short?5War?5Bow?$AA@		; `string'
PUBLIC	??_C@_0N@POPE@Long?5War?5Bow?$AA@		; `string'
PUBLIC	??_C@_0M@IAG@Short?5Staff?$AA@			; `string'
PUBLIC	??_C@_05EAPD@Staff?$AA@				; `string'
PUBLIC	??_C@_0L@ICBJ@Long?5Staff?$AA@			; `string'
PUBLIC	??_C@_0BA@IFDM@Composite?5Staff?$AA@		; `string'
PUBLIC	??_C@_0O@ILDK@Quarter?5Staff?$AA@		; `string'
PUBLIC	??_C@_09IIHC@War?5Staff?$AA@			; `string'
PUBLIC	??_C@_04FBEF@Ring?$AA@				; `string'
PUBLIC	??_C@_06BCFK@Amulet?$AA@			; `string'
PUBLIC	??_C@_06KJBL@Armor2?$AA@			; `string'
PUBLIC	??_C@_06KLNE@FBttle?$AA@			; `string'
PUBLIC	??_C@_08IFLC@GoldFlip?$AA@			; `string'
PUBLIC	??_C@_06EJIN@Helmut?$AA@			; `string'
PUBLIC	??_C@_08DANF@SwrdFlip?$AA@			; `string'
PUBLIC	??_C@_04LKIC@Rock?$AA@				; `string'
PUBLIC	_PL_Prefix
PUBLIC	??_C@_06IHL@CrownF?$AA@				; `string'
PUBLIC	_PL_Suffix
PUBLIC	??_C@_06DGLF@LArmor?$AA@			; `string'
PUBLIC	_UniqueItemList
PUBLIC	??_C@_07OEKG@WShield?$AA@			; `string'
PUBLIC	_AllItemsList
PUBLIC	??_C@_06PAFO@Scroll?$AA@			; `string'
PUBLIC	_ItemCAnimTbl
PUBLIC	??_C@_08CJML@FPlateAr?$AA@			; `string'
PUBLIC	_ItemDropStrs
PUBLIC	??_C@_05MJNG@FBook?$AA@				; `string'
PUBLIC	_ItemAnimLs
PUBLIC	??_C@_04JEEI@Food?$AA@				; `string'
PUBLIC	_ItemDropSnds
PUBLIC	??_C@_08PHIC@FBttleBB?$AA@			; `string'
PUBLIC	_ItemInvSnds
PUBLIC	??_C@_08ICAM@FBttleDY?$AA@			; `string'
PUBLIC	_idoppely
PUBLIC	??_C@_08KHKG@FBttleOR?$AA@			; `string'
PUBLIC	_premiumlvladd
PUBLIC	??_C@_08FOPC@FBttleBR?$AA@			; `string'
PUBLIC	??_C@_08FMEI@FBttleBL?$AA@			; `string'
PUBLIC	??_C@_08PFPD@FBttleBY?$AA@			; `string'
PUBLIC	??_C@_08NALN@FBttleWH?$AA@			; `string'
PUBLIC	??_C@_08IAHN@FBttleDB?$AA@			; `string'
PUBLIC	??_C@_04HGKM@FEar?$AA@				; `string'
PUBLIC	??_C@_06KIBP@FBrain?$AA@			; `string'
PUBLIC	??_C@_05HGOE@FMush?$AA@				; `string'
PUBLIC	??_C@_07LMBD@Innsign?$AA@			; `string'
PUBLIC	??_C@_06KHLH@Bldstn?$AA@			; `string'
PUBLIC	??_C@_06GMAG@Fanvil?$AA@			; `string'
PUBLIC	??_C@_08HGKF@FLazStaf?$AA@			; `string'
PUBLIC	??_C@_03GMHJ@Tin?$AA@				; `string'
PUBLIC	??_C@_05LCHN@Brass?$AA@				; `string'
PUBLIC	??_C@_06ODEI@Bronze?$AA@			; `string'
PUBLIC	??_C@_04OOGD@Iron?$AA@				; `string'
PUBLIC	??_C@_05DCMA@Steel?$AA@				; `string'
PUBLIC	??_C@_06FDOO@Silver?$AA@			; `string'
PUBLIC	??_C@_04IKOF@Gold?$AA@				; `string'
PUBLIC	??_C@_08EGEN@Platinum?$AA@			; `string'
PUBLIC	??_C@_07GNDG@Mithril?$AA@			; `string'
PUBLIC	??_C@_08IENK@Meteoric?$AA@			; `string'
PUBLIC	??_C@_05EFIN@Weird?$AA@				; `string'
PUBLIC	??_C@_07CJID@Strange?$AA@			; `string'
PUBLIC	??_C@_07NODE@Useless?$AA@			; `string'
PUBLIC	??_C@_04IKEC@Bent?$AA@				; `string'
PUBLIC	??_C@_04BDFF@Weak?$AA@				; `string'
PUBLIC	??_C@_06FAHP@Jagged?$AA@			; `string'
PUBLIC	??_C@_06HHAB@Deadly?$AA@			; `string'
PUBLIC	??_C@_05BBBE@Heavy?$AA@				; `string'
PUBLIC	??_C@_07ECGL@Vicious?$AA@			; `string'
PUBLIC	??_C@_06NJIC@Brutal?$AA@			; `string'
PUBLIC	??_C@_07LHOJ@Massive?$AA@			; `string'
PUBLIC	??_C@_06CJBK@Savage?$AA@			; `string'
PUBLIC	??_C@_08NMGL@Ruthless?$AA@			; `string'
PUBLIC	??_C@_09DDBE@Merciless?$AA@			; `string'
PUBLIC	??_C@_06ICAM@Clumsy?$AA@			; `string'
PUBLIC	??_C@_04KEFJ@Dull?$AA@				; `string'
PUBLIC	??_C@_05MMAL@Sharp?$AA@				; `string'
PUBLIC	??_C@_04MEAC@Fine?$AA@				; `string'
PUBLIC	??_C@_09EAE@Warrior?8s?$AA@			; `string'
PUBLIC	??_C@_09MBML@Soldier?8s?$AA@			; `string'
PUBLIC	??_C@_06IECP@Lord?8s?$AA@			; `string'
PUBLIC	??_C@_08JAPA@Knight?8s?$AA@			; `string'
PUBLIC	??_C@_08NFNG@Master?8s?$AA@			; `string'
PUBLIC	??_C@_0L@NCDE@Champion?8s?$AA@			; `string'
PUBLIC	??_C@_06LAFC@King?8s?$AA@			; `string'
PUBLIC	??_C@_0L@BMID@Vulnerable?$AA@			; `string'
PUBLIC	??_C@_06DCIE@Rusted?$AA@			; `string'
PUBLIC	??_C@_06BEKF@Strong?$AA@			; `string'
PUBLIC	??_C@_05PNKF@Grand?$AA@				; `string'
PUBLIC	??_C@_07EDJP@Valiant?$AA@			; `string'
PUBLIC	??_C@_08HMNP@Glorious?$AA@			; `string'
PUBLIC	??_C@_07EIDE@Blessed?$AA@			; `string'
PUBLIC	??_C@_07EPFC@Saintly?$AA@			; `string'
PUBLIC	??_C@_07JECP@Awesome?$AA@			; `string'
PUBLIC	??_C@_04KHMI@Holy?$AA@				; `string'
PUBLIC	??_C@_05PIBE@Godly?$AA@				; `string'
PUBLIC	??_C@_03GOGG@Red?$AA@				; `string'
PUBLIC	??_C@_07FEBH@Crimson?$AA@			; `string'
PUBLIC	??_C@_06LALG@Garnet?$AA@			; `string'
PUBLIC	??_C@_04EFIE@Ruby?$AA@				; `string'
PUBLIC	??_C@_04KPAE@Blue?$AA@				; `string'
PUBLIC	??_C@_05FBBK@Azure?$AA@				; `string'
PUBLIC	??_C@_05MIIL@Lapis?$AA@				; `string'
PUBLIC	??_C@_06PPMI@Cobalt?$AA@			; `string'
PUBLIC	??_C@_08JPLJ@Sapphire?$AA@			; `string'
PUBLIC	??_C@_05CGP@White?$AA@				; `string'
PUBLIC	??_C@_05OBHK@Pearl?$AA@				; `string'
PUBLIC	??_C@_05KNIO@Ivory?$AA@				; `string'
PUBLIC	??_C@_07NPPL@Crystal?$AA@			; `string'
PUBLIC	??_C@_07DLIP@Diamond?$AA@			; `string'
PUBLIC	??_C@_05HFPD@Topaz?$AA@				; `string'
PUBLIC	??_C@_05JGOH@Amber?$AA@				; `string'
PUBLIC	??_C@_04HDGO@Jade?$AA@				; `string'
PUBLIC	??_C@_08FHBF@Obsidian?$AA@			; `string'
PUBLIC	??_C@_07BHJH@Emerald?$AA@			; `string'
PUBLIC	??_C@_07MJBJ@Hyena?8s?$AA@			; `string'
PUBLIC	??_C@_06BIDB@Frog?8s?$AA@			; `string'
PUBLIC	??_C@_08LPHF@Spider?8s?$AA@			; `string'
PUBLIC	??_C@_07HHEO@Raven?8s?$AA@			; `string'
PUBLIC	??_C@_07ONOH@Snake?8s?$AA@			; `string'
PUBLIC	??_C@_09EOEE@Serpent?8s?$AA@			; `string'
PUBLIC	??_C@_07GMNG@Drake?8s?$AA@			; `string'
PUBLIC	??_C@_08EMKB@Dragon?8s?$AA@			; `string'
PUBLIC	??_C@_06MNOF@Wyrm?8s?$AA@			; `string'
PUBLIC	??_C@_07IDMF@Hydra?8s?$AA@			; `string'
PUBLIC	??_C@_07KOJG@Angel?8s?$AA@			; `string'
PUBLIC	??_C@_0N@ELNE@Arch?9Angel?8s?$AA@		; `string'
PUBLIC	??_C@_09DDEK@Plentiful?$AA@			; `string'
PUBLIC	??_C@_09KCHB@Bountiful?$AA@			; `string'
PUBLIC	??_C@_07LGEK@Flaming?$AA@			; `string'
PUBLIC	??_C@_09NPLP@Lightning?$AA@			; `string'
PUBLIC	??_C@_00A@?$AA@					; `string'
PUBLIC	??_C@_07PDKP@quality?$AA@			; `string'
PUBLIC	??_C@_07MOG@maiming?$AA@			; `string'
PUBLIC	??_C@_07NJAO@slaying?$AA@			; `string'
PUBLIC	??_C@_04CCDC@gore?$AA@				; `string'
PUBLIC	??_C@_07HFLF@carnage?$AA@			; `string'
PUBLIC	??_C@_09OFBO@slaughter?$AA@			; `string'
PUBLIC	??_C@_04LOGM@pain?$AA@				; `string'
PUBLIC	??_C@_05MNGI@tears?$AA@				; `string'
PUBLIC	??_C@_06HECL@health?$AA@			; `string'
PUBLIC	??_C@_0L@CCCL@protection?$AA@			; `string'
PUBLIC	??_C@_0L@CIHJ@absorption?$AA@			; `string'
PUBLIC	??_C@_0L@BONB@deflection?$AA@			; `string'
PUBLIC	??_C@_07JNDF@osmosis?$AA@			; `string'
PUBLIC	??_C@_07JBCL@frailty?$AA@			; `string'
PUBLIC	??_C@_08GLJO@weakness?$AA@			; `string'
PUBLIC	??_C@_08GOPF@strength?$AA@			; `string'
PUBLIC	??_C@_05JKNA@might?$AA@				; `string'
PUBLIC	??_C@_05EBLP@power?$AA@				; `string'
PUBLIC	??_C@_06BGKJ@giants?$AA@			; `string'
PUBLIC	??_C@_06MLAM@titans?$AA@			; `string'
PUBLIC	??_C@_09HGHO@paralysis?$AA@			; `string'
PUBLIC	??_C@_07GEAH@atrophy?$AA@			; `string'
PUBLIC	??_C@_09KIDC@dexterity?$AA@			; `string'
PUBLIC	??_C@_05MIHE@skill?$AA@				; `string'
PUBLIC	??_C@_08JPJB@accuracy?$AA@			; `string'
PUBLIC	??_C@_09PIJM@precision?$AA@			; `string'
PUBLIC	??_C@_0L@FGCJ@perfection?$AA@			; `string'
PUBLIC	??_C@_08NOGA@the?5fool?$AA@			; `string'
PUBLIC	??_C@_08OHBO@dyslexia?$AA@			; `string'
PUBLIC	??_C@_05FKHP@magic?$AA@				; `string'
PUBLIC	??_C@_08DFGD@the?5mind?$AA@			; `string'
PUBLIC	??_C@_0L@IKPP@brilliance?$AA@			; `string'
PUBLIC	??_C@_07OPMD@sorcery?$AA@			; `string'
PUBLIC	??_C@_08CDF@wizardry?$AA@			; `string'
PUBLIC	??_C@_07NPOJ@illness?$AA@			; `string'
PUBLIC	??_C@_07MEBM@disease?$AA@			; `string'
PUBLIC	??_C@_08MHIB@vitality?$AA@			; `string'
PUBLIC	??_C@_04MMEM@zest?$AA@				; `string'
PUBLIC	??_C@_03HFDI@vim?$AA@				; `string'
PUBLIC	??_C@_05OHOH@vigor?$AA@				; `string'
PUBLIC	??_C@_04LLCA@life?$AA@				; `string'
PUBLIC	??_C@_07PKPN@trouble?$AA@			; `string'
PUBLIC	??_C@_07BMMA@the?5pit?$AA@			; `string'
PUBLIC	??_C@_07JDNN@the?5sky?$AA@			; `string'
PUBLIC	??_C@_08MOCI@the?5moon?$AA@			; `string'
PUBLIC	??_C@_09DDFF@the?5stars?$AA@			; `string'
PUBLIC	??_C@_0M@JHLN@the?5heavens?$AA@			; `string'
PUBLIC	??_C@_0L@NFBJ@the?5zodiac?$AA@			; `string'
PUBLIC	??_C@_0M@CODE@the?5vulture?$AA@			; `string'
PUBLIC	??_C@_0L@BBCA@the?5jackal?$AA@			; `string'
PUBLIC	??_C@_07FIMG@the?5fox?$AA@			; `string'
PUBLIC	??_C@_0L@NLHK@the?5jaguar?$AA@			; `string'
PUBLIC	??_C@_09GJD@the?5eagle?$AA@			; `string'
PUBLIC	??_C@_08JEHK@the?5wolf?$AA@			; `string'
PUBLIC	??_C@_09NBBI@the?5tiger?$AA@			; `string'
PUBLIC	??_C@_08HAN@the?5lion?$AA@			; `string'
PUBLIC	??_C@_0M@EH@the?5mammoth?$AA@			; `string'
PUBLIC	??_C@_09KHDJ@the?5whale?$AA@			; `string'
PUBLIC	??_C@_09CAOA@fragility?$AA@			; `string'
PUBLIC	??_C@_0M@BMJN@brittleness?$AA@			; `string'
PUBLIC	??_C@_0L@MKAO@sturdiness?$AA@			; `string'
PUBLIC	??_C@_0O@NGPJ@craftsmanship?$AA@		; `string'
PUBLIC	??_C@_09HDHE@structure?$AA@			; `string'
PUBLIC	??_C@_08IEEH@the?5ages?$AA@			; `string'
PUBLIC	??_C@_08COBO@the?5dark?$AA@			; `string'
PUBLIC	??_C@_09JEAL@the?5night?$AA@			; `string'
PUBLIC	??_C@_05DKPF@light?$AA@				; `string'
PUBLIC	??_C@_08LADN@radiance?$AA@			; `string'
PUBLIC	??_C@_05GIBP@flame?$AA@				; `string'
PUBLIC	??_C@_04OLBH@fire?$AA@				; `string'
PUBLIC	??_C@_07DBMH@burning?$AA@			; `string'
PUBLIC	??_C@_05MKBB@shock?$AA@				; `string'
PUBLIC	??_C@_09JGLK@lightning?$AA@			; `string'
PUBLIC	??_C@_07MGNA@thunder?$AA@			; `string'
PUBLIC	??_C@_04OMAH@many?$AA@				; `string'
PUBLIC	??_C@_06BAKF@plenty?$AA@			; `string'
PUBLIC	??_C@_06KMDP@thorns?$AA@			; `string'
PUBLIC	??_C@_0L@EHKO@corruption?$AA@			; `string'
PUBLIC	??_C@_07CPIM@thieves?$AA@			; `string'
PUBLIC	??_C@_08LPKB@the?5bear?$AA@			; `string'
PUBLIC	??_C@_07CMND@the?5bat?$AA@			; `string'
PUBLIC	??_C@_08PJJE@vampires?$AA@			; `string'
PUBLIC	??_C@_09BGIL@the?5leech?$AA@			; `string'
PUBLIC	??_C@_05BDIK@blood?$AA@				; `string'
PUBLIC	??_C@_08HKMC@piercing?$AA@			; `string'
PUBLIC	??_C@_0L@DPAO@puncturing?$AA@			; `string'
PUBLIC	??_C@_07ECIM@bashing?$AA@			; `string'
PUBLIC	??_C@_09DLAK@readiness?$AA@			; `string'
PUBLIC	??_C@_09JHNE@swiftness?$AA@			; `string'
PUBLIC	??_C@_05PHJK@speed?$AA@				; `string'
PUBLIC	??_C@_05HPHA@haste?$AA@				; `string'
PUBLIC	??_C@_07DMNA@balance?$AA@			; `string'
PUBLIC	??_C@_09LMMN@stability?$AA@			; `string'
PUBLIC	??_C@_07JFPI@harmony?$AA@			; `string'
PUBLIC	??_C@_08PCBE@blocking?$AA@			; `string'
PUBLIC	??_C@_0BG@LEFE@The?5Butcher?8s?5Cleaver?$AA@	; `string'
PUBLIC	??_C@_0BB@GGAG@The?5Undead?5Crown?$AA@		; `string'
PUBLIC	??_C@_0O@EFCF@Empyrean?5Band?$AA@		; `string'
PUBLIC	??_C@_0N@JIIN@Optic?5Amulet?$AA@		; `string'
PUBLIC	??_C@_0O@PEHI@Ring?5of?5Truth?$AA@		; `string'
PUBLIC	??_C@_0BA@HLFM@Harlequin?5Crest?$AA@		; `string'
PUBLIC	??_C@_0O@FKOJ@Veil?5of?5Steel?$AA@		; `string'
PUBLIC	??_C@_0BA@JENP@Arkaine?8s?5Valor?$AA@		; `string'
PUBLIC	??_C@_0BA@OAIC@Griswold?8s?5Edge?$AA@		; `string'
PUBLIC	??_C@_0L@NHHH@Lightforge?$AA@			; `string'
PUBLIC	??_C@_0N@HFEC@The?5Rift?5Bow?$AA@		; `string'
PUBLIC	??_C@_0M@IKAD@The?5Needler?$AA@			; `string'
PUBLIC	??_C@_0BC@DFMJ@The?5Celestial?5Bow?$AA@		; `string'
PUBLIC	??_C@_0O@MMFL@Deadly?5Hunter?$AA@		; `string'
PUBLIC	??_C@_0BA@PFNB@Bow?5of?5the?5Dead?$AA@		; `string'
PUBLIC	??_C@_0BB@HEMC@The?5Blackoak?5Bow?$AA@		; `string'
PUBLIC	??_C@_09IEMI@Flamedart?$AA@			; `string'
PUBLIC	??_C@_0N@IPLI@Fleshstinger?$AA@			; `string'
PUBLIC	??_C@_09ICMO@Windforce?$AA@			; `string'
PUBLIC	??_C@_09PCNB@Eaglehorn?$AA@			; `string'
PUBLIC	??_C@_0BA@ION@Gonnagal?8s?5Dirk?$AA@		; `string'
PUBLIC	??_C@_0N@LMFG@The?5Defender?$AA@		; `string'
PUBLIC	??_C@_0O@NPMJ@Gryphons?5Claw?$AA@		; `string'
PUBLIC	??_C@_0M@NGHN@Black?5Razor?$AA@			; `string'
PUBLIC	??_C@_0N@COHM@Gibbous?5Moon?$AA@		; `string'
PUBLIC	??_C@_09IIDA@Ice?5Shank?$AA@			; `string'
PUBLIC	??_C@_0BI@JCLM@The?5Executioner?8s?5Blade?$AA@	; `string'
PUBLIC	??_C@_0M@FDHB@The?5Bonesaw?$AA@			; `string'
PUBLIC	??_C@_0L@EBEF@Shadowhawk?$AA@			; `string'
PUBLIC	??_C@_0M@EGMF@Wizardspike?$AA@			; `string'
PUBLIC	??_C@_0L@HCN@Lightsabre?$AA@			; `string'
PUBLIC	??_C@_0BD@EDLD@The?5Falcon?8s?5Talon?$AA@	; `string'
PUBLIC	??_C@_07HJHJ@Inferno?$AA@			; `string'
PUBLIC	??_C@_0M@BAAM@Doombringer?$AA@			; `string'
PUBLIC	??_C@_0M@IGFJ@The?5Grizzly?$AA@			; `string'
PUBLIC	??_C@_0BA@OANG@The?5Grandfather?$AA@		; `string'
PUBLIC	??_C@_0M@CBIO@The?5Mangler?$AA@			; `string'
PUBLIC	??_C@_0L@KEIA@Sharp?5Beak?$AA@			; `string'
PUBLIC	??_C@_0M@ENI@BloodSlayer?$AA@			; `string'
PUBLIC	??_C@_0BC@DEFA@The?5Celestial?5Axe?$AA@		; `string'
PUBLIC	??_C@_0L@LGGM@Wicked?5Axe?$AA@			; `string'
PUBLIC	??_C@_0N@POLL@Stonecleaver?$AA@			; `string'
PUBLIC	??_C@_0BD@CMJN@Aguinara?8s?5Hatchet?$AA@	; `string'
PUBLIC	??_C@_0L@DLHM@Hellslayer?$AA@			; `string'
PUBLIC	??_C@_0BH@CIE@Messerschmidt?8s?5Reaver?$AA@	; `string'
PUBLIC	??_C@_09NILJ@Crackrust?$AA@			; `string'
PUBLIC	??_C@_0BA@FNJO@Hammer?5of?5Jholm?$AA@		; `string'
PUBLIC	??_C@_0BA@NP@Civerb?8s?5Cudgel?$AA@		; `string'
PUBLIC	??_C@_0BD@JEIK@The?5Celestial?5Star?$AA@	; `string'
PUBLIC	??_C@_0P@HPLN@Baranar?8s?5Star?$AA@		; `string'
PUBLIC	??_C@_0N@KBLF@Gnarled?5Root?$AA@		; `string'
PUBLIC	??_C@_0BD@NKML@The?5Cranium?5Basher?$AA@	; `string'
PUBLIC	??_C@_0BC@ECOI@Schaefer?8s?5Hammer?$AA@		; `string'
PUBLIC	??_C@_0M@IHNE@Dreamflange?$AA@			; `string'
PUBLIC	??_C@_0BB@DJNB@Staff?5of?5Shadows?$AA@		; `string'
PUBLIC	??_C@_09DCFI@Immolator?$AA@			; `string'
PUBLIC	??_C@_0M@MMBM@Storm?5Spire?$AA@			; `string'
PUBLIC	??_C@_09GLO@Gleamsong?$AA@			; `string'
PUBLIC	??_C@_0M@BMCJ@Thundercall?$AA@			; `string'
PUBLIC	??_C@_0O@OIKA@The?5Protector?$AA@		; `string'
PUBLIC	??_C@_0O@KOJF@Naj?8s?5Puzzler?$AA@		; `string'
PUBLIC	??_C@_07KPBO@Mindcry?$AA@			; `string'
PUBLIC	??_C@_0M@LFDG@Rod?5of?5Onan?$AA@		; `string'
PUBLIC	??_C@_0P@BGBO@Helm?5of?5Sprits?$AA@		; `string'
PUBLIC	??_C@_0N@DNKB@Thinking?5Cap?$AA@		; `string'
PUBLIC	??_C@_0BA@OMOB@OverLord?8s?5Helm?$AA@		; `string'
PUBLIC	??_C@_0N@JHCM@Fool?8s?5Crest?$AA@		; `string'
PUBLIC	??_C@_0P@EJBH@Gotterdamerung?$AA@		; `string'
PUBLIC	??_C@_0O@NECM@Royal?5Circlet?$AA@		; `string'
PUBLIC	??_C@_0BE@NIAH@Torn?5Flesh?5of?5Souls?$AA@	; `string'
PUBLIC	??_C@_0BF@OMOA@The?5Gladiator?8s?5Bane?$AA@	; `string'
PUBLIC	??_C@_0BC@MCAH@The?5Rainbow?5Cloak?$AA@		; `string'
PUBLIC	??_C@_0P@IDGC@Leather?5of?5Aut?$AA@		; `string'
PUBLIC	??_C@_0O@GEEJ@Wisdom?8s?5Wrap?$AA@		; `string'
PUBLIC	??_C@_0O@IGGO@Sparking?5Mail?$AA@		; `string'
PUBLIC	??_C@_0BD@EIPI@Scavenger?5Carapace?$AA@		; `string'
PUBLIC	??_C@_0L@IJGD@Nightscape?$AA@			; `string'
PUBLIC	??_C@_0BC@FJEO@Naj?8s?5Light?5Plate?$AA@	; `string'
PUBLIC	??_C@_0BA@LMDJ@Demonspike?5Coat?$AA@		; `string'
PUBLIC	??_C@_0O@BCBJ@The?5Deflector?$AA@		; `string'
PUBLIC	??_C@_0BD@FMDN@Split?5Skull?5Shield?$AA@	; `string'
PUBLIC	??_C@_0BA@MNCP@Dragon?8s?5Breach?$AA@		; `string'
PUBLIC	??_C@_0BA@JLBF@Blackoak?5Shield?$AA@		; `string'
PUBLIC	??_C@_0O@MBNB@Holy?5Defender?$AA@		; `string'
PUBLIC	??_C@_0M@CHNE@Stormshield?$AA@			; `string'
PUBLIC	??_C@_07JICK@Bramble?$AA@			; `string'
PUBLIC	??_C@_0O@GFAH@Ring?5of?5Regha?$AA@		; `string'
PUBLIC	??_C@_0M@MJLO@The?5Bleeder?$AA@			; `string'
PUBLIC	??_C@_0BC@GNLC@Constricting?5Ring?$AA@		; `string'
PUBLIC	??_C@_0BD@BKHB@Ring?5of?5Engagement?$AA@	; `string'
PUBLIC	??_C@_0M@HOBP@Short?5Sword?$AA@			; `string'
PUBLIC	??_C@_07MMEF@Buckler?$AA@			; `string'
PUBLIC	??_C@_04NPLD@Club?$AA@				; `string'
PUBLIC	??_C@_09HMDM@Short?5Bow?$AA@			; `string'
PUBLIC	??_C@_0BM@FKFF@Short?5Staff?5of?5Charged?5Bolt?$AA@ ; `string'
PUBLIC	??_C@_07DFGK@Cleaver?$AA@			; `string'
PUBLIC	??_C@_0L@CAJC@Magic?5Rock?$AA@			; `string'
PUBLIC	??_C@_0M@NAPI@Tavern?5Sign?$AA@			; `string'
PUBLIC	??_C@_0O@DFFP@Golden?5Elixir?$AA@		; `string'
PUBLIC	??_C@_0O@FHBG@Anvil?5of?5Fury?$AA@		; `string'
PUBLIC	??_C@_0P@DIJL@Black?5Mushroom?$AA@		; `string'
PUBLIC	??_C@_05LNNG@Brain?$AA@				; `string'
PUBLIC	??_C@_0M@FMMF@Fungal?5Tome?$AA@			; `string'
PUBLIC	??_C@_0BA@FAA@Spectral?5Elixir?$AA@		; `string'
PUBLIC	??_C@_0M@BAA@Blood?5Stone?$AA@			; `string'
PUBLIC	??_C@_0BB@DLLL@Map?5of?5the?5Stars?$AA@		; `string'
PUBLIC	??_C@_05BPMN@Heart?$AA@				; `string'
PUBLIC	??_C@_0BC@OFPF@Potion?5of?5Healing?$AA@		; `string'
PUBLIC	??_C@_0P@PEDF@Potion?5of?5Mana?$AA@		; `string'
PUBLIC	??_C@_0BD@HKHI@Scroll?5of?5Identify?$AA@	; `string'
PUBLIC	??_C@_0BG@BCKO@Scroll?5of?5Town?5Portal?$AA@	; `string'
PUBLIC	??_C@_0BH@FJIN@Potion?5of?5Full?5Healing?$AA@	; `string'
PUBLIC	??_C@_0BE@EKIO@Potion?5of?5Full?5Mana?$AA@	; `string'
PUBLIC	??_C@_0BB@IAKD@Staff?5of?5Lazarus?$AA@		; `string'
PUBLIC	??_C@_0BE@KOIM@Scroll?5of?5Resurrect?$AA@	; `string'
PUBLIC	??_C@_03EEJM@Cap?$AA@				; `string'
PUBLIC	??_C@_09CIHH@Skull?5Cap?$AA@			; `string'
PUBLIC	??_C@_04JAHM@Helm?$AA@				; `string'
PUBLIC	??_C@_09PBMM@Full?5Helm?$AA@			; `string'
PUBLIC	??_C@_05MJDD@Crown?$AA@				; `string'
PUBLIC	??_C@_0L@FPDC@Great?5Helm?$AA@			; `string'
PUBLIC	??_C@_04EMKP@Cape?$AA@				; `string'
PUBLIC	??_C@_04GBCC@Rags?$AA@				; `string'
PUBLIC	??_C@_05HEPD@Cloak?$AA@				; `string'
PUBLIC	??_C@_04HOC@Robe?$AA@				; `string'
_DATA	SEGMENT
COMM	_itemactive:DWORD:07fH
COMM	_uitemflag:DWORD
COMM	_itemavail:DWORD:07fH
COMM	_curruitem:BYTE:0170H
COMM	_itemrecord:BYTE:07f0H
COMM	_item:BYTE:0b800H
COMM	_itemhold:DWORD:09H
COMM	_Item2Frm:DWORD:023H
COMM	_UniqueItemFlag:DWORD:080H
COMM	_numitems:DWORD
COMM	_gnNumGetRecords:DWORD
_DATA	ENDS
;	COMDAT ??_C@_00A@?$AA@
_BSS	SEGMENT
??_C@_00A@?$AA@ DB 01H DUP (?)				; `string'
_BSS	ENDS
;	COMDAT ??_C@_03GMHJ@Tin?$AA@
_DATA	SEGMENT
??_C@_03GMHJ@Tin?$AA@ DB 'Tin', 00H			; `string'
_DATA	ENDS
;	COMDAT ??_C@_05LCHN@Brass?$AA@
_DATA	SEGMENT
??_C@_05LCHN@Brass?$AA@ DB 'Brass', 00H			; `string'
_DATA	ENDS
;	COMDAT ??_C@_06ODEI@Bronze?$AA@
_DATA	SEGMENT
??_C@_06ODEI@Bronze?$AA@ DB 'Bronze', 00H		; `string'
_DATA	ENDS
;	COMDAT ??_C@_04OOGD@Iron?$AA@
_DATA	SEGMENT
??_C@_04OOGD@Iron?$AA@ DB 'Iron', 00H			; `string'
_DATA	ENDS
;	COMDAT ??_C@_05DCMA@Steel?$AA@
_DATA	SEGMENT
??_C@_05DCMA@Steel?$AA@ DB 'Steel', 00H			; `string'
_DATA	ENDS
;	COMDAT ??_C@_06FDOO@Silver?$AA@
_DATA	SEGMENT
??_C@_06FDOO@Silver?$AA@ DB 'Silver', 00H		; `string'
_DATA	ENDS
;	COMDAT ??_C@_04IKOF@Gold?$AA@
_DATA	SEGMENT
??_C@_04IKOF@Gold?$AA@ DB 'Gold', 00H			; `string'
_DATA	ENDS
;	COMDAT ??_C@_08EGEN@Platinum?$AA@
_DATA	SEGMENT
??_C@_08EGEN@Platinum?$AA@ DB 'Platinum', 00H		; `string'
_DATA	ENDS
;	COMDAT ??_C@_07GNDG@Mithril?$AA@
_DATA	SEGMENT
??_C@_07GNDG@Mithril?$AA@ DB 'Mithril', 00H		; `string'
_DATA	ENDS
;	COMDAT ??_C@_08IENK@Meteoric?$AA@
_DATA	SEGMENT
??_C@_08IENK@Meteoric?$AA@ DB 'Meteoric', 00H		; `string'
_DATA	ENDS
;	COMDAT ??_C@_05EFIN@Weird?$AA@
_DATA	SEGMENT
??_C@_05EFIN@Weird?$AA@ DB 'Weird', 00H			; `string'
_DATA	ENDS
;	COMDAT ??_C@_07CJID@Strange?$AA@
_DATA	SEGMENT
??_C@_07CJID@Strange?$AA@ DB 'Strange', 00H		; `string'
_DATA	ENDS
;	COMDAT ??_C@_07NODE@Useless?$AA@
_DATA	SEGMENT
??_C@_07NODE@Useless?$AA@ DB 'Useless', 00H		; `string'
_DATA	ENDS
;	COMDAT ??_C@_04IKEC@Bent?$AA@
_DATA	SEGMENT
??_C@_04IKEC@Bent?$AA@ DB 'Bent', 00H			; `string'
_DATA	ENDS
;	COMDAT ??_C@_04BDFF@Weak?$AA@
_DATA	SEGMENT
??_C@_04BDFF@Weak?$AA@ DB 'Weak', 00H			; `string'
_DATA	ENDS
;	COMDAT ??_C@_06FAHP@Jagged?$AA@
_DATA	SEGMENT
??_C@_06FAHP@Jagged?$AA@ DB 'Jagged', 00H		; `string'
_DATA	ENDS
;	COMDAT ??_C@_06HHAB@Deadly?$AA@
_DATA	SEGMENT
??_C@_06HHAB@Deadly?$AA@ DB 'Deadly', 00H		; `string'
_DATA	ENDS
;	COMDAT ??_C@_05BBBE@Heavy?$AA@
_DATA	SEGMENT
??_C@_05BBBE@Heavy?$AA@ DB 'Heavy', 00H			; `string'
_DATA	ENDS
;	COMDAT ??_C@_07ECGL@Vicious?$AA@
_DATA	SEGMENT
??_C@_07ECGL@Vicious?$AA@ DB 'Vicious', 00H		; `string'
_DATA	ENDS
;	COMDAT ??_C@_06NJIC@Brutal?$AA@
_DATA	SEGMENT
??_C@_06NJIC@Brutal?$AA@ DB 'Brutal', 00H		; `string'
_DATA	ENDS
;	COMDAT ??_C@_07LHOJ@Massive?$AA@
_DATA	SEGMENT
??_C@_07LHOJ@Massive?$AA@ DB 'Massive', 00H		; `string'
_DATA	ENDS
;	COMDAT ??_C@_06CJBK@Savage?$AA@
_DATA	SEGMENT
??_C@_06CJBK@Savage?$AA@ DB 'Savage', 00H		; `string'
_DATA	ENDS
;	COMDAT ??_C@_08NMGL@Ruthless?$AA@
_DATA	SEGMENT
??_C@_08NMGL@Ruthless?$AA@ DB 'Ruthless', 00H		; `string'
_DATA	ENDS
;	COMDAT ??_C@_09DDBE@Merciless?$AA@
_DATA	SEGMENT
??_C@_09DDBE@Merciless?$AA@ DB 'Merciless', 00H		; `string'
_DATA	ENDS
;	COMDAT ??_C@_06ICAM@Clumsy?$AA@
_DATA	SEGMENT
??_C@_06ICAM@Clumsy?$AA@ DB 'Clumsy', 00H		; `string'
_DATA	ENDS
;	COMDAT ??_C@_04KEFJ@Dull?$AA@
_DATA	SEGMENT
??_C@_04KEFJ@Dull?$AA@ DB 'Dull', 00H			; `string'
_DATA	ENDS
;	COMDAT ??_C@_05MMAL@Sharp?$AA@
_DATA	SEGMENT
??_C@_05MMAL@Sharp?$AA@ DB 'Sharp', 00H			; `string'
_DATA	ENDS
;	COMDAT ??_C@_04MEAC@Fine?$AA@
_DATA	SEGMENT
??_C@_04MEAC@Fine?$AA@ DB 'Fine', 00H			; `string'
_DATA	ENDS
;	COMDAT ??_C@_09EAE@Warrior?8s?$AA@
_DATA	SEGMENT
??_C@_09EAE@Warrior?8s?$AA@ DB 'Warrior''s', 00H	; `string'
_DATA	ENDS
;	COMDAT ??_C@_09MBML@Soldier?8s?$AA@
_DATA	SEGMENT
??_C@_09MBML@Soldier?8s?$AA@ DB 'Soldier''s', 00H	; `string'
_DATA	ENDS
;	COMDAT ??_C@_06IECP@Lord?8s?$AA@
_DATA	SEGMENT
??_C@_06IECP@Lord?8s?$AA@ DB 'Lord''s', 00H		; `string'
_DATA	ENDS
;	COMDAT ??_C@_08JAPA@Knight?8s?$AA@
_DATA	SEGMENT
??_C@_08JAPA@Knight?8s?$AA@ DB 'Knight''s', 00H		; `string'
_DATA	ENDS
;	COMDAT ??_C@_08NFNG@Master?8s?$AA@
_DATA	SEGMENT
??_C@_08NFNG@Master?8s?$AA@ DB 'Master''s', 00H		; `string'
_DATA	ENDS
;	COMDAT ??_C@_0L@NCDE@Champion?8s?$AA@
_DATA	SEGMENT
??_C@_0L@NCDE@Champion?8s?$AA@ DB 'Champion''s', 00H	; `string'
_DATA	ENDS
;	COMDAT ??_C@_06LAFC@King?8s?$AA@
_DATA	SEGMENT
??_C@_06LAFC@King?8s?$AA@ DB 'King''s', 00H		; `string'
_DATA	ENDS
;	COMDAT ??_C@_0L@BMID@Vulnerable?$AA@
_DATA	SEGMENT
??_C@_0L@BMID@Vulnerable?$AA@ DB 'Vulnerable', 00H	; `string'
_DATA	ENDS
;	COMDAT ??_C@_06DCIE@Rusted?$AA@
_DATA	SEGMENT
??_C@_06DCIE@Rusted?$AA@ DB 'Rusted', 00H		; `string'
_DATA	ENDS
;	COMDAT ??_C@_06BEKF@Strong?$AA@
_DATA	SEGMENT
??_C@_06BEKF@Strong?$AA@ DB 'Strong', 00H		; `string'
_DATA	ENDS
;	COMDAT ??_C@_05PNKF@Grand?$AA@
_DATA	SEGMENT
??_C@_05PNKF@Grand?$AA@ DB 'Grand', 00H			; `string'
_DATA	ENDS
;	COMDAT ??_C@_07EDJP@Valiant?$AA@
_DATA	SEGMENT
??_C@_07EDJP@Valiant?$AA@ DB 'Valiant', 00H		; `string'
_DATA	ENDS
;	COMDAT ??_C@_08HMNP@Glorious?$AA@
_DATA	SEGMENT
??_C@_08HMNP@Glorious?$AA@ DB 'Glorious', 00H		; `string'
_DATA	ENDS
;	COMDAT ??_C@_07EIDE@Blessed?$AA@
_DATA	SEGMENT
??_C@_07EIDE@Blessed?$AA@ DB 'Blessed', 00H		; `string'
_DATA	ENDS
;	COMDAT ??_C@_07EPFC@Saintly?$AA@
_DATA	SEGMENT
??_C@_07EPFC@Saintly?$AA@ DB 'Saintly', 00H		; `string'
_DATA	ENDS
;	COMDAT ??_C@_07JECP@Awesome?$AA@
_DATA	SEGMENT
??_C@_07JECP@Awesome?$AA@ DB 'Awesome', 00H		; `string'
_DATA	ENDS
;	COMDAT ??_C@_04KHMI@Holy?$AA@
_DATA	SEGMENT
??_C@_04KHMI@Holy?$AA@ DB 'Holy', 00H			; `string'
_DATA	ENDS
;	COMDAT ??_C@_05PIBE@Godly?$AA@
_DATA	SEGMENT
??_C@_05PIBE@Godly?$AA@ DB 'Godly', 00H			; `string'
_DATA	ENDS
;	COMDAT ??_C@_03GOGG@Red?$AA@
_DATA	SEGMENT
??_C@_03GOGG@Red?$AA@ DB 'Red', 00H			; `string'
_DATA	ENDS
;	COMDAT ??_C@_07FEBH@Crimson?$AA@
_DATA	SEGMENT
??_C@_07FEBH@Crimson?$AA@ DB 'Crimson', 00H		; `string'
_DATA	ENDS
;	COMDAT ??_C@_06LALG@Garnet?$AA@
_DATA	SEGMENT
??_C@_06LALG@Garnet?$AA@ DB 'Garnet', 00H		; `string'
_DATA	ENDS
;	COMDAT ??_C@_04EFIE@Ruby?$AA@
_DATA	SEGMENT
??_C@_04EFIE@Ruby?$AA@ DB 'Ruby', 00H			; `string'
_DATA	ENDS
;	COMDAT ??_C@_04KPAE@Blue?$AA@
_DATA	SEGMENT
??_C@_04KPAE@Blue?$AA@ DB 'Blue', 00H			; `string'
_DATA	ENDS
;	COMDAT ??_C@_05FBBK@Azure?$AA@
_DATA	SEGMENT
??_C@_05FBBK@Azure?$AA@ DB 'Azure', 00H			; `string'
_DATA	ENDS
;	COMDAT ??_C@_05MIIL@Lapis?$AA@
_DATA	SEGMENT
??_C@_05MIIL@Lapis?$AA@ DB 'Lapis', 00H			; `string'
_DATA	ENDS
;	COMDAT ??_C@_06PPMI@Cobalt?$AA@
_DATA	SEGMENT
??_C@_06PPMI@Cobalt?$AA@ DB 'Cobalt', 00H		; `string'
_DATA	ENDS
;	COMDAT ??_C@_08JPLJ@Sapphire?$AA@
_DATA	SEGMENT
??_C@_08JPLJ@Sapphire?$AA@ DB 'Sapphire', 00H		; `string'
_DATA	ENDS
;	COMDAT ??_C@_05CGP@White?$AA@
_DATA	SEGMENT
??_C@_05CGP@White?$AA@ DB 'White', 00H			; `string'
_DATA	ENDS
;	COMDAT ??_C@_05OBHK@Pearl?$AA@
_DATA	SEGMENT
??_C@_05OBHK@Pearl?$AA@ DB 'Pearl', 00H			; `string'
_DATA	ENDS
;	COMDAT ??_C@_05KNIO@Ivory?$AA@
_DATA	SEGMENT
??_C@_05KNIO@Ivory?$AA@ DB 'Ivory', 00H			; `string'
_DATA	ENDS
;	COMDAT ??_C@_07NPPL@Crystal?$AA@
_DATA	SEGMENT
??_C@_07NPPL@Crystal?$AA@ DB 'Crystal', 00H		; `string'
_DATA	ENDS
;	COMDAT ??_C@_07DLIP@Diamond?$AA@
_DATA	SEGMENT
??_C@_07DLIP@Diamond?$AA@ DB 'Diamond', 00H		; `string'
_DATA	ENDS
;	COMDAT ??_C@_05HFPD@Topaz?$AA@
_DATA	SEGMENT
??_C@_05HFPD@Topaz?$AA@ DB 'Topaz', 00H			; `string'
_DATA	ENDS
;	COMDAT ??_C@_05JGOH@Amber?$AA@
_DATA	SEGMENT
??_C@_05JGOH@Amber?$AA@ DB 'Amber', 00H			; `string'
_DATA	ENDS
;	COMDAT ??_C@_04HDGO@Jade?$AA@
_DATA	SEGMENT
??_C@_04HDGO@Jade?$AA@ DB 'Jade', 00H			; `string'
_DATA	ENDS
;	COMDAT ??_C@_08FHBF@Obsidian?$AA@
_DATA	SEGMENT
??_C@_08FHBF@Obsidian?$AA@ DB 'Obsidian', 00H		; `string'
_DATA	ENDS
;	COMDAT ??_C@_07BHJH@Emerald?$AA@
_DATA	SEGMENT
??_C@_07BHJH@Emerald?$AA@ DB 'Emerald', 00H		; `string'
_DATA	ENDS
;	COMDAT ??_C@_07MJBJ@Hyena?8s?$AA@
_DATA	SEGMENT
??_C@_07MJBJ@Hyena?8s?$AA@ DB 'Hyena''s', 00H		; `string'
_DATA	ENDS
;	COMDAT ??_C@_06BIDB@Frog?8s?$AA@
_DATA	SEGMENT
??_C@_06BIDB@Frog?8s?$AA@ DB 'Frog''s', 00H		; `string'
_DATA	ENDS
;	COMDAT ??_C@_08LPHF@Spider?8s?$AA@
_DATA	SEGMENT
??_C@_08LPHF@Spider?8s?$AA@ DB 'Spider''s', 00H		; `string'
_DATA	ENDS
;	COMDAT ??_C@_07HHEO@Raven?8s?$AA@
_DATA	SEGMENT
??_C@_07HHEO@Raven?8s?$AA@ DB 'Raven''s', 00H		; `string'
_DATA	ENDS
;	COMDAT ??_C@_07ONOH@Snake?8s?$AA@
_DATA	SEGMENT
??_C@_07ONOH@Snake?8s?$AA@ DB 'Snake''s', 00H		; `string'
_DATA	ENDS
;	COMDAT ??_C@_09EOEE@Serpent?8s?$AA@
_DATA	SEGMENT
??_C@_09EOEE@Serpent?8s?$AA@ DB 'Serpent''s', 00H	; `string'
_DATA	ENDS
;	COMDAT ??_C@_07GMNG@Drake?8s?$AA@
_DATA	SEGMENT
??_C@_07GMNG@Drake?8s?$AA@ DB 'Drake''s', 00H		; `string'
_DATA	ENDS
;	COMDAT ??_C@_08EMKB@Dragon?8s?$AA@
_DATA	SEGMENT
??_C@_08EMKB@Dragon?8s?$AA@ DB 'Dragon''s', 00H		; `string'
_DATA	ENDS
;	COMDAT ??_C@_06MNOF@Wyrm?8s?$AA@
_DATA	SEGMENT
??_C@_06MNOF@Wyrm?8s?$AA@ DB 'Wyrm''s', 00H		; `string'
_DATA	ENDS
;	COMDAT ??_C@_07IDMF@Hydra?8s?$AA@
_DATA	SEGMENT
??_C@_07IDMF@Hydra?8s?$AA@ DB 'Hydra''s', 00H		; `string'
_DATA	ENDS
;	COMDAT ??_C@_07KOJG@Angel?8s?$AA@
_DATA	SEGMENT
??_C@_07KOJG@Angel?8s?$AA@ DB 'Angel''s', 00H		; `string'
_DATA	ENDS
;	COMDAT ??_C@_0N@ELNE@Arch?9Angel?8s?$AA@
_DATA	SEGMENT
??_C@_0N@ELNE@Arch?9Angel?8s?$AA@ DB 'Arch-Angel''s', 00H ; `string'
_DATA	ENDS
;	COMDAT ??_C@_09DDEK@Plentiful?$AA@
_DATA	SEGMENT
??_C@_09DDEK@Plentiful?$AA@ DB 'Plentiful', 00H		; `string'
_DATA	ENDS
;	COMDAT ??_C@_09KCHB@Bountiful?$AA@
_DATA	SEGMENT
??_C@_09KCHB@Bountiful?$AA@ DB 'Bountiful', 00H		; `string'
_DATA	ENDS
;	COMDAT ??_C@_07LGEK@Flaming?$AA@
_DATA	SEGMENT
??_C@_07LGEK@Flaming?$AA@ DB 'Flaming', 00H		; `string'
_DATA	ENDS
;	COMDAT ??_C@_09NPLP@Lightning?$AA@
_DATA	SEGMENT
??_C@_09NPLP@Lightning?$AA@ DB 'Lightning', 00H		; `string'
_DATA	ENDS
CONST	SEGMENT
_PL_Prefix DD	FLAT:??_C@_03GMHJ@Tin?$AA@
	DB	01H
	ORG $+3
	DD	06H
	DD	0aH
	DD	03H
	DD	01011H
	DD	00H
	DD	01H
	DD	00H
	DD	00H
	DD	00H
	DD	0fffffffdH
	DD	FLAT:??_C@_05LCHN@Brass?$AA@
	DB	01H
	ORG $+3
	DD	01H
	DD	05H
	DD	01H
	DD	01011H
	DD	00H
	DD	01H
	DD	00H
	DD	00H
	DD	00H
	DD	0fffffffeH
	DD	FLAT:??_C@_06ODEI@Bronze?$AA@
	DB	00H
	ORG $+3
	DD	01H
	DD	05H
	DD	01H
	DD	01011H
	DD	00H
	DD	01H
	DD	01H
	DD	064H
	DD	01f4H
	DD	02H
	DD	FLAT:??_C@_04OOGD@Iron?$AA@
	DB	00H
	ORG $+3
	DD	06H
	DD	0aH
	DD	04H
	DD	01011H
	DD	00H
	DD	01H
	DD	01H
	DD	0258H
	DD	03e8H
	DD	03H
	DD	FLAT:??_C@_05DCMA@Steel?$AA@
	DB	00H
	ORG $+3
	DD	0bH
	DD	0fH
	DD	06H
	DD	01011H
	DD	00H
	DD	01H
	DD	01H
	DD	044cH
	DD	05dcH
	DD	05H
	DD	FLAT:??_C@_06FDOO@Silver?$AA@
	DB	00H
	ORG $+3
	DD	010H
	DD	014H
	DD	09H
	DD	01011H
	DD	010H
	DD	01H
	DD	01H
	DD	0640H
	DD	07d0H
	DD	07H
	DD	FLAT:??_C@_04IKOF@Gold?$AA@
	DB	00H
	ORG $+3
	DD	015H
	DD	01eH
	DD	0cH
	DD	01011H
	DD	010H
	DD	01H
	DD	01H
	DD	0834H
	DD	0bb8H
	DD	09H
	DD	FLAT:??_C@_08EGEN@Platinum?$AA@
	DB	00H
	ORG $+3
	DD	01fH
	DD	028H
	DD	010H
	DD	01010H
	DD	010H
	DD	01H
	DD	01H
	DD	0c1cH
	DD	0fa0H
	DD	0bH
	DD	FLAT:??_C@_07GNDG@Mithril?$AA@
	DB	00H
	ORG $+3
	DD	029H
	DD	03cH
	DD	014H
	DD	01010H
	DD	010H
	DD	01H
	DD	01H
	DD	01004H
	DD	01770H
	DD	0dH
	DD	FLAT:??_C@_08IENK@Meteoric?$AA@
	DB	00H
	ORG $+3
	DD	03dH
	DD	050H
	DD	017H
	DD	01010H
	DD	00H
	DD	01H
	DD	01H
	DD	017d4H
	DD	02710H
	DD	0fH
	DD	FLAT:??_C@_05EFIN@Weird?$AA@
	DB	00H
	ORG $+3
	DD	051H
	DD	064H
	DD	023H
	DD	01010H
	DD	00H
	DD	01H
	DD	01H
	DD	02774H
	DD	036b0H
	DD	011H
	DD	FLAT:??_C@_07CJID@Strange?$AA@
	DB	00H
	ORG $+3
	DD	065H
	DD	096H
	DD	03cH
	DD	01010H
	DD	00H
	DD	01H
	DD	01H
	DD	03714H
	DD	04e20H
	DD	014H
	DD	FLAT:??_C@_07NODE@Useless?$AA@
	DB	03H
	ORG $+3
	DD	064H
	DD	064H
	DD	05H
	DD	01010H
	DD	00H
	DD	01H
	DD	00H
	DD	00H
	DD	00H
	DD	0fffffff8H
	DD	FLAT:??_C@_04IKEC@Bent?$AA@
	DB	03H
	ORG $+3
	DD	032H
	DD	04bH
	DD	03H
	DD	01010H
	DD	00H
	DD	01H
	DD	00H
	DD	00H
	DD	00H
	DD	0fffffffcH
	DD	FLAT:??_C@_04BDFF@Weak?$AA@
	DB	03H
	ORG $+3
	DD	019H
	DD	02dH
	DD	01H
	DD	01010H
	DD	00H
	DD	01H
	DD	00H
	DD	00H
	DD	00H
	DD	0fffffffdH
	DD	FLAT:??_C@_06FAHP@Jagged?$AA@
	DB	02H
	ORG $+3
	DD	014H
	DD	023H
	DD	04H
	DD	01010H
	DD	00H
	DD	01H
	DD	01H
	DD	0faH
	DD	01c2H
	DD	03H
	DD	FLAT:??_C@_06HHAB@Deadly?$AA@
	DB	02H
	ORG $+3
	DD	024H
	DD	032H
	DD	06H
	DD	01010H
	DD	00H
	DD	01H
	DD	01H
	DD	01f4H
	DD	02bcH
	DD	04H
	DD	FLAT:??_C@_05BBBE@Heavy?$AA@
	DB	02H
	ORG $+3
	DD	033H
	DD	041H
	DD	09H
	DD	01010H
	DD	00H
	DD	01H
	DD	01H
	DD	02eeH
	DD	03b6H
	DD	05H
	DD	FLAT:??_C@_07ECGL@Vicious?$AA@
	DB	02H
	ORG $+3
	DD	042H
	DD	050H
	DD	0cH
	DD	01010H
	DD	01H
	DD	01H
	DD	01H
	DD	03e8H
	DD	05aaH
	DD	08H
	DD	FLAT:??_C@_06NJIC@Brutal?$AA@
	DB	02H
	ORG $+3
	DD	051H
	DD	05fH
	DD	010H
	DD	01010H
	DD	00H
	DD	01H
	DD	01H
	DD	05dcH
	DD	079eH
	DD	0aH
	DD	FLAT:??_C@_07LHOJ@Massive?$AA@
	DB	02H
	ORG $+3
	DD	060H
	DD	06eH
	DD	014H
	DD	01010H
	DD	00H
	DD	01H
	DD	01H
	DD	07d0H
	DD	0992H
	DD	0dH
	DD	FLAT:??_C@_06CJBK@Savage?$AA@
	DB	02H
	ORG $+3
	DD	06fH
	DD	07dH
	DD	017H
	DD	01010H
	DD	00H
	DD	01H
	DD	01H
	DD	09c4H
	DD	0bb8H
	DD	0fH
	DD	FLAT:??_C@_08NMGL@Ruthless?$AA@
	DB	02H
	ORG $+3
	DD	07eH
	DD	096H
	DD	023H
	DD	01010H
	DD	00H
	DD	01H
	DD	01H
	DD	02774H
	DD	03a98H
	DD	011H
	DD	FLAT:??_C@_09DDBE@Merciless?$AA@
	DB	02H
	ORG $+3
	DD	097H
	DD	0afH
	DD	03cH
	DD	01010H
	DD	00H
	DD	01H
	DD	01H
	DD	03a98H
	DD	04e20H
	DD	014H
	DD	FLAT:??_C@_06ICAM@Clumsy?$AA@
	DB	05H
	ORG $+3
	DD	032H
	DD	04bH
	DD	05H
	DD	01110H
	DD	00H
	DD	01H
	DD	00H
	DD	00H
	DD	00H
	DD	0fffffff9H
	DD	FLAT:??_C@_04KEFJ@Dull?$AA@
	DB	05H
	ORG $+3
	DD	019H
	DD	02dH
	DD	01H
	DD	01110H
	DD	00H
	DD	01H
	DD	00H
	DD	00H
	DD	00H
	DD	0fffffffbH
	DD	FLAT:??_C@_05MMAL@Sharp?$AA@
	DB	04H
	ORG $+3
	DD	014H
	DD	023H
	DD	01H
	DD	01110H
	DD	00H
	DD	01H
	DD	00H
	DD	015eH
	DD	03b6H
	DD	05H
	DD	FLAT:??_C@_04MEAC@Fine?$AA@
	DB	04H
	ORG $+3
	DD	024H
	DD	032H
	DD	06H
	DD	01110H
	DD	00H
	DD	01H
	DD	01H
	DD	044cH
	DD	06a4H
	DD	07H
	DD	FLAT:??_C@_09EAE@Warrior?8s?$AA@
	DB	04H
	ORG $+3
	DD	033H
	DD	041H
	DD	0aH
	DD	01110H
	DD	00H
	DD	01H
	DD	01H
	DD	073aH
	DD	0992H
	DD	0dH
	DD	FLAT:??_C@_09MBML@Soldier?8s?$AA@
	DB	04H
	ORG $+3
	DD	042H
	DD	050H
	DD	0fH
	DD	01100H
	DD	00H
	DD	01H
	DD	01H
	DD	0a28H
	DD	0f6eH
	DD	011H
	DD	FLAT:??_C@_06IECP@Lord?8s?$AA@
	DB	04H
	ORG $+3
	DD	051H
	DD	05fH
	DD	013H
	DD	01100H
	DD	00H
	DD	01H
	DD	01H
	DD	01004H
	DD	0173eH
	DD	015H
	DD	FLAT:??_C@_08JAPA@Knight?8s?$AA@
	DB	04H
	ORG $+3
	DD	060H
	DD	06eH
	DD	017H
	DD	01100H
	DD	00H
	DD	01H
	DD	01H
	DD	017d4H
	DD	02102H
	DD	01aH
	DD	FLAT:??_C@_08NFNG@Master?8s?$AA@
	DB	04H
	ORG $+3
	DD	06fH
	DD	07dH
	DD	01cH
	DD	01100H
	DD	00H
	DD	01H
	DD	01H
	DD	02198H
	DD	032c8H
	DD	01eH
	DD	FLAT:??_C@_0L@NCDE@Champion?8s?$AA@
	DB	04H
	ORG $+3
	DD	07eH
	DD	096H
	DD	028H
	DD	01100H
	DD	00H
	DD	01H
	DD	01H
	DD	03b60H
	DD	05dc0H
	DD	021H
	DD	FLAT:??_C@_06LAFC@King?8s?$AA@
	DB	04H
	ORG $+3
	DD	097H
	DD	0afH
	DD	01cH
	DD	01100H
	DD	00H
	DD	01H
	DD	01H
	DD	05e24H
	DD	088b8H
	DD	026H
	DD	FLAT:??_C@_0L@BMID@Vulnerable?$AA@
	DB	07H
	ORG $+3
	DD	033H
	DD	064H
	DD	03H
	DD	0110000H
	DD	00H
	DD	01H
	DD	00H
	DD	00H
	DD	00H
	DD	0fffffffdH
	DD	FLAT:??_C@_06DCIE@Rusted?$AA@
	DB	07H
	ORG $+3
	DD	019H
	DD	032H
	DD	01H
	DD	0110000H
	DD	00H
	DD	01H
	DD	00H
	DD	00H
	DD	00H
	DD	0fffffffeH
	DD	FLAT:??_C@_04MEAC@Fine?$AA@
	DB	06H
	ORG $+3
	DD	014H
	DD	01eH
	DD	01H
	DD	0110000H
	DD	00H
	DD	01H
	DD	01H
	DD	014H
	DD	064H
	DD	02H
	DD	FLAT:??_C@_06BEKF@Strong?$AA@
	DB	06H
	ORG $+3
	DD	01fH
	DD	028H
	DD	03H
	DD	0110000H
	DD	00H
	DD	01H
	DD	01H
	DD	078H
	DD	0c8H
	DD	03H
	DD	FLAT:??_C@_05PNKF@Grand?$AA@
	DB	06H
	ORG $+3
	DD	029H
	DD	037H
	DD	06H
	DD	0110000H
	DD	00H
	DD	01H
	DD	01H
	DD	0dcH
	DD	012cH
	DD	05H
	DD	FLAT:??_C@_07EDJP@Valiant?$AA@
	DB	06H
	ORG $+3
	DD	038H
	DD	046H
	DD	0aH
	DD	0110000H
	DD	00H
	DD	01H
	DD	01H
	DD	0140H
	DD	0190H
	DD	07H
	DD	FLAT:??_C@_08HMNP@Glorious?$AA@
	DB	06H
	ORG $+3
	DD	047H
	DD	05aH
	DD	0eH
	DD	0110000H
	DD	010H
	DD	01H
	DD	01H
	DD	01a4H
	DD	0258H
	DD	09H
	DD	FLAT:??_C@_07EIDE@Blessed?$AA@
	DB	06H
	ORG $+3
	DD	05bH
	DD	06eH
	DD	013H
	DD	0110000H
	DD	010H
	DD	01H
	DD	01H
	DD	026cH
	DD	0320H
	DD	0bH
	DD	FLAT:??_C@_07EPFC@Saintly?$AA@
	DB	06H
	ORG $+3
	DD	06fH
	DD	082H
	DD	018H
	DD	0110000H
	DD	010H
	DD	01H
	DD	01H
	DD	0334H
	DD	04b0H
	DD	0dH
	DD	FLAT:??_C@_07JECP@Awesome?$AA@
	DB	06H
	ORG $+3
	DD	083H
	DD	096H
	DD	01cH
	DD	0110000H
	DD	010H
	DD	01H
	DD	01H
	DD	04c4H
	DD	07d0H
	DD	0fH
	DD	FLAT:??_C@_04KHMI@Holy?$AA@
	DB	06H
	ORG $+3
	DD	097H
	DD	0aaH
	DD	023H
	DD	0110000H
	DD	010H
	DD	01H
	DD	01H
	DD	01450H
	DD	01770H
	DD	011H
	DD	FLAT:??_C@_05PIBE@Godly?$AA@
	DB	06H
	ORG $+3
	DD	0abH
	DD	0c8H
	DD	03cH
	DD	0110000H
	DD	010H
	DD	01H
	DD	01H
	DD	01838H
	DD	01b58H
	DD	014H
	DD	FLAT:??_C@_03GOGG@Red?$AA@
	DB	08H
	ORG $+3
	DD	0aH
	DD	014H
	DD	04H
	DD	0111111H
	DD	00H
	DD	00H
	DD	01H
	DD	01f4H
	DD	05dcH
	DD	02H
	DD	FLAT:??_C@_07FEBH@Crimson?$AA@
	DB	08H
	ORG $+3
	DD	015H
	DD	01eH
	DD	0aH
	DD	0111111H
	DD	00H
	DD	00H
	DD	01H
	DD	0834H
	DD	0bb8H
	DD	02H
	DD	FLAT:??_C@_07FEBH@Crimson?$AA@
	DB	08H
	ORG $+3
	DD	01fH
	DD	028H
	DD	010H
	DD	0111111H
	DD	00H
	DD	00H
	DD	01H
	DD	0c1cH
	DD	0fa0H
	DD	02H
	DD	FLAT:??_C@_06LALG@Garnet?$AA@
	DB	08H
	ORG $+3
	DD	029H
	DD	032H
	DD	014H
	DD	0111111H
	DD	00H
	DD	00H
	DD	01H
	DD	02008H
	DD	02ee0H
	DD	03H
	DD	FLAT:??_C@_04EFIE@Ruby?$AA@
	DB	08H
	ORG $+3
	DD	033H
	DD	03cH
	DD	01aH
	DD	0111111H
	DD	00H
	DD	00H
	DD	01H
	DD	042ccH
	DD	04e20H
	DD	05H
	DD	FLAT:??_C@_04KPAE@Blue?$AA@
	DB	09H
	ORG $+3
	DD	0aH
	DD	014H
	DD	04H
	DD	0111111H
	DD	00H
	DD	00H
	DD	01H
	DD	01f4H
	DD	05dcH
	DD	02H
	DD	FLAT:??_C@_05FBBK@Azure?$AA@
	DB	09H
	ORG $+3
	DD	015H
	DD	01eH
	DD	0aH
	DD	0111111H
	DD	00H
	DD	00H
	DD	01H
	DD	0834H
	DD	0bb8H
	DD	02H
	DD	FLAT:??_C@_05MIIL@Lapis?$AA@
	DB	09H
	ORG $+3
	DD	01fH
	DD	028H
	DD	010H
	DD	0111111H
	DD	00H
	DD	00H
	DD	01H
	DD	0c1cH
	DD	0fa0H
	DD	02H
	DD	FLAT:??_C@_06PPMI@Cobalt?$AA@
	DB	09H
	ORG $+3
	DD	029H
	DD	032H
	DD	014H
	DD	0111111H
	DD	00H
	DD	00H
	DD	01H
	DD	02008H
	DD	02ee0H
	DD	03H
	DD	FLAT:??_C@_08JPLJ@Sapphire?$AA@
	DB	09H
	ORG $+3
	DD	033H
	DD	03cH
	DD	01aH
	DD	0111111H
	DD	00H
	DD	00H
	DD	01H
	DD	042ccH
	DD	04e20H
	DD	05H
	DD	FLAT:??_C@_05CGP@White?$AA@
	DB	0aH
	ORG $+3
	DD	0aH
	DD	014H
	DD	04H
	DD	0111111H
	DD	00H
	DD	00H
	DD	01H
	DD	01f4H
	DD	05dcH
	DD	02H
	DD	FLAT:??_C@_05OBHK@Pearl?$AA@
	DB	0aH
	ORG $+3
	DD	015H
	DD	01eH
	DD	0aH
	DD	0111111H
	DD	00H
	DD	00H
	DD	01H
	DD	0834H
	DD	0bb8H
	DD	02H
	DD	FLAT:??_C@_05KNIO@Ivory?$AA@
	DB	0aH
	ORG $+3
	DD	01fH
	DD	028H
	DD	010H
	DD	0111111H
	DD	00H
	DD	00H
	DD	01H
	DD	0c1cH
	DD	0fa0H
	DD	02H
	DD	FLAT:??_C@_07NPPL@Crystal?$AA@
	DB	0aH
	ORG $+3
	DD	029H
	DD	032H
	DD	014H
	DD	0111111H
	DD	00H
	DD	00H
	DD	01H
	DD	02008H
	DD	02ee0H
	DD	03H
	DD	FLAT:??_C@_07DLIP@Diamond?$AA@
	DB	0aH
	ORG $+3
	DD	033H
	DD	03cH
	DD	01aH
	DD	0111111H
	DD	00H
	DD	00H
	DD	01H
	DD	042ccH
	DD	04e20H
	DD	05H
	DD	FLAT:??_C@_05HFPD@Topaz?$AA@
	DB	0bH
	ORG $+3
	DD	0aH
	DD	0fH
	DD	08H
	DD	0111111H
	DD	00H
	DD	00H
	DD	01H
	DD	07d0H
	DD	01388H
	DD	03H
	DD	FLAT:??_C@_05JGOH@Amber?$AA@
	DB	0bH
	ORG $+3
	DD	010H
	DD	014H
	DD	0cH
	DD	0111111H
	DD	00H
	DD	00H
	DD	01H
	DD	01ce8H
	DD	02710H
	DD	03H
	DD	FLAT:??_C@_04HDGO@Jade?$AA@
	DB	0bH
	ORG $+3
	DD	015H
	DD	01eH
	DD	012H
	DD	0111111H
	DD	00H
	DD	00H
	DD	01H
	DD	02af8H
	DD	03a98H
	DD	03H
	DD	FLAT:??_C@_08FHBF@Obsidian?$AA@
	DB	0bH
	ORG $+3
	DD	01fH
	DD	028H
	DD	018H
	DD	0111111H
	DD	00H
	DD	00H
	DD	01H
	DD	05dc0H
	DD	09c40H
	DD	04H
	DD	FLAT:??_C@_07BHJH@Emerald?$AA@
	DB	0bH
	ORG $+3
	DD	029H
	DD	032H
	DD	01fH
	DD	011110H
	DD	00H
	DD	00H
	DD	01H
	DD	0ee48H
	DD	0124f8H
	DD	07H
	DD	FLAT:??_C@_07MJBJ@Hyena?8s?$AA@
	DB	022H
	ORG $+3
	DD	0bH
	DD	019H
	DD	04H
	DD	0101H
	DD	00H
	DD	00H
	DD	00H
	DD	064H
	DD	03e8H
	DD	0fffffffeH
	DD	FLAT:??_C@_06BIDB@Frog?8s?$AA@
	DB	022H
	ORG $+3
	DD	01H
	DD	0aH
	DD	01H
	DD	0101H
	DD	01H
	DD	00H
	DD	00H
	DD	00H
	DD	00H
	DD	0fffffffeH
	DD	FLAT:??_C@_08LPHF@Spider?8s?$AA@
	DB	021H
	ORG $+3
	DD	0aH
	DD	0fH
	DD	01H
	DD	0101H
	DD	01H
	DD	00H
	DD	01H
	DD	01f4H
	DD	03e8H
	DD	02H
	DD	FLAT:??_C@_07HHEO@Raven?8s?$AA@
	DB	021H
	ORG $+3
	DD	0fH
	DD	014H
	DD	05H
	DD	0101H
	DD	00H
	DD	00H
	DD	01H
	DD	044cH
	DD	07d0H
	DD	03H
	DD	FLAT:??_C@_07ONOH@Snake?8s?$AA@
	DB	021H
	ORG $+3
	DD	015H
	DD	01eH
	DD	09H
	DD	0101H
	DD	00H
	DD	00H
	DD	01H
	DD	0834H
	DD	0fa0H
	DD	05H
	DD	FLAT:??_C@_09EOEE@Serpent?8s?$AA@
	DB	021H
	ORG $+3
	DD	01eH
	DD	028H
	DD	0fH
	DD	0101H
	DD	00H
	DD	00H
	DD	01H
	DD	01004H
	DD	01770H
	DD	07H
	DD	FLAT:??_C@_07GMNG@Drake?8s?$AA@
	DB	021H
	ORG $+3
	DD	029H
	DD	032H
	DD	015H
	DD	0101H
	DD	00H
	DD	00H
	DD	01H
	DD	017d4H
	DD	02710H
	DD	09H
	DD	FLAT:??_C@_08EMKB@Dragon?8s?$AA@
	DB	021H
	ORG $+3
	DD	033H
	DD	03cH
	DD	01bH
	DD	0101H
	DD	00H
	DD	00H
	DD	01H
	DD	02774H
	DD	03a98H
	DD	0bH
	DD	FLAT:??_C@_06MNOF@Wyrm?8s?$AA@
	DB	021H
	ORG $+3
	DD	03dH
	DD	050H
	DD	023H
	DD	0100H
	DD	00H
	DD	00H
	DD	01H
	DD	03afcH
	DD	04a38H
	DD	0cH
	DD	FLAT:??_C@_07IDMF@Hydra?8s?$AA@
	DB	021H
	ORG $+3
	DD	051H
	DD	064H
	DD	03cH
	DD	0100H
	DD	00H
	DD	00H
	DD	01H
	DD	04a9cH
	DD	07530H
	DD	0dH
	DD	FLAT:??_C@_07KOJG@Angel?8s?$AA@
	DB	0eH
	ORG $+3
	DD	01H
	DD	01H
	DD	0fH
	DD	0100H
	DD	010H
	DD	00H
	DD	01H
	DD	061a8H
	DD	061a8H
	DD	02H
	DD	FLAT:??_C@_0N@ELNE@Arch?9Angel?8s?$AA@
	DB	0eH
	ORG $+3
	DD	02H
	DD	02H
	DD	019H
	DD	0100H
	DD	010H
	DD	00H
	DD	01H
	DD	0c350H
	DD	0c350H
	DD	03H
	DD	FLAT:??_C@_09DDEK@Plentiful?$AA@
	DB	0fH
	ORG $+3
	DD	02H
	DD	02H
	DD	04H
	DD	0100H
	DD	00H
	DD	00H
	DD	01H
	DD	07d0H
	DD	07d0H
	DD	02H
	DD	FLAT:??_C@_09KCHB@Bountiful?$AA@
	DB	0fH
	ORG $+3
	DD	03H
	DD	03H
	DD	09H
	DD	0100H
	DD	00H
	DD	00H
	DD	01H
	DD	0bb8H
	DD	0bb8H
	DD	03H
	DD	FLAT:??_C@_07LGEK@Flaming?$AA@
	DB	010H
	ORG $+3
	DD	01H
	DD	0aH
	DD	07H
	DD	01100H
	DD	00H
	DD	00H
	DD	01H
	DD	01388H
	DD	01388H
	DD	02H
	DD	FLAT:??_C@_09NPLP@Lightning?$AA@
	DB	011H
	ORG $+3
	DD	02H
	DD	014H
	DD	012H
	DD	01100H
	DD	00H
	DD	00H
	DD	01H
	DD	02710H
	DD	02710H
	DD	02H
	DD	FLAT:??_C@_00A@?$AA@
	DB	0ffH
	ORG $+3
	DD	00H
	DD	00H
	DD	00H
	DD	00H
	DD	00H
	DD	00H
	DD	00H
	DD	00H
	DD	00H
	DD	00H
CONST	ENDS
;	COMDAT ??_C@_07PDKP@quality?$AA@
_DATA	SEGMENT
??_C@_07PDKP@quality?$AA@ DB 'quality', 00H		; `string'
_DATA	ENDS
;	COMDAT ??_C@_07MOG@maiming?$AA@
_DATA	SEGMENT
??_C@_07MOG@maiming?$AA@ DB 'maiming', 00H		; `string'
_DATA	ENDS
;	COMDAT ??_C@_07NJAO@slaying?$AA@
_DATA	SEGMENT
??_C@_07NJAO@slaying?$AA@ DB 'slaying', 00H		; `string'
_DATA	ENDS
;	COMDAT ??_C@_04CCDC@gore?$AA@
_DATA	SEGMENT
??_C@_04CCDC@gore?$AA@ DB 'gore', 00H			; `string'
_DATA	ENDS
;	COMDAT ??_C@_07HFLF@carnage?$AA@
_DATA	SEGMENT
??_C@_07HFLF@carnage?$AA@ DB 'carnage', 00H		; `string'
_DATA	ENDS
;	COMDAT ??_C@_09OFBO@slaughter?$AA@
_DATA	SEGMENT
??_C@_09OFBO@slaughter?$AA@ DB 'slaughter', 00H		; `string'
_DATA	ENDS
;	COMDAT ??_C@_04LOGM@pain?$AA@
_DATA	SEGMENT
??_C@_04LOGM@pain?$AA@ DB 'pain', 00H			; `string'
_DATA	ENDS
;	COMDAT ??_C@_05MNGI@tears?$AA@
_DATA	SEGMENT
??_C@_05MNGI@tears?$AA@ DB 'tears', 00H			; `string'
_DATA	ENDS
;	COMDAT ??_C@_06HECL@health?$AA@
_DATA	SEGMENT
??_C@_06HECL@health?$AA@ DB 'health', 00H		; `string'
_DATA	ENDS
;	COMDAT ??_C@_0L@CCCL@protection?$AA@
_DATA	SEGMENT
??_C@_0L@CCCL@protection?$AA@ DB 'protection', 00H	; `string'
_DATA	ENDS
;	COMDAT ??_C@_0L@CIHJ@absorption?$AA@
_DATA	SEGMENT
??_C@_0L@CIHJ@absorption?$AA@ DB 'absorption', 00H	; `string'
_DATA	ENDS
;	COMDAT ??_C@_0L@BONB@deflection?$AA@
_DATA	SEGMENT
??_C@_0L@BONB@deflection?$AA@ DB 'deflection', 00H	; `string'
_DATA	ENDS
;	COMDAT ??_C@_07JNDF@osmosis?$AA@
_DATA	SEGMENT
??_C@_07JNDF@osmosis?$AA@ DB 'osmosis', 00H		; `string'
_DATA	ENDS
;	COMDAT ??_C@_07JBCL@frailty?$AA@
_DATA	SEGMENT
??_C@_07JBCL@frailty?$AA@ DB 'frailty', 00H		; `string'
_DATA	ENDS
;	COMDAT ??_C@_08GLJO@weakness?$AA@
_DATA	SEGMENT
??_C@_08GLJO@weakness?$AA@ DB 'weakness', 00H		; `string'
_DATA	ENDS
;	COMDAT ??_C@_08GOPF@strength?$AA@
_DATA	SEGMENT
??_C@_08GOPF@strength?$AA@ DB 'strength', 00H		; `string'
_DATA	ENDS
;	COMDAT ??_C@_05JKNA@might?$AA@
_DATA	SEGMENT
??_C@_05JKNA@might?$AA@ DB 'might', 00H			; `string'
_DATA	ENDS
;	COMDAT ??_C@_05EBLP@power?$AA@
_DATA	SEGMENT
??_C@_05EBLP@power?$AA@ DB 'power', 00H			; `string'
_DATA	ENDS
;	COMDAT ??_C@_06BGKJ@giants?$AA@
_DATA	SEGMENT
??_C@_06BGKJ@giants?$AA@ DB 'giants', 00H		; `string'
_DATA	ENDS
;	COMDAT ??_C@_06MLAM@titans?$AA@
_DATA	SEGMENT
??_C@_06MLAM@titans?$AA@ DB 'titans', 00H		; `string'
_DATA	ENDS
;	COMDAT ??_C@_09HGHO@paralysis?$AA@
_DATA	SEGMENT
??_C@_09HGHO@paralysis?$AA@ DB 'paralysis', 00H		; `string'
_DATA	ENDS
;	COMDAT ??_C@_07GEAH@atrophy?$AA@
_DATA	SEGMENT
??_C@_07GEAH@atrophy?$AA@ DB 'atrophy', 00H		; `string'
_DATA	ENDS
;	COMDAT ??_C@_09KIDC@dexterity?$AA@
_DATA	SEGMENT
??_C@_09KIDC@dexterity?$AA@ DB 'dexterity', 00H		; `string'
_DATA	ENDS
;	COMDAT ??_C@_05MIHE@skill?$AA@
_DATA	SEGMENT
??_C@_05MIHE@skill?$AA@ DB 'skill', 00H			; `string'
_DATA	ENDS
;	COMDAT ??_C@_08JPJB@accuracy?$AA@
_DATA	SEGMENT
??_C@_08JPJB@accuracy?$AA@ DB 'accuracy', 00H		; `string'
_DATA	ENDS
;	COMDAT ??_C@_09PIJM@precision?$AA@
_DATA	SEGMENT
??_C@_09PIJM@precision?$AA@ DB 'precision', 00H		; `string'
_DATA	ENDS
;	COMDAT ??_C@_0L@FGCJ@perfection?$AA@
_DATA	SEGMENT
??_C@_0L@FGCJ@perfection?$AA@ DB 'perfection', 00H	; `string'
_DATA	ENDS
;	COMDAT ??_C@_08NOGA@the?5fool?$AA@
_DATA	SEGMENT
??_C@_08NOGA@the?5fool?$AA@ DB 'the fool', 00H		; `string'
_DATA	ENDS
;	COMDAT ??_C@_08OHBO@dyslexia?$AA@
_DATA	SEGMENT
??_C@_08OHBO@dyslexia?$AA@ DB 'dyslexia', 00H		; `string'
_DATA	ENDS
;	COMDAT ??_C@_05FKHP@magic?$AA@
_DATA	SEGMENT
??_C@_05FKHP@magic?$AA@ DB 'magic', 00H			; `string'
_DATA	ENDS
;	COMDAT ??_C@_08DFGD@the?5mind?$AA@
_DATA	SEGMENT
??_C@_08DFGD@the?5mind?$AA@ DB 'the mind', 00H		; `string'
_DATA	ENDS
;	COMDAT ??_C@_0L@IKPP@brilliance?$AA@
_DATA	SEGMENT
??_C@_0L@IKPP@brilliance?$AA@ DB 'brilliance', 00H	; `string'
_DATA	ENDS
;	COMDAT ??_C@_07OPMD@sorcery?$AA@
_DATA	SEGMENT
??_C@_07OPMD@sorcery?$AA@ DB 'sorcery', 00H		; `string'
_DATA	ENDS
;	COMDAT ??_C@_08CDF@wizardry?$AA@
_DATA	SEGMENT
??_C@_08CDF@wizardry?$AA@ DB 'wizardry', 00H		; `string'
_DATA	ENDS
;	COMDAT ??_C@_07NPOJ@illness?$AA@
_DATA	SEGMENT
??_C@_07NPOJ@illness?$AA@ DB 'illness', 00H		; `string'
_DATA	ENDS
;	COMDAT ??_C@_07MEBM@disease?$AA@
_DATA	SEGMENT
??_C@_07MEBM@disease?$AA@ DB 'disease', 00H		; `string'
_DATA	ENDS
;	COMDAT ??_C@_08MHIB@vitality?$AA@
_DATA	SEGMENT
??_C@_08MHIB@vitality?$AA@ DB 'vitality', 00H		; `string'
_DATA	ENDS
;	COMDAT ??_C@_04MMEM@zest?$AA@
_DATA	SEGMENT
??_C@_04MMEM@zest?$AA@ DB 'zest', 00H			; `string'
_DATA	ENDS
;	COMDAT ??_C@_03HFDI@vim?$AA@
_DATA	SEGMENT
??_C@_03HFDI@vim?$AA@ DB 'vim', 00H			; `string'
_DATA	ENDS
;	COMDAT ??_C@_05OHOH@vigor?$AA@
_DATA	SEGMENT
??_C@_05OHOH@vigor?$AA@ DB 'vigor', 00H			; `string'
_DATA	ENDS
;	COMDAT ??_C@_04LLCA@life?$AA@
_DATA	SEGMENT
??_C@_04LLCA@life?$AA@ DB 'life', 00H			; `string'
_DATA	ENDS
;	COMDAT ??_C@_07PKPN@trouble?$AA@
_DATA	SEGMENT
??_C@_07PKPN@trouble?$AA@ DB 'trouble', 00H		; `string'
_DATA	ENDS
;	COMDAT ??_C@_07BMMA@the?5pit?$AA@
_DATA	SEGMENT
??_C@_07BMMA@the?5pit?$AA@ DB 'the pit', 00H		; `string'
_DATA	ENDS
;	COMDAT ??_C@_07JDNN@the?5sky?$AA@
_DATA	SEGMENT
??_C@_07JDNN@the?5sky?$AA@ DB 'the sky', 00H		; `string'
_DATA	ENDS
;	COMDAT ??_C@_08MOCI@the?5moon?$AA@
_DATA	SEGMENT
??_C@_08MOCI@the?5moon?$AA@ DB 'the moon', 00H		; `string'
_DATA	ENDS
;	COMDAT ??_C@_09DDFF@the?5stars?$AA@
_DATA	SEGMENT
??_C@_09DDFF@the?5stars?$AA@ DB 'the stars', 00H	; `string'
_DATA	ENDS
;	COMDAT ??_C@_0M@JHLN@the?5heavens?$AA@
_DATA	SEGMENT
??_C@_0M@JHLN@the?5heavens?$AA@ DB 'the heavens', 00H	; `string'
_DATA	ENDS
;	COMDAT ??_C@_0L@NFBJ@the?5zodiac?$AA@
_DATA	SEGMENT
??_C@_0L@NFBJ@the?5zodiac?$AA@ DB 'the zodiac', 00H	; `string'
_DATA	ENDS
;	COMDAT ??_C@_0M@CODE@the?5vulture?$AA@
_DATA	SEGMENT
??_C@_0M@CODE@the?5vulture?$AA@ DB 'the vulture', 00H	; `string'
_DATA	ENDS
;	COMDAT ??_C@_0L@BBCA@the?5jackal?$AA@
_DATA	SEGMENT
??_C@_0L@BBCA@the?5jackal?$AA@ DB 'the jackal', 00H	; `string'
_DATA	ENDS
;	COMDAT ??_C@_07FIMG@the?5fox?$AA@
_DATA	SEGMENT
??_C@_07FIMG@the?5fox?$AA@ DB 'the fox', 00H		; `string'
_DATA	ENDS
;	COMDAT ??_C@_0L@NLHK@the?5jaguar?$AA@
_DATA	SEGMENT
??_C@_0L@NLHK@the?5jaguar?$AA@ DB 'the jaguar', 00H	; `string'
_DATA	ENDS
;	COMDAT ??_C@_09GJD@the?5eagle?$AA@
_DATA	SEGMENT
??_C@_09GJD@the?5eagle?$AA@ DB 'the eagle', 00H		; `string'
_DATA	ENDS
;	COMDAT ??_C@_08JEHK@the?5wolf?$AA@
_DATA	SEGMENT
??_C@_08JEHK@the?5wolf?$AA@ DB 'the wolf', 00H		; `string'
_DATA	ENDS
;	COMDAT ??_C@_09NBBI@the?5tiger?$AA@
_DATA	SEGMENT
??_C@_09NBBI@the?5tiger?$AA@ DB 'the tiger', 00H	; `string'
_DATA	ENDS
;	COMDAT ??_C@_08HAN@the?5lion?$AA@
_DATA	SEGMENT
??_C@_08HAN@the?5lion?$AA@ DB 'the lion', 00H		; `string'
_DATA	ENDS
;	COMDAT ??_C@_0M@EH@the?5mammoth?$AA@
_DATA	SEGMENT
??_C@_0M@EH@the?5mammoth?$AA@ DB 'the mammoth', 00H	; `string'
_DATA	ENDS
;	COMDAT ??_C@_09KHDJ@the?5whale?$AA@
_DATA	SEGMENT
??_C@_09KHDJ@the?5whale?$AA@ DB 'the whale', 00H	; `string'
_DATA	ENDS
;	COMDAT ??_C@_09CAOA@fragility?$AA@
_DATA	SEGMENT
??_C@_09CAOA@fragility?$AA@ DB 'fragility', 00H		; `string'
_DATA	ENDS
;	COMDAT ??_C@_0M@BMJN@brittleness?$AA@
_DATA	SEGMENT
??_C@_0M@BMJN@brittleness?$AA@ DB 'brittleness', 00H	; `string'
_DATA	ENDS
;	COMDAT ??_C@_0L@MKAO@sturdiness?$AA@
_DATA	SEGMENT
??_C@_0L@MKAO@sturdiness?$AA@ DB 'sturdiness', 00H	; `string'
_DATA	ENDS
;	COMDAT ??_C@_0O@NGPJ@craftsmanship?$AA@
_DATA	SEGMENT
??_C@_0O@NGPJ@craftsmanship?$AA@ DB 'craftsmanship', 00H ; `string'
_DATA	ENDS
;	COMDAT ??_C@_09HDHE@structure?$AA@
_DATA	SEGMENT
??_C@_09HDHE@structure?$AA@ DB 'structure', 00H		; `string'
_DATA	ENDS
;	COMDAT ??_C@_08IEEH@the?5ages?$AA@
_DATA	SEGMENT
??_C@_08IEEH@the?5ages?$AA@ DB 'the ages', 00H		; `string'
_DATA	ENDS
;	COMDAT ??_C@_08COBO@the?5dark?$AA@
_DATA	SEGMENT
??_C@_08COBO@the?5dark?$AA@ DB 'the dark', 00H		; `string'
_DATA	ENDS
;	COMDAT ??_C@_09JEAL@the?5night?$AA@
_DATA	SEGMENT
??_C@_09JEAL@the?5night?$AA@ DB 'the night', 00H	; `string'
_DATA	ENDS
;	COMDAT ??_C@_05DKPF@light?$AA@
_DATA	SEGMENT
??_C@_05DKPF@light?$AA@ DB 'light', 00H			; `string'
_DATA	ENDS
;	COMDAT ??_C@_08LADN@radiance?$AA@
_DATA	SEGMENT
??_C@_08LADN@radiance?$AA@ DB 'radiance', 00H		; `string'
_DATA	ENDS
;	COMDAT ??_C@_05GIBP@flame?$AA@
_DATA	SEGMENT
??_C@_05GIBP@flame?$AA@ DB 'flame', 00H			; `string'
_DATA	ENDS
;	COMDAT ??_C@_04OLBH@fire?$AA@
_DATA	SEGMENT
??_C@_04OLBH@fire?$AA@ DB 'fire', 00H			; `string'
_DATA	ENDS
;	COMDAT ??_C@_07DBMH@burning?$AA@
_DATA	SEGMENT
??_C@_07DBMH@burning?$AA@ DB 'burning', 00H		; `string'
_DATA	ENDS
;	COMDAT ??_C@_05MKBB@shock?$AA@
_DATA	SEGMENT
??_C@_05MKBB@shock?$AA@ DB 'shock', 00H			; `string'
_DATA	ENDS
;	COMDAT ??_C@_09JGLK@lightning?$AA@
_DATA	SEGMENT
??_C@_09JGLK@lightning?$AA@ DB 'lightning', 00H		; `string'
_DATA	ENDS
;	COMDAT ??_C@_07MGNA@thunder?$AA@
_DATA	SEGMENT
??_C@_07MGNA@thunder?$AA@ DB 'thunder', 00H		; `string'
_DATA	ENDS
;	COMDAT ??_C@_04OMAH@many?$AA@
_DATA	SEGMENT
??_C@_04OMAH@many?$AA@ DB 'many', 00H			; `string'
_DATA	ENDS
;	COMDAT ??_C@_06BAKF@plenty?$AA@
_DATA	SEGMENT
??_C@_06BAKF@plenty?$AA@ DB 'plenty', 00H		; `string'
_DATA	ENDS
;	COMDAT ??_C@_06KMDP@thorns?$AA@
_DATA	SEGMENT
??_C@_06KMDP@thorns?$AA@ DB 'thorns', 00H		; `string'
_DATA	ENDS
;	COMDAT ??_C@_0L@EHKO@corruption?$AA@
_DATA	SEGMENT
??_C@_0L@EHKO@corruption?$AA@ DB 'corruption', 00H	; `string'
_DATA	ENDS
;	COMDAT ??_C@_07CPIM@thieves?$AA@
_DATA	SEGMENT
??_C@_07CPIM@thieves?$AA@ DB 'thieves', 00H		; `string'
_DATA	ENDS
;	COMDAT ??_C@_08LPKB@the?5bear?$AA@
_DATA	SEGMENT
??_C@_08LPKB@the?5bear?$AA@ DB 'the bear', 00H		; `string'
_DATA	ENDS
;	COMDAT ??_C@_07CMND@the?5bat?$AA@
_DATA	SEGMENT
??_C@_07CMND@the?5bat?$AA@ DB 'the bat', 00H		; `string'
_DATA	ENDS
;	COMDAT ??_C@_08PJJE@vampires?$AA@
_DATA	SEGMENT
??_C@_08PJJE@vampires?$AA@ DB 'vampires', 00H		; `string'
_DATA	ENDS
;	COMDAT ??_C@_09BGIL@the?5leech?$AA@
_DATA	SEGMENT
??_C@_09BGIL@the?5leech?$AA@ DB 'the leech', 00H	; `string'
_DATA	ENDS
;	COMDAT ??_C@_05BDIK@blood?$AA@
_DATA	SEGMENT
??_C@_05BDIK@blood?$AA@ DB 'blood', 00H			; `string'
_DATA	ENDS
;	COMDAT ??_C@_08HKMC@piercing?$AA@
_DATA	SEGMENT
??_C@_08HKMC@piercing?$AA@ DB 'piercing', 00H		; `string'
_DATA	ENDS
;	COMDAT ??_C@_0L@DPAO@puncturing?$AA@
_DATA	SEGMENT
??_C@_0L@DPAO@puncturing?$AA@ DB 'puncturing', 00H	; `string'
_DATA	ENDS
;	COMDAT ??_C@_07ECIM@bashing?$AA@
_DATA	SEGMENT
??_C@_07ECIM@bashing?$AA@ DB 'bashing', 00H		; `string'
_DATA	ENDS
;	COMDAT ??_C@_09DLAK@readiness?$AA@
_DATA	SEGMENT
??_C@_09DLAK@readiness?$AA@ DB 'readiness', 00H		; `string'
_DATA	ENDS
;	COMDAT ??_C@_09JHNE@swiftness?$AA@
_DATA	SEGMENT
??_C@_09JHNE@swiftness?$AA@ DB 'swiftness', 00H		; `string'
_DATA	ENDS
;	COMDAT ??_C@_05PHJK@speed?$AA@
_DATA	SEGMENT
??_C@_05PHJK@speed?$AA@ DB 'speed', 00H			; `string'
_DATA	ENDS
;	COMDAT ??_C@_05HPHA@haste?$AA@
_DATA	SEGMENT
??_C@_05HPHA@haste?$AA@ DB 'haste', 00H			; `string'
_DATA	ENDS
;	COMDAT ??_C@_07DMNA@balance?$AA@
_DATA	SEGMENT
??_C@_07DMNA@balance?$AA@ DB 'balance', 00H		; `string'
_DATA	ENDS
;	COMDAT ??_C@_09LMMN@stability?$AA@
_DATA	SEGMENT
??_C@_09LMMN@stability?$AA@ DB 'stability', 00H		; `string'
_DATA	ENDS
;	COMDAT ??_C@_07JFPI@harmony?$AA@
_DATA	SEGMENT
??_C@_07JFPI@harmony?$AA@ DB 'harmony', 00H		; `string'
_DATA	ENDS
;	COMDAT ??_C@_08PCBE@blocking?$AA@
_DATA	SEGMENT
??_C@_08PCBE@blocking?$AA@ DB 'blocking', 00H		; `string'
_DATA	ENDS
CONST	SEGMENT
_PL_Suffix DD	FLAT:??_C@_07PDKP@quality?$AA@
	DB	03dH
	ORG $+3
	DD	01H
	DD	02H
	DD	02H
	DD	01010H
	DD	00H
	DD	00H
	DD	01H
	DD	064H
	DD	0c8H
	DD	02H
	DD	FLAT:??_C@_07MOG@maiming?$AA@
	DB	03dH
	ORG $+3
	DD	03H
	DD	05H
	DD	07H
	DD	01010H
	DD	00H
	DD	00H
	DD	01H
	DD	0514H
	DD	05dcH
	DD	03H
	DD	FLAT:??_C@_07NJAO@slaying?$AA@
	DB	03dH
	ORG $+3
	DD	06H
	DD	08H
	DD	0fH
	DD	01000H
	DD	00H
	DD	00H
	DD	01H
	DD	0a28H
	DD	0bb8H
	DD	05H
	DD	FLAT:??_C@_04CCDC@gore?$AA@
	DB	03dH
	ORG $+3
	DD	09H
	DD	0cH
	DD	019H
	DD	01000H
	DD	00H
	DD	00H
	DD	01H
	DD	01004H
	DD	01388H
	DD	08H
	DD	FLAT:??_C@_07HFLF@carnage?$AA@
	DB	03dH
	ORG $+3
	DD	0dH
	DD	010H
	DD	023H
	DD	01000H
	DD	00H
	DD	00H
	DD	01H
	DD	013ecH
	DD	02710H
	DD	0aH
	DD	FLAT:??_C@_09OFBO@slaughter?$AA@
	DB	03dH
	ORG $+3
	DD	011H
	DD	014H
	DD	03cH
	DD	01000H
	DD	00H
	DD	00H
	DD	01H
	DD	02774H
	DD	03a98H
	DD	0dH
	DD	FLAT:??_C@_04LOGM@pain?$AA@
	DB	01dH
	ORG $+3
	DD	02H
	DD	04H
	DD	04H
	DD	0110001H
	DD	01H
	DD	00H
	DD	00H
	DD	00H
	DD	00H
	DD	0fffffffcH
	DD	FLAT:??_C@_05MNGI@tears?$AA@
	DB	01dH
	ORG $+3
	DD	01H
	DD	01H
	DD	02H
	DD	0110001H
	DD	01H
	DD	00H
	DD	00H
	DD	00H
	DD	00H
	DD	0fffffffeH
	DD	FLAT:??_C@_06HECL@health?$AA@
	DB	01eH
	ORG $+3
	DD	01H
	DD	01H
	DD	02H
	DD	0110001H
	DD	010H
	DD	00H
	DD	01H
	DD	0c8H
	DD	0c8H
	DD	02H
	DD	FLAT:??_C@_0L@CCCL@protection?$AA@
	DB	01eH
	ORG $+3
	DD	02H
	DD	02H
	DD	06H
	DD	0110000H
	DD	010H
	DD	00H
	DD	01H
	DD	0190H
	DD	0320H
	DD	04H
	DD	FLAT:??_C@_0L@CIHJ@absorption?$AA@
	DB	01eH
	ORG $+3
	DD	03H
	DD	03H
	DD	0cH
	DD	0110000H
	DD	010H
	DD	00H
	DD	01H
	DD	03e9H
	DD	09c4H
	DD	0aH
	DD	FLAT:??_C@_0L@BONB@deflection?$AA@
	DB	01eH
	ORG $+3
	DD	04H
	DD	04H
	DD	014H
	DD	0100000H
	DD	010H
	DD	00H
	DD	01H
	DD	09c4H
	DD	01964H
	DD	0fH
	DD	FLAT:??_C@_07JNDF@osmosis?$AA@
	DB	01eH
	ORG $+3
	DD	05H
	DD	06H
	DD	032H
	DD	0100000H
	DD	010H
	DD	00H
	DD	01H
	DD	01d4cH
	DD	02710H
	DD	014H
	DD	FLAT:??_C@_07JBCL@frailty?$AA@
	DB	014H
	ORG $+3
	DD	06H
	DD	0aH
	DD	03H
	DD	0111011H
	DD	01H
	DD	00H
	DD	00H
	DD	00H
	DD	00H
	DD	0fffffffdH
	DD	FLAT:??_C@_08GLJO@weakness?$AA@
	DB	014H
	ORG $+3
	DD	01H
	DD	05H
	DD	01H
	DD	0111011H
	DD	01H
	DD	00H
	DD	00H
	DD	00H
	DD	00H
	DD	0fffffffeH
	DD	FLAT:??_C@_08GOPF@strength?$AA@
	DB	013H
	ORG $+3
	DD	01H
	DD	05H
	DD	01H
	DD	0111011H
	DD	00H
	DD	00H
	DD	01H
	DD	0c8H
	DD	03e8H
	DD	02H
	DD	FLAT:??_C@_05JKNA@might?$AA@
	DB	013H
	ORG $+3
	DD	06H
	DD	0aH
	DD	05H
	DD	0111011H
	DD	00H
	DD	00H
	DD	01H
	DD	04b0H
	DD	07d0H
	DD	03H
	DD	FLAT:??_C@_05EBLP@power?$AA@
	DB	013H
	ORG $+3
	DD	0bH
	DD	0fH
	DD	0bH
	DD	0111011H
	DD	00H
	DD	00H
	DD	01H
	DD	0898H
	DD	0bb8H
	DD	04H
	DD	FLAT:??_C@_06BGKJ@giants?$AA@
	DB	013H
	ORG $+3
	DD	010H
	DD	014H
	DD	011H
	DD	0101011H
	DD	00H
	DD	00H
	DD	01H
	DD	0c80H
	DD	01388H
	DD	07H
	DD	FLAT:??_C@_06MLAM@titans?$AA@
	DB	013H
	ORG $+3
	DD	015H
	DD	01eH
	DD	017H
	DD	01001H
	DD	00H
	DD	00H
	DD	01H
	DD	01450H
	DD	02710H
	DD	0aH
	DD	FLAT:??_C@_09HGHO@paralysis?$AA@
	DB	018H
	ORG $+3
	DD	06H
	DD	0aH
	DD	03H
	DD	0111011H
	DD	01H
	DD	00H
	DD	00H
	DD	00H
	DD	00H
	DD	0fffffffdH
	DD	FLAT:??_C@_07GEAH@atrophy?$AA@
	DB	018H
	ORG $+3
	DD	01H
	DD	05H
	DD	01H
	DD	0111011H
	DD	01H
	DD	00H
	DD	00H
	DD	00H
	DD	00H
	DD	0fffffffeH
	DD	FLAT:??_C@_09KIDC@dexterity?$AA@
	DB	017H
	ORG $+3
	DD	01H
	DD	05H
	DD	01H
	DD	0111011H
	DD	00H
	DD	00H
	DD	01H
	DD	0c8H
	DD	03e8H
	DD	02H
	DD	FLAT:??_C@_05MIHE@skill?$AA@
	DB	017H
	ORG $+3
	DD	06H
	DD	0aH
	DD	05H
	DD	0111011H
	DD	00H
	DD	00H
	DD	01H
	DD	04b0H
	DD	07d0H
	DD	03H
	DD	FLAT:??_C@_08JPJB@accuracy?$AA@
	DB	017H
	ORG $+3
	DD	0bH
	DD	0fH
	DD	0bH
	DD	0111011H
	DD	00H
	DD	00H
	DD	01H
	DD	0898H
	DD	0bb8H
	DD	04H
	DD	FLAT:??_C@_09PIJM@precision?$AA@
	DB	017H
	ORG $+3
	DD	010H
	DD	014H
	DD	011H
	DD	0101011H
	DD	00H
	DD	00H
	DD	01H
	DD	0c80H
	DD	01388H
	DD	07H
	DD	FLAT:??_C@_0L@FGCJ@perfection?$AA@
	DB	017H
	ORG $+3
	DD	015H
	DD	01eH
	DD	017H
	DD	011H
	DD	00H
	DD	00H
	DD	01H
	DD	01450H
	DD	02710H
	DD	0aH
	DD	FLAT:??_C@_08NOGA@the?5fool?$AA@
	DB	016H
	ORG $+3
	DD	06H
	DD	0aH
	DD	03H
	DD	0111111H
	DD	01H
	DD	00H
	DD	00H
	DD	00H
	DD	00H
	DD	0fffffffdH
	DD	FLAT:??_C@_08OHBO@dyslexia?$AA@
	DB	016H
	ORG $+3
	DD	01H
	DD	05H
	DD	01H
	DD	0111111H
	DD	01H
	DD	00H
	DD	00H
	DD	00H
	DD	00H
	DD	0fffffffeH
	DD	FLAT:??_C@_05FKHP@magic?$AA@
	DB	015H
	ORG $+3
	DD	01H
	DD	05H
	DD	01H
	DD	0111111H
	DD	00H
	DD	00H
	DD	01H
	DD	0c8H
	DD	03e8H
	DD	02H
	DD	FLAT:??_C@_08DFGD@the?5mind?$AA@
	DB	015H
	ORG $+3
	DD	06H
	DD	0aH
	DD	05H
	DD	0111111H
	DD	00H
	DD	00H
	DD	01H
	DD	04b0H
	DD	07d0H
	DD	03H
	DD	FLAT:??_C@_0L@IKPP@brilliance?$AA@
	DB	015H
	ORG $+3
	DD	0bH
	DD	0fH
	DD	0bH
	DD	0111111H
	DD	00H
	DD	00H
	DD	01H
	DD	0898H
	DD	0bb8H
	DD	04H
	DD	FLAT:??_C@_07OPMD@sorcery?$AA@
	DB	015H
	ORG $+3
	DD	010H
	DD	014H
	DD	011H
	DD	0101111H
	DD	00H
	DD	00H
	DD	01H
	DD	0c80H
	DD	01388H
	DD	07H
	DD	FLAT:??_C@_08CDF@wizardry?$AA@
	DB	015H
	ORG $+3
	DD	015H
	DD	01eH
	DD	017H
	DD	0101H
	DD	00H
	DD	00H
	DD	01H
	DD	01450H
	DD	02710H
	DD	0aH
	DD	FLAT:??_C@_07NPOJ@illness?$AA@
	DB	01aH
	ORG $+3
	DD	06H
	DD	0aH
	DD	03H
	DD	0111011H
	DD	01H
	DD	00H
	DD	00H
	DD	00H
	DD	00H
	DD	0fffffffdH
	DD	FLAT:??_C@_07MEBM@disease?$AA@
	DB	01aH
	ORG $+3
	DD	01H
	DD	05H
	DD	01H
	DD	0111011H
	DD	01H
	DD	00H
	DD	00H
	DD	00H
	DD	00H
	DD	0fffffffeH
	DD	FLAT:??_C@_08MHIB@vitality?$AA@
	DB	019H
	ORG $+3
	DD	01H
	DD	05H
	DD	01H
	DD	0111011H
	DD	010H
	DD	00H
	DD	01H
	DD	0c8H
	DD	03e8H
	DD	02H
	DD	FLAT:??_C@_04MMEM@zest?$AA@
	DB	019H
	ORG $+3
	DD	06H
	DD	0aH
	DD	05H
	DD	0111011H
	DD	010H
	DD	00H
	DD	01H
	DD	04b0H
	DD	07d0H
	DD	03H
	DD	FLAT:??_C@_03HFDI@vim?$AA@
	DB	019H
	ORG $+3
	DD	0bH
	DD	0fH
	DD	0bH
	DD	0111011H
	DD	010H
	DD	00H
	DD	01H
	DD	0898H
	DD	0bb8H
	DD	04H
	DD	FLAT:??_C@_05OHOH@vigor?$AA@
	DB	019H
	ORG $+3
	DD	010H
	DD	014H
	DD	011H
	DD	0101011H
	DD	010H
	DD	00H
	DD	01H
	DD	0c80H
	DD	01388H
	DD	07H
	DD	FLAT:??_C@_04LLCA@life?$AA@
	DB	019H
	ORG $+3
	DD	015H
	DD	01eH
	DD	017H
	DD	01H
	DD	010H
	DD	00H
	DD	01H
	DD	01450H
	DD	02710H
	DD	0aH
	DD	FLAT:??_C@_07PKPN@trouble?$AA@
	DB	01cH
	ORG $+3
	DD	06H
	DD	0aH
	DD	0cH
	DD	0111011H
	DD	01H
	DD	00H
	DD	00H
	DD	00H
	DD	00H
	DD	0fffffff6H
	DD	FLAT:??_C@_07BMMA@the?5pit?$AA@
	DB	01cH
	ORG $+3
	DD	01H
	DD	05H
	DD	05H
	DD	0111011H
	DD	01H
	DD	00H
	DD	00H
	DD	00H
	DD	00H
	DD	0fffffffbH
	DD	FLAT:??_C@_07JDNN@the?5sky?$AA@
	DB	01bH
	ORG $+3
	DD	01H
	DD	03H
	DD	05H
	DD	0111011H
	DD	00H
	DD	00H
	DD	01H
	DD	0320H
	DD	0fa0H
	DD	05H
	DD	FLAT:??_C@_08MOCI@the?5moon?$AA@
	DB	01bH
	ORG $+3
	DD	04H
	DD	07H
	DD	0bH
	DD	0111011H
	DD	00H
	DD	00H
	DD	01H
	DD	012c0H
	DD	01f40H
	DD	0aH
	DD	FLAT:??_C@_09DDFF@the?5stars?$AA@
	DB	01bH
	ORG $+3
	DD	08H
	DD	0bH
	DD	011H
	DD	0101011H
	DD	00H
	DD	00H
	DD	01H
	DD	02260H
	DD	02ee0H
	DD	0fH
	DD	FLAT:??_C@_0M@JHLN@the?5heavens?$AA@
	DB	01bH
	ORG $+3
	DD	0cH
	DD	0fH
	DD	019H
	DD	01011H
	DD	00H
	DD	00H
	DD	01H
	DD	03200H
	DD	04e20H
	DD	014H
	DD	FLAT:??_C@_0L@NFBJ@the?5zodiac?$AA@
	DB	01bH
	ORG $+3
	DD	010H
	DD	014H
	DD	01eH
	DD	01H
	DD	00H
	DD	00H
	DD	01H
	DD	05140H
	DD	09c40H
	DD	01eH
	DD	FLAT:??_C@_0M@CODE@the?5vulture?$AA@
	DB	020H
	ORG $+3
	DD	0bH
	DD	019H
	DD	04H
	DD	0110001H
	DD	01H
	DD	00H
	DD	00H
	DD	00H
	DD	00H
	DD	0fffffffcH
	DD	FLAT:??_C@_0L@BBCA@the?5jackal?$AA@
	DB	020H
	ORG $+3
	DD	01H
	DD	0aH
	DD	01H
	DD	0110001H
	DD	01H
	DD	00H
	DD	00H
	DD	00H
	DD	00H
	DD	0fffffffeH
	DD	FLAT:??_C@_07FIMG@the?5fox?$AA@
	DB	01fH
	ORG $+3
	DD	0aH
	DD	0fH
	DD	01H
	DD	0110001H
	DD	00H
	DD	00H
	DD	01H
	DD	064H
	DD	03e8H
	DD	02H
	DD	FLAT:??_C@_0L@NLHK@the?5jaguar?$AA@
	DB	01fH
	ORG $+3
	DD	010H
	DD	014H
	DD	05H
	DD	0110001H
	DD	00H
	DD	00H
	DD	01H
	DD	044cH
	DD	07d0H
	DD	03H
	DD	FLAT:??_C@_09GJD@the?5eagle?$AA@
	DB	01fH
	ORG $+3
	DD	015H
	DD	01eH
	DD	09H
	DD	0110001H
	DD	00H
	DD	00H
	DD	01H
	DD	0834H
	DD	0fa0H
	DD	05H
	DD	FLAT:??_C@_08JEHK@the?5wolf?$AA@
	DB	01fH
	ORG $+3
	DD	01eH
	DD	028H
	DD	0fH
	DD	0110001H
	DD	00H
	DD	00H
	DD	01H
	DD	01004H
	DD	01770H
	DD	07H
	DD	FLAT:??_C@_09NBBI@the?5tiger?$AA@
	DB	01fH
	ORG $+3
	DD	029H
	DD	032H
	DD	015H
	DD	0110001H
	DD	00H
	DD	00H
	DD	01H
	DD	017d4H
	DD	02710H
	DD	09H
	DD	FLAT:??_C@_08HAN@the?5lion?$AA@
	DB	01fH
	ORG $+3
	DD	033H
	DD	03cH
	DD	01bH
	DD	0100001H
	DD	00H
	DD	00H
	DD	01H
	DD	02774H
	DD	03a98H
	DD	0bH
	DD	FLAT:??_C@_0M@EH@the?5mammoth?$AA@
	DB	01fH
	ORG $+3
	DD	03dH
	DD	050H
	DD	023H
	DD	0100000H
	DD	00H
	DD	00H
	DD	01H
	DD	03afcH
	DD	04a38H
	DD	0cH
	DD	FLAT:??_C@_09KHDJ@the?5whale?$AA@
	DB	01fH
	ORG $+3
	DD	051H
	DD	064H
	DD	03cH
	DD	0100000H
	DD	00H
	DD	00H
	DD	01H
	DD	04a9cH
	DD	07530H
	DD	0dH
	DD	FLAT:??_C@_09CAOA@fragility?$AA@
	DB	024H
	ORG $+3
	DD	064H
	DD	064H
	DD	03H
	DD	0111000H
	DD	01H
	DD	00H
	DD	00H
	DD	00H
	DD	00H
	DD	0fffffffcH
	DD	FLAT:??_C@_0M@BMJN@brittleness?$AA@
	DB	024H
	ORG $+3
	DD	01aH
	DD	04bH
	DD	01H
	DD	0111000H
	DD	01H
	DD	00H
	DD	00H
	DD	00H
	DD	00H
	DD	0fffffffeH
	DD	FLAT:??_C@_0L@MKAO@sturdiness?$AA@
	DB	023H
	ORG $+3
	DD	01aH
	DD	04bH
	DD	01H
	DD	0111000H
	DD	00H
	DD	00H
	DD	01H
	DD	064H
	DD	064H
	DD	02H
	DD	FLAT:??_C@_0O@NGPJ@craftsmanship?$AA@
	DB	023H
	ORG $+3
	DD	033H
	DD	064H
	DD	06H
	DD	0111000H
	DD	00H
	DD	00H
	DD	01H
	DD	0c8H
	DD	0c8H
	DD	02H
	DD	FLAT:??_C@_09HDHE@structure?$AA@
	DB	023H
	ORG $+3
	DD	065H
	DD	0c8H
	DD	0cH
	DD	0111000H
	DD	00H
	DD	00H
	DD	01H
	DD	012cH
	DD	012cH
	DD	02H
	DD	FLAT:??_C@_08IEEH@the?5ages?$AA@
	DB	025H
	ORG $+3
	DD	00H
	DD	00H
	DD	019H
	DD	0111000H
	DD	00H
	DD	00H
	DD	01H
	DD	0258H
	DD	0258H
	DD	05H
	DD	FLAT:??_C@_08COBO@the?5dark?$AA@
	DB	027H
	ORG $+3
	DD	04H
	DD	04H
	DD	06H
	DD	0101001H
	DD	01H
	DD	00H
	DD	00H
	DD	00H
	DD	00H
	DD	0fffffffdH
	DD	FLAT:??_C@_09JEAL@the?5night?$AA@
	DB	027H
	ORG $+3
	DD	02H
	DD	02H
	DD	03H
	DD	0101001H
	DD	01H
	DD	00H
	DD	00H
	DD	00H
	DD	00H
	DD	0fffffffeH
	DD	FLAT:??_C@_05DKPF@light?$AA@
	DB	026H
	ORG $+3
	DD	02H
	DD	02H
	DD	04H
	DD	0101001H
	DD	010H
	DD	00H
	DD	01H
	DD	02eeH
	DD	02eeH
	DD	02H
	DD	FLAT:??_C@_08LADN@radiance?$AA@
	DB	026H
	ORG $+3
	DD	04H
	DD	04H
	DD	08H
	DD	0101001H
	DD	010H
	DD	00H
	DD	01H
	DD	05dcH
	DD	05dcH
	DD	03H
	DD	FLAT:??_C@_05GIBP@flame?$AA@
	DB	02aH
	ORG $+3
	DD	01H
	DD	03H
	DD	01H
	DD	010H
	DD	00H
	DD	00H
	DD	01H
	DD	07d0H
	DD	07d0H
	DD	02H
	DD	FLAT:??_C@_04OLBH@fire?$AA@
	DB	02aH
	ORG $+3
	DD	01H
	DD	06H
	DD	0bH
	DD	010H
	DD	00H
	DD	00H
	DD	01H
	DD	0fa0H
	DD	0fa0H
	DD	04H
	DD	FLAT:??_C@_07DBMH@burning?$AA@
	DB	02aH
	ORG $+3
	DD	01H
	DD	010H
	DD	023H
	DD	010H
	DD	00H
	DD	00H
	DD	01H
	DD	01770H
	DD	01770H
	DD	06H
	DD	FLAT:??_C@_05MKBB@shock?$AA@
	DB	02bH
	ORG $+3
	DD	01H
	DD	06H
	DD	0dH
	DD	010H
	DD	00H
	DD	00H
	DD	01H
	DD	01770H
	DD	01770H
	DD	02H
	DD	FLAT:??_C@_09JGLK@lightning?$AA@
	DB	02bH
	ORG $+3
	DD	01H
	DD	0aH
	DD	015H
	DD	010H
	DD	00H
	DD	00H
	DD	01H
	DD	01f40H
	DD	01f40H
	DD	04H
	DD	FLAT:??_C@_07MGNA@thunder?$AA@
	DB	02bH
	ORG $+3
	DD	01H
	DD	014H
	DD	03cH
	DD	010H
	DD	00H
	DD	00H
	DD	01H
	DD	02ee0H
	DD	02ee0H
	DD	06H
	DD	FLAT:??_C@_04OMAH@many?$AA@
	DB	023H
	ORG $+3
	DD	064H
	DD	064H
	DD	03H
	DD	010H
	DD	00H
	DD	00H
	DD	01H
	DD	02eeH
	DD	02eeH
	DD	02H
	DD	FLAT:??_C@_06BAKF@plenty?$AA@
	DB	023H
	ORG $+3
	DD	0c8H
	DD	0c8H
	DD	07H
	DD	010H
	DD	00H
	DD	00H
	DD	01H
	DD	05dcH
	DD	05dcH
	DD	03H
	DD	FLAT:??_C@_06KMDP@thorns?$AA@
	DB	02dH
	ORG $+3
	DD	01H
	DD	03H
	DD	01H
	DD	0110000H
	DD	00H
	DD	00H
	DD	01H
	DD	01f4H
	DD	01f4H
	DD	02H
	DD	FLAT:??_C@_0L@EHKO@corruption?$AA@
	DB	02eH
	ORG $+3
	DD	00H
	DD	00H
	DD	05H
	DD	0111000H
	DD	01H
	DD	00H
	DD	00H
	DD	0fffffc18H
	DD	0fffffc18H
	DD	02H
	DD	FLAT:??_C@_07CPIM@thieves?$AA@
	DB	034H
	ORG $+3
	DD	00H
	DD	00H
	DD	0bH
	DD	0110001H
	DD	00H
	DD	00H
	DD	01H
	DD	05dcH
	DD	05dcH
	DD	02H
	DD	FLAT:??_C@_08LPKB@the?5bear?$AA@
	DB	035H
	ORG $+3
	DD	00H
	DD	00H
	DD	05H
	DD	01110H
	DD	01H
	DD	00H
	DD	01H
	DD	02eeH
	DD	02eeH
	DD	02H
	DD	FLAT:??_C@_07CMND@the?5bat?$AA@
	DB	037H
	ORG $+3
	DD	03H
	DD	03H
	DD	08H
	DD	01000H
	DD	00H
	DD	00H
	DD	01H
	DD	01d4cH
	DD	01d4cH
	DD	03H
	DD	FLAT:??_C@_08PJJE@vampires?$AA@
	DB	037H
	ORG $+3
	DD	05H
	DD	05H
	DD	013H
	DD	01000H
	DD	00H
	DD	00H
	DD	01H
	DD	03a98H
	DD	03a98H
	DD	03H
	DD	FLAT:??_C@_09BGIL@the?5leech?$AA@
	DB	038H
	ORG $+3
	DD	03H
	DD	03H
	DD	08H
	DD	01000H
	DD	00H
	DD	00H
	DD	01H
	DD	01d4cH
	DD	01d4cH
	DD	03H
	DD	FLAT:??_C@_05BDIK@blood?$AA@
	DB	038H
	ORG $+3
	DD	05H
	DD	05H
	DD	013H
	DD	01000H
	DD	00H
	DD	00H
	DD	01H
	DD	03a98H
	DD	03a98H
	DD	03H
	DD	FLAT:??_C@_08HKMC@piercing?$AA@
	DB	039H
	ORG $+3
	DD	02H
	DD	06H
	DD	01H
	DD	01010H
	DD	00H
	DD	00H
	DD	01H
	DD	03e8H
	DD	03e8H
	DD	03H
	DD	FLAT:??_C@_0L@DPAO@puncturing?$AA@
	DB	039H
	ORG $+3
	DD	04H
	DD	0cH
	DD	09H
	DD	01010H
	DD	00H
	DD	00H
	DD	01H
	DD	07d0H
	DD	07d0H
	DD	06H
	DD	FLAT:??_C@_07ECIM@bashing?$AA@
	DB	039H
	ORG $+3
	DD	08H
	DD	018H
	DD	011H
	DD	01000H
	DD	00H
	DD	00H
	DD	01H
	DD	0fa0H
	DD	0fa0H
	DD	0cH
	DD	FLAT:??_C@_09DLAK@readiness?$AA@
	DB	03aH
	ORG $+3
	DD	01H
	DD	01H
	DD	01H
	DD	01110H
	DD	00H
	DD	00H
	DD	01H
	DD	07d0H
	DD	07d0H
	DD	02H
	DD	FLAT:??_C@_09JHNE@swiftness?$AA@
	DB	03aH
	ORG $+3
	DD	02H
	DD	02H
	DD	0aH
	DD	01110H
	DD	00H
	DD	00H
	DD	01H
	DD	0fa0H
	DD	0fa0H
	DD	04H
	DD	FLAT:??_C@_05PHJK@speed?$AA@
	DB	03aH
	ORG $+3
	DD	03H
	DD	03H
	DD	013H
	DD	01100H
	DD	00H
	DD	00H
	DD	01H
	DD	01f40H
	DD	01f40H
	DD	08H
	DD	FLAT:??_C@_05HPHA@haste?$AA@
	DB	03aH
	ORG $+3
	DD	04H
	DD	04H
	DD	01bH
	DD	01100H
	DD	00H
	DD	00H
	DD	01H
	DD	03e80H
	DD	03e80H
	DD	010H
	DD	FLAT:??_C@_07DMNA@balance?$AA@
	DB	03bH
	ORG $+3
	DD	01H
	DD	01H
	DD	01H
	DD	0100001H
	DD	00H
	DD	00H
	DD	01H
	DD	07d0H
	DD	07d0H
	DD	02H
	DD	FLAT:??_C@_09LMMN@stability?$AA@
	DB	03bH
	ORG $+3
	DD	02H
	DD	02H
	DD	0aH
	DD	0100001H
	DD	00H
	DD	00H
	DD	01H
	DD	0fa0H
	DD	0fa0H
	DD	04H
	DD	FLAT:??_C@_07JFPI@harmony?$AA@
	DB	03bH
	ORG $+3
	DD	03H
	DD	03H
	DD	014H
	DD	0100001H
	DD	00H
	DD	00H
	DD	01H
	DD	01f40H
	DD	01f40H
	DD	08H
	DD	FLAT:??_C@_08PCBE@blocking?$AA@
	DB	03cH
	ORG $+3
	DD	01H
	DD	01H
	DD	05H
	DD	010000H
	DD	00H
	DD	00H
	DD	01H
	DD	0fa0H
	DD	0fa0H
	DD	04H
	DD	FLAT:??_C@_00A@?$AA@
	DB	0ffH
	ORG $+3
	DD	00H
	DD	00H
	DD	00H
	DD	00H
	DD	00H
	DD	00H
	DD	00H
	DD	00H
	DD	00H
	DD	00H
CONST	ENDS
;	COMDAT ??_C@_0BG@LEFE@The?5Butcher?8s?5Cleaver?$AA@
_DATA	SEGMENT
??_C@_0BG@LEFE@The?5Butcher?8s?5Cleaver?$AA@ DB 'The Butcher''s Cleaver', 00H ; `string'
_DATA	ENDS
;	COMDAT ??_C@_0BB@GGAG@The?5Undead?5Crown?$AA@
_DATA	SEGMENT
??_C@_0BB@GGAG@The?5Undead?5Crown?$AA@ DB 'The Undead Crown', 00H ; `string'
_DATA	ENDS
;	COMDAT ??_C@_0O@EFCF@Empyrean?5Band?$AA@
_DATA	SEGMENT
??_C@_0O@EFCF@Empyrean?5Band?$AA@ DB 'Empyrean Band', 00H ; `string'
_DATA	ENDS
;	COMDAT ??_C@_0N@JIIN@Optic?5Amulet?$AA@
_DATA	SEGMENT
??_C@_0N@JIIN@Optic?5Amulet?$AA@ DB 'Optic Amulet', 00H	; `string'
_DATA	ENDS
;	COMDAT ??_C@_0O@PEHI@Ring?5of?5Truth?$AA@
_DATA	SEGMENT
??_C@_0O@PEHI@Ring?5of?5Truth?$AA@ DB 'Ring of Truth', 00H ; `string'
_DATA	ENDS
;	COMDAT ??_C@_0BA@HLFM@Harlequin?5Crest?$AA@
_DATA	SEGMENT
??_C@_0BA@HLFM@Harlequin?5Crest?$AA@ DB 'Harlequin Crest', 00H ; `string'
_DATA	ENDS
;	COMDAT ??_C@_0O@FKOJ@Veil?5of?5Steel?$AA@
_DATA	SEGMENT
??_C@_0O@FKOJ@Veil?5of?5Steel?$AA@ DB 'Veil of Steel', 00H ; `string'
_DATA	ENDS
;	COMDAT ??_C@_0BA@JENP@Arkaine?8s?5Valor?$AA@
_DATA	SEGMENT
??_C@_0BA@JENP@Arkaine?8s?5Valor?$AA@ DB 'Arkaine''s Valor', 00H ; `string'
_DATA	ENDS
;	COMDAT ??_C@_0BA@OAIC@Griswold?8s?5Edge?$AA@
_DATA	SEGMENT
??_C@_0BA@OAIC@Griswold?8s?5Edge?$AA@ DB 'Griswold''s Edge', 00H ; `string'
_DATA	ENDS
;	COMDAT ??_C@_0L@NHHH@Lightforge?$AA@
_DATA	SEGMENT
??_C@_0L@NHHH@Lightforge?$AA@ DB 'Lightforge', 00H	; `string'
_DATA	ENDS
;	COMDAT ??_C@_0N@HFEC@The?5Rift?5Bow?$AA@
_DATA	SEGMENT
??_C@_0N@HFEC@The?5Rift?5Bow?$AA@ DB 'The Rift Bow', 00H ; `string'
_DATA	ENDS
;	COMDAT ??_C@_0M@IKAD@The?5Needler?$AA@
_DATA	SEGMENT
??_C@_0M@IKAD@The?5Needler?$AA@ DB 'The Needler', 00H	; `string'
_DATA	ENDS
;	COMDAT ??_C@_0BC@DFMJ@The?5Celestial?5Bow?$AA@
_DATA	SEGMENT
??_C@_0BC@DFMJ@The?5Celestial?5Bow?$AA@ DB 'The Celestial Bow', 00H ; `string'
_DATA	ENDS
;	COMDAT ??_C@_0O@MMFL@Deadly?5Hunter?$AA@
_DATA	SEGMENT
??_C@_0O@MMFL@Deadly?5Hunter?$AA@ DB 'Deadly Hunter', 00H ; `string'
_DATA	ENDS
;	COMDAT ??_C@_0BA@PFNB@Bow?5of?5the?5Dead?$AA@
_DATA	SEGMENT
??_C@_0BA@PFNB@Bow?5of?5the?5Dead?$AA@ DB 'Bow of the Dead', 00H ; `string'
_DATA	ENDS
;	COMDAT ??_C@_0BB@HEMC@The?5Blackoak?5Bow?$AA@
_DATA	SEGMENT
??_C@_0BB@HEMC@The?5Blackoak?5Bow?$AA@ DB 'The Blackoak Bow', 00H ; `string'
_DATA	ENDS
;	COMDAT ??_C@_09IEMI@Flamedart?$AA@
_DATA	SEGMENT
??_C@_09IEMI@Flamedart?$AA@ DB 'Flamedart', 00H		; `string'
_DATA	ENDS
;	COMDAT ??_C@_0N@IPLI@Fleshstinger?$AA@
_DATA	SEGMENT
??_C@_0N@IPLI@Fleshstinger?$AA@ DB 'Fleshstinger', 00H	; `string'
_DATA	ENDS
;	COMDAT ??_C@_09ICMO@Windforce?$AA@
_DATA	SEGMENT
??_C@_09ICMO@Windforce?$AA@ DB 'Windforce', 00H		; `string'
_DATA	ENDS
;	COMDAT ??_C@_09PCNB@Eaglehorn?$AA@
_DATA	SEGMENT
??_C@_09PCNB@Eaglehorn?$AA@ DB 'Eaglehorn', 00H		; `string'
_DATA	ENDS
;	COMDAT ??_C@_0BA@ION@Gonnagal?8s?5Dirk?$AA@
_DATA	SEGMENT
??_C@_0BA@ION@Gonnagal?8s?5Dirk?$AA@ DB 'Gonnagal''s Dirk', 00H ; `string'
_DATA	ENDS
;	COMDAT ??_C@_0N@LMFG@The?5Defender?$AA@
_DATA	SEGMENT
??_C@_0N@LMFG@The?5Defender?$AA@ DB 'The Defender', 00H	; `string'
_DATA	ENDS
;	COMDAT ??_C@_0O@NPMJ@Gryphons?5Claw?$AA@
_DATA	SEGMENT
??_C@_0O@NPMJ@Gryphons?5Claw?$AA@ DB 'Gryphons Claw', 00H ; `string'
_DATA	ENDS
;	COMDAT ??_C@_0M@NGHN@Black?5Razor?$AA@
_DATA	SEGMENT
??_C@_0M@NGHN@Black?5Razor?$AA@ DB 'Black Razor', 00H	; `string'
_DATA	ENDS
;	COMDAT ??_C@_0N@COHM@Gibbous?5Moon?$AA@
_DATA	SEGMENT
??_C@_0N@COHM@Gibbous?5Moon?$AA@ DB 'Gibbous Moon', 00H	; `string'
_DATA	ENDS
;	COMDAT ??_C@_09IIDA@Ice?5Shank?$AA@
_DATA	SEGMENT
??_C@_09IIDA@Ice?5Shank?$AA@ DB 'Ice Shank', 00H	; `string'
_DATA	ENDS
;	COMDAT ??_C@_0BI@JCLM@The?5Executioner?8s?5Blade?$AA@
_DATA	SEGMENT
??_C@_0BI@JCLM@The?5Executioner?8s?5Blade?$AA@ DB 'The Executioner''s Bla'
	DB	'de', 00H					; `string'
_DATA	ENDS
;	COMDAT ??_C@_0M@FDHB@The?5Bonesaw?$AA@
_DATA	SEGMENT
??_C@_0M@FDHB@The?5Bonesaw?$AA@ DB 'The Bonesaw', 00H	; `string'
_DATA	ENDS
;	COMDAT ??_C@_0L@EBEF@Shadowhawk?$AA@
_DATA	SEGMENT
??_C@_0L@EBEF@Shadowhawk?$AA@ DB 'Shadowhawk', 00H	; `string'
_DATA	ENDS
;	COMDAT ??_C@_0M@EGMF@Wizardspike?$AA@
_DATA	SEGMENT
??_C@_0M@EGMF@Wizardspike?$AA@ DB 'Wizardspike', 00H	; `string'
_DATA	ENDS
;	COMDAT ??_C@_0L@HCN@Lightsabre?$AA@
_DATA	SEGMENT
??_C@_0L@HCN@Lightsabre?$AA@ DB 'Lightsabre', 00H	; `string'
_DATA	ENDS
;	COMDAT ??_C@_0BD@EDLD@The?5Falcon?8s?5Talon?$AA@
_DATA	SEGMENT
??_C@_0BD@EDLD@The?5Falcon?8s?5Talon?$AA@ DB 'The Falcon''s Talon', 00H ; `string'
_DATA	ENDS
;	COMDAT ??_C@_07HJHJ@Inferno?$AA@
_DATA	SEGMENT
??_C@_07HJHJ@Inferno?$AA@ DB 'Inferno', 00H		; `string'
_DATA	ENDS
;	COMDAT ??_C@_0M@BAAM@Doombringer?$AA@
_DATA	SEGMENT
??_C@_0M@BAAM@Doombringer?$AA@ DB 'Doombringer', 00H	; `string'
_DATA	ENDS
;	COMDAT ??_C@_0M@IGFJ@The?5Grizzly?$AA@
_DATA	SEGMENT
??_C@_0M@IGFJ@The?5Grizzly?$AA@ DB 'The Grizzly', 00H	; `string'
_DATA	ENDS
;	COMDAT ??_C@_0BA@OANG@The?5Grandfather?$AA@
_DATA	SEGMENT
??_C@_0BA@OANG@The?5Grandfather?$AA@ DB 'The Grandfather', 00H ; `string'
_DATA	ENDS
;	COMDAT ??_C@_0M@CBIO@The?5Mangler?$AA@
_DATA	SEGMENT
??_C@_0M@CBIO@The?5Mangler?$AA@ DB 'The Mangler', 00H	; `string'
_DATA	ENDS
;	COMDAT ??_C@_0L@KEIA@Sharp?5Beak?$AA@
_DATA	SEGMENT
??_C@_0L@KEIA@Sharp?5Beak?$AA@ DB 'Sharp Beak', 00H	; `string'
_DATA	ENDS
;	COMDAT ??_C@_0M@ENI@BloodSlayer?$AA@
_DATA	SEGMENT
??_C@_0M@ENI@BloodSlayer?$AA@ DB 'BloodSlayer', 00H	; `string'
_DATA	ENDS
;	COMDAT ??_C@_0BC@DEFA@The?5Celestial?5Axe?$AA@
_DATA	SEGMENT
??_C@_0BC@DEFA@The?5Celestial?5Axe?$AA@ DB 'The Celestial Axe', 00H ; `string'
_DATA	ENDS
;	COMDAT ??_C@_0L@LGGM@Wicked?5Axe?$AA@
_DATA	SEGMENT
??_C@_0L@LGGM@Wicked?5Axe?$AA@ DB 'Wicked Axe', 00H	; `string'
_DATA	ENDS
;	COMDAT ??_C@_0N@POLL@Stonecleaver?$AA@
_DATA	SEGMENT
??_C@_0N@POLL@Stonecleaver?$AA@ DB 'Stonecleaver', 00H	; `string'
_DATA	ENDS
;	COMDAT ??_C@_0BD@CMJN@Aguinara?8s?5Hatchet?$AA@
_DATA	SEGMENT
??_C@_0BD@CMJN@Aguinara?8s?5Hatchet?$AA@ DB 'Aguinara''s Hatchet', 00H ; `string'
_DATA	ENDS
;	COMDAT ??_C@_0L@DLHM@Hellslayer?$AA@
_DATA	SEGMENT
??_C@_0L@DLHM@Hellslayer?$AA@ DB 'Hellslayer', 00H	; `string'
_DATA	ENDS
;	COMDAT ??_C@_0BH@CIE@Messerschmidt?8s?5Reaver?$AA@
_DATA	SEGMENT
??_C@_0BH@CIE@Messerschmidt?8s?5Reaver?$AA@ DB 'Messerschmidt''s Reaver', 00H ; `string'
_DATA	ENDS
;	COMDAT ??_C@_09NILJ@Crackrust?$AA@
_DATA	SEGMENT
??_C@_09NILJ@Crackrust?$AA@ DB 'Crackrust', 00H		; `string'
_DATA	ENDS
;	COMDAT ??_C@_0BA@FNJO@Hammer?5of?5Jholm?$AA@
_DATA	SEGMENT
??_C@_0BA@FNJO@Hammer?5of?5Jholm?$AA@ DB 'Hammer of Jholm', 00H ; `string'
_DATA	ENDS
;	COMDAT ??_C@_0BA@NP@Civerb?8s?5Cudgel?$AA@
_DATA	SEGMENT
??_C@_0BA@NP@Civerb?8s?5Cudgel?$AA@ DB 'Civerb''s Cudgel', 00H ; `string'
_DATA	ENDS
;	COMDAT ??_C@_0BD@JEIK@The?5Celestial?5Star?$AA@
_DATA	SEGMENT
??_C@_0BD@JEIK@The?5Celestial?5Star?$AA@ DB 'The Celestial Star', 00H ; `string'
_DATA	ENDS
;	COMDAT ??_C@_0P@HPLN@Baranar?8s?5Star?$AA@
_DATA	SEGMENT
??_C@_0P@HPLN@Baranar?8s?5Star?$AA@ DB 'Baranar''s Star', 00H ; `string'
_DATA	ENDS
;	COMDAT ??_C@_0N@KBLF@Gnarled?5Root?$AA@
_DATA	SEGMENT
??_C@_0N@KBLF@Gnarled?5Root?$AA@ DB 'Gnarled Root', 00H	; `string'
_DATA	ENDS
;	COMDAT ??_C@_0BD@NKML@The?5Cranium?5Basher?$AA@
_DATA	SEGMENT
??_C@_0BD@NKML@The?5Cranium?5Basher?$AA@ DB 'The Cranium Basher', 00H ; `string'
_DATA	ENDS
;	COMDAT ??_C@_0BC@ECOI@Schaefer?8s?5Hammer?$AA@
_DATA	SEGMENT
??_C@_0BC@ECOI@Schaefer?8s?5Hammer?$AA@ DB 'Schaefer''s Hammer', 00H ; `string'
_DATA	ENDS
;	COMDAT ??_C@_0M@IHNE@Dreamflange?$AA@
_DATA	SEGMENT
??_C@_0M@IHNE@Dreamflange?$AA@ DB 'Dreamflange', 00H	; `string'
_DATA	ENDS
;	COMDAT ??_C@_0BB@DJNB@Staff?5of?5Shadows?$AA@
_DATA	SEGMENT
??_C@_0BB@DJNB@Staff?5of?5Shadows?$AA@ DB 'Staff of Shadows', 00H ; `string'
_DATA	ENDS
;	COMDAT ??_C@_09DCFI@Immolator?$AA@
_DATA	SEGMENT
??_C@_09DCFI@Immolator?$AA@ DB 'Immolator', 00H		; `string'
_DATA	ENDS
;	COMDAT ??_C@_0M@MMBM@Storm?5Spire?$AA@
_DATA	SEGMENT
??_C@_0M@MMBM@Storm?5Spire?$AA@ DB 'Storm Spire', 00H	; `string'
_DATA	ENDS
;	COMDAT ??_C@_09GLO@Gleamsong?$AA@
_DATA	SEGMENT
??_C@_09GLO@Gleamsong?$AA@ DB 'Gleamsong', 00H		; `string'
_DATA	ENDS
;	COMDAT ??_C@_0M@BMCJ@Thundercall?$AA@
_DATA	SEGMENT
??_C@_0M@BMCJ@Thundercall?$AA@ DB 'Thundercall', 00H	; `string'
_DATA	ENDS
;	COMDAT ??_C@_0O@OIKA@The?5Protector?$AA@
_DATA	SEGMENT
??_C@_0O@OIKA@The?5Protector?$AA@ DB 'The Protector', 00H ; `string'
_DATA	ENDS
;	COMDAT ??_C@_0O@KOJF@Naj?8s?5Puzzler?$AA@
_DATA	SEGMENT
??_C@_0O@KOJF@Naj?8s?5Puzzler?$AA@ DB 'Naj''s Puzzler', 00H ; `string'
_DATA	ENDS
;	COMDAT ??_C@_07KPBO@Mindcry?$AA@
_DATA	SEGMENT
??_C@_07KPBO@Mindcry?$AA@ DB 'Mindcry', 00H		; `string'
_DATA	ENDS
;	COMDAT ??_C@_0M@LFDG@Rod?5of?5Onan?$AA@
_DATA	SEGMENT
??_C@_0M@LFDG@Rod?5of?5Onan?$AA@ DB 'Rod of Onan', 00H	; `string'
_DATA	ENDS
;	COMDAT ??_C@_0P@BGBO@Helm?5of?5Sprits?$AA@
_DATA	SEGMENT
??_C@_0P@BGBO@Helm?5of?5Sprits?$AA@ DB 'Helm of Sprits', 00H ; `string'
_DATA	ENDS
;	COMDAT ??_C@_0N@DNKB@Thinking?5Cap?$AA@
_DATA	SEGMENT
??_C@_0N@DNKB@Thinking?5Cap?$AA@ DB 'Thinking Cap', 00H	; `string'
_DATA	ENDS
;	COMDAT ??_C@_0BA@OMOB@OverLord?8s?5Helm?$AA@
_DATA	SEGMENT
??_C@_0BA@OMOB@OverLord?8s?5Helm?$AA@ DB 'OverLord''s Helm', 00H ; `string'
_DATA	ENDS
;	COMDAT ??_C@_0N@JHCM@Fool?8s?5Crest?$AA@
_DATA	SEGMENT
??_C@_0N@JHCM@Fool?8s?5Crest?$AA@ DB 'Fool''s Crest', 00H ; `string'
_DATA	ENDS
;	COMDAT ??_C@_0P@EJBH@Gotterdamerung?$AA@
_DATA	SEGMENT
??_C@_0P@EJBH@Gotterdamerung?$AA@ DB 'Gotterdamerung', 00H ; `string'
_DATA	ENDS
;	COMDAT ??_C@_0O@NECM@Royal?5Circlet?$AA@
_DATA	SEGMENT
??_C@_0O@NECM@Royal?5Circlet?$AA@ DB 'Royal Circlet', 00H ; `string'
_DATA	ENDS
;	COMDAT ??_C@_0BE@NIAH@Torn?5Flesh?5of?5Souls?$AA@
_DATA	SEGMENT
??_C@_0BE@NIAH@Torn?5Flesh?5of?5Souls?$AA@ DB 'Torn Flesh of Souls', 00H ; `string'
_DATA	ENDS
;	COMDAT ??_C@_0BF@OMOA@The?5Gladiator?8s?5Bane?$AA@
_DATA	SEGMENT
??_C@_0BF@OMOA@The?5Gladiator?8s?5Bane?$AA@ DB 'The Gladiator''s Bane', 00H ; `string'
_DATA	ENDS
;	COMDAT ??_C@_0BC@MCAH@The?5Rainbow?5Cloak?$AA@
_DATA	SEGMENT
??_C@_0BC@MCAH@The?5Rainbow?5Cloak?$AA@ DB 'The Rainbow Cloak', 00H ; `string'
_DATA	ENDS
;	COMDAT ??_C@_0P@IDGC@Leather?5of?5Aut?$AA@
_DATA	SEGMENT
??_C@_0P@IDGC@Leather?5of?5Aut?$AA@ DB 'Leather of Aut', 00H ; `string'
_DATA	ENDS
;	COMDAT ??_C@_0O@GEEJ@Wisdom?8s?5Wrap?$AA@
_DATA	SEGMENT
??_C@_0O@GEEJ@Wisdom?8s?5Wrap?$AA@ DB 'Wisdom''s Wrap', 00H ; `string'
_DATA	ENDS
;	COMDAT ??_C@_0O@IGGO@Sparking?5Mail?$AA@
_DATA	SEGMENT
??_C@_0O@IGGO@Sparking?5Mail?$AA@ DB 'Sparking Mail', 00H ; `string'
_DATA	ENDS
;	COMDAT ??_C@_0BD@EIPI@Scavenger?5Carapace?$AA@
_DATA	SEGMENT
??_C@_0BD@EIPI@Scavenger?5Carapace?$AA@ DB 'Scavenger Carapace', 00H ; `string'
_DATA	ENDS
;	COMDAT ??_C@_0L@IJGD@Nightscape?$AA@
_DATA	SEGMENT
??_C@_0L@IJGD@Nightscape?$AA@ DB 'Nightscape', 00H	; `string'
_DATA	ENDS
;	COMDAT ??_C@_0BC@FJEO@Naj?8s?5Light?5Plate?$AA@
_DATA	SEGMENT
??_C@_0BC@FJEO@Naj?8s?5Light?5Plate?$AA@ DB 'Naj''s Light Plate', 00H ; `string'
_DATA	ENDS
;	COMDAT ??_C@_0BA@LMDJ@Demonspike?5Coat?$AA@
_DATA	SEGMENT
??_C@_0BA@LMDJ@Demonspike?5Coat?$AA@ DB 'Demonspike Coat', 00H ; `string'
_DATA	ENDS
;	COMDAT ??_C@_0O@BCBJ@The?5Deflector?$AA@
_DATA	SEGMENT
??_C@_0O@BCBJ@The?5Deflector?$AA@ DB 'The Deflector', 00H ; `string'
_DATA	ENDS
;	COMDAT ??_C@_0BD@FMDN@Split?5Skull?5Shield?$AA@
_DATA	SEGMENT
??_C@_0BD@FMDN@Split?5Skull?5Shield?$AA@ DB 'Split Skull Shield', 00H ; `string'
_DATA	ENDS
;	COMDAT ??_C@_0BA@MNCP@Dragon?8s?5Breach?$AA@
_DATA	SEGMENT
??_C@_0BA@MNCP@Dragon?8s?5Breach?$AA@ DB 'Dragon''s Breach', 00H ; `string'
_DATA	ENDS
;	COMDAT ??_C@_0BA@JLBF@Blackoak?5Shield?$AA@
_DATA	SEGMENT
??_C@_0BA@JLBF@Blackoak?5Shield?$AA@ DB 'Blackoak Shield', 00H ; `string'
_DATA	ENDS
;	COMDAT ??_C@_0O@MBNB@Holy?5Defender?$AA@
_DATA	SEGMENT
??_C@_0O@MBNB@Holy?5Defender?$AA@ DB 'Holy Defender', 00H ; `string'
_DATA	ENDS
;	COMDAT ??_C@_0M@CHNE@Stormshield?$AA@
_DATA	SEGMENT
??_C@_0M@CHNE@Stormshield?$AA@ DB 'Stormshield', 00H	; `string'
_DATA	ENDS
;	COMDAT ??_C@_07JICK@Bramble?$AA@
_DATA	SEGMENT
??_C@_07JICK@Bramble?$AA@ DB 'Bramble', 00H		; `string'
_DATA	ENDS
;	COMDAT ??_C@_0O@GFAH@Ring?5of?5Regha?$AA@
_DATA	SEGMENT
??_C@_0O@GFAH@Ring?5of?5Regha?$AA@ DB 'Ring of Regha', 00H ; `string'
_DATA	ENDS
;	COMDAT ??_C@_0M@MJLO@The?5Bleeder?$AA@
_DATA	SEGMENT
??_C@_0M@MJLO@The?5Bleeder?$AA@ DB 'The Bleeder', 00H	; `string'
_DATA	ENDS
;	COMDAT ??_C@_0BC@GNLC@Constricting?5Ring?$AA@
_DATA	SEGMENT
??_C@_0BC@GNLC@Constricting?5Ring?$AA@ DB 'Constricting Ring', 00H ; `string'
_DATA	ENDS
;	COMDAT ??_C@_0BD@BKHB@Ring?5of?5Engagement?$AA@
_DATA	SEGMENT
??_C@_0BD@BKHB@Ring?5of?5Engagement?$AA@ DB 'Ring of Engagement', 00H ; `string'
_DATA	ENDS
CONST	SEGMENT
_UniqueItemList DD FLAT:??_C@_0BG@LEFE@The?5Butcher?8s?5Cleaver?$AA@
	DB	011H
	DB	01H
	DB	03H
	ORG $+1
	DD	0e42H
	DB	013H
	ORG $+3
	DD	0aH
	DD	0aH
	DB	03fH
	ORG $+3
	DD	04H
	DD	018H
	DB	040H
	ORG $+3
	DD	0aH
	DD	0aH
	DB	00H
	ORG $+3
	DD	00H
	DD	00H
	DB	00H
	ORG $+3
	DD	00H
	DD	00H
	DB	00H
	ORG $+3
	DD	00H
	DD	00H
	DD	FLAT:??_C@_0BB@GGAG@The?5Undead?5Crown?$AA@
	DB	039H
	DB	01H
	DB	03H
	ORG $+1
	DD	0410aH
	DB	049H
	ORG $+3
	DD	00H
	DD	00H
	DB	04bH
	ORG $+3
	DD	08H
	DD	08H
	DB	02cH
	ORG $+3
	DD	04dH
	DD	00H
	DB	00H
	ORG $+3
	DD	00H
	DD	00H
	DB	00H
	ORG $+3
	DD	00H
	DD	00H
	DB	00H
	ORG $+3
	DD	00H
	DD	00H
	DD	FLAT:??_C@_0O@EFCF@Empyrean?5Band?$AA@
	DB	03aH
	DB	01H
	DB	04H
	ORG $+1
	DD	01f40H
	DB	01bH
	ORG $+3
	DD	02H
	DD	02H
	DB	026H
	ORG $+3
	DD	02H
	DD	02H
	DB	03bH
	ORG $+3
	DD	01H
	DD	01H
	DB	034H
	ORG $+3
	DD	00H
	DD	00H
	DB	00H
	ORG $+3
	DD	00H
	DD	00H
	DB	00H
	ORG $+3
	DD	00H
	DD	00H
	DD	FLAT:??_C@_0N@JIIN@Optic?5Amulet?$AA@
	DB	03bH
	DB	01H
	DB	05H
	ORG $+1
	DD	02616H
	DB	026H
	ORG $+3
	DD	02H
	DD	02H
	DB	09H
	ORG $+3
	DD	014H
	DD	014H
	DB	01eH
	ORG $+3
	DD	01H
	DD	01H
	DB	015H
	ORG $+3
	DD	05H
	DD	05H
	DB	02cH
	ORG $+3
	DD	02cH
	DD	00H
	DB	00H
	ORG $+3
	DD	00H
	DD	00H
	DD	FLAT:??_C@_0O@PEHI@Ring?5of?5Truth?$AA@
	DB	03cH
	DB	01H
	DB	04H
	ORG $+1
	DD	0238cH
	DB	01fH
	ORG $+3
	DD	0aH
	DD	0aH
	DB	01eH
	ORG $+3
	DD	01H
	DD	01H
	DB	0bH
	ORG $+3
	DD	0aH
	DD	0aH
	DB	02cH
	ORG $+3
	DD	0aH
	DD	00H
	DB	00H
	ORG $+3
	DD	00H
	DD	00H
	DB	00H
	ORG $+3
	DD	00H
	DD	00H
	DD	FLAT:??_C@_0BA@HLFM@Harlequin?5Crest?$AA@
	DB	03dH
	DB	01H
	DB	06H
	ORG $+1
	DD	0fa0H
	DB	04fH
	ORG $+3
	DD	03H
	DD	03H
	DB	01eH
	ORG $+3
	DD	01H
	DD	01H
	DB	01bH
	ORG $+3
	DD	02H
	DD	02H
	DB	01fH
	ORG $+3
	DD	07H
	DD	07H
	DB	021H
	ORG $+3
	DD	07H
	DD	07H
	DB	02cH
	ORG $+3
	DD	051H
	DD	00H
	DD	FLAT:??_C@_0O@FKOJ@Veil?5of?5Steel?$AA@
	DB	041H
	DB	01H
	DB	06H
	ORG $+1
	DD	0f938H
	DB	0bH
	ORG $+3
	DD	032H
	DD	032H
	DB	027H
	ORG $+3
	DD	02H
	DD	02H
	DB	06H
	ORG $+3
	DD	03cH
	DD	03cH
	DB	022H
	ORG $+3
	DD	01eH
	DD	01eH
	DB	013H
	ORG $+3
	DD	0fH
	DD	0fH
	DB	019H
	ORG $+3
	DD	0fH
	DD	0fH
	DD	FLAT:??_C@_0BA@JENP@Arkaine?8s?5Valor?$AA@
	DB	040H
	DB	01H
	DB	04H
	ORG $+1
	DD	0a410H
	DB	04bH
	ORG $+3
	DD	019H
	DD	019H
	DB	019H
	ORG $+3
	DD	0aH
	DD	0aH
	DB	01eH
	ORG $+3
	DD	03H
	DD	03H
	DB	03bH
	ORG $+3
	DD	03H
	DD	03H
	DB	00H
	ORG $+3
	DD	00H
	DD	00H
	DB	00H
	ORG $+3
	DD	00H
	DD	00H
	DD	FLAT:??_C@_0BA@OAIC@Griswold?8s?5Edge?$AA@
	DB	042H
	DB	01H
	DB	06H
	ORG $+1
	DD	0a410H
	DB	010H
	ORG $+3
	DD	01H
	DD	0aH
	DB	00H
	ORG $+3
	DD	019H
	DD	019H
	DB	03aH
	ORG $+3
	DD	02H
	DD	02H
	DB	035H
	ORG $+3
	DD	00H
	DD	00H
	DB	021H
	ORG $+3
	DD	014H
	DD	014H
	DB	020H
	ORG $+3
	DD	014H
	DD	014H
	DD	FLAT:??_C@_0L@NHHH@Lightforge?$AA@
	DB	017H
	DB	01H
	DB	06H
	ORG $+1
	DD	06833H
	DB	026H
	ORG $+3
	DD	04H
	DD	04H
	DB	02H
	ORG $+3
	DD	096H
	DD	096H
	DB	00H
	ORG $+3
	DD	019H
	DD	019H
	DB	010H
	ORG $+3
	DD	0aH
	DD	014H
	DB	025H
	ORG $+3
	DD	00H
	DD	00H
	DB	01bH
	ORG $+3
	DD	08H
	DD	08H
	DD	FLAT:??_C@_0N@HFEC@The?5Rift?5Bow?$AA@
	DB	01H
	DB	01H
	DB	03H
	ORG $+1
	DD	0708H
	DB	03eH
	ORG $+3
	DD	00H
	DD	00H
	DB	03dH
	ORG $+3
	DD	02H
	DD	02H
	DB	018H
	ORG $+3
	DD	03H
	DD	03H
	DB	00H
	ORG $+3
	DD	00H
	DD	00H
	DB	00H
	ORG $+3
	DD	00H
	DD	00H
	DB	00H
	ORG $+3
	DD	00H
	DD	00H
	DD	FLAT:??_C@_0M@IKAD@The?5Needler?$AA@
	DB	01H
	DB	02H
	DB	04H
	ORG $+1
	DD	022c4H
	DB	00H
	ORG $+3
	DD	032H
	DD	032H
	DB	03fH
	ORG $+3
	DD	01H
	DD	03H
	DB	03aH
	ORG $+3
	DD	02H
	DD	02H
	DB	02cH
	ORG $+3
	DD	09eH
	DD	00H
	DB	00H
	ORG $+3
	DD	00H
	DD	00H
	DB	00H
	ORG $+3
	DD	00H
	DD	00H
	DD	FLAT:??_C@_0BC@DFMJ@The?5Celestial?5Bow?$AA@
	DB	02H
	DB	02H
	DB	04H
	ORG $+1
	DD	04b0H
	DB	041H
	ORG $+3
	DD	00H
	DD	00H
	DB	03dH
	ORG $+3
	DD	02H
	DD	02H
	DB	04bH
	ORG $+3
	DD	05H
	DD	05H
	DB	02cH
	ORG $+3
	DD	085H
	DD	00H
	DB	00H
	ORG $+3
	DD	00H
	DD	00H
	DB	00H
	ORG $+3
	DD	00H
	DD	00H
	DD	FLAT:??_C@_0O@MMFL@Deadly?5Hunter?$AA@
	DB	04H
	DB	03H
	DB	04H
	ORG $+1
	DD	0222eH
	DB	045H
	ORG $+3
	DD	0aH
	DD	0aH
	DB	00H
	ORG $+3
	DD	014H
	DD	014H
	DB	016H
	ORG $+3
	DD	05H
	DD	05H
	DB	02cH
	ORG $+3
	DD	06cH
	DD	00H
	DB	00H
	ORG $+3
	DD	00H
	DD	00H
	DB	00H
	ORG $+3
	DD	00H
	DD	00H
	DD	FLAT:??_C@_0BA@PFNB@Bow?5of?5the?5Dead?$AA@
	DB	04H
	DB	05H
	DB	06H
	ORG $+1
	DD	09c4H
	DB	00H
	ORG $+3
	DD	0aH
	DD	0aH
	DB	017H
	ORG $+3
	DD	04H
	DD	04H
	DB	01aH
	ORG $+3
	DD	03H
	DD	03H
	DB	027H
	ORG $+3
	DD	02H
	DD	02H
	DB	040H
	ORG $+3
	DD	01eH
	DD	01eH
	DB	02cH
	ORG $+3
	DD	06cH
	DD	00H
	DD	FLAT:??_C@_0BB@HEMC@The?5Blackoak?5Bow?$AA@
	DB	02H
	DB	05H
	DB	04H
	ORG $+1
	DD	09c4H
	DB	017H
	ORG $+3
	DD	0aH
	DD	0aH
	DB	01aH
	ORG $+3
	DD	0aH
	DD	0aH
	DB	02H
	ORG $+3
	DD	032H
	DD	032H
	DB	027H
	ORG $+3
	DD	01H
	DD	01H
	DB	00H
	ORG $+3
	DD	00H
	DD	00H
	DB	00H
	ORG $+3
	DD	00H
	DD	00H
	DD	FLAT:??_C@_09IEMI@Flamedart?$AA@
	DB	03H
	DB	0aH
	DB	04H
	ORG $+1
	DD	037aaH
	DB	02aH
	ORG $+3
	DD	00H
	DD	00H
	DB	010H
	ORG $+3
	DD	01H
	DD	06H
	DB	00H
	ORG $+3
	DD	014H
	DD	014H
	DB	08H
	ORG $+3
	DD	028H
	DD	028H
	DB	00H
	ORG $+3
	DD	00H
	DD	00H
	DB	00H
	ORG $+3
	DD	00H
	DD	00H
	DD	FLAT:??_C@_0N@IPLI@Fleshstinger?$AA@
	DB	02H
	DB	0dH
	DB	04H
	ORG $+1
	DD	04074H
	DB	017H
	ORG $+3
	DD	0fH
	DD	0fH
	DB	00H
	ORG $+3
	DD	028H
	DD	028H
	DB	02H
	ORG $+3
	DD	050H
	DD	050H
	DB	023H
	ORG $+3
	DD	06H
	DD	06H
	DB	00H
	ORG $+3
	DD	00H
	DD	00H
	DB	00H
	ORG $+3
	DD	00H
	DD	00H
	DD	FLAT:??_C@_09ICMO@Windforce?$AA@
	DB	05H
	DB	011H
	DB	04H
	ORG $+1
	DD	09376H
	DB	013H
	ORG $+3
	DD	05H
	DD	05H
	DB	02H
	ORG $+3
	DD	0c8H
	DD	0c8H
	DB	035H
	ORG $+3
	DD	00H
	DD	00H
	DB	02cH
	ORG $+3
	DD	0a4H
	DD	00H
	DB	00H
	ORG $+3
	DD	00H
	DD	00H
	DB	00H
	ORG $+3
	DD	00H
	DD	00H
	DD	FLAT:??_C@_09PCNB@Eaglehorn?$AA@
	DB	06H
	DB	01aH
	DB	05H
	ORG $+1
	DD	0a604H
	DB	017H
	ORG $+3
	DD	014H
	DD	014H
	DB	00H
	ORG $+3
	DD	032H
	DD	032H
	DB	02H
	ORG $+3
	DD	064H
	DD	064H
	DB	025H
	ORG $+3
	DD	00H
	DD	00H
	DB	02cH
	ORG $+3
	DD	06cH
	DD	00H
	DB	00H
	ORG $+3
	DD	00H
	DD	00H
	DD	FLAT:??_C@_0BA@ION@Gonnagal?8s?5Dirk?$AA@
	DB	07H
	DB	01H
	DB	05H
	ORG $+1
	DD	01b80H
	DB	018H
	ORG $+3
	DD	05H
	DD	05H
	DB	03dH
	ORG $+3
	DD	04H
	DD	04H
	DB	03aH
	ORG $+3
	DD	02H
	DD	02H
	DB	08H
	ORG $+3
	DD	019H
	DD	019H
	DB	02cH
	ORG $+3
	DD	036H
	DD	00H
	DB	00H
	ORG $+3
	DD	00H
	DD	00H
	DD	FLAT:??_C@_0N@LMFG@The?5Defender?$AA@
	DB	0bH
	DB	01H
	DB	03H
	ORG $+1
	DD	07d0H
	DB	04bH
	ORG $+3
	DD	05H
	DD	05H
	DB	019H
	ORG $+3
	DD	05H
	DD	05H
	DB	01H
	ORG $+3
	DD	05H
	DD	05H
	DB	00H
	ORG $+3
	DD	00H
	DD	00H
	DB	00H
	ORG $+3
	DD	00H
	DD	00H
	DB	00H
	ORG $+3
	DD	00H
	DD	00H
	DD	FLAT:??_C@_0O@NPMJ@Gryphons?5Claw?$AA@
	DB	08H
	DB	01H
	DB	04H
	ORG $+1
	DD	03e8H
	DB	02H
	ORG $+3
	DD	064H
	DD	064H
	DB	016H
	ORG $+3
	DD	02H
	DD	02H
	DB	018H
	ORG $+3
	DD	05H
	DD	05H
	DB	02cH
	ORG $+3
	DD	044H
	DD	00H
	DB	00H
	ORG $+3
	DD	00H
	DD	00H
	DB	00H
	ORG $+3
	DD	00H
	DD	00H
	DD	FLAT:??_C@_0M@NGHN@Black?5Razor?$AA@
	DB	07H
	DB	01H
	DB	04H
	ORG $+1
	DD	07d0H
	DB	02H
	ORG $+3
	DD	096H
	DD	096H
	DB	019H
	ORG $+3
	DD	02H
	DD	02H
	DB	040H
	ORG $+3
	DD	05H
	DD	05H
	DB	02cH
	ORG $+3
	DD	035H
	DD	00H
	DB	00H
	ORG $+3
	DD	00H
	DD	00H
	DB	00H
	ORG $+3
	DD	00H
	DD	00H
	DD	FLAT:??_C@_0N@COHM@Gibbous?5Moon?$AA@
	DB	0aH
	DB	02H
	DB	04H
	ORG $+1
	DD	01a04H
	DB	01bH
	ORG $+3
	DD	02H
	DD	02H
	DB	02H
	ORG $+3
	DD	019H
	DD	019H
	DB	021H
	ORG $+3
	DD	0fH
	DD	0fH
	DB	027H
	ORG $+3
	DD	03H
	DD	03H
	DB	00H
	ORG $+3
	DD	00H
	DD	00H
	DB	00H
	ORG $+3
	DD	00H
	DD	00H
	DD	FLAT:??_C@_09IIDA@Ice?5Shank?$AA@
	DB	0dH
	DB	03H
	DB	03H
	ORG $+1
	DD	01482H
	DB	08H
	ORG $+3
	DD	028H
	DD	028H
	DB	040H
	ORG $+3
	DD	0fH
	DD	0fH
	DB	013H
	ORG $+3
	DD	05H
	DD	0aH
	DB	00H
	ORG $+3
	DD	00H
	DD	00H
	DB	00H
	ORG $+3
	DD	00H
	DD	00H
	DB	00H
	ORG $+3
	DD	00H
	DD	00H
	DD	FLAT:??_C@_0BI@JCLM@The?5Executioner?8s?5Blade?$AA@
	DB	08H
	DB	03H
	DB	05H
	ORG $+1
	DD	01ba8H
	DB	02H
	ORG $+3
	DD	096H
	DD	096H
	DB	020H
	ORG $+3
	DD	0aH
	DD	0aH
	DB	027H
	ORG $+3
	DD	01H
	DD	01H
	DB	023H
	ORG $+3
	DD	0c8H
	DD	0c8H
	DB	02cH
	ORG $+3
	DD	03aH
	DD	00H
	DB	00H
	ORG $+3
	DD	00H
	DD	00H
	DD	FLAT:??_C@_0M@FDHB@The?5Bonesaw?$AA@
	DB	09H
	DB	06H
	DB	06H
	ORG $+1
	DD	01130H
	DB	03dH
	ORG $+3
	DD	0aH
	DD	0aH
	DB	013H
	ORG $+3
	DD	0aH
	DD	0aH
	DB	016H
	ORG $+3
	DD	05H
	DD	05H
	DB	018H
	ORG $+3
	DD	05H
	DD	05H
	DB	01fH
	ORG $+3
	DD	0aH
	DD	0aH
	DB	022H
	ORG $+3
	DD	0aH
	DD	0aH
	DD	FLAT:??_C@_0L@EBEF@Shadowhawk?$AA@
	DB	0aH
	DB	08H
	DB	04H
	ORG $+1
	DD	035b6H
	DB	027H
	ORG $+3
	DD	02H
	DD	02H
	DB	038H
	ORG $+3
	DD	05H
	DD	05H
	DB	00H
	ORG $+3
	DD	0fH
	DD	0fH
	DB	0bH
	ORG $+3
	DD	05H
	DD	05H
	DB	00H
	ORG $+3
	DD	00H
	DD	00H
	DB	00H
	ORG $+3
	DD	00H
	DD	00H
	DD	FLAT:??_C@_0M@EGMF@Wizardspike?$AA@
	DB	07H
	DB	0bH
	DB	05H
	ORG $+1
	DD	03278H
	DB	015H
	ORG $+3
	DD	0fH
	DD	0fH
	DB	021H
	ORG $+3
	DD	023H
	DD	023H
	DB	00H
	ORG $+3
	DD	019H
	DD	019H
	DB	0bH
	ORG $+3
	DD	0fH
	DD	0fH
	DB	02cH
	ORG $+3
	DD	032H
	DD	00H
	DB	00H
	ORG $+3
	DD	00H
	DD	00H
	DD	FLAT:??_C@_0L@HCN@Lightsabre?$AA@
	DB	0bH
	DB	0dH
	DB	04H
	ORG $+1
	DD	04aceH
	DB	026H
	ORG $+3
	DD	02H
	DD	02H
	DB	011H
	ORG $+3
	DD	01H
	DD	0aH
	DB	00H
	ORG $+3
	DD	014H
	DD	014H
	DB	09H
	ORG $+3
	DD	032H
	DD	032H
	DB	00H
	ORG $+3
	DD	00H
	DD	00H
	DB	00H
	ORG $+3
	DD	00H
	DD	00H
	DD	FLAT:??_C@_0BD@EDLD@The?5Falcon?8s?5Talon?$AA@
	DB	0cH
	DB	0fH
	DB	05H
	ORG $+1
	DD	01ebbH
	DB	03aH
	ORG $+3
	DD	04H
	DD	04H
	DB	00H
	ORG $+3
	DD	014H
	DD	014H
	DB	03H
	ORG $+3
	DD	021H
	DD	021H
	DB	017H
	ORG $+3
	DD	0aH
	DD	0aH
	DB	02cH
	ORG $+3
	DD	044H
	DD	00H
	DB	00H
	ORG $+3
	DD	00H
	DD	00H
	DD	FLAT:??_C@_07HJHJ@Inferno?$AA@
	DB	0dH
	DB	011H
	DB	04H
	ORG $+1
	DD	08728H
	DB	010H
	ORG $+3
	DD	02H
	DD	0cH
	DB	026H
	ORG $+3
	DD	03H
	DD	03H
	DB	021H
	ORG $+3
	DD	014H
	DD	014H
	DB	08H
	ORG $+3
	DD	050H
	DD	050H
	DB	00H
	ORG $+3
	DD	00H
	DD	00H
	DB	00H
	ORG $+3
	DD	00H
	DD	00H
	DD	FLAT:??_C@_0M@BAAM@Doombringer?$AA@
	DB	0eH
	DB	013H
	DB	05H
	ORG $+1
	DD	0474aH
	DB	00H
	ORG $+3
	DD	019H
	DD	019H
	DB	02H
	ORG $+3
	DD	0faH
	DD	0faH
	DB	01cH
	ORG $+3
	DD	05H
	DD	05H
	DB	020H
	ORG $+3
	DD	019H
	DD	019H
	DB	027H
	ORG $+3
	DD	02H
	DD	02H
	DB	00H
	ORG $+3
	DD	00H
	DD	00H
	DD	FLAT:??_C@_0M@IGFJ@The?5Grizzly?$AA@
	DB	0fH
	DB	017H
	DB	06H
	ORG $+1
	DD	0c350H
	DB	013H
	ORG $+3
	DD	014H
	DD	014H
	DB	01aH
	ORG $+3
	DD	05H
	DD	05H
	DB	02H
	ORG $+3
	DD	0c8H
	DD	0c8H
	DB	035H
	ORG $+3
	DD	00H
	DD	00H
	DB	023H
	ORG $+3
	DD	064H
	DD	064H
	DB	02cH
	ORG $+3
	DD	0a0H
	DD	00H
	DD	FLAT:??_C@_0BA@OANG@The?5Grandfather?$AA@
	DB	010H
	DB	01bH
	DB	06H
	ORG $+1
	DD	01d3f8H
	DB	044H
	ORG $+3
	DD	00H
	DD	00H
	DB	01bH
	ORG $+3
	DD	05H
	DD	05H
	DB	00H
	ORG $+3
	DD	014H
	DD	014H
	DB	02H
	ORG $+3
	DD	046H
	DD	046H
	DB	01fH
	ORG $+3
	DD	014H
	DD	014H
	DB	02cH
	ORG $+3
	DD	0a1H
	DD	00H
	DD	FLAT:??_C@_0M@CBIO@The?5Mangler?$AA@
	DB	012H
	DB	02H
	DB	05H
	ORG $+1
	DD	0b22H
	DB	02H
	ORG $+3
	DD	0c8H
	DD	0c8H
	DB	018H
	ORG $+3
	DD	05H
	DD	05H
	DB	016H
	ORG $+3
	DD	05H
	DD	05H
	DB	022H
	ORG $+3
	DD	0aH
	DD	0aH
	DB	02cH
	ORG $+3
	DD	090H
	DD	00H
	DB	00H
	ORG $+3
	DD	00H
	DD	00H
	DD	FLAT:??_C@_0L@KEIA@Sharp?5Beak?$AA@
	DB	012H
	DB	02H
	DB	04H
	ORG $+1
	DD	0b22H
	DB	01fH
	ORG $+3
	DD	014H
	DD	014H
	DB	016H
	ORG $+3
	DD	0aH
	DD	0aH
	DB	022H
	ORG $+3
	DD	0aH
	DD	0aH
	DB	02cH
	ORG $+3
	DD	08fH
	DD	00H
	DB	00H
	ORG $+3
	DD	00H
	DD	00H
	DB	00H
	ORG $+3
	DD	00H
	DD	00H
	DD	FLAT:??_C@_0M@ENI@BloodSlayer?$AA@
	DB	013H
	DB	03H
	DB	05H
	ORG $+1
	DD	09c4H
	DB	02H
	ORG $+3
	DD	064H
	DD	064H
	DB	045H
	ORG $+3
	DD	032H
	DD	032H
	DB	01cH
	ORG $+3
	DD	05H
	DD	05H
	DB	0eH
	ORG $+3
	DD	0ffffffffH
	DD	0ffffffffH
	DB	02cH
	ORG $+3
	DD	090H
	DD	00H
	DB	00H
	ORG $+3
	DD	00H
	DD	00H
	DD	FLAT:??_C@_0BC@DEFA@The?5Celestial?5Axe?$AA@
	DB	015H
	DB	04H
	DB	04H
	ORG $+1
	DD	03714H
	DB	041H
	ORG $+3
	DD	00H
	DD	00H
	DB	00H
	ORG $+3
	DD	0fH
	DD	0fH
	DB	01fH
	ORG $+3
	DD	0fH
	DD	0fH
	DB	014H
	ORG $+3
	DD	0fH
	DD	0fH
	DB	00H
	ORG $+3
	DD	00H
	DD	00H
	DB	00H
	ORG $+3
	DD	00H
	DD	00H
	DD	FLAT:??_C@_0L@LGGM@Wicked?5Axe?$AA@
	DB	012H
	DB	05H
	DB	06H
	ORG $+1
	DD	079aeH
	DB	00H
	ORG $+3
	DD	01eH
	DD	01eH
	DB	017H
	ORG $+3
	DD	0aH
	DD	0aH
	DB	01aH
	ORG $+3
	DD	0aH
	DD	0aH
	DB	01eH
	ORG $+3
	DD	01H
	DD	06H
	DB	025H
	ORG $+3
	DD	00H
	DD	00H
	DB	02cH
	ORG $+3
	DD	08fH
	DD	00H
	DD	FLAT:??_C@_0N@POLL@Stonecleaver?$AA@
	DB	013H
	DB	07H
	DB	05H
	ORG $+1
	DD	05d5cH
	DB	01fH
	ORG $+3
	DD	01eH
	DD	01eH
	DB	00H
	ORG $+3
	DD	014H
	DD	014H
	DB	02H
	ORG $+3
	DD	032H
	DD	032H
	DB	09H
	ORG $+3
	DD	028H
	DD	028H
	DB	02cH
	ORG $+3
	DD	068H
	DD	00H
	DB	00H
	ORG $+3
	DD	00H
	DD	00H
	DD	FLAT:??_C@_0BD@CMJN@Aguinara?8s?5Hatchet?$AA@
	DB	014H
	DB	0cH
	DB	03H
	ORG $+1
	DD	060e0H
	DB	0eH
	ORG $+3
	DD	01H
	DD	01H
	DB	015H
	ORG $+3
	DD	0aH
	DD	0aH
	DB	0aH
	ORG $+3
	DD	050H
	DD	050H
	DB	00H
	ORG $+3
	DD	00H
	DD	00H
	DB	00H
	ORG $+3
	DD	00H
	DD	00H
	DB	00H
	ORG $+3
	DD	00H
	DD	00H
	DD	FLAT:??_C@_0L@DLHM@Hellslayer?$AA@
	DB	015H
	DB	0fH
	DB	05H
	ORG $+1
	DD	06658H
	DB	013H
	ORG $+3
	DD	08H
	DD	08H
	DB	019H
	ORG $+3
	DD	08H
	DD	08H
	DB	02H
	ORG $+3
	DD	064H
	DD	064H
	DB	01fH
	ORG $+3
	DD	019H
	DD	019H
	DB	022H
	ORG $+3
	DD	019H
	DD	019H
	DB	00H
	ORG $+3
	DD	00H
	DD	00H
	DD	FLAT:??_C@_0BH@CIE@Messerschmidt?8s?5Reaver?$AA@
	DB	016H
	DB	019H
	DB	06H
	ORG $+1
	DD	0e290H
	DB	02H
	ORG $+3
	DD	0c8H
	DD	0c8H
	DB	03dH
	ORG $+3
	DD	0fH
	DD	0fH
	DB	01bH
	ORG $+3
	DD	05H
	DD	05H
	DB	020H
	ORG $+3
	DD	032H
	DD	032H
	DB	010H
	ORG $+3
	DD	02H
	DD	0cH
	DB	02cH
	ORG $+3
	DD	0a3H
	DD	00H
	DD	FLAT:??_C@_09NILJ@Crackrust?$AA@
	DB	017H
	DB	01H
	DB	05H
	ORG $+1
	DD	02c6fH
	DB	01bH
	ORG $+3
	DD	02H
	DD	02H
	DB	025H
	ORG $+3
	DD	00H
	DD	00H
	DB	0bH
	ORG $+3
	DD	0fH
	DD	0fH
	DB	02H
	ORG $+3
	DD	032H
	DD	032H
	DB	0eH
	ORG $+3
	DD	0ffffffffH
	DD	0ffffffffH
	DB	00H
	ORG $+3
	DD	00H
	DD	00H
	DD	FLAT:??_C@_0BA@FNJO@Hammer?5of?5Jholm?$AA@
	DB	01aH
	DB	01H
	DB	04H
	ORG $+1
	DD	021fcH
	DB	02H
	ORG $+3
	DD	04H
	DD	0aH
	DB	025H
	ORG $+3
	DD	00H
	DD	00H
	DB	013H
	ORG $+3
	DD	03H
	DD	03H
	DB	00H
	ORG $+3
	DD	0fH
	DD	0fH
	DB	00H
	ORG $+3
	DD	00H
	DD	00H
	DB	00H
	ORG $+3
	DD	00H
	DD	00H
	DD	FLAT:??_C@_0BA@NP@Civerb?8s?5Cudgel?$AA@
	DB	017H
	DB	01H
	DB	03H
	ORG $+1
	DD	07d0H
	DB	045H
	ORG $+3
	DD	023H
	DD	023H
	DB	018H
	ORG $+3
	DD	05H
	DD	05H
	DB	016H
	ORG $+3
	DD	02H
	DD	02H
	DB	00H
	ORG $+3
	DD	00H
	DD	00H
	DB	00H
	ORG $+3
	DD	00H
	DD	00H
	DB	00H
	ORG $+3
	DD	00H
	DD	00H
	DD	FLAT:??_C@_0BD@JEIK@The?5Celestial?5Star?$AA@
	DB	01cH
	DB	02H
	DB	05H
	ORG $+1
	DD	01e82H
	DB	041H
	ORG $+3
	DD	00H
	DD	00H
	DB	026H
	ORG $+3
	DD	02H
	DD	02H
	DB	03dH
	ORG $+3
	DD	0aH
	DD	0aH
	DB	04fH
	ORG $+3
	DD	08H
	DD	08H
	DB	02cH
	ORG $+3
	DD	083H
	DD	00H
	DB	00H
	ORG $+3
	DD	00H
	DD	00H
	DD	FLAT:??_C@_0P@HPLN@Baranar?8s?5Star?$AA@
	DB	018H
	DB	05H
	DB	06H
	ORG $+1
	DD	01ac2H
	DB	00H
	ORG $+3
	DD	0cH
	DD	0cH
	DB	02H
	ORG $+3
	DD	050H
	DD	050H
	DB	03aH
	ORG $+3
	DD	01H
	DD	01H
	DB	019H
	ORG $+3
	DD	04H
	DD	04H
	DB	018H
	ORG $+3
	DD	04H
	DD	04H
	DB	040H
	ORG $+3
	DD	03cH
	DD	03cH
	DD	FLAT:??_C@_0N@KBLF@Gnarled?5Root?$AA@
	DB	019H
	DB	09H
	DB	06H
	ORG $+1
	DD	0265cH
	DB	00H
	ORG $+3
	DD	014H
	DD	014H
	DB	02H
	ORG $+3
	DD	012cH
	DD	012cH
	DB	017H
	ORG $+3
	DD	0aH
	DD	0aH
	DB	015H
	ORG $+3
	DD	05H
	DD	05H
	DB	0bH
	ORG $+3
	DD	0aH
	DD	0aH
	DB	04fH
	ORG $+3
	DD	0aH
	DD	0aH
	DD	FLAT:??_C@_0BD@NKML@The?5Cranium?5Basher?$AA@
	DB	01aH
	DB	0cH
	DB	06H
	ORG $+1
	DD	08e94H
	DB	03dH
	ORG $+3
	DD	014H
	DD	014H
	DB	013H
	ORG $+3
	DD	0fH
	DD	0fH
	DB	025H
	ORG $+3
	DD	00H
	DD	00H
	DB	022H
	ORG $+3
	DD	096H
	DD	096H
	DB	0bH
	ORG $+3
	DD	05H
	DD	05H
	DB	02cH
	ORG $+3
	DD	07aH
	DD	00H
	DD	FLAT:??_C@_0BC@ECOI@Schaefer?8s?5Hammer?$AA@
	DB	01bH
	DB	010H
	DB	06H
	ORG $+1
	DD	0db3dH
	DB	03H
	ORG $+3
	DD	064H
	DD	064H
	DB	011H
	ORG $+3
	DD	01H
	DD	032H
	DB	01fH
	ORG $+3
	DD	032H
	DD	032H
	DB	00H
	ORG $+3
	DD	01eH
	DD	01eH
	DB	09H
	ORG $+3
	DD	050H
	DD	050H
	DB	026H
	ORG $+3
	DD	01H
	DD	01H
	DD	FLAT:??_C@_0M@IHNE@Dreamflange?$AA@
	DB	017H
	DB	01aH
	DB	05H
	ORG $+1
	DD	06752H
	DB	015H
	ORG $+3
	DD	01eH
	DD	01eH
	DB	021H
	ORG $+3
	DD	032H
	DD	032H
	DB	0aH
	ORG $+3
	DD	032H
	DD	032H
	DB	026H
	ORG $+3
	DD	02H
	DD	02H
	DB	0eH
	ORG $+3
	DD	01H
	DD	01H
	DB	00H
	ORG $+3
	DD	00H
	DD	00H
	DD	FLAT:??_C@_0BB@DJNB@Staff?5of?5Shadows?$AA@
	DB	01dH
	DB	02H
	DB	05H
	ORG $+1
	DD	04e2H
	DB	016H
	ORG $+3
	DD	0aH
	DD	0aH
	DB	00H
	ORG $+3
	DD	0aH
	DD	0aH
	DB	02H
	ORG $+3
	DD	03cH
	DD	03cH
	DB	027H
	ORG $+3
	DD	02H
	DD	02H
	DB	03aH
	ORG $+3
	DD	01H
	DD	01H
	DB	00H
	ORG $+3
	DD	00H
	DD	00H
	DD	FLAT:??_C@_09DCFI@Immolator?$AA@
	DB	01dH
	DB	04H
	DB	04H
	ORG $+1
	DD	0f3cH
	DB	08H
	ORG $+3
	DD	014H
	DD	014H
	DB	010H
	ORG $+3
	DD	04H
	DD	04H
	DB	021H
	ORG $+3
	DD	0aH
	DD	0aH
	DB	01aH
	ORG $+3
	DD	05H
	DD	05H
	DB	00H
	ORG $+3
	DD	00H
	DD	00H
	DB	00H
	ORG $+3
	DD	00H
	DD	00H
	DD	FLAT:??_C@_0M@MMBM@Storm?5Spire?$AA@
	DB	021H
	DB	08H
	DB	04H
	ORG $+1
	DD	057e4H
	DB	09H
	ORG $+3
	DD	032H
	DD	032H
	DB	011H
	ORG $+3
	DD	02H
	DD	08H
	DB	013H
	ORG $+3
	DD	0aH
	DD	0aH
	DB	016H
	ORG $+3
	DD	0aH
	DD	0aH
	DB	00H
	ORG $+3
	DD	00H
	DD	00H
	DB	00H
	ORG $+3
	DD	00H
	DD	00H
	DD	FLAT:??_C@_09GLO@Gleamsong?$AA@
	DB	01eH
	DB	08H
	DB	04H
	ORG $+1
	DD	01978H
	DB	021H
	ORG $+3
	DD	019H
	DD	019H
	DB	014H
	ORG $+3
	DD	03H
	DD	03H
	DB	01aH
	ORG $+3
	DD	03H
	DD	03H
	DB	042H
	ORG $+3
	DD	0aH
	DD	04cH
	DB	00H
	ORG $+3
	DD	00H
	DD	00H
	DB	00H
	ORG $+3
	DD	00H
	DD	00H
	DD	FLAT:??_C@_0M@BMCJ@Thundercall?$AA@
	DB	01fH
	DB	0eH
	DB	05H
	ORG $+1
	DD	056eaH
	DB	00H
	ORG $+3
	DD	023H
	DD	023H
	DB	011H
	ORG $+3
	DD	01H
	DD	0aH
	DB	042H
	ORG $+3
	DD	03H
	DD	04cH
	DB	09H
	ORG $+3
	DD	01eH
	DD	01eH
	DB	026H
	ORG $+3
	DD	02H
	DD	02H
	DB	00H
	ORG $+3
	DD	00H
	DD	00H
	DD	FLAT:??_C@_0O@OIKA@The?5Protector?$AA@
	DB	01eH
	DB	010H
	DB	06H
	ORG $+1
	DD	04358H
	DB	019H
	ORG $+3
	DD	05H
	DD	05H
	DB	01eH
	ORG $+3
	DD	05H
	DD	05H
	DB	04bH
	ORG $+3
	DD	028H
	DD	028H
	DB	042H
	ORG $+3
	DD	02H
	DD	056H
	DB	02dH
	ORG $+3
	DD	01H
	DD	03H
	DB	02cH
	ORG $+3
	DD	0a2H
	DD	00H
	DD	FLAT:??_C@_0O@KOJF@Naj?8s?5Puzzler?$AA@
	DB	01dH
	DB	012H
	DB	05H
	ORG $+1
	DD	084d0H
	DB	015H
	ORG $+3
	DD	014H
	DD	014H
	DB	017H
	ORG $+3
	DD	0aH
	DD	0aH
	DB	0bH
	ORG $+3
	DD	014H
	DD	014H
	DB	042H
	ORG $+3
	DD	017H
	DD	039H
	DB	020H
	ORG $+3
	DD	019H
	DD	019H
	DB	00H
	ORG $+3
	DD	00H
	DD	00H
	DD	FLAT:??_C@_07KPBO@Mindcry?$AA@
	DB	020H
	DB	014H
	DB	04H
	ORG $+1
	DD	0a21cH
	DB	015H
	ORG $+3
	DD	0fH
	DD	0fH
	DB	042H
	ORG $+3
	DD	0dH
	DD	045H
	DB	0bH
	ORG $+3
	DD	0fH
	DD	0fH
	DB	0eH
	ORG $+3
	DD	01H
	DD	01H
	DB	00H
	ORG $+3
	DD	00H
	DD	00H
	DB	00H
	ORG $+3
	DD	00H
	DD	00H
	DD	FLAT:??_C@_0M@LFDG@Rod?5of?5Onan?$AA@
	DB	021H
	DB	016H
	DB	03H
	ORG $+1
	DD	0ac87H
	DB	042H
	ORG $+3
	DD	015H
	DD	032H
	DB	02H
	ORG $+3
	DD	064H
	DD	064H
	DB	01bH
	ORG $+3
	DD	05H
	DD	05H
	DB	00H
	ORG $+3
	DD	00H
	DD	00H
	DB	00H
	ORG $+3
	DD	00H
	DD	00H
	DB	00H
	ORG $+3
	DD	00H
	DD	00H
	DD	FLAT:??_C@_0P@BGBO@Helm?5of?5Sprits?$AA@
	DB	023H
	DB	01H
	DB	02H
	ORG $+1
	DD	01d65H
	DB	038H
	ORG $+3
	DD	05H
	DD	05H
	DB	02cH
	ORG $+3
	DD	04dH
	DD	00H
	DB	00H
	ORG $+3
	DD	00H
	DD	00H
	DB	00H
	ORG $+3
	DD	00H
	DD	00H
	DB	00H
	ORG $+3
	DD	00H
	DD	00H
	DB	00H
	ORG $+3
	DD	00H
	DD	00H
	DD	FLAT:??_C@_0N@DNKB@Thinking?5Cap?$AA@
	DB	022H
	DB	06H
	DB	05H
	ORG $+1
	DD	07e4H
	DB	021H
	ORG $+3
	DD	01eH
	DD	01eH
	DB	0eH
	ORG $+3
	DD	02H
	DD	02H
	DB	0bH
	ORG $+3
	DD	014H
	DD	014H
	DB	040H
	ORG $+3
	DD	01H
	DD	01H
	DB	02cH
	ORG $+3
	DD	05dH
	DD	00H
	DB	00H
	ORG $+3
	DD	00H
	DD	00H
	DD	FLAT:??_C@_0BA@OMOB@OverLord?8s?5Helm?$AA@
	DB	023H
	DB	07H
	DB	06H
	ORG $+1
	DD	030d4H
	DB	013H
	ORG $+3
	DD	014H
	DD	014H
	DB	017H
	ORG $+3
	DD	0fH
	DD	0fH
	DB	019H
	ORG $+3
	DD	05H
	DD	05H
	DB	016H
	ORG $+3
	DD	014H
	DD	014H
	DB	040H
	ORG $+3
	DD	0fH
	DD	0fH
	DB	02cH
	ORG $+3
	DD	063H
	DD	00H
	DD	FLAT:??_C@_0N@JHCM@Fool?8s?5Crest?$AA@
	DB	023H
	DB	0cH
	DB	05H
	ORG $+1
	DD	027a6H
	DB	01cH
	ORG $+3
	DD	04H
	DD	04H
	DB	01fH
	ORG $+3
	DD	064H
	DD	064H
	DB	01dH
	ORG $+3
	DD	01H
	DD	06H
	DB	02dH
	ORG $+3
	DD	01H
	DD	03H
	DB	02cH
	ORG $+3
	DD	050H
	DD	00H
	DB	00H
	ORG $+3
	DD	00H
	DD	00H
	DD	FLAT:??_C@_0P@EJBH@Gotterdamerung?$AA@
	DB	024H
	DB	015H
	DB	06H
	ORG $+1
	DD	0d674H
	DB	01bH
	ORG $+3
	DD	014H
	DD	014H
	DB	04bH
	ORG $+3
	DD	03cH
	DD	03cH
	DB	01eH
	ORG $+3
	DD	04H
	DD	04H
	DB	046H
	ORG $+3
	DD	00H
	DD	00H
	DB	027H
	ORG $+3
	DD	04H
	DD	04H
	DB	02cH
	ORG $+3
	DD	055H
	DD	00H
	DD	FLAT:??_C@_0O@NECM@Royal?5Circlet?$AA@
	DB	025H
	DB	01bH
	DB	05H
	ORG $+1
	DD	0612bH
	DB	01bH
	ORG $+3
	DD	0aH
	DD	0aH
	DB	021H
	ORG $+3
	DD	028H
	DD	028H
	DB	04bH
	ORG $+3
	DD	028H
	DD	028H
	DB	026H
	ORG $+3
	DD	01H
	DD	01H
	DB	02cH
	ORG $+3
	DD	04fH
	DD	00H
	DB	00H
	ORG $+3
	DD	00H
	DD	00H
	DD	FLAT:??_C@_0BE@NIAH@Torn?5Flesh?5of?5Souls?$AA@
	DB	027H
	DB	02H
	DB	05H
	ORG $+1
	DD	012d9H
	DB	04bH
	ORG $+3
	DD	08H
	DD	08H
	DB	019H
	ORG $+3
	DD	0aH
	DD	0aH
	DB	01eH
	ORG $+3
	DD	01H
	DD	01H
	DB	025H
	ORG $+3
	DD	00H
	DD	00H
	DB	02cH
	ORG $+3
	DD	05cH
	DD	00H
	DB	00H
	ORG $+3
	DD	00H
	DD	00H
	DD	FLAT:??_C@_0BF@OMOA@The?5Gladiator?8s?5Bane?$AA@
	DB	028H
	DB	06H
	DB	04H
	ORG $+1
	DD	0d7aH
	DB	04bH
	ORG $+3
	DD	019H
	DD	019H
	DB	01eH
	ORG $+3
	DD	02H
	DD	02H
	DB	023H
	ORG $+3
	DD	0c8H
	DD	0c8H
	DB	01cH
	ORG $+3
	DD	03H
	DD	03H
	DB	00H
	ORG $+3
	DD	00H
	DD	00H
	DB	00H
	ORG $+3
	DD	00H
	DD	00H
	DD	FLAT:??_C@_0BC@MCAH@The?5Rainbow?5Cloak?$AA@
	DB	029H
	DB	02H
	DB	06H
	ORG $+1
	DD	01324H
	DB	04bH
	ORG $+3
	DD	0aH
	DD	0aH
	DB	01bH
	ORG $+3
	DD	01H
	DD	01H
	DB	0bH
	ORG $+3
	DD	0aH
	DD	0aH
	DB	01fH
	ORG $+3
	DD	05H
	DD	05H
	DB	023H
	ORG $+3
	DD	032H
	DD	032H
	DB	02cH
	ORG $+3
	DD	08aH
	DD	00H
	DD	FLAT:??_C@_0P@IDGC@Leather?5of?5Aut?$AA@
	DB	02cH
	DB	04H
	DB	05H
	ORG $+1
	DD	02936H
	DB	04bH
	ORG $+3
	DD	0fH
	DD	0fH
	DB	013H
	ORG $+3
	DD	05H
	DD	05H
	DB	016H
	ORG $+3
	DD	05H
	DD	05H
	DB	017H
	ORG $+3
	DD	05H
	DD	05H
	DB	025H
	ORG $+3
	DD	00H
	DD	00H
	DB	00H
	ORG $+3
	DD	00H
	DD	00H
	DD	FLAT:??_C@_0O@GEEJ@Wisdom?8s?5Wrap?$AA@
	DB	02aH
	DB	05H
	DB	06H
	ORG $+1
	DD	01838H
	DB	015H
	ORG $+3
	DD	05H
	DD	05H
	DB	021H
	ORG $+3
	DD	0aH
	DD	0aH
	DB	09H
	ORG $+3
	DD	019H
	DD	019H
	DB	04bH
	ORG $+3
	DD	0fH
	DD	0fH
	DB	01eH
	ORG $+3
	DD	01H
	DD	01H
	DB	02cH
	ORG $+3
	DD	08aH
	DD	00H
	DD	FLAT:??_C@_0O@IGGO@Sparking?5Mail?$AA@
	DB	02bH
	DB	09H
	DB	02H
	ORG $+1
	DD	03d86H
	DB	04bH
	ORG $+3
	DD	01eH
	DD	01eH
	DB	011H
	ORG $+3
	DD	01H
	DD	0aH
	DB	00H
	ORG $+3
	DD	00H
	DD	00H
	DB	00H
	ORG $+3
	DD	00H
	DD	00H
	DB	00H
	ORG $+3
	DD	00H
	DD	00H
	DB	00H
	ORG $+3
	DD	00H
	DD	00H
	DD	FLAT:??_C@_0BD@EIPI@Scavenger?5Carapace?$AA@
	DB	02dH
	DB	0dH
	DB	04H
	ORG $+1
	DD	036b0H
	DB	01eH
	ORG $+3
	DD	0fH
	DD	0fH
	DB	04fH
	ORG $+3
	DD	01eH
	DD	01eH
	DB	017H
	ORG $+3
	DD	05H
	DD	05H
	DB	09H
	ORG $+3
	DD	028H
	DD	028H
	DB	00H
	ORG $+3
	DD	00H
	DD	00H
	DB	00H
	ORG $+3
	DD	00H
	DD	00H
	DD	FLAT:??_C@_0L@IJGD@Nightscape?$AA@
	DB	02eH
	DB	010H
	DB	06H
	ORG $+1
	DD	02d50H
	DB	03bH
	ORG $+3
	DD	02H
	DD	02H
	DB	027H
	ORG $+3
	DD	04H
	DD	04H
	DB	04bH
	ORG $+3
	DD	0fH
	DD	0fH
	DB	017H
	ORG $+3
	DD	03H
	DD	03H
	DB	0bH
	ORG $+3
	DD	014H
	DD	014H
	DB	02cH
	ORG $+3
	DD	08aH
	DD	00H
	DD	FLAT:??_C@_0BC@FJEO@Naj?8s?5Light?5Plate?$AA@
	DB	02fH
	DB	013H
	DB	06H
	ORG $+1
	DD	01336cH
	DB	041H
	ORG $+3
	DD	00H
	DD	00H
	DB	015H
	ORG $+3
	DD	05H
	DD	05H
	DB	021H
	ORG $+3
	DD	014H
	DD	014H
	DB	0bH
	ORG $+3
	DD	014H
	DD	014H
	DB	0eH
	ORG $+3
	DD	01H
	DD	01H
	DB	02cH
	ORG $+3
	DD	09fH
	DD	00H
	DD	FLAT:??_C@_0BA@LMDJ@Demonspike?5Coat?$AA@
	DB	030H
	DB	019H
	DB	05H
	ORG $+1
	DD	03d527H
	DB	04bH
	ORG $+3
	DD	064H
	DD	064H
	DB	01eH
	ORG $+3
	DD	06H
	DD	06H
	DB	013H
	ORG $+3
	DD	0aH
	DD	0aH
	DB	025H
	ORG $+3
	DD	00H
	DD	00H
	DB	08H
	ORG $+3
	DD	032H
	DD	032H
	DB	00H
	ORG $+3
	DD	00H
	DD	00H
	DD	FLAT:??_C@_0O@BCBJ@The?5Deflector?$AA@
	DB	031H
	DB	01H
	DB	05H
	ORG $+1
	DD	05dcH
	DB	04bH
	ORG $+3
	DD	07H
	DD	07H
	DB	0bH
	ORG $+3
	DD	0aH
	DD	0aH
	DB	03H
	ORG $+3
	DD	014H
	DD	014H
	DB	01H
	ORG $+3
	DD	05H
	DD	05H
	DB	02cH
	ORG $+3
	DD	053H
	DD	00H
	DB	00H
	ORG $+3
	DD	00H
	DD	00H
	DD	FLAT:??_C@_0BD@FMDN@Split?5Skull?5Shield?$AA@
	DB	031H
	DB	01H
	DB	06H
	ORG $+1
	DD	07e9H
	DB	04bH
	ORG $+3
	DD	0aH
	DD	0aH
	DB	01fH
	ORG $+3
	DD	0aH
	DD	0aH
	DB	013H
	ORG $+3
	DD	02H
	DD	02H
	DB	027H
	ORG $+3
	DD	01H
	DD	01H
	DB	040H
	ORG $+3
	DD	0fH
	DD	0fH
	DB	02cH
	ORG $+3
	DD	074H
	DD	00H
	DD	FLAT:??_C@_0BA@MNCP@Dragon?8s?5Breach?$AA@
	DB	034H
	DB	02H
	DB	06H
	ORG $+1
	DD	04b00H
	DB	08H
	ORG $+3
	DD	019H
	DD	019H
	DB	013H
	ORG $+3
	DD	05H
	DD	05H
	DB	04bH
	ORG $+3
	DD	014H
	DD	014H
	DB	016H
	ORG $+3
	DD	05H
	DD	05H
	DB	025H
	ORG $+3
	DD	00H
	DD	00H
	DB	02cH
	ORG $+3
	DD	075H
	DD	00H
	DD	FLAT:??_C@_0BA@JLBF@Blackoak?5Shield?$AA@
	DB	032H
	DB	04H
	DB	06H
	ORG $+1
	DD	0165dH
	DB	017H
	ORG $+3
	DD	0aH
	DD	0aH
	DB	01aH
	ORG $+3
	DD	0aH
	DD	0aH
	DB	04bH
	ORG $+3
	DD	012H
	DD	012H
	DB	027H
	ORG $+3
	DD	01H
	DD	01H
	DB	023H
	ORG $+3
	DD	096H
	DD	096H
	DB	02cH
	ORG $+3
	DD	092H
	DD	00H
	DD	FLAT:??_C@_0O@MBNB@Holy?5Defender?$AA@
	DB	033H
	DB	0aH
	DB	06H
	ORG $+1
	DD	035e8H
	DB	04bH
	ORG $+3
	DD	0fH
	DD	0fH
	DB	01eH
	ORG $+3
	DD	02H
	DD	02H
	DB	08H
	ORG $+3
	DD	014H
	DD	014H
	DB	023H
	ORG $+3
	DD	0c8H
	DD	0c8H
	DB	03cH
	ORG $+3
	DD	01H
	DD	01H
	DB	02cH
	ORG $+3
	DD	092H
	DD	00H
	DD	FLAT:??_C@_0M@CHNE@Stormshield?$AA@
	DB	035H
	DB	018H
	DB	06H
	ORG $+1
	DD	0bf68H
	DB	04bH
	ORG $+3
	DD	028H
	DD	028H
	DB	01dH
	ORG $+3
	DD	04H
	DD	04H
	DB	013H
	ORG $+3
	DD	0aH
	DD	0aH
	DB	025H
	ORG $+3
	DD	00H
	DD	00H
	DB	03cH
	ORG $+3
	DD	01H
	DD	01H
	DB	02cH
	ORG $+3
	DD	094H
	DD	00H
	DD	FLAT:??_C@_07JICK@Bramble?$AA@
	DB	036H
	DB	01H
	DB	04H
	ORG $+1
	DD	03e8H
	DB	01cH
	ORG $+3
	DD	02H
	DD	02H
	DB	03dH
	ORG $+3
	DD	03H
	DD	03H
	DB	021H
	ORG $+3
	DD	0aH
	DD	0aH
	DB	02cH
	ORG $+3
	DD	09H
	DD	00H
	DB	00H
	ORG $+3
	DD	00H
	DD	00H
	DB	00H
	ORG $+3
	DD	00H
	DD	00H
	DD	FLAT:??_C@_0O@GFAH@Ring?5of?5Regha?$AA@
	DB	036H
	DB	01H
	DB	06H
	ORG $+1
	DD	0104fH
	DB	015H
	ORG $+3
	DD	0aH
	DD	0aH
	DB	0aH
	ORG $+3
	DD	0aH
	DD	0aH
	DB	026H
	ORG $+3
	DD	01H
	DD	01H
	DB	014H
	ORG $+3
	DD	03H
	DD	03H
	DB	018H
	ORG $+3
	DD	03H
	DD	03H
	DB	02cH
	ORG $+3
	DD	0bH
	DD	00H
	DD	FLAT:??_C@_0M@MJLO@The?5Bleeder?$AA@
	DB	036H
	DB	02H
	DB	04H
	ORG $+1
	DD	02134H
	DB	0aH
	ORG $+3
	DD	014H
	DD	014H
	DB	021H
	ORG $+3
	DD	01eH
	DD	01eH
	DB	020H
	ORG $+3
	DD	0aH
	DD	0aH
	DB	02cH
	ORG $+3
	DD	08H
	DD	00H
	DB	00H
	ORG $+3
	DD	00H
	DD	00H
	DB	00H
	ORG $+3
	DD	00H
	DD	00H
	DD	FLAT:??_C@_0BC@GNLC@Constricting?5Ring?$AA@
	DB	036H
	DB	05H
	DB	03H
	ORG $+1
	DD	0f230H
	DB	0bH
	ORG $+3
	DD	04bH
	DD	04bH
	DB	048H
	ORG $+3
	DD	00H
	DD	00H
	DB	02cH
	ORG $+3
	DD	0eH
	DD	00H
	DB	00H
	ORG $+3
	DD	00H
	DD	00H
	DB	00H
	ORG $+3
	DD	00H
	DD	00H
	DB	00H
	ORG $+3
	DD	00H
	DD	00H
	DD	FLAT:??_C@_0BD@BKHB@Ring?5of?5Engagement?$AA@
	DB	036H
	DB	0bH
	DB	05H
	ORG $+1
	DD	030bcH
	DB	01eH
	ORG $+3
	DD	01H
	DD	02H
	DB	02dH
	ORG $+3
	DD	01H
	DD	03H
	DB	04bH
	ORG $+3
	DD	05H
	DD	05H
	DB	039H
	ORG $+3
	DD	04H
	DD	0cH
	DB	02cH
	ORG $+3
	DD	0dH
	DD	00H
	DB	00H
	ORG $+3
	DD	00H
	DD	00H
	DD	FLAT:??_C@_00A@?$AA@
	DB	0ffH
	DB	00H
	DB	00H
	ORG $+1
	DD	00H
	DB	00H
	ORG $+3
	DD	00H
	DD	00H
	DB	00H
	ORG $+3
	DD	00H
	DD	00H
	DB	00H
	ORG $+3
	DD	00H
	DD	00H
	DB	00H
	ORG $+3
	DD	00H
	DD	00H
	DB	00H
	ORG $+3
	DD	00H
	DD	00H
	DB	00H
	ORG $+3
	DD	00H
	DD	00H
CONST	ENDS
;	COMDAT ??_C@_0M@HOBP@Short?5Sword?$AA@
_DATA	SEGMENT
??_C@_0M@HOBP@Short?5Sword?$AA@ DB 'Short Sword', 00H	; `string'
_DATA	ENDS
;	COMDAT ??_C@_07MMEF@Buckler?$AA@
_DATA	SEGMENT
??_C@_07MMEF@Buckler?$AA@ DB 'Buckler', 00H		; `string'
_DATA	ENDS
;	COMDAT ??_C@_04NPLD@Club?$AA@
_DATA	SEGMENT
??_C@_04NPLD@Club?$AA@ DB 'Club', 00H			; `string'
_DATA	ENDS
;	COMDAT ??_C@_09HMDM@Short?5Bow?$AA@
_DATA	SEGMENT
??_C@_09HMDM@Short?5Bow?$AA@ DB 'Short Bow', 00H	; `string'
_DATA	ENDS
;	COMDAT ??_C@_0BM@FKFF@Short?5Staff?5of?5Charged?5Bolt?$AA@
_DATA	SEGMENT
??_C@_0BM@FKFF@Short?5Staff?5of?5Charged?5Bolt?$AA@ DB 'Short Staff of Ch'
	DB	'arged Bolt', 00H				; `string'
_DATA	ENDS
;	COMDAT ??_C@_07DFGK@Cleaver?$AA@
_DATA	SEGMENT
??_C@_07DFGK@Cleaver?$AA@ DB 'Cleaver', 00H		; `string'
_DATA	ENDS
;	COMDAT ??_C@_0L@CAJC@Magic?5Rock?$AA@
_DATA	SEGMENT
??_C@_0L@CAJC@Magic?5Rock?$AA@ DB 'Magic Rock', 00H	; `string'
_DATA	ENDS
;	COMDAT ??_C@_0M@NAPI@Tavern?5Sign?$AA@
_DATA	SEGMENT
??_C@_0M@NAPI@Tavern?5Sign?$AA@ DB 'Tavern Sign', 00H	; `string'
_DATA	ENDS
;	COMDAT ??_C@_0O@DFFP@Golden?5Elixir?$AA@
_DATA	SEGMENT
??_C@_0O@DFFP@Golden?5Elixir?$AA@ DB 'Golden Elixir', 00H ; `string'
_DATA	ENDS
;	COMDAT ??_C@_0O@FHBG@Anvil?5of?5Fury?$AA@
_DATA	SEGMENT
??_C@_0O@FHBG@Anvil?5of?5Fury?$AA@ DB 'Anvil of Fury', 00H ; `string'
_DATA	ENDS
;	COMDAT ??_C@_0P@DIJL@Black?5Mushroom?$AA@
_DATA	SEGMENT
??_C@_0P@DIJL@Black?5Mushroom?$AA@ DB 'Black Mushroom', 00H ; `string'
_DATA	ENDS
;	COMDAT ??_C@_05LNNG@Brain?$AA@
_DATA	SEGMENT
??_C@_05LNNG@Brain?$AA@ DB 'Brain', 00H			; `string'
_DATA	ENDS
;	COMDAT ??_C@_0M@FMMF@Fungal?5Tome?$AA@
_DATA	SEGMENT
??_C@_0M@FMMF@Fungal?5Tome?$AA@ DB 'Fungal Tome', 00H	; `string'
_DATA	ENDS
;	COMDAT ??_C@_0BA@FAA@Spectral?5Elixir?$AA@
_DATA	SEGMENT
??_C@_0BA@FAA@Spectral?5Elixir?$AA@ DB 'Spectral Elixir', 00H ; `string'
_DATA	ENDS
;	COMDAT ??_C@_0M@BAA@Blood?5Stone?$AA@
_DATA	SEGMENT
??_C@_0M@BAA@Blood?5Stone?$AA@ DB 'Blood Stone', 00H	; `string'
_DATA	ENDS
;	COMDAT ??_C@_0BB@DLLL@Map?5of?5the?5Stars?$AA@
_DATA	SEGMENT
??_C@_0BB@DLLL@Map?5of?5the?5Stars?$AA@ DB 'Map of the Stars', 00H ; `string'
_DATA	ENDS
;	COMDAT ??_C@_05BPMN@Heart?$AA@
_DATA	SEGMENT
??_C@_05BPMN@Heart?$AA@ DB 'Heart', 00H			; `string'
_DATA	ENDS
;	COMDAT ??_C@_0BC@OFPF@Potion?5of?5Healing?$AA@
_DATA	SEGMENT
??_C@_0BC@OFPF@Potion?5of?5Healing?$AA@ DB 'Potion of Healing', 00H ; `string'
_DATA	ENDS
;	COMDAT ??_C@_0P@PEDF@Potion?5of?5Mana?$AA@
_DATA	SEGMENT
??_C@_0P@PEDF@Potion?5of?5Mana?$AA@ DB 'Potion of Mana', 00H ; `string'
_DATA	ENDS
;	COMDAT ??_C@_0BD@HKHI@Scroll?5of?5Identify?$AA@
_DATA	SEGMENT
??_C@_0BD@HKHI@Scroll?5of?5Identify?$AA@ DB 'Scroll of Identify', 00H ; `string'
_DATA	ENDS
;	COMDAT ??_C@_0BG@BCKO@Scroll?5of?5Town?5Portal?$AA@
_DATA	SEGMENT
??_C@_0BG@BCKO@Scroll?5of?5Town?5Portal?$AA@ DB 'Scroll of Town Portal', 00H ; `string'
_DATA	ENDS
;	COMDAT ??_C@_0BH@FJIN@Potion?5of?5Full?5Healing?$AA@
_DATA	SEGMENT
??_C@_0BH@FJIN@Potion?5of?5Full?5Healing?$AA@ DB 'Potion of Full Healing', 00H ; `string'
_DATA	ENDS
;	COMDAT ??_C@_0BE@EKIO@Potion?5of?5Full?5Mana?$AA@
_DATA	SEGMENT
??_C@_0BE@EKIO@Potion?5of?5Full?5Mana?$AA@ DB 'Potion of Full Mana', 00H ; `string'
_DATA	ENDS
;	COMDAT ??_C@_0BB@IAKD@Staff?5of?5Lazarus?$AA@
_DATA	SEGMENT
??_C@_0BB@IAKD@Staff?5of?5Lazarus?$AA@ DB 'Staff of Lazarus', 00H ; `string'
_DATA	ENDS
;	COMDAT ??_C@_0BE@KOIM@Scroll?5of?5Resurrect?$AA@
_DATA	SEGMENT
??_C@_0BE@KOIM@Scroll?5of?5Resurrect?$AA@ DB 'Scroll of Resurrect', 00H ; `string'
_DATA	ENDS
;	COMDAT ??_C@_03EEJM@Cap?$AA@
_DATA	SEGMENT
??_C@_03EEJM@Cap?$AA@ DB 'Cap', 00H			; `string'
_DATA	ENDS
;	COMDAT ??_C@_09CIHH@Skull?5Cap?$AA@
_DATA	SEGMENT
??_C@_09CIHH@Skull?5Cap?$AA@ DB 'Skull Cap', 00H	; `string'
_DATA	ENDS
;	COMDAT ??_C@_04JAHM@Helm?$AA@
_DATA	SEGMENT
??_C@_04JAHM@Helm?$AA@ DB 'Helm', 00H			; `string'
_DATA	ENDS
;	COMDAT ??_C@_09PBMM@Full?5Helm?$AA@
_DATA	SEGMENT
??_C@_09PBMM@Full?5Helm?$AA@ DB 'Full Helm', 00H	; `string'
_DATA	ENDS
;	COMDAT ??_C@_05MJDD@Crown?$AA@
_DATA	SEGMENT
??_C@_05MJDD@Crown?$AA@ DB 'Crown', 00H			; `string'
_DATA	ENDS
;	COMDAT ??_C@_0L@FPDC@Great?5Helm?$AA@
_DATA	SEGMENT
??_C@_0L@FPDC@Great?5Helm?$AA@ DB 'Great Helm', 00H	; `string'
_DATA	ENDS
;	COMDAT ??_C@_04EMKP@Cape?$AA@
_DATA	SEGMENT
??_C@_04EMKP@Cape?$AA@ DB 'Cape', 00H			; `string'
_DATA	ENDS
;	COMDAT ??_C@_04GBCC@Rags?$AA@
_DATA	SEGMENT
??_C@_04GBCC@Rags?$AA@ DB 'Rags', 00H			; `string'
_DATA	ENDS
;	COMDAT ??_C@_05HEPD@Cloak?$AA@
_DATA	SEGMENT
??_C@_05HEPD@Cloak?$AA@ DB 'Cloak', 00H			; `string'
_DATA	ENDS
;	COMDAT ??_C@_04HOC@Robe?$AA@
_DATA	SEGMENT
??_C@_04HOC@Robe?$AA@ DB 'Robe', 00H			; `string'
_DATA	ENDS
;	COMDAT ??_C@_0O@JGBG@Quilted?5Armor?$AA@
_DATA	SEGMENT
??_C@_0O@JGBG@Quilted?5Armor?$AA@ DB 'Quilted Armor', 00H ; `string'
_DATA	ENDS
;	COMDAT ??_C@_05KFDN@Armor?$AA@
_DATA	SEGMENT
??_C@_05KFDN@Armor?$AA@ DB 'Armor', 00H			; `string'
_DATA	ENDS
;	COMDAT ??_C@_0O@CGFJ@Leather?5Armor?$AA@
_DATA	SEGMENT
??_C@_0O@CGFJ@Leather?5Armor?$AA@ DB 'Leather Armor', 00H ; `string'
_DATA	ENDS
;	COMDAT ??_C@_0BD@GHHI@Hard?5Leather?5Armor?$AA@
_DATA	SEGMENT
??_C@_0BD@GHHI@Hard?5Leather?5Armor?$AA@ DB 'Hard Leather Armor', 00H ; `string'
_DATA	ENDS
;	COMDAT ??_C@_0BG@EIMI@Studded?5Leather?5Armor?$AA@
_DATA	SEGMENT
??_C@_0BG@EIMI@Studded?5Leather?5Armor?$AA@ DB 'Studded Leather Armor', 00H ; `string'
_DATA	ENDS
;	COMDAT ??_C@_09GPFE@Ring?5Mail?$AA@
_DATA	SEGMENT
??_C@_09GPFE@Ring?5Mail?$AA@ DB 'Ring Mail', 00H	; `string'
_DATA	ENDS
;	COMDAT ??_C@_04IOKL@Mail?$AA@
_DATA	SEGMENT
??_C@_04IOKL@Mail?$AA@ DB 'Mail', 00H			; `string'
_DATA	ENDS
;	COMDAT ??_C@_0L@EEOL@Chain?5Mail?$AA@
_DATA	SEGMENT
??_C@_0L@EEOL@Chain?5Mail?$AA@ DB 'Chain Mail', 00H	; `string'
_DATA	ENDS
;	COMDAT ??_C@_0L@GLHE@Scale?5Mail?$AA@
_DATA	SEGMENT
??_C@_0L@GLHE@Scale?5Mail?$AA@ DB 'Scale Mail', 00H	; `string'
_DATA	ENDS
;	COMDAT ??_C@_0N@CMJK@Breast?5Plate?$AA@
_DATA	SEGMENT
??_C@_0N@CMJK@Breast?5Plate?$AA@ DB 'Breast Plate', 00H	; `string'
_DATA	ENDS
;	COMDAT ??_C@_05GHGI@Plate?$AA@
_DATA	SEGMENT
??_C@_05GHGI@Plate?$AA@ DB 'Plate', 00H			; `string'
_DATA	ENDS
;	COMDAT ??_C@_0M@LJKD@Splint?5Mail?$AA@
_DATA	SEGMENT
??_C@_0M@LJKD@Splint?5Mail?$AA@ DB 'Splint Mail', 00H	; `string'
_DATA	ENDS
;	COMDAT ??_C@_0L@DLHM@Plate?5Mail?$AA@
_DATA	SEGMENT
??_C@_0L@DLHM@Plate?5Mail?$AA@ DB 'Plate Mail', 00H	; `string'
_DATA	ENDS
;	COMDAT ??_C@_0M@EEOC@Field?5Plate?$AA@
_DATA	SEGMENT
??_C@_0M@EEOC@Field?5Plate?$AA@ DB 'Field Plate', 00H	; `string'
_DATA	ENDS
;	COMDAT ??_C@_0N@JKHF@Gothic?5Plate?$AA@
_DATA	SEGMENT
??_C@_0N@JKHF@Gothic?5Plate?$AA@ DB 'Gothic Plate', 00H	; `string'
_DATA	ENDS
;	COMDAT ??_C@_0BA@NADG@Full?5Plate?5Mail?$AA@
_DATA	SEGMENT
??_C@_0BA@NADG@Full?5Plate?5Mail?$AA@ DB 'Full Plate Mail', 00H ; `string'
_DATA	ENDS
;	COMDAT ??_C@_06GBHM@Shield?$AA@
_DATA	SEGMENT
??_C@_06GBHM@Shield?$AA@ DB 'Shield', 00H		; `string'
_DATA	ENDS
;	COMDAT ??_C@_0N@GPPF@Small?5Shield?$AA@
_DATA	SEGMENT
??_C@_0N@GPPF@Small?5Shield?$AA@ DB 'Small Shield', 00H	; `string'
_DATA	ENDS
;	COMDAT ??_C@_0N@BAHM@Large?5Shield?$AA@
_DATA	SEGMENT
??_C@_0N@BAHM@Large?5Shield?$AA@ DB 'Large Shield', 00H	; `string'
_DATA	ENDS
;	COMDAT ??_C@_0M@BCJC@Kite?5Shield?$AA@
_DATA	SEGMENT
??_C@_0M@BCJC@Kite?5Shield?$AA@ DB 'Kite Shield', 00H	; `string'
_DATA	ENDS
;	COMDAT ??_C@_0N@MEKF@Tower?5Shield?$AA@
_DATA	SEGMENT
??_C@_0N@MEKF@Tower?5Shield?$AA@ DB 'Tower Shield', 00H	; `string'
_DATA	ENDS
;	COMDAT ??_C@_0O@KMIB@Gothic?5Shield?$AA@
_DATA	SEGMENT
??_C@_0O@KMIB@Gothic?5Shield?$AA@ DB 'Gothic Shield', 00H ; `string'
_DATA	ENDS
;	COMDAT ??_C@_0BH@MDNB@Potion?5of?5Rejuvenation?$AA@
_DATA	SEGMENT
??_C@_0BH@MDNB@Potion?5of?5Rejuvenation?$AA@ DB 'Potion of Rejuvenation', 00H ; `string'
_DATA	ENDS
;	COMDAT ??_C@_0BM@HDFP@Potion?5of?5Full?5Rejuvenation?$AA@
_DATA	SEGMENT
??_C@_0BM@HDFP@Potion?5of?5Full?5Rejuvenation?$AA@ DB 'Potion of Full Rej'
	DB	'uvenation', 00H				; `string'
_DATA	ENDS
;	COMDAT ??_C@_0BD@JMEN@Elixir?5of?5Strength?$AA@
_DATA	SEGMENT
??_C@_0BD@JMEN@Elixir?5of?5Strength?$AA@ DB 'Elixir of Strength', 00H ; `string'
_DATA	ENDS
;	COMDAT ??_C@_0BA@EHL@Elixir?5of?5Magic?$AA@
_DATA	SEGMENT
??_C@_0BA@EHL@Elixir?5of?5Magic?$AA@ DB 'Elixir of Magic', 00H ; `string'
_DATA	ENDS
;	COMDAT ??_C@_0BE@FLMA@Elixir?5of?5Dexterity?$AA@
_DATA	SEGMENT
??_C@_0BE@FLMA@Elixir?5of?5Dexterity?$AA@ DB 'Elixir of Dexterity', 00H ; `string'
_DATA	ENDS
;	COMDAT ??_C@_0BD@DFDJ@Elixir?5of?5Vitality?$AA@
_DATA	SEGMENT
??_C@_0BD@DFDJ@Elixir?5of?5Vitality?$AA@ DB 'Elixir of Vitality', 00H ; `string'
_DATA	ENDS
;	COMDAT ??_C@_0BC@BGMN@Scroll?5of?5Healing?$AA@
_DATA	SEGMENT
??_C@_0BC@BGMN@Scroll?5of?5Healing?$AA@ DB 'Scroll of Healing', 00H ; `string'
_DATA	ENDS
;	COMDAT ??_C@_0BE@EOEK@Scroll?5of?5Lightning?$AA@
_DATA	SEGMENT
??_C@_0BE@EOEK@Scroll?5of?5Lightning?$AA@ DB 'Scroll of Lightning', 00H ; `string'
_DATA	ENDS
;	COMDAT ??_C@_0BE@KGPH@Scroll?5of?5Fire?5Wall?$AA@
_DATA	SEGMENT
??_C@_0BE@KGPH@Scroll?5of?5Fire?5Wall?$AA@ DB 'Scroll of Fire Wall', 00H ; `string'
_DATA	ENDS
;	COMDAT ??_C@_0BC@FHNN@Scroll?5of?5Inferno?$AA@
_DATA	SEGMENT
??_C@_0BC@FHNN@Scroll?5of?5Inferno?$AA@ DB 'Scroll of Inferno', 00H ; `string'
_DATA	ENDS
;	COMDAT ??_C@_0BA@FPKC@Scroll?5of?5Flash?$AA@
_DATA	SEGMENT
??_C@_0BA@FPKC@Scroll?5of?5Flash?$AA@ DB 'Scroll of Flash', 00H ; `string'
_DATA	ENDS
;	COMDAT ??_C@_0BG@LPBB@Scroll?5of?5Infravision?$AA@
_DATA	SEGMENT
??_C@_0BG@LPBB@Scroll?5of?5Infravision?$AA@ DB 'Scroll of Infravision', 00H ; `string'
_DATA	ENDS
;	COMDAT ??_C@_0BC@GABE@Scroll?5of?5Phasing?$AA@
_DATA	SEGMENT
??_C@_0BC@GABE@Scroll?5of?5Phasing?$AA@ DB 'Scroll of Phasing', 00H ; `string'
_DATA	ENDS
;	COMDAT ??_C@_0BG@HMH@Scroll?5of?5Mana?5Shield?$AA@
_DATA	SEGMENT
??_C@_0BG@HMH@Scroll?5of?5Mana?5Shield?$AA@ DB 'Scroll of Mana Shield', 00H ; `string'
_DATA	ENDS
;	COMDAT ??_C@_0BF@KPLE@Scroll?5of?5Flame?5Wave?$AA@
_DATA	SEGMENT
??_C@_0BF@KPLE@Scroll?5of?5Flame?5Wave?$AA@ DB 'Scroll of Flame Wave', 00H ; `string'
_DATA	ENDS
;	COMDAT ??_C@_0BD@FLEO@Scroll?5of?5Fireball?$AA@
_DATA	SEGMENT
??_C@_0BD@FLEO@Scroll?5of?5Fireball?$AA@ DB 'Scroll of Fireball', 00H ; `string'
_DATA	ENDS
;	COMDAT ??_C@_0BG@DOBJ@Scroll?5of?5Stone?5Curse?$AA@
_DATA	SEGMENT
??_C@_0BG@DOBJ@Scroll?5of?5Stone?5Curse?$AA@ DB 'Scroll of Stone Curse', 00H ; `string'
_DATA	ENDS
;	COMDAT ??_C@_0BK@ECBO@Scroll?5of?5Chain?5Lightning?$AA@
_DATA	SEGMENT
??_C@_0BK@ECBO@Scroll?5of?5Chain?5Lightning?$AA@ DB 'Scroll of Chain Ligh'
	DB	'tning', 00H					; `string'
_DATA	ENDS
;	COMDAT ??_C@_0BD@FBKP@Scroll?5of?5Guardian?$AA@
_DATA	SEGMENT
??_C@_0BD@FBKP@Scroll?5of?5Guardian?$AA@ DB 'Scroll of Guardian', 00H ; `string'
_DATA	ENDS
;	COMDAT ??_C@_08FNGF@Non?5Item?$AA@
_DATA	SEGMENT
??_C@_08FNGF@Non?5Item?$AA@ DB 'Non Item', 00H		; `string'
_DATA	ENDS
;	COMDAT ??_C@_0P@BBFO@Scroll?5of?5Nova?$AA@
_DATA	SEGMENT
??_C@_0P@BBFO@Scroll?5of?5Nova?$AA@ DB 'Scroll of Nova', 00H ; `string'
_DATA	ENDS
;	COMDAT ??_C@_0BA@HBF@Scroll?5of?5Golem?$AA@
_DATA	SEGMENT
??_C@_0BA@HBF@Scroll?5of?5Golem?$AA@ DB 'Scroll of Golem', 00H ; `string'
_DATA	ENDS
;	COMDAT ??_C@_0P@GEPP@Scroll?5of?5None?$AA@
_DATA	SEGMENT
??_C@_0P@GEPP@Scroll?5of?5None?$AA@ DB 'Scroll of None', 00H ; `string'
_DATA	ENDS
;	COMDAT ??_C@_0BD@DLEP@Scroll?5of?5Teleport?$AA@
_DATA	SEGMENT
??_C@_0BD@DLEP@Scroll?5of?5Teleport?$AA@ DB 'Scroll of Teleport', 00H ; `string'
_DATA	ENDS
;	COMDAT ??_C@_0BF@ODHC@Scroll?5of?5Apocalypse?$AA@
_DATA	SEGMENT
??_C@_0BF@ODHC@Scroll?5of?5Apocalypse?$AA@ DB 'Scroll of Apocalypse', 00H ; `string'
_DATA	ENDS
;	COMDAT ??_C@_08DNLH@Book?5of?5?$AA@
_DATA	SEGMENT
??_C@_08DNLH@Book?5of?5?$AA@ DB 'Book of ', 00H		; `string'
_DATA	ENDS
;	COMDAT ??_C@_06NGLM@Dagger?$AA@
_DATA	SEGMENT
??_C@_06NGLM@Dagger?$AA@ DB 'Dagger', 00H		; `string'
_DATA	ENDS
;	COMDAT ??_C@_05DGOK@Sword?$AA@
_DATA	SEGMENT
??_C@_05DGOK@Sword?$AA@ DB 'Sword', 00H			; `string'
_DATA	ENDS
;	COMDAT ??_C@_08OIB@Falchion?$AA@
_DATA	SEGMENT
??_C@_08OIB@Falchion?$AA@ DB 'Falchion', 00H		; `string'
_DATA	ENDS
;	COMDAT ??_C@_08KAPM@Scimitar?$AA@
_DATA	SEGMENT
??_C@_08KAPM@Scimitar?$AA@ DB 'Scimitar', 00H		; `string'
_DATA	ENDS
;	COMDAT ??_C@_08MPPO@Claymore?$AA@
_DATA	SEGMENT
??_C@_08MPPO@Claymore?$AA@ DB 'Claymore', 00H		; `string'
_DATA	ENDS
;	COMDAT ??_C@_05EPNO@Blade?$AA@
_DATA	SEGMENT
??_C@_05EPNO@Blade?$AA@ DB 'Blade', 00H			; `string'
_DATA	ENDS
;	COMDAT ??_C@_05JMEJ@Sabre?$AA@
_DATA	SEGMENT
??_C@_05JMEJ@Sabre?$AA@ DB 'Sabre', 00H			; `string'
_DATA	ENDS
;	COMDAT ??_C@_0L@PEAA@Long?5Sword?$AA@
_DATA	SEGMENT
??_C@_0L@PEAA@Long?5Sword?$AA@ DB 'Long Sword', 00H	; `string'
_DATA	ENDS
;	COMDAT ??_C@_0M@BCBO@Broad?5Sword?$AA@
_DATA	SEGMENT
??_C@_0M@BCBO@Broad?5Sword?$AA@ DB 'Broad Sword', 00H	; `string'
_DATA	ENDS
;	COMDAT ??_C@_0O@LHMK@Bastard?5Sword?$AA@
_DATA	SEGMENT
??_C@_0O@LHMK@Bastard?5Sword?$AA@ DB 'Bastard Sword', 00H ; `string'
_DATA	ENDS
;	COMDAT ??_C@_0BB@BPCM@Two?9Handed?5Sword?$AA@
_DATA	SEGMENT
??_C@_0BB@BPCM@Two?9Handed?5Sword?$AA@ DB 'Two-Handed Sword', 00H ; `string'
_DATA	ENDS
;	COMDAT ??_C@_0M@CNCF@Great?5Sword?$AA@
_DATA	SEGMENT
??_C@_0M@CNCF@Great?5Sword?$AA@ DB 'Great Sword', 00H	; `string'
_DATA	ENDS
;	COMDAT ??_C@_09PFN@Small?5Axe?$AA@
_DATA	SEGMENT
??_C@_09PFN@Small?5Axe?$AA@ DB 'Small Axe', 00H		; `string'
_DATA	ENDS
;	COMDAT ??_C@_03IAFN@Axe?$AA@
_DATA	SEGMENT
??_C@_03IAFN@Axe?$AA@ DB 'Axe', 00H			; `string'
_DATA	ENDS
;	COMDAT ??_C@_09DPKC@Large?5Axe?$AA@
_DATA	SEGMENT
??_C@_09DPKC@Large?5Axe?$AA@ DB 'Large Axe', 00H	; `string'
_DATA	ENDS
;	COMDAT ??_C@_09COBI@Broad?5Axe?$AA@
_DATA	SEGMENT
??_C@_09COBI@Broad?5Axe?$AA@ DB 'Broad Axe', 00H	; `string'
_DATA	ENDS
;	COMDAT ??_C@_0L@FOHJ@Battle?5Axe?$AA@
_DATA	SEGMENT
??_C@_0L@FOHJ@Battle?5Axe?$AA@ DB 'Battle Axe', 00H	; `string'
_DATA	ENDS
;	COMDAT ??_C@_09MOKD@Great?5Axe?$AA@
_DATA	SEGMENT
??_C@_09MOKD@Great?5Axe?$AA@ DB 'Great Axe', 00H	; `string'
_DATA	ENDS
;	COMDAT ??_C@_04OIIF@Mace?$AA@
_DATA	SEGMENT
??_C@_04OIIF@Mace?$AA@ DB 'Mace', 00H			; `string'
_DATA	ENDS
;	COMDAT ??_C@_0N@CCDC@Morning?5Star?$AA@
_DATA	SEGMENT
??_C@_0N@CCDC@Morning?5Star?$AA@ DB 'Morning Star', 00H	; `string'
_DATA	ENDS
;	COMDAT ??_C@_0L@NFJ@War?5Hammer?$AA@
_DATA	SEGMENT
??_C@_0L@NFJ@War?5Hammer?$AA@ DB 'War Hammer', 00H	; `string'
_DATA	ENDS
;	COMDAT ??_C@_06HJJB@Hammer?$AA@
_DATA	SEGMENT
??_C@_06HJJB@Hammer?$AA@ DB 'Hammer', 00H		; `string'
_DATA	ENDS
;	COMDAT ??_C@_0M@OOJP@Spiked?5Club?$AA@
_DATA	SEGMENT
??_C@_0M@OOJP@Spiked?5Club?$AA@ DB 'Spiked Club', 00H	; `string'
_DATA	ENDS
;	COMDAT ??_C@_05MIDA@Flail?$AA@
_DATA	SEGMENT
??_C@_05MIDA@Flail?$AA@ DB 'Flail', 00H			; `string'
_DATA	ENDS
;	COMDAT ??_C@_04LPM@Maul?$AA@
_DATA	SEGMENT
??_C@_04LPM@Maul?$AA@ DB 'Maul', 00H			; `string'
_DATA	ENDS
;	COMDAT ??_C@_03IBME@Bow?$AA@
_DATA	SEGMENT
??_C@_03IBME@Bow?$AA@ DB 'Bow', 00H			; `string'
_DATA	ENDS
;	COMDAT ??_C@_0N@JCDD@Hunter?8s?5Bow?$AA@
_DATA	SEGMENT
??_C@_0N@JCDD@Hunter?8s?5Bow?$AA@ DB 'Hunter''s Bow', 00H ; `string'
_DATA	ENDS
;	COMDAT ??_C@_08OKLM@Long?5Bow?$AA@
_DATA	SEGMENT
??_C@_08OKLM@Long?5Bow?$AA@ DB 'Long Bow', 00H		; `string'
_DATA	ENDS
;	COMDAT ??_C@_0O@DKDP@Composite?5Bow?$AA@
_DATA	SEGMENT
??_C@_0O@DKDP@Composite?5Bow?$AA@ DB 'Composite Bow', 00H ; `string'
_DATA	ENDS
;	COMDAT ??_C@_0BB@PILI@Short?5Battle?5Bow?$AA@
_DATA	SEGMENT
??_C@_0BB@PILI@Short?5Battle?5Bow?$AA@ DB 'Short Battle Bow', 00H ; `string'
_DATA	ENDS
;	COMDAT ??_C@_0BA@BIGH@Long?5Battle?5Bow?$AA@
_DATA	SEGMENT
??_C@_0BA@BIGH@Long?5Battle?5Bow?$AA@ DB 'Long Battle Bow', 00H ; `string'
_DATA	ENDS
;	COMDAT ??_C@_0O@JFHI@Short?5War?5Bow?$AA@
_DATA	SEGMENT
??_C@_0O@JFHI@Short?5War?5Bow?$AA@ DB 'Short War Bow', 00H ; `string'
_DATA	ENDS
;	COMDAT ??_C@_0N@POPE@Long?5War?5Bow?$AA@
_DATA	SEGMENT
??_C@_0N@POPE@Long?5War?5Bow?$AA@ DB 'Long War Bow', 00H ; `string'
_DATA	ENDS
;	COMDAT ??_C@_0M@IAG@Short?5Staff?$AA@
_DATA	SEGMENT
??_C@_0M@IAG@Short?5Staff?$AA@ DB 'Short Staff', 00H	; `string'
_DATA	ENDS
;	COMDAT ??_C@_05EAPD@Staff?$AA@
_DATA	SEGMENT
??_C@_05EAPD@Staff?$AA@ DB 'Staff', 00H			; `string'
_DATA	ENDS
;	COMDAT ??_C@_0L@ICBJ@Long?5Staff?$AA@
_DATA	SEGMENT
??_C@_0L@ICBJ@Long?5Staff?$AA@ DB 'Long Staff', 00H	; `string'
_DATA	ENDS
;	COMDAT ??_C@_0BA@IFDM@Composite?5Staff?$AA@
_DATA	SEGMENT
??_C@_0BA@IFDM@Composite?5Staff?$AA@ DB 'Composite Staff', 00H ; `string'
_DATA	ENDS
;	COMDAT ??_C@_0O@ILDK@Quarter?5Staff?$AA@
_DATA	SEGMENT
??_C@_0O@ILDK@Quarter?5Staff?$AA@ DB 'Quarter Staff', 00H ; `string'
_DATA	ENDS
;	COMDAT ??_C@_09IIHC@War?5Staff?$AA@
_DATA	SEGMENT
??_C@_09IIHC@War?5Staff?$AA@ DB 'War Staff', 00H	; `string'
_DATA	ENDS
;	COMDAT ??_C@_04FBEF@Ring?$AA@
_DATA	SEGMENT
??_C@_04FBEF@Ring?$AA@ DB 'Ring', 00H			; `string'
_DATA	ENDS
;	COMDAT ??_C@_06BCFK@Amulet?$AA@
_DATA	SEGMENT
??_C@_06BCFK@Amulet?$AA@ DB 'Amulet', 00H		; `string'
_DATA	ENDS
_DATA	SEGMENT
_AllItemsList DD 01H
	DB	04H
	DB	07H
	ORG $+2
	DD	0a8H
	DB	0bH
	DB	00H
	ORG $+2
	DD	FLAT:??_C@_04IKOF@Gold?$AA@
	DD	00H
	DB	01H
	ORG $+3
	DD	00H
	DD	00H
	DD	00H
	DD	00H
	DD	00H
	DB	00H
	DB	00H
	DB	00H
	ORG $+1
	DD	00H
	DD	00H
	DD	00H
	DD	01H
	DD	00H
	DD	00H
	DD	00H
	DB	01H
	DB	01H
	ORG $+2
	DD	040H
	DB	01H
	DB	00H
	ORG $+2
	DD	FLAT:??_C@_0M@HOBP@Short?5Sword?$AA@
	DD	00H
	DB	02H
	ORG $+3
	DD	014H
	DD	02H
	DD	06H
	DD	00H
	DD	00H
	DB	012H
	DB	00H
	DB	00H
	ORG $+1
	DD	00H
	DD	00H
	DD	00H
	DD	00H
	DD	032H
	DD	032H
	DD	00H
	DB	02H
	DB	01H
	ORG $+2
	DD	053H
	DB	05H
	DB	00H
	ORG $+2
	DD	FLAT:??_C@_07MMEF@Buckler?$AA@
	DD	00H
	DB	02H
	ORG $+3
	DD	0aH
	DD	00H
	DD	00H
	DD	03H
	DD	03H
	DB	00H
	DB	00H
	DB	00H
	ORG $+1
	DD	00H
	DD	00H
	DD	00H
	DD	00H
	DD	032H
	DD	032H
	DD	00H
	DB	01H
	DB	01H
	ORG $+2
	DD	042H
	DB	04H
	DB	019H
	ORG $+2
	DD	FLAT:??_C@_04NPLD@Club?$AA@
	DD	00H
	DB	01H
	ORG $+3
	DD	014H
	DD	01H
	DD	06H
	DD	00H
	DD	00H
	DB	00H
	DB	00H
	DB	00H
	ORG $+1
	DD	00H
	DD	00H
	DD	00H
	DD	00H
	DD	014H
	DD	014H
	DD	00H
	DB	01H
	DB	02H
	ORG $+2
	DD	076H
	DB	03H
	DB	00H
	ORG $+2
	DD	FLAT:??_C@_09HMDM@Short?5Bow?$AA@
	DD	00H
	DB	01H
	ORG $+3
	DD	01eH
	DD	01H
	DD	04H
	DD	00H
	DD	00H
	DB	00H
	DB	00H
	DB	00H
	ORG $+1
	DD	00H
	DD	00H
	DD	00H
	DD	00H
	DD	064H
	DD	064H
	DD	00H
	DB	01H
	DB	02H
	ORG $+2
	DD	06dH
	DB	0aH
	DB	00H
	ORG $+2
	DD	FLAT:??_C@_0BM@FKFF@Short?5Staff?5of?5Charged?5Bolt?$AA@
	DD	00H
	DB	01H
	ORG $+3
	DD	019H
	DD	02H
	DD	04H
	DD	00H
	DD	00H
	DB	00H
	DB	014H
	DB	00H
	ORG $+1
	DD	00H
	DD	017H
	DD	01eH
	DD	00H
	DD	0208H
	DD	0208H
	DD	00H
	DB	01H
	DB	02H
	ORG $+2
	DD	06aH
	DB	02H
	DB	011H
	ORG $+2
	DD	FLAT:??_C@_07DFGK@Cleaver?$AA@
	DD	00H
	DB	0aH
	ORG $+3
	DD	0aH
	DD	04H
	DD	018H
	DD	00H
	DD	00H
	DB	00H
	DB	00H
	DB	00H
	ORG $+1
	DD	00H
	DD	01bH
	DD	00H
	DD	00H
	DD	07d0H
	DD	07d0H
	DD	00H
	DB	02H
	DB	04H
	ORG $+2
	DD	04eH
	DB	07H
	DB	039H
	ORG $+2
	DD	FLAT:??_C@_0BB@GGAG@The?5Undead?5Crown?$AA@
	DD	00H
	DB	00H
	ORG $+3
	DD	032H
	DD	00H
	DD	00H
	DD	0fH
	DD	0fH
	DB	00H
	DB	00H
	DB	00H
	ORG $+1
	DD	02H
	DD	01bH
	DD	00H
	DD	00H
	DD	02710H
	DD	02710H
	DD	00H
	DB	03H
	DB	05H
	ORG $+2
	DD	012H
	DB	0cH
	DB	03aH
	ORG $+2
	DD	FLAT:??_C@_0O@EFCF@Empyrean?5Band?$AA@
	DD	00H
	DB	00H
	ORG $+3
	DD	00H
	DD	00H
	DD	00H
	DD	00H
	DD	00H
	DB	00H
	DB	00H
	DB	00H
	ORG $+1
	DD	00H
	DD	01bH
	DD	00H
	DD	00H
	DD	01f40H
	DD	01f40H
	DD	00H
	DB	05H
	DB	07H
	ORG $+2
	DD	04cH
	DB	00H
	DB	00H
	ORG $+2
	DD	FLAT:??_C@_0L@CAJC@Magic?5Rock?$AA@
	DD	00H
	DB	00H
	ORG $+3
	DD	00H
	DD	00H
	DD	00H
	DD	00H
	DD	00H
	DB	00H
	DB	00H
	DB	00H
	ORG $+1
	DD	00H
	DD	00H
	DD	00H
	DD	00H
	DD	00H
	DD	00H
	DD	00H
	DB	03H
	DB	06H
	ORG $+2
	DD	02cH
	DB	0dH
	DB	03bH
	ORG $+2
	DD	FLAT:??_C@_0N@JIIN@Optic?5Amulet?$AA@
	DD	00H
	DB	00H
	ORG $+3
	DD	00H
	DD	00H
	DD	00H
	DD	00H
	DD	00H
	DB	00H
	DB	00H
	DB	00H
	ORG $+1
	DD	00H
	DD	01bH
	DD	00H
	DD	00H
	DD	01388H
	DD	01388H
	DD	00H
	DB	03H
	DB	05H
	ORG $+2
	DD	0aH
	DB	0cH
	DB	03cH
	ORG $+2
	DD	FLAT:??_C@_0O@PEHI@Ring?5of?5Truth?$AA@
	DD	00H
	DB	00H
	ORG $+3
	DD	00H
	DD	00H
	DD	00H
	DD	00H
	DD	00H
	DB	00H
	DB	00H
	DB	00H
	ORG $+1
	DD	00H
	DD	01bH
	DD	00H
	DD	00H
	DD	03e8H
	DD	03e8H
	DD	00H
	DB	05H
	DB	07H
	ORG $+2
	DD	07eH
	DB	00H
	DB	00H
	ORG $+2
	DD	FLAT:??_C@_0M@NAPI@Tavern?5Sign?$AA@
	DD	00H
	DB	00H
	ORG $+3
	DD	00H
	DD	00H
	DD	00H
	DD	00H
	DD	00H
	DB	00H
	DB	00H
	DB	00H
	ORG $+1
	DD	00H
	DD	00H
	DD	00H
	DD	00H
	DD	00H
	DD	00H
	DD	00H
	DB	02H
	DB	04H
	ORG $+2
	DD	05dH
	DB	07H
	DB	03dH
	ORG $+2
	DD	FLAT:??_C@_0BA@HLFM@Harlequin?5Crest?$AA@
	DD	00H
	DB	00H
	ORG $+3
	DD	0fH
	DD	00H
	DD	00H
	DD	00H
	DD	00H
	DB	00H
	DB	00H
	DB	00H
	ORG $+1
	DD	00H
	DD	01bH
	DD	00H
	DD	00H
	DD	0fH
	DD	014H
	DD	00H
	DB	02H
	DB	04H
	ORG $+2
	DD	055H
	DB	07H
	DB	041H
	ORG $+2
	DD	FLAT:??_C@_0O@FKOJ@Veil?5of?5Steel?$AA@
	DD	00H
	DB	00H
	ORG $+3
	DD	03cH
	DD	00H
	DD	00H
	DD	012H
	DD	012H
	DB	00H
	DB	00H
	DB	00H
	ORG $+1
	DD	00H
	DD	01bH
	DD	00H
	DD	00H
	DD	00H
	DD	00H
	DD	00H
	DB	03H
	DB	07H
	ORG $+2
	DD	011H
	DB	00H
	DB	03fH
	ORG $+2
	DD	FLAT:??_C@_0O@DFFP@Golden?5Elixir?$AA@
	DD	00H
	DB	0fH
	ORG $+3
	DD	00H
	DD	00H
	DD	00H
	DD	00H
	DD	00H
	DB	00H
	DB	00H
	DB	00H
	ORG $+1
	DD	00H
	DD	00H
	DD	00H
	DD	00H
	DD	00H
	DD	00H
	DD	00H
	DB	05H
	DB	07H
	ORG $+2
	DD	08cH
	DB	00H
	DB	00H
	ORG $+2
	DD	FLAT:??_C@_0O@FHBG@Anvil?5of?5Fury?$AA@
	DD	00H
	DB	00H
	ORG $+3
	DD	00H
	DD	00H
	DD	00H
	DD	00H
	DD	00H
	DB	00H
	DB	00H
	DB	00H
	ORG $+1
	DD	00H
	DD	00H
	DD	00H
	DD	00H
	DD	00H
	DD	00H
	DD	00H
	DB	05H
	DB	07H
	ORG $+2
	DD	059H
	DB	00H
	DB	00H
	ORG $+2
	DD	FLAT:??_C@_0P@DIJL@Black?5Mushroom?$AA@
	DD	00H
	DB	00H
	ORG $+3
	DD	00H
	DD	00H
	DD	00H
	DD	00H
	DD	00H
	DB	00H
	DB	00H
	DB	00H
	ORG $+1
	DD	00H
	DD	00H
	DD	00H
	DD	00H
	DD	00H
	DD	00H
	DD	00H
	DB	05H
	DB	07H
	ORG $+2
	DD	028H
	DB	00H
	DB	00H
	ORG $+2
	DD	FLAT:??_C@_05LNNG@Brain?$AA@
	DD	00H
	DB	00H
	ORG $+3
	DD	00H
	DD	00H
	DD	00H
	DD	00H
	DD	00H
	DB	00H
	DB	00H
	DB	00H
	ORG $+1
	DD	00H
	DD	00H
	DD	00H
	DD	00H
	DD	00H
	DD	00H
	DD	00H
	DB	05H
	DB	07H
	ORG $+2
	DD	061H
	DB	00H
	DB	00H
	ORG $+2
	DD	FLAT:??_C@_0M@FMMF@Fungal?5Tome?$AA@
	DD	00H
	DB	00H
	ORG $+3
	DD	00H
	DD	00H
	DD	00H
	DD	00H
	DD	00H
	DB	00H
	DB	00H
	DB	00H
	ORG $+1
	DD	00H
	DD	00H
	DD	00H
	DD	00H
	DD	00H
	DD	00H
	DD	00H
	DB	03H
	DB	07H
	ORG $+2
	DD	0fH
	DB	00H
	DB	03fH
	ORG $+2
	DD	FLAT:??_C@_0BA@FAA@Spectral?5Elixir?$AA@
	DD	00H
	DB	0fH
	ORG $+3
	DD	00H
	DD	00H
	DD	00H
	DD	00H
	DD	00H
	DB	00H
	DB	00H
	DB	00H
	ORG $+1
	DD	00H
	DD	02cH
	DD	00H
	DD	00H
	DD	00H
	DD	00H
	DD	00H
	DB	05H
	DB	07H
	ORG $+2
	DD	019H
	DB	00H
	DB	00H
	ORG $+2
	DD	FLAT:??_C@_0M@BAA@Blood?5Stone?$AA@
	DD	00H
	DB	00H
	ORG $+3
	DD	00H
	DD	00H
	DD	00H
	DD	00H
	DD	00H
	DB	00H
	DB	00H
	DB	00H
	ORG $+1
	DD	00H
	DD	00H
	DD	00H
	DD	00H
	DD	00H
	DD	00H
	DD	00H
	DB	05H
	DB	07H
	ORG $+2
	DD	060H
	DB	00H
	DB	03eH
	ORG $+2
	DD	FLAT:??_C@_0BB@DLLL@Map?5of?5the?5Stars?$AA@
	DD	00H
	DB	00H
	ORG $+3
	DD	00H
	DD	00H
	DD	00H
	DD	00H
	DD	00H
	DB	00H
	DB	00H
	DB	00H
	ORG $+1
	DD	00H
	DD	02aH
	DD	00H
	DD	01H
	DD	00H
	DD	00H
	DD	00H
	DB	05H
	DB	07H
	ORG $+2
	DD	013H
	DB	00H
	DB	00H
	ORG $+2
	DD	FLAT:??_C@_05BPMN@Heart?$AA@
	DD	00H
	DB	00H
	ORG $+3
	DD	00H
	DD	00H
	DD	00H
	DD	00H
	DD	00H
	DB	00H
	DB	00H
	DB	00H
	ORG $+1
	DD	00H
	DD	02bH
	DD	00H
	DD	00H
	DD	00H
	DD	00H
	DD	00H
	DB	03H
	DB	07H
	ORG $+2
	DD	020H
	DB	00H
	DB	00H
	ORG $+2
	DD	FLAT:??_C@_0BC@OFPF@Potion?5of?5Healing?$AA@
	DD	00H
	DB	00H
	ORG $+3
	DD	00H
	DD	00H
	DD	00H
	DD	00H
	DD	00H
	DB	00H
	DB	00H
	DB	00H
	ORG $+1
	DD	00H
	DD	03H
	DD	00H
	DD	01H
	DD	032H
	DD	032H
	DD	00H
	DB	03H
	DB	07H
	ORG $+2
	DD	027H
	DB	00H
	DB	00H
	ORG $+2
	DD	FLAT:??_C@_0P@PEDF@Potion?5of?5Mana?$AA@
	DD	00H
	DB	00H
	ORG $+3
	DD	00H
	DD	00H
	DD	00H
	DD	00H
	DD	00H
	DB	00H
	DB	00H
	DB	00H
	ORG $+1
	DD	00H
	DD	06H
	DD	00H
	DD	01H
	DD	032H
	DD	032H
	DD	00H
	DB	03H
	DB	07H
	ORG $+2
	DD	01H
	DB	00H
	DB	00H
	ORG $+2
	DD	FLAT:??_C@_0BD@HKHI@Scroll?5of?5Identify?$AA@
	DD	00H
	DB	01H
	ORG $+3
	DD	00H
	DD	00H
	DD	00H
	DD	00H
	DD	00H
	DB	00H
	DB	00H
	DB	00H
	ORG $+1
	DD	00H
	DD	015H
	DD	05H
	DD	01H
	DD	0c8H
	DD	0c8H
	DD	00H
	DB	03H
	DB	07H
	ORG $+2
	DD	01H
	DB	00H
	DB	00H
	ORG $+2
	DD	FLAT:??_C@_0BG@BCKO@Scroll?5of?5Town?5Portal?$AA@
	DD	00H
	DB	04H
	ORG $+3
	DD	00H
	DD	00H
	DD	00H
	DD	00H
	DD	00H
	DB	00H
	DB	00H
	DB	00H
	ORG $+1
	DD	00H
	DD	015H
	DD	07H
	DD	01H
	DD	0c8H
	DD	0c8H
	DD	00H
	DB	02H
	DB	03H
	ORG $+2
	DD	09dH
	DB	08H
	DB	040H
	ORG $+2
	DD	FLAT:??_C@_0BA@JENP@Arkaine?8s?5Valor?$AA@
	DD	00H
	DB	00H
	ORG $+3
	DD	028H
	DD	00H
	DD	00H
	DD	00H
	DD	00H
	DB	00H
	DB	00H
	DB	00H
	ORG $+1
	DD	00H
	DD	01bH
	DD	00H
	DD	00H
	DD	00H
	DD	00H
	DD	00H
	DB	03H
	DB	07H
	ORG $+2
	DD	023H
	DB	00H
	DB	00H
	ORG $+2
	DD	FLAT:??_C@_0BH@FJIN@Potion?5of?5Full?5Healing?$AA@
	DD	00H
	DB	01H
	ORG $+3
	DD	00H
	DD	00H
	DD	00H
	DD	00H
	DD	00H
	DB	00H
	DB	00H
	DB	00H
	ORG $+1
	DD	00H
	DD	02H
	DD	00H
	DD	01H
	DD	096H
	DD	096H
	DD	00H
	DB	03H
	DB	07H
	ORG $+2
	DD	00H
	DB	00H
	DB	00H
	ORG $+2
	DD	FLAT:??_C@_0BE@EKIO@Potion?5of?5Full?5Mana?$AA@
	DD	00H
	DB	01H
	ORG $+3
	DD	00H
	DD	00H
	DD	00H
	DD	00H
	DD	00H
	DB	00H
	DB	00H
	DB	00H
	ORG $+1
	DD	00H
	DD	07H
	DD	00H
	DD	01H
	DD	096H
	DD	096H
	DD	00H
	DB	01H
	DB	01H
	ORG $+2
	DD	03dH
	DB	01H
	DB	042H
	ORG $+2
	DD	FLAT:??_C@_0BA@OAIC@Griswold?8s?5Edge?$AA@
	DD	00H
	DB	08H
	ORG $+3
	DD	032H
	DD	04H
	DD	0cH
	DD	00H
	DD	00H
	DB	028H
	DB	00H
	DB	00H
	ORG $+1
	DD	00H
	DD	01bH
	DD	00H
	DD	00H
	DD	02eeH
	DD	02eeH
	DD	00H
	DB	01H
	DB	01H
	ORG $+2
	DD	03bH
	DB	04H
	DB	043H
	ORG $+2
	DD	FLAT:??_C@_0L@NHHH@Lightforge?$AA@
	DD	00H
	DB	02H
	ORG $+3
	DD	020H
	DD	01H
	DD	08H
	DD	00H
	DD	00H
	DB	010H
	DB	00H
	DB	00H
	ORG $+1
	DD	00H
	DD	01bH
	DD	00H
	DD	00H
	DD	0c8H
	DD	0c8H
	DD	00H
	DB	03H
	DB	07H
	ORG $+2
	DD	09bH
	DB	00H
	DB	044H
	ORG $+2
	DD	FLAT:??_C@_0BB@IAKD@Staff?5of?5Lazarus?$AA@
	DD	00H
	DB	00H
	ORG $+3
	DD	00H
	DD	00H
	DD	00H
	DD	00H
	DD	00H
	DB	00H
	DB	00H
	DB	00H
	ORG $+1
	DD	00H
	DD	00H
	DD	00H
	DD	00H
	DD	00H
	DD	00H
	DD	00H
	DB	03H
	DB	07H
	ORG $+2
	DD	01H
	DB	00H
	DB	00H
	ORG $+2
	DD	FLAT:??_C@_0BE@KOIM@Scroll?5of?5Resurrect?$AA@
	DD	00H
	DB	01H
	ORG $+3
	DD	00H
	DD	00H
	DD	00H
	DD	00H
	DD	00H
	DB	00H
	DB	00H
	DB	00H
	ORG $+1
	DD	00H
	DD	016H
	DD	020H
	DD	01H
	DD	0faH
	DD	0faH
	DD	00H
	DB	00H
	DB	00H
	ORG $+2
	DD	00H
	DB	00H
	DB	00H
	ORG $+2
	DD	00H
	DD	00H
	DB	00H
	ORG $+3
	DD	00H
	DD	00H
	DD	00H
	DD	00H
	DD	00H
	DB	00H
	DB	00H
	DB	00H
	ORG $+1
	DD	00H
	DD	00H
	DD	00H
	DD	00H
	DD	00H
	DD	00H
	DD	00H
	DB	00H
	DB	00H
	ORG $+2
	DD	00H
	DB	00H
	DB	00H
	ORG $+2
	DD	00H
	DD	00H
	DB	00H
	ORG $+3
	DD	00H
	DD	00H
	DD	00H
	DD	00H
	DD	00H
	DB	00H
	DB	00H
	DB	00H
	ORG $+1
	DD	00H
	DD	00H
	DD	00H
	DD	00H
	DD	00H
	DD	00H
	DD	00H
	DB	00H
	DB	00H
	ORG $+2
	DD	00H
	DB	00H
	DB	00H
	ORG $+2
	DD	00H
	DD	00H
	DB	00H
	ORG $+3
	DD	00H
	DD	00H
	DD	00H
	DD	00H
	DD	00H
	DB	00H
	DB	00H
	DB	00H
	ORG $+1
	DD	00H
	DD	00H
	DD	00H
	DD	00H
	DD	00H
	DD	00H
	DD	00H
	DB	00H
	DB	00H
	ORG $+2
	DD	00H
	DB	00H
	DB	00H
	ORG $+2
	DD	00H
	DD	00H
	DB	00H
	ORG $+3
	DD	00H
	DD	00H
	DD	00H
	DD	00H
	DD	00H
	DB	00H
	DB	00H
	DB	00H
	ORG $+1
	DD	00H
	DD	00H
	DD	00H
	DD	00H
	DD	00H
	DD	00H
	DD	00H
	DB	00H
	DB	00H
	ORG $+2
	DD	00H
	DB	00H
	DB	00H
	ORG $+2
	DD	00H
	DD	00H
	DB	00H
	ORG $+3
	DD	00H
	DD	00H
	DD	00H
	DD	00H
	DD	00H
	DB	00H
	DB	00H
	DB	00H
	ORG $+1
	DD	00H
	DD	00H
	DD	00H
	DD	00H
	DD	00H
	DD	00H
	DD	00H
	DB	00H
	DB	00H
	ORG $+2
	DD	00H
	DB	00H
	DB	00H
	ORG $+2
	DD	00H
	DD	00H
	DB	00H
	ORG $+3
	DD	00H
	DD	00H
	DD	00H
	DD	00H
	DD	00H
	DB	00H
	DB	00H
	DB	00H
	ORG $+1
	DD	00H
	DD	00H
	DD	00H
	DD	00H
	DD	00H
	DD	00H
	DD	00H
	DB	00H
	DB	00H
	ORG $+2
	DD	00H
	DB	00H
	DB	00H
	ORG $+2
	DD	00H
	DD	00H
	DB	00H
	ORG $+3
	DD	00H
	DD	00H
	DD	00H
	DD	00H
	DD	00H
	DB	00H
	DB	00H
	DB	00H
	ORG $+1
	DD	00H
	DD	00H
	DD	00H
	DD	00H
	DD	00H
	DD	00H
	DD	00H
	DB	00H
	DB	00H
	ORG $+2
	DD	00H
	DB	00H
	DB	00H
	ORG $+2
	DD	00H
	DD	00H
	DB	00H
	ORG $+3
	DD	00H
	DD	00H
	DD	00H
	DD	00H
	DD	00H
	DB	00H
	DB	00H
	DB	00H
	ORG $+1
	DD	00H
	DD	00H
	DD	00H
	DD	00H
	DD	00H
	DD	00H
	DD	00H
	DB	00H
	DB	00H
	ORG $+2
	DD	00H
	DB	00H
	DB	00H
	ORG $+2
	DD	00H
	DD	00H
	DB	00H
	ORG $+3
	DD	00H
	DD	00H
	DD	00H
	DD	00H
	DD	00H
	DB	00H
	DB	00H
	DB	00H
	ORG $+1
	DD	00H
	DD	00H
	DD	00H
	DD	00H
	DD	00H
	DD	00H
	DD	00H
	DB	00H
	DB	00H
	ORG $+2
	DD	00H
	DB	00H
	DB	00H
	ORG $+2
	DD	00H
	DD	00H
	DB	00H
	ORG $+3
	DD	00H
	DD	00H
	DD	00H
	DD	00H
	DD	00H
	DB	00H
	DB	00H
	DB	00H
	ORG $+1
	DD	00H
	DD	00H
	DD	00H
	DD	00H
	DD	00H
	DD	00H
	DD	00H
	DB	00H
	DB	00H
	ORG $+2
	DD	00H
	DB	00H
	DB	00H
	ORG $+2
	DD	00H
	DD	00H
	DB	00H
	ORG $+3
	DD	00H
	DD	00H
	DD	00H
	DD	00H
	DD	00H
	DB	00H
	DB	00H
	DB	00H
	ORG $+1
	DD	00H
	DD	00H
	DD	00H
	DD	00H
	DD	00H
	DD	00H
	DD	00H
	DB	00H
	DB	00H
	ORG $+2
	DD	00H
	DB	00H
	DB	00H
	ORG $+2
	DD	00H
	DD	00H
	DB	00H
	ORG $+3
	DD	00H
	DD	00H
	DD	00H
	DD	00H
	DD	00H
	DB	00H
	DB	00H
	DB	00H
	ORG $+1
	DD	00H
	DD	00H
	DD	00H
	DD	00H
	DD	00H
	DD	00H
	DD	00H
	DB	00H
	DB	00H
	ORG $+2
	DD	00H
	DB	00H
	DB	00H
	ORG $+2
	DD	00H
	DD	00H
	DB	00H
	ORG $+3
	DD	00H
	DD	00H
	DD	00H
	DD	00H
	DD	00H
	DB	00H
	DB	00H
	DB	00H
	ORG $+1
	DD	00H
	DD	00H
	DD	00H
	DD	00H
	DD	00H
	DD	00H
	DD	01H
	DB	02H
	DB	04H
	ORG $+2
	DD	05bH
	DB	07H
	DB	00H
	ORG $+2
	DD	FLAT:??_C@_03EEJM@Cap?$AA@
	DD	FLAT:??_C@_03EEJM@Cap?$AA@
	DB	01H
	ORG $+3
	DD	0fH
	DD	00H
	DD	00H
	DD	01H
	DD	03H
	DB	00H
	DB	00H
	DB	00H
	ORG $+1
	DD	00H
	DD	00H
	DD	00H
	DD	00H
	DD	0fH
	DD	014H
	DD	01H
	DB	02H
	DB	04H
	ORG $+2
	DD	05aH
	DB	07H
	DB	022H
	ORG $+2
	DD	FLAT:??_C@_09CIHH@Skull?5Cap?$AA@
	DD	FLAT:??_C@_03EEJM@Cap?$AA@
	DB	04H
	ORG $+3
	DD	014H
	DD	00H
	DD	00H
	DD	02H
	DD	04H
	DB	00H
	DB	00H
	DB	00H
	ORG $+1
	DD	00H
	DD	00H
	DD	00H
	DD	00H
	DD	019H
	DD	01eH
	DD	01H
	DB	02H
	DB	04H
	ORG $+2
	DD	052H
	DB	07H
	DB	023H
	ORG $+2
	DD	FLAT:??_C@_04JAHM@Helm?$AA@
	DD	FLAT:??_C@_04JAHM@Helm?$AA@
	DB	08H
	ORG $+3
	DD	01eH
	DD	00H
	DD	00H
	DD	04H
	DD	06H
	DB	019H
	DB	00H
	DB	00H
	ORG $+1
	DD	00H
	DD	00H
	DD	00H
	DD	00H
	DD	028H
	DD	046H
	DD	01H
	DB	02H
	DB	04H
	ORG $+2
	DD	04bH
	DB	07H
	DB	00H
	ORG $+2
	DD	FLAT:??_C@_09PBMM@Full?5Helm?$AA@
	DD	FLAT:??_C@_04JAHM@Helm?$AA@
	DB	0cH
	ORG $+3
	DD	023H
	DD	00H
	DD	00H
	DD	06H
	DD	08H
	DB	023H
	DB	00H
	DB	00H
	ORG $+1
	DD	00H
	DD	00H
	DD	00H
	DD	00H
	DD	05aH
	DD	082H
	DD	01H
	DB	02H
	DB	04H
	ORG $+2
	DD	05fH
	DB	07H
	DB	025H
	ORG $+2
	DD	FLAT:??_C@_05MJDD@Crown?$AA@
	DD	FLAT:??_C@_05MJDD@Crown?$AA@
	DB	010H
	ORG $+3
	DD	028H
	DD	00H
	DD	00H
	DD	08H
	DD	0cH
	DB	00H
	DB	00H
	DB	00H
	ORG $+1
	DD	00H
	DD	00H
	DD	00H
	DD	00H
	DD	0c8H
	DD	012cH
	DD	01H
	DB	02H
	DB	04H
	ORG $+2
	DD	062H
	DB	07H
	DB	024H
	ORG $+2
	DD	FLAT:??_C@_0L@FPDC@Great?5Helm?$AA@
	DD	FLAT:??_C@_04JAHM@Helm?$AA@
	DB	014H
	ORG $+3
	DD	03cH
	DD	00H
	DD	00H
	DD	0aH
	DD	0fH
	DB	032H
	DB	00H
	DB	00H
	ORG $+1
	DD	00H
	DD	00H
	DD	00H
	DD	00H
	DD	0190H
	DD	01f4H
	DD	01H
	DB	02H
	DB	03H
	ORG $+2
	DD	096H
	DB	06H
	DB	02eH
	ORG $+2
	DD	FLAT:??_C@_04EMKP@Cape?$AA@
	DD	FLAT:??_C@_04EMKP@Cape?$AA@
	DB	01H
	ORG $+3
	DD	0cH
	DD	00H
	DD	00H
	DD	01H
	DD	05H
	DB	00H
	DB	00H
	DB	00H
	ORG $+1
	DD	00H
	DD	00H
	DD	00H
	DD	00H
	DD	0aH
	DD	032H
	DD	01H
	DB	02H
	DB	03H
	ORG $+2
	DD	080H
	DB	06H
	DB	027H
	ORG $+2
	DD	FLAT:??_C@_04GBCC@Rags?$AA@
	DD	FLAT:??_C@_04GBCC@Rags?$AA@
	DB	01H
	ORG $+3
	DD	06H
	DD	00H
	DD	00H
	DD	02H
	DD	06H
	DB	00H
	DB	00H
	DB	00H
	ORG $+1
	DD	00H
	DD	00H
	DD	00H
	DD	00H
	DD	05H
	DD	019H
	DD	01H
	DB	02H
	DB	03H
	ORG $+2
	DD	095H
	DB	06H
	DB	029H
	ORG $+2
	DD	FLAT:??_C@_05HEPD@Cloak?$AA@
	DD	FLAT:??_C@_05HEPD@Cloak?$AA@
	DB	02H
	ORG $+3
	DD	012H
	DD	00H
	DD	00H
	DD	03H
	DD	07H
	DB	00H
	DB	00H
	DB	00H
	ORG $+1
	DD	00H
	DD	00H
	DD	00H
	DD	00H
	DD	028H
	DD	046H
	DD	01H
	DB	02H
	DB	03H
	ORG $+2
	DD	089H
	DB	06H
	DB	02aH
	ORG $+2
	DD	FLAT:??_C@_04HOC@Robe?$AA@
	DD	FLAT:??_C@_04HOC@Robe?$AA@
	DB	03H
	ORG $+3
	DD	018H
	DD	00H
	DD	00H
	DD	04H
	DD	07H
	DB	00H
	DB	00H
	DB	00H
	ORG $+1
	DD	00H
	DD	00H
	DD	00H
	DD	00H
	DD	04bH
	DD	07dH
	DD	01H
	DB	02H
	DB	03H
	ORG $+2
	DD	081H
	DB	06H
	DB	00H
	ORG $+2
	DD	FLAT:??_C@_0O@JGBG@Quilted?5Armor?$AA@
	DD	FLAT:??_C@_05KFDN@Armor?$AA@
	DB	04H
	ORG $+3
	DD	01eH
	DD	00H
	DD	00H
	DD	07H
	DD	0aH
	DB	00H
	DB	00H
	DB	00H
	ORG $+1
	DD	00H
	DD	00H
	DD	00H
	DD	00H
	DD	0c8H
	DD	012cH
	DD	01H
	DB	02H
	DB	03H
	ORG $+2
	DD	087H
	DB	06H
	DB	02cH
	ORG $+2
	DD	FLAT:??_C@_0O@CGFJ@Leather?5Armor?$AA@
	DD	FLAT:??_C@_05KFDN@Armor?$AA@
	DB	06H
	ORG $+3
	DD	023H
	DD	00H
	DD	00H
	DD	0aH
	DD	0dH
	DB	00H
	DB	00H
	DB	00H
	ORG $+1
	DD	00H
	DD	00H
	DD	00H
	DD	00H
	DD	012cH
	DD	0190H
	DD	01H
	DB	02H
	DB	03H
	ORG $+2
	DD	07fH
	DB	06H
	DB	00H
	ORG $+2
	DD	FLAT:??_C@_0BD@GHHI@Hard?5Leather?5Armor?$AA@
	DD	FLAT:??_C@_05KFDN@Armor?$AA@
	DB	07H
	ORG $+3
	DD	028H
	DD	00H
	DD	00H
	DD	0bH
	DD	0eH
	DB	00H
	DB	00H
	DB	00H
	ORG $+1
	DD	00H
	DD	00H
	DD	00H
	DD	00H
	DD	01c2H
	DD	0226H
	DD	01H
	DB	02H
	DB	03H
	ORG $+2
	DD	06bH
	DB	06H
	DB	028H
	ORG $+2
	DD	FLAT:??_C@_0BG@EIMI@Studded?5Leather?5Armor?$AA@
	DD	FLAT:??_C@_05KFDN@Armor?$AA@
	DB	09H
	ORG $+3
	DD	02dH
	DD	00H
	DD	00H
	DD	0fH
	DD	011H
	DB	014H
	DB	00H
	DB	00H
	ORG $+1
	DD	00H
	DD	00H
	DD	00H
	DD	00H
	DD	02bcH
	DD	0320H
	DD	01H
	DB	02H
	DB	03H
	ORG $+2
	DD	09aH
	DB	08H
	DB	00H
	ORG $+2
	DD	FLAT:??_C@_09GPFE@Ring?5Mail?$AA@
	DD	FLAT:??_C@_04IOKL@Mail?$AA@
	DB	0bH
	ORG $+3
	DD	032H
	DD	00H
	DD	00H
	DD	011H
	DD	014H
	DB	019H
	DB	00H
	DB	00H
	ORG $+1
	DD	00H
	DD	00H
	DD	00H
	DD	00H
	DD	0384H
	DD	044cH
	DD	01H
	DB	02H
	DB	03H
	ORG $+2
	DD	06fH
	DB	08H
	DB	02bH
	ORG $+2
	DD	FLAT:??_C@_0L@EEOL@Chain?5Mail?$AA@
	DD	FLAT:??_C@_04IOKL@Mail?$AA@
	DB	0dH
	ORG $+3
	DD	037H
	DD	00H
	DD	00H
	DD	012H
	DD	016H
	DB	01eH
	DB	00H
	DB	00H
	ORG $+1
	DD	00H
	DD	00H
	DD	00H
	DD	00H
	DD	04e2H
	DD	06d6H
	DD	01H
	DB	02H
	DB	03H
	ORG $+2
	DD	072H
	DB	08H
	DB	00H
	ORG $+2
	DD	FLAT:??_C@_0L@GLHE@Scale?5Mail?$AA@
	DD	FLAT:??_C@_04IOKL@Mail?$AA@
	DB	0fH
	ORG $+3
	DD	03cH
	DD	00H
	DD	00H
	DD	017H
	DD	01cH
	DB	023H
	DB	00H
	DB	00H
	ORG $+1
	DD	00H
	DD	00H
	DD	00H
	DD	00H
	DD	08fcH
	DD	0af0H
	DD	01H
	DB	02H
	DB	03H
	ORG $+2
	DD	099H
	DB	09H
	DB	02dH
	ORG $+2
	DD	FLAT:??_C@_0N@CMJK@Breast?5Plate?$AA@
	DD	FLAT:??_C@_05GHGI@Plate?$AA@
	DB	010H
	ORG $+3
	DD	050H
	DD	00H
	DD	00H
	DD	014H
	DD	018H
	DB	028H
	DB	00H
	DB	00H
	ORG $+1
	DD	00H
	DD	00H
	DD	00H
	DD	00H
	DD	0af0H
	DD	0c80H
	DD	01H
	DB	02H
	DB	03H
	ORG $+2
	DD	088H
	DB	08H
	DB	00H
	ORG $+2
	DD	FLAT:??_C@_0M@LJKD@Splint?5Mail?$AA@
	DD	FLAT:??_C@_04IOKL@Mail?$AA@
	DB	011H
	ORG $+3
	DD	041H
	DD	00H
	DD	00H
	DD	01eH
	DD	023H
	DB	028H
	DB	00H
	DB	00H
	ORG $+1
	DD	00H
	DD	00H
	DD	00H
	DD	00H
	DD	0cb2H
	DD	0ea6H
	DD	01H
	DB	02H
	DB	03H
	ORG $+2
	DD	067H
	DB	09H
	DB	02fH
	ORG $+2
	DD	FLAT:??_C@_0L@DLHM@Plate?5Mail?$AA@
	DD	FLAT:??_C@_05GHGI@Plate?$AA@
	DB	013H
	ORG $+3
	DD	04bH
	DD	00H
	DD	00H
	DD	02aH
	DD	032H
	DB	03cH
	DB	00H
	DB	00H
	ORG $+1
	DD	00H
	DD	00H
	DD	00H
	DD	00H
	DD	011f8H
	DD	01518H
	DD	01H
	DB	02H
	DB	03H
	ORG $+2
	DD	067H
	DB	09H
	DB	00H
	ORG $+2
	DD	FLAT:??_C@_0M@EEOC@Field?5Plate?$AA@
	DD	FLAT:??_C@_05GHGI@Plate?$AA@
	DB	015H
	ORG $+3
	DD	050H
	DD	00H
	DD	00H
	DD	028H
	DD	02dH
	DB	041H
	DB	00H
	DB	00H
	ORG $+1
	DD	00H
	DD	00H
	DD	00H
	DD	00H
	DD	016a8H
	DD	01838H
	DD	01H
	DB	02H
	DB	03H
	ORG $+2
	DD	098H
	DB	09H
	DB	00H
	ORG $+2
	DD	FLAT:??_C@_0N@JKHF@Gothic?5Plate?$AA@
	DD	FLAT:??_C@_05GHGI@Plate?$AA@
	DB	017H
	ORG $+3
	DD	064H
	DD	00H
	DD	00H
	DD	032H
	DD	03cH
	DB	050H
	DB	00H
	DB	00H
	ORG $+1
	DD	00H
	DD	00H
	DD	00H
	DD	00H
	DD	01f40H
	DD	02710H
	DD	01H
	DB	02H
	DB	03H
	ORG $+2
	DD	097H
	DB	09H
	DB	030H
	ORG $+2
	DD	FLAT:??_C@_0BA@NADG@Full?5Plate?5Mail?$AA@
	DD	FLAT:??_C@_05GHGI@Plate?$AA@
	DB	019H
	ORG $+3
	DD	05aH
	DD	00H
	DD	00H
	DD	03cH
	DD	04bH
	DB	05aH
	DB	00H
	DB	00H
	ORG $+1
	DD	00H
	DD	00H
	DD	00H
	DD	00H
	DD	01964H
	DD	01f40H
	DD	01H
	DB	02H
	DB	01H
	ORG $+2
	DD	053H
	DB	05H
	DB	031H
	ORG $+2
	DD	FLAT:??_C@_07MMEF@Buckler?$AA@
	DD	FLAT:??_C@_06GBHM@Shield?$AA@
	DB	01H
	ORG $+3
	DD	010H
	DD	00H
	DD	00H
	DD	01H
	DD	05H
	DB	00H
	DB	00H
	DB	00H
	ORG $+1
	DD	00H
	DD	00H
	DD	00H
	DD	00H
	DD	01eH
	DD	046H
	DD	01H
	DB	02H
	DB	01H
	ORG $+2
	DD	069H
	DB	05H
	DB	032H
	ORG $+2
	DD	FLAT:??_C@_0N@GPPF@Small?5Shield?$AA@
	DD	FLAT:??_C@_06GBHM@Shield?$AA@
	DB	05H
	ORG $+3
	DD	018H
	DD	00H
	DD	00H
	DD	03H
	DD	08H
	DB	019H
	DB	00H
	DB	00H
	ORG $+1
	DD	00H
	DD	00H
	DD	00H
	DD	00H
	DD	05aH
	DD	082H
	DD	01H
	DB	02H
	DB	01H
	ORG $+2
	DD	093H
	DB	05H
	DB	033H
	ORG $+2
	DD	FLAT:??_C@_0N@BAHM@Large?5Shield?$AA@
	DD	FLAT:??_C@_06GBHM@Shield?$AA@
	DB	09H
	ORG $+3
	DD	020H
	DD	00H
	DD	00H
	DD	05H
	DD	0aH
	DB	028H
	DB	00H
	DB	00H
	ORG $+1
	DD	00H
	DD	00H
	DD	00H
	DD	00H
	DD	0c8H
	DD	012cH
	DD	01H
	DB	02H
	DB	01H
	ORG $+2
	DD	071H
	DB	05H
	DB	034H
	ORG $+2
	DD	FLAT:??_C@_0M@BCJC@Kite?5Shield?$AA@
	DD	FLAT:??_C@_06GBHM@Shield?$AA@
	DB	0eH
	ORG $+3
	DD	028H
	DD	00H
	DD	00H
	DD	08H
	DD	0fH
	DB	032H
	DB	00H
	DB	00H
	ORG $+1
	DD	00H
	DD	00H
	DD	00H
	DD	00H
	DD	0190H
	DD	02bcH
	DD	01H
	DB	02H
	DB	01H
	ORG $+2
	DD	084H
	DB	05H
	DB	035H
	ORG $+2
	DD	FLAT:??_C@_0N@MEKF@Tower?5Shield?$AA@
	DD	FLAT:??_C@_06GBHM@Shield?$AA@
	DB	014H
	ORG $+3
	DD	032H
	DD	00H
	DD	00H
	DD	0cH
	DD	014H
	DB	03cH
	DB	00H
	DB	00H
	ORG $+1
	DD	00H
	DD	00H
	DD	00H
	DD	00H
	DD	0352H
	DD	04b0H
	DD	01H
	DB	02H
	DB	01H
	ORG $+2
	DD	094H
	DB	05H
	DB	035H
	ORG $+2
	DD	FLAT:??_C@_0O@KMIB@Gothic?5Shield?$AA@
	DD	FLAT:??_C@_06GBHM@Shield?$AA@
	DB	017H
	ORG $+3
	DD	03cH
	DD	00H
	DD	00H
	DD	0eH
	DD	012H
	DB	050H
	DB	00H
	DB	00H
	ORG $+1
	DD	00H
	DD	00H
	DD	00H
	DD	00H
	DD	08fcH
	DD	0a8cH
	DD	01H
	DB	03H
	DB	07H
	ORG $+2
	DD	020H
	DB	00H
	DB	00H
	ORG $+2
	DD	FLAT:??_C@_0BC@OFPF@Potion?5of?5Healing?$AA@
	DD	00H
	DB	01H
	ORG $+3
	DD	00H
	DD	00H
	DD	00H
	DD	00H
	DD	00H
	DB	00H
	DB	00H
	DB	00H
	ORG $+1
	DD	00H
	DD	03H
	DD	00H
	DD	01H
	DD	032H
	DD	032H
	DD	01H
	DB	03H
	DB	07H
	ORG $+2
	DD	023H
	DB	00H
	DB	00H
	ORG $+2
	DD	FLAT:??_C@_0BH@FJIN@Potion?5of?5Full?5Healing?$AA@
	DD	00H
	DB	01H
	ORG $+3
	DD	00H
	DD	00H
	DD	00H
	DD	00H
	DD	00H
	DB	00H
	DB	00H
	DB	00H
	ORG $+1
	DD	00H
	DD	02H
	DD	00H
	DD	01H
	DD	096H
	DD	096H
	DD	01H
	DB	03H
	DB	07H
	ORG $+2
	DD	027H
	DB	00H
	DB	00H
	ORG $+2
	DD	FLAT:??_C@_0P@PEDF@Potion?5of?5Mana?$AA@
	DD	00H
	DB	01H
	ORG $+3
	DD	00H
	DD	00H
	DD	00H
	DD	00H
	DD	00H
	DB	00H
	DB	00H
	DB	00H
	ORG $+1
	DD	00H
	DD	06H
	DD	00H
	DD	01H
	DD	032H
	DD	032H
	DD	01H
	DB	03H
	DB	07H
	ORG $+2
	DD	00H
	DB	00H
	DB	00H
	ORG $+2
	DD	FLAT:??_C@_0BE@EKIO@Potion?5of?5Full?5Mana?$AA@
	DD	00H
	DB	01H
	ORG $+3
	DD	00H
	DD	00H
	DD	00H
	DD	00H
	DD	00H
	DB	00H
	DB	00H
	DB	00H
	ORG $+1
	DD	00H
	DD	07H
	DD	00H
	DD	01H
	DD	096H
	DD	096H
	DD	01H
	DB	03H
	DB	07H
	ORG $+2
	DD	025H
	DB	00H
	DB	00H
	ORG $+2
	DD	FLAT:??_C@_0BH@MDNB@Potion?5of?5Rejuvenation?$AA@
	DD	00H
	DB	03H
	ORG $+3
	DD	00H
	DD	00H
	DD	00H
	DD	00H
	DD	00H
	DB	00H
	DB	00H
	DB	00H
	ORG $+1
	DD	00H
	DD	012H
	DD	00H
	DD	01H
	DD	078H
	DD	078H
	DD	01H
	DB	03H
	DB	07H
	ORG $+2
	DD	021H
	DB	00H
	DB	00H
	ORG $+2
	DD	FLAT:??_C@_0BM@HDFP@Potion?5of?5Full?5Rejuvenation?$AA@
	DD	00H
	DB	07H
	ORG $+3
	DD	00H
	DD	00H
	DD	00H
	DD	00H
	DD	00H
	DB	00H
	DB	00H
	DB	00H
	ORG $+1
	DD	00H
	DD	013H
	DD	00H
	DD	01H
	DD	0258H
	DD	0258H
	DD	01H
	DB	03H
	DB	07H
	ORG $+2
	DD	026H
	DB	00H
	DB	00H
	ORG $+2
	DD	FLAT:??_C@_0BD@JMEN@Elixir?5of?5Strength?$AA@
	DD	00H
	DB	0fH
	ORG $+3
	DD	00H
	DD	00H
	DD	00H
	DD	00H
	DD	00H
	DB	00H
	DB	00H
	DB	00H
	ORG $+1
	DD	00H
	DD	0aH
	DD	00H
	DD	01H
	DD	01388H
	DD	01388H
	DD	01H
	DB	03H
	DB	07H
	ORG $+2
	DD	022H
	DB	00H
	DB	00H
	ORG $+2
	DD	FLAT:??_C@_0BA@EHL@Elixir?5of?5Magic?$AA@
	DD	00H
	DB	0fH
	ORG $+3
	DD	00H
	DD	00H
	DD	00H
	DD	00H
	DD	00H
	DB	00H
	DB	00H
	DB	00H
	ORG $+1
	DD	00H
	DD	0bH
	DD	00H
	DD	01H
	DD	01388H
	DD	01388H
	DD	01H
	DB	03H
	DB	07H
	ORG $+2
	DD	024H
	DB	00H
	DB	00H
	ORG $+2
	DD	FLAT:??_C@_0BE@FLMA@Elixir?5of?5Dexterity?$AA@
	DD	00H
	DB	0fH
	ORG $+3
	DD	00H
	DD	00H
	DD	00H
	DD	00H
	DD	00H
	DB	00H
	DB	00H
	DB	00H
	ORG $+1
	DD	00H
	DD	0cH
	DD	00H
	DD	01H
	DD	01388H
	DD	01388H
	DD	01H
	DB	03H
	DB	07H
	ORG $+2
	DD	01fH
	DB	00H
	DB	00H
	ORG $+2
	DD	FLAT:??_C@_0BD@DFDJ@Elixir?5of?5Vitality?$AA@
	DD	00H
	DB	014H
	ORG $+3
	DD	00H
	DD	00H
	DD	00H
	DD	00H
	DD	00H
	DB	00H
	DB	00H
	DB	00H
	ORG $+1
	DD	00H
	DD	0dH
	DD	00H
	DD	01H
	DD	01388H
	DD	01388H
	DD	01H
	DB	03H
	DB	07H
	ORG $+2
	DD	01H
	DB	00H
	DB	00H
	ORG $+2
	DD	FLAT:??_C@_0BC@BGMN@Scroll?5of?5Healing?$AA@
	DD	00H
	DB	01H
	ORG $+3
	DD	00H
	DD	00H
	DD	00H
	DD	00H
	DD	00H
	DB	00H
	DB	00H
	DB	00H
	ORG $+1
	DD	00H
	DD	015H
	DD	02H
	DD	01H
	DD	032H
	DD	032H
	DD	01H
	DB	03H
	DB	07H
	ORG $+2
	DD	01H
	DB	00H
	DB	00H
	ORG $+2
	DD	FLAT:??_C@_0BE@EOEK@Scroll?5of?5Lightning?$AA@
	DD	00H
	DB	04H
	ORG $+3
	DD	00H
	DD	00H
	DD	00H
	DD	00H
	DD	00H
	DB	00H
	DB	00H
	DB	00H
	ORG $+1
	DD	00H
	DD	016H
	DD	03H
	DD	01H
	DD	096H
	DD	096H
	DD	01H
	DB	03H
	DB	07H
	ORG $+2
	DD	01H
	DB	00H
	DB	00H
	ORG $+2
	DD	FLAT:??_C@_0BD@HKHI@Scroll?5of?5Identify?$AA@
	DD	00H
	DB	01H
	ORG $+3
	DD	00H
	DD	00H
	DD	00H
	DD	00H
	DD	00H
	DB	00H
	DB	00H
	DB	00H
	ORG $+1
	DD	00H
	DD	015H
	DD	05H
	DD	01H
	DD	064H
	DD	064H
	DD	01H
	DB	03H
	DB	07H
	ORG $+2
	DD	01H
	DB	00H
	DB	00H
	ORG $+2
	DD	FLAT:??_C@_0BE@KOIM@Scroll?5of?5Resurrect?$AA@
	DD	00H
	DB	01H
	ORG $+3
	DD	00H
	DD	00H
	DD	00H
	DD	00H
	DD	00H
	DB	00H
	DB	00H
	DB	00H
	ORG $+1
	DD	00H
	DD	016H
	DD	020H
	DD	01H
	DD	0faH
	DD	0faH
	DD	01H
	DB	03H
	DB	07H
	ORG $+2
	DD	01H
	DB	00H
	DB	00H
	ORG $+2
	DD	FLAT:??_C@_0BE@KGPH@Scroll?5of?5Fire?5Wall?$AA@
	DD	00H
	DB	04H
	ORG $+3
	DD	00H
	DD	00H
	DD	00H
	DD	00H
	DD	00H
	DB	00H
	DB	011H
	DB	00H
	ORG $+1
	DD	00H
	DD	016H
	DD	06H
	DD	01H
	DD	0190H
	DD	0190H
	DD	01H
	DB	03H
	DB	07H
	ORG $+2
	DD	01H
	DB	00H
	DB	00H
	ORG $+2
	DD	FLAT:??_C@_0BC@FHNN@Scroll?5of?5Inferno?$AA@
	DD	00H
	DB	01H
	ORG $+3
	DD	00H
	DD	00H
	DD	00H
	DD	00H
	DD	00H
	DB	00H
	DB	013H
	DB	00H
	ORG $+1
	DD	00H
	DD	016H
	DD	014H
	DD	01H
	DD	064H
	DD	064H
	DD	01H
	DB	03H
	DB	07H
	ORG $+2
	DD	01H
	DB	00H
	DB	00H
	ORG $+2
	DD	FLAT:??_C@_0BG@BCKO@Scroll?5of?5Town?5Portal?$AA@
	DD	00H
	DB	04H
	ORG $+3
	DD	00H
	DD	00H
	DD	00H
	DD	00H
	DD	00H
	DB	00H
	DB	00H
	DB	00H
	ORG $+1
	DD	00H
	DD	015H
	DD	07H
	DD	01H
	DD	0c8H
	DD	0c8H
	DD	01H
	DB	03H
	DB	07H
	ORG $+2
	DD	01H
	DB	00H
	DB	00H
	ORG $+2
	DD	FLAT:??_C@_0BA@FPKC@Scroll?5of?5Flash?$AA@
	DD	00H
	DB	06H
	ORG $+3
	DD	00H
	DD	00H
	DD	00H
	DD	00H
	DD	00H
	DB	00H
	DB	015H
	DB	00H
	ORG $+1
	DD	00H
	DD	016H
	DD	04H
	DD	01H
	DD	01f4H
	DD	01f4H
	DD	01H
	DB	03H
	DB	07H
	ORG $+2
	DD	01H
	DB	00H
	DB	00H
	ORG $+2
	DD	FLAT:??_C@_0BG@LPBB@Scroll?5of?5Infravision?$AA@
	DD	00H
	DB	08H
	ORG $+3
	DD	00H
	DD	00H
	DD	00H
	DD	00H
	DD	00H
	DB	00H
	DB	017H
	DB	00H
	ORG $+1
	DD	00H
	DD	015H
	DD	09H
	DD	01H
	DD	0258H
	DD	0258H
	DD	01H
	DB	03H
	DB	07H
	ORG $+2
	DD	01H
	DB	00H
	DB	00H
	ORG $+2
	DD	FLAT:??_C@_0BC@GABE@Scroll?5of?5Phasing?$AA@
	DD	00H
	DB	06H
	ORG $+3
	DD	00H
	DD	00H
	DD	00H
	DD	00H
	DD	00H
	DB	00H
	DB	019H
	DB	00H
	ORG $+1
	DD	00H
	DD	015H
	DD	0aH
	DD	01H
	DD	0c8H
	DD	0c8H
	DD	01H
	DB	03H
	DB	07H
	ORG $+2
	DD	01H
	DB	00H
	DB	00H
	ORG $+2
	DD	FLAT:??_C@_0BG@HMH@Scroll?5of?5Mana?5Shield?$AA@
	DD	00H
	DB	08H
	ORG $+3
	DD	00H
	DD	00H
	DD	00H
	DD	00H
	DD	00H
	DB	00H
	DB	00H
	DB	00H
	ORG $+1
	DD	00H
	DD	015H
	DD	0bH
	DD	01H
	DD	04b0H
	DD	04b0H
	DD	01H
	DB	03H
	DB	07H
	ORG $+2
	DD	01H
	DB	00H
	DB	00H
	ORG $+2
	DD	FLAT:??_C@_0BF@KPLE@Scroll?5of?5Flame?5Wave?$AA@
	DD	00H
	DB	0aH
	ORG $+3
	DD	00H
	DD	00H
	DD	00H
	DD	00H
	DD	00H
	DB	00H
	DB	01dH
	DB	00H
	ORG $+1
	DD	00H
	DD	016H
	DD	0fH
	DD	01H
	DD	028aH
	DD	028aH
	DD	01H
	DB	03H
	DB	07H
	ORG $+2
	DD	01H
	DB	00H
	DB	00H
	ORG $+2
	DD	FLAT:??_C@_0BD@FLEO@Scroll?5of?5Fireball?$AA@
	DD	00H
	DB	08H
	ORG $+3
	DD	00H
	DD	00H
	DD	00H
	DD	00H
	DD	00H
	DB	00H
	DB	01fH
	DB	00H
	ORG $+1
	DD	00H
	DD	016H
	DD	0cH
	DD	01H
	DD	012cH
	DD	012cH
	DD	01H
	DB	03H
	DB	07H
	ORG $+2
	DD	01H
	DB	00H
	DB	00H
	ORG $+2
	DD	FLAT:??_C@_0BG@DOBJ@Scroll?5of?5Stone?5Curse?$AA@
	DD	00H
	DB	06H
	ORG $+3
	DD	00H
	DD	00H
	DD	00H
	DD	00H
	DD	00H
	DB	00H
	DB	021H
	DB	00H
	ORG $+1
	DD	00H
	DD	016H
	DD	08H
	DD	01H
	DD	0320H
	DD	0320H
	DD	01H
	DB	03H
	DB	07H
	ORG $+2
	DD	01H
	DB	00H
	DB	00H
	ORG $+2
	DD	FLAT:??_C@_0BK@ECBO@Scroll?5of?5Chain?5Lightning?$AA@
	DD	00H
	DB	0aH
	ORG $+3
	DD	00H
	DD	00H
	DD	00H
	DD	00H
	DD	00H
	DB	00H
	DB	023H
	DB	00H
	ORG $+1
	DD	00H
	DD	016H
	DD	0eH
	DD	01H
	DD	02eeH
	DD	02eeH
	DD	01H
	DB	03H
	DB	07H
	ORG $+2
	DD	01H
	DB	00H
	DB	00H
	ORG $+2
	DD	FLAT:??_C@_0BD@FBKP@Scroll?5of?5Guardian?$AA@
	DD	00H
	DB	0cH
	ORG $+3
	DD	00H
	DD	00H
	DD	00H
	DD	00H
	DD	00H
	DB	00H
	DB	02fH
	DB	00H
	ORG $+1
	DD	00H
	DD	016H
	DD	0dH
	DD	01H
	DD	03b6H
	DD	03b6H
	DD	00H
	DB	03H
	DB	07H
	ORG $+2
	DD	01H
	DB	00H
	DB	00H
	ORG $+2
	DD	FLAT:??_C@_08FNGF@Non?5Item?$AA@
	DD	00H
	DB	00H
	ORG $+3
	DD	00H
	DD	00H
	DD	00H
	DD	00H
	DD	00H
	DB	00H
	DB	00H
	DB	00H
	ORG $+1
	DD	00H
	DD	00H
	DD	00H
	DD	00H
	DD	00H
	DD	00H
	DD	01H
	DB	03H
	DB	07H
	ORG $+2
	DD	01H
	DB	00H
	DB	00H
	ORG $+2
	DD	FLAT:??_C@_0P@BBFO@Scroll?5of?5Nova?$AA@
	DD	00H
	DB	0eH
	ORG $+3
	DD	00H
	DD	00H
	DD	00H
	DD	00H
	DD	00H
	DB	00H
	DB	039H
	DB	00H
	ORG $+1
	DD	00H
	DD	015H
	DD	012H
	DD	01H
	DD	0514H
	DD	0514H
	DD	01H
	DB	03H
	DB	07H
	ORG $+2
	DD	01H
	DB	00H
	DB	00H
	ORG $+2
	DD	FLAT:??_C@_0BA@HBF@Scroll?5of?5Golem?$AA@
	DD	00H
	DB	0aH
	ORG $+3
	DD	00H
	DD	00H
	DD	00H
	DD	00H
	DD	00H
	DB	00H
	DB	033H
	DB	00H
	ORG $+1
	DD	00H
	DD	016H
	DD	015H
	DD	01H
	DD	044cH
	DD	044cH
	DD	00H
	DB	03H
	DB	07H
	ORG $+2
	DD	01H
	DB	00H
	DB	00H
	ORG $+2
	DD	FLAT:??_C@_0P@GEPP@Scroll?5of?5None?$AA@
	DD	00H
	DB	063H
	ORG $+3
	DD	00H
	DD	00H
	DD	00H
	DD	00H
	DD	00H
	DB	00H
	DB	03dH
	DB	00H
	ORG $+1
	DD	00H
	DD	016H
	DD	00H
	DD	01H
	DD	03e8H
	DD	03e8H
	DD	01H
	DB	03H
	DB	07H
	ORG $+2
	DD	01H
	DB	00H
	DB	00H
	ORG $+2
	DD	FLAT:??_C@_0BD@DLEP@Scroll?5of?5Teleport?$AA@
	DD	00H
	DB	0eH
	ORG $+3
	DD	00H
	DD	00H
	DD	00H
	DD	00H
	DD	00H
	DB	00H
	DB	051H
	DB	00H
	ORG $+1
	DD	00H
	DD	015H
	DD	017H
	DD	01H
	DD	0bb8H
	DD	0bb8H
	DD	01H
	DB	03H
	DB	07H
	ORG $+2
	DD	01H
	DB	00H
	DB	00H
	ORG $+2
	DD	FLAT:??_C@_0BF@ODHC@Scroll?5of?5Apocalypse?$AA@
	DD	00H
	DB	016H
	ORG $+3
	DD	00H
	DD	00H
	DD	00H
	DD	00H
	DD	00H
	DB	00H
	DB	075H
	DB	00H
	ORG $+1
	DD	00H
	DD	015H
	DD	018H
	DD	01H
	DD	07d0H
	DD	07d0H
	DD	01H
	DB	03H
	DB	07H
	ORG $+2
	DD	058H
	DB	00H
	DB	00H
	ORG $+2
	DD	FLAT:??_C@_08DNLH@Book?5of?5?$AA@
	DD	00H
	DB	02H
	ORG $+3
	DD	00H
	DD	00H
	DD	00H
	DD	00H
	DD	00H
	DB	00H
	DB	00H
	DB	00H
	ORG $+1
	DD	00H
	DD	018H
	DD	00H
	DD	01H
	DD	00H
	DD	00H
	DD	01H
	DB	03H
	DB	07H
	ORG $+2
	DD	058H
	DB	00H
	DB	00H
	ORG $+2
	DD	FLAT:??_C@_08DNLH@Book?5of?5?$AA@
	DD	00H
	DB	08H
	ORG $+3
	DD	00H
	DD	00H
	DD	00H
	DD	00H
	DD	00H
	DB	00H
	DB	00H
	DB	00H
	ORG $+1
	DD	00H
	DD	018H
	DD	00H
	DD	01H
	DD	00H
	DD	00H
	DD	01H
	DB	03H
	DB	07H
	ORG $+2
	DD	058H
	DB	00H
	DB	00H
	ORG $+2
	DD	FLAT:??_C@_08DNLH@Book?5of?5?$AA@
	DD	00H
	DB	0eH
	ORG $+3
	DD	00H
	DD	00H
	DD	00H
	DD	00H
	DD	00H
	DB	00H
	DB	00H
	DB	00H
	ORG $+1
	DD	00H
	DD	018H
	DD	00H
	DD	01H
	DD	00H
	DD	00H
	DD	01H
	DB	03H
	DB	07H
	ORG $+2
	DD	058H
	DB	00H
	DB	00H
	ORG $+2
	DD	FLAT:??_C@_08DNLH@Book?5of?5?$AA@
	DD	00H
	DB	014H
	ORG $+3
	DD	00H
	DD	00H
	DD	00H
	DD	00H
	DD	00H
	DB	00H
	DB	00H
	DB	00H
	ORG $+1
	DD	00H
	DD	018H
	DD	00H
	DD	01H
	DD	00H
	DD	00H
	DD	01H
	DB	01H
	DB	01H
	ORG $+2
	DD	033H
	DB	01H
	DB	07H
	ORG $+2
	DD	FLAT:??_C@_06NGLM@Dagger?$AA@
	DD	FLAT:??_C@_06NGLM@Dagger?$AA@
	DB	01H
	ORG $+3
	DD	010H
	DD	01H
	DD	04H
	DD	00H
	DD	00H
	DB	00H
	DB	00H
	DB	00H
	ORG $+1
	DD	00H
	DD	00H
	DD	00H
	DD	00H
	DD	03cH
	DD	03cH
	DD	01H
	DB	01H
	DB	01H
	ORG $+2
	DD	040H
	DB	01H
	DB	00H
	ORG $+2
	DD	FLAT:??_C@_0M@HOBP@Short?5Sword?$AA@
	DD	FLAT:??_C@_05DGOK@Sword?$AA@
	DB	01H
	ORG $+3
	DD	018H
	DD	02H
	DD	06H
	DD	00H
	DD	00H
	DB	012H
	DB	00H
	DB	00H
	ORG $+1
	DD	00H
	DD	00H
	DD	00H
	DD	00H
	DD	078H
	DD	078H
	DD	01H
	DB	01H
	DB	01H
	ORG $+2
	DD	03eH
	DB	01H
	DB	08H
	ORG $+2
	DD	FLAT:??_C@_08OIB@Falchion?$AA@
	DD	FLAT:??_C@_05DGOK@Sword?$AA@
	DB	02H
	ORG $+3
	DD	014H
	DD	04H
	DD	08H
	DD	00H
	DD	00H
	DB	01eH
	DB	00H
	DB	00H
	ORG $+1
	DD	00H
	DD	00H
	DD	00H
	DD	00H
	DD	0faH
	DD	0faH
	DD	01H
	DB	01H
	DB	01H
	ORG $+2
	DD	048H
	DB	01H
	DB	0cH
	ORG $+2
	DD	FLAT:??_C@_08KAPM@Scimitar?$AA@
	DD	FLAT:??_C@_05DGOK@Sword?$AA@
	DB	04H
	ORG $+3
	DD	01cH
	DD	03H
	DD	07H
	DD	00H
	DD	00H
	DB	017H
	DB	00H
	DB	017H
	ORG $+1
	DD	00H
	DD	00H
	DD	00H
	DD	00H
	DD	0c8H
	DD	0c8H
	DD	01H
	DB	01H
	DB	01H
	ORG $+2
	DD	041H
	DB	01H
	DB	09H
	ORG $+2
	DD	FLAT:??_C@_08MPPO@Claymore?$AA@
	DD	FLAT:??_C@_05DGOK@Sword?$AA@
	DB	05H
	ORG $+3
	DD	024H
	DD	01H
	DD	0cH
	DD	00H
	DD	00H
	DB	023H
	DB	00H
	DB	00H
	ORG $+1
	DD	00H
	DD	00H
	DD	00H
	DD	00H
	DD	01c2H
	DD	01c2H
	DD	01H
	DB	01H
	DB	01H
	ORG $+2
	DD	038H
	DB	01H
	DB	00H
	ORG $+2
	DD	FLAT:??_C@_05EPNO@Blade?$AA@
	DD	FLAT:??_C@_05EPNO@Blade?$AA@
	DB	04H
	ORG $+3
	DD	01eH
	DD	03H
	DD	08H
	DD	00H
	DD	00H
	DB	019H
	DB	00H
	DB	01eH
	ORG $+1
	DD	00H
	DD	00H
	DD	00H
	DD	00H
	DD	0118H
	DD	0118H
	DD	01H
	DB	01H
	DB	01H
	ORG $+2
	DD	043H
	DB	01H
	DB	0bH
	ORG $+2
	DD	FLAT:??_C@_05JMEJ@Sabre?$AA@
	DD	FLAT:??_C@_05JMEJ@Sabre?$AA@
	DB	01H
	ORG $+3
	DD	02dH
	DD	01H
	DD	08H
	DD	00H
	DD	00H
	DB	011H
	DB	00H
	DB	00H
	ORG $+1
	DD	00H
	DD	00H
	DD	00H
	DD	00H
	DD	0aaH
	DD	0aaH
	DD	01H
	DB	01H
	DB	01H
	ORG $+2
	DD	03cH
	DB	01H
	DB	0dH
	ORG $+2
	DD	FLAT:??_C@_0L@PEAA@Long?5Sword?$AA@
	DD	FLAT:??_C@_05DGOK@Sword?$AA@
	DB	06H
	ORG $+3
	DD	028H
	DD	02H
	DD	0aH
	DD	00H
	DD	00H
	DB	01eH
	DB	00H
	DB	01eH
	ORG $+1
	DD	00H
	DD	00H
	DD	00H
	DD	00H
	DD	015eH
	DD	015eH
	DD	01H
	DB	01H
	DB	01H
	ORG $+2
	DD	03dH
	DB	01H
	DB	0aH
	ORG $+2
	DD	FLAT:??_C@_0M@BCBO@Broad?5Sword?$AA@
	DD	FLAT:??_C@_05DGOK@Sword?$AA@
	DB	08H
	ORG $+3
	DD	032H
	DD	04H
	DD	0cH
	DD	00H
	DD	00H
	DB	028H
	DB	00H
	DB	00H
	ORG $+1
	DD	00H
	DD	00H
	DD	00H
	DD	00H
	DD	02eeH
	DD	02eeH
	DD	01H
	DB	01H
	DB	01H
	ORG $+2
	DD	039H
	DB	01H
	DB	0eH
	ORG $+2
	DD	FLAT:??_C@_0O@LHMK@Bastard?5Sword?$AA@
	DD	FLAT:??_C@_05DGOK@Sword?$AA@
	DB	0aH
	ORG $+3
	DD	03cH
	DD	06H
	DD	0fH
	DD	00H
	DD	00H
	DB	032H
	DB	00H
	DB	00H
	ORG $+1
	DD	00H
	DD	00H
	DD	00H
	DD	00H
	DD	03e8H
	DD	03e8H
	DD	01H
	DB	01H
	DB	02H
	ORG $+2
	DD	06eH
	DB	01H
	DB	0fH
	ORG $+2
	DD	FLAT:??_C@_0BB@BPCM@Two?9Handed?5Sword?$AA@
	DD	FLAT:??_C@_05DGOK@Sword?$AA@
	DB	0eH
	ORG $+3
	DD	04bH
	DD	08H
	DD	010H
	DD	00H
	DD	00H
	DB	041H
	DB	00H
	DB	00H
	ORG $+1
	DD	00H
	DD	00H
	DD	00H
	DD	00H
	DD	0708H
	DD	0708H
	DD	01H
	DB	01H
	DB	02H
	ORG $+2
	DD	086H
	DB	01H
	DB	010H
	ORG $+2
	DD	FLAT:??_C@_0M@CNCF@Great?5Sword?$AA@
	DD	FLAT:??_C@_05DGOK@Sword?$AA@
	DB	011H
	ORG $+3
	DD	064H
	DD	0aH
	DD	014H
	DD	00H
	DD	00H
	DB	04bH
	DB	00H
	DB	00H
	ORG $+1
	DD	00H
	DD	00H
	DD	00H
	DD	00H
	DD	0bb8H
	DD	0bb8H
	DD	01H
	DB	01H
	DB	02H
	ORG $+2
	DD	070H
	DB	02H
	DB	014H
	ORG $+2
	DD	FLAT:??_C@_09PFN@Small?5Axe?$AA@
	DD	FLAT:??_C@_03IAFN@Axe?$AA@
	DB	02H
	ORG $+3
	DD	018H
	DD	02H
	DD	0aH
	DD	00H
	DD	00H
	DB	00H
	DB	00H
	DB	00H
	ORG $+1
	DD	00H
	DD	00H
	DD	00H
	DD	00H
	DD	096H
	DD	096H
	DD	01H
	DB	01H
	DB	02H
	ORG $+2
	DD	090H
	DB	02H
	DB	00H
	ORG $+2
	DD	FLAT:??_C@_03IAFN@Axe?$AA@
	DD	FLAT:??_C@_03IAFN@Axe?$AA@
	DB	04H
	ORG $+3
	DD	020H
	DD	04H
	DD	0cH
	DD	00H
	DD	00H
	DB	016H
	DB	00H
	DB	00H
	ORG $+1
	DD	00H
	DD	00H
	DD	00H
	DD	00H
	DD	01c2H
	DD	01c2H
	DD	01H
	DB	01H
	DB	02H
	ORG $+2
	DD	08eH
	DB	02H
	DB	012H
	ORG $+2
	DD	FLAT:??_C@_09DPKC@Large?5Axe?$AA@
	DD	FLAT:??_C@_03IAFN@Axe?$AA@
	DB	06H
	ORG $+3
	DD	028H
	DD	06H
	DD	010H
	DD	00H
	DD	00H
	DB	01eH
	DB	00H
	DB	00H
	ORG $+1
	DD	00H
	DD	00H
	DD	00H
	DD	00H
	DD	02eeH
	DD	02eeH
	DD	01H
	DB	01H
	DB	02H
	ORG $+2
	DD	08dH
	DB	02H
	DB	013H
	ORG $+2
	DD	FLAT:??_C@_09COBI@Broad?5Axe?$AA@
	DD	FLAT:??_C@_03IAFN@Axe?$AA@
	DB	08H
	ORG $+3
	DD	032H
	DD	08H
	DD	014H
	DD	00H
	DD	00H
	DB	032H
	DB	00H
	DB	00H
	ORG $+1
	DD	00H
	DD	00H
	DD	00H
	DD	00H
	DD	03e8H
	DD	03e8H
	DD	01H
	DB	01H
	DB	02H
	ORG $+2
	DD	065H
	DB	02H
	DB	015H
	ORG $+2
	DD	FLAT:??_C@_0L@FOHJ@Battle?5Axe?$AA@
	DD	FLAT:??_C@_03IAFN@Axe?$AA@
	DB	0aH
	ORG $+3
	DD	03cH
	DD	0aH
	DD	019H
	DD	00H
	DD	00H
	DB	041H
	DB	00H
	DB	00H
	ORG $+1
	DD	00H
	DD	00H
	DD	00H
	DD	00H
	DD	05dcH
	DD	05dcH
	DD	01H
	DB	01H
	DB	02H
	ORG $+2
	DD	08fH
	DB	02H
	DB	016H
	ORG $+2
	DD	FLAT:??_C@_09MOKD@Great?5Axe?$AA@
	DD	FLAT:??_C@_03IAFN@Axe?$AA@
	DB	0cH
	ORG $+3
	DD	04bH
	DD	0cH
	DD	01eH
	DD	00H
	DD	00H
	DB	050H
	DB	00H
	DB	00H
	ORG $+1
	DD	00H
	DD	00H
	DD	00H
	DD	00H
	DD	09c4H
	DD	09c4H
	DD	01H
	DB	01H
	DB	01H
	ORG $+2
	DD	03bH
	DB	04H
	DB	017H
	ORG $+2
	DD	FLAT:??_C@_04OIIF@Mace?$AA@
	DD	FLAT:??_C@_04OIIF@Mace?$AA@
	DB	02H
	ORG $+3
	DD	020H
	DD	01H
	DD	08H
	DD	00H
	DD	00H
	DB	010H
	DB	00H
	DB	00H
	ORG $+1
	DD	00H
	DD	00H
	DD	00H
	DD	00H
	DD	0c8H
	DD	0c8H
	DD	01H
	DB	01H
	DB	01H
	ORG $+2
	DD	03fH
	DB	04H
	DB	018H
	ORG $+2
	DD	FLAT:??_C@_0N@CCDC@Morning?5Star?$AA@
	DD	FLAT:??_C@_04OIIF@Mace?$AA@
	DB	03H
	ORG $+3
	DD	028H
	DD	01H
	DD	0aH
	DD	00H
	DD	00H
	DB	01aH
	DB	00H
	DB	00H
	ORG $+1
	DD	00H
	DD	00H
	DD	00H
	DD	00H
	DD	012cH
	DD	012cH
	DD	01H
	DB	01H
	DB	01H
	ORG $+2
	DD	079H
	DB	04H
	DB	01bH
	ORG $+2
	DD	FLAT:??_C@_0L@NFJ@War?5Hammer?$AA@
	DD	FLAT:??_C@_06HJJB@Hammer?$AA@
	DB	05H
	ORG $+3
	DD	032H
	DD	05H
	DD	09H
	DD	00H
	DD	00H
	DB	028H
	DB	00H
	DB	00H
	ORG $+1
	DD	00H
	DD	00H
	DD	00H
	DD	00H
	DD	0258H
	DD	0258H
	DD	01H
	DB	01H
	DB	01H
	ORG $+2
	DD	046H
	DB	04H
	DB	019H
	ORG $+2
	DD	FLAT:??_C@_0M@OOJP@Spiked?5Club?$AA@
	DD	FLAT:??_C@_04NPLD@Club?$AA@
	DB	04H
	ORG $+3
	DD	014H
	DD	03H
	DD	06H
	DD	00H
	DD	00H
	DB	012H
	DB	00H
	DB	00H
	ORG $+1
	DD	00H
	DD	00H
	DD	00H
	DD	00H
	DD	0e1H
	DD	0e1H
	DD	01H
	DB	01H
	DB	01H
	ORG $+2
	DD	042H
	DB	04H
	DB	019H
	ORG $+2
	DD	FLAT:??_C@_04NPLD@Club?$AA@
	DD	FLAT:??_C@_04NPLD@Club?$AA@
	DB	01H
	ORG $+3
	DD	014H
	DD	01H
	DD	06H
	DD	00H
	DD	00H
	DB	00H
	DB	00H
	DB	00H
	ORG $+1
	DD	00H
	DD	00H
	DD	00H
	DD	00H
	DD	014H
	DD	014H
	DD	01H
	DB	01H
	DB	01H
	ORG $+2
	DD	083H
	DB	04H
	DB	01cH
	ORG $+2
	DD	FLAT:??_C@_05MIDA@Flail?$AA@
	DD	FLAT:??_C@_05MIDA@Flail?$AA@
	DB	07H
	ORG $+3
	DD	024H
	DD	02H
	DD	0cH
	DD	00H
	DD	00H
	DB	01eH
	DB	00H
	DB	00H
	ORG $+1
	DD	00H
	DD	00H
	DD	00H
	DD	00H
	DD	01f4H
	DD	01f4H
	DD	01H
	DB	01H
	DB	02H
	ORG $+2
	DD	07aH
	DB	04H
	DB	01aH
	ORG $+2
	DD	FLAT:??_C@_04LPM@Maul?$AA@
	DD	FLAT:??_C@_04LPM@Maul?$AA@
	DB	0aH
	ORG $+3
	DD	032H
	DD	06H
	DD	014H
	DD	00H
	DD	00H
	DB	037H
	DB	00H
	DB	00H
	ORG $+1
	DD	00H
	DD	00H
	DD	00H
	DD	00H
	DD	0384H
	DD	0384H
	DD	02H
	DB	01H
	DB	02H
	ORG $+2
	DD	076H
	DB	03H
	DB	01H
	ORG $+2
	DD	FLAT:??_C@_09HMDM@Short?5Bow?$AA@
	DD	FLAT:??_C@_03IBME@Bow?$AA@
	DB	01H
	ORG $+3
	DD	01eH
	DD	01H
	DD	04H
	DD	00H
	DD	00H
	DB	00H
	DB	00H
	DB	00H
	ORG $+1
	DD	00H
	DD	00H
	DD	00H
	DD	00H
	DD	064H
	DD	064H
	DD	02H
	DB	01H
	DB	02H
	ORG $+2
	DD	066H
	DB	03H
	DB	03H
	ORG $+2
	DD	FLAT:??_C@_0N@JCDD@Hunter?8s?5Bow?$AA@
	DD	FLAT:??_C@_03IBME@Bow?$AA@
	DB	03H
	ORG $+3
	DD	028H
	DD	02H
	DD	05H
	DD	00H
	DD	00H
	DB	014H
	DB	00H
	DB	023H
	ORG $+1
	DD	00H
	DD	00H
	DD	00H
	DD	00H
	DD	015eH
	DD	015eH
	DD	02H
	DB	01H
	DB	02H
	ORG $+2
	DD	066H
	DB	03H
	DB	02H
	ORG $+2
	DD	FLAT:??_C@_08OKLM@Long?5Bow?$AA@
	DD	FLAT:??_C@_03IBME@Bow?$AA@
	DB	05H
	ORG $+3
	DD	023H
	DD	01H
	DD	06H
	DD	00H
	DD	00H
	DB	019H
	DB	00H
	DB	01eH
	ORG $+1
	DD	00H
	DD	00H
	DD	00H
	DD	00H
	DD	0faH
	DD	0faH
	DD	02H
	DB	01H
	DB	02H
	ORG $+2
	DD	085H
	DB	03H
	DB	04H
	ORG $+2
	DD	FLAT:??_C@_0O@DKDP@Composite?5Bow?$AA@
	DD	FLAT:??_C@_03IBME@Bow?$AA@
	DB	07H
	ORG $+3
	DD	02dH
	DD	03H
	DD	06H
	DD	00H
	DD	00H
	DB	019H
	DB	00H
	DB	028H
	ORG $+1
	DD	00H
	DD	00H
	DD	00H
	DD	00H
	DD	0258H
	DD	0258H
	DD	02H
	DB	01H
	DB	02H
	ORG $+2
	DD	0a7H
	DB	03H
	DB	00H
	ORG $+2
	DD	FLAT:??_C@_0BB@PILI@Short?5Battle?5Bow?$AA@
	DD	FLAT:??_C@_03IBME@Bow?$AA@
	DB	09H
	ORG $+3
	DD	02dH
	DD	03H
	DD	07H
	DD	00H
	DD	00H
	DB	01eH
	DB	00H
	DB	032H
	ORG $+1
	DD	00H
	DD	00H
	DD	00H
	DD	00H
	DD	02eeH
	DD	02eeH
	DD	02H
	DB	01H
	DB	02H
	ORG $+2
	DD	077H
	DB	03H
	DB	06H
	ORG $+2
	DD	FLAT:??_C@_0BA@BIGH@Long?5Battle?5Bow?$AA@
	DD	FLAT:??_C@_03IBME@Bow?$AA@
	DB	0bH
	ORG $+3
	DD	032H
	DD	01H
	DD	0aH
	DD	00H
	DD	00H
	DB	01eH
	DB	00H
	DB	03cH
	ORG $+1
	DD	00H
	DD	00H
	DD	00H
	DD	00H
	DD	03e8H
	DD	03e8H
	DD	02H
	DB	01H
	DB	02H
	ORG $+2
	DD	0a5H
	DB	03H
	DB	00H
	ORG $+2
	DD	FLAT:??_C@_0O@JFHI@Short?5War?5Bow?$AA@
	DD	FLAT:??_C@_03IBME@Bow?$AA@
	DB	0fH
	ORG $+3
	DD	037H
	DD	04H
	DD	08H
	DD	00H
	DD	00H
	DB	023H
	DB	00H
	DB	046H
	ORG $+1
	DD	00H
	DD	00H
	DD	00H
	DD	00H
	DD	05dcH
	DD	05dcH
	DD	02H
	DB	01H
	DB	02H
	ORG $+2
	DD	077H
	DB	03H
	DB	05H
	ORG $+2
	DD	FLAT:??_C@_0N@POPE@Long?5War?5Bow?$AA@
	DD	FLAT:??_C@_03IBME@Bow?$AA@
	DB	013H
	ORG $+3
	DD	03cH
	DD	01H
	DD	0eH
	DD	00H
	DD	00H
	DB	02dH
	DB	00H
	DB	050H
	ORG $+1
	DD	00H
	DD	00H
	DD	00H
	DD	00H
	DD	07d0H
	DD	07d0H
	DD	01H
	DB	01H
	DB	02H
	ORG $+2
	DD	06dH
	DB	0aH
	DB	01eH
	ORG $+2
	DD	FLAT:??_C@_0M@IAG@Short?5Staff?$AA@
	DD	FLAT:??_C@_05EAPD@Staff?$AA@
	DB	01H
	ORG $+3
	DD	019H
	DD	02H
	DD	04H
	DD	00H
	DD	00H
	DB	00H
	DB	00H
	DB	00H
	ORG $+1
	DD	00H
	DD	017H
	DD	00H
	DD	00H
	DD	01eH
	DD	01eH
	DD	01H
	DB	01H
	DB	02H
	ORG $+2
	DD	07bH
	DB	0aH
	DB	01dH
	ORG $+2
	DD	FLAT:??_C@_0L@ICBJ@Long?5Staff?$AA@
	DD	FLAT:??_C@_05EAPD@Staff?$AA@
	DB	04H
	ORG $+3
	DD	023H
	DD	04H
	DD	08H
	DD	00H
	DD	00H
	DB	00H
	DB	00H
	DB	00H
	ORG $+1
	DD	00H
	DD	017H
	DD	00H
	DD	00H
	DD	064H
	DD	064H
	DD	01H
	DB	01H
	DB	02H
	ORG $+2
	DD	0a6H
	DB	0aH
	DB	01fH
	ORG $+2
	DD	FLAT:??_C@_0BA@IFDM@Composite?5Staff?$AA@
	DD	FLAT:??_C@_05EAPD@Staff?$AA@
	DB	06H
	ORG $+3
	DD	02dH
	DD	05H
	DD	0aH
	DD	00H
	DD	00H
	DB	00H
	DB	00H
	DB	00H
	ORG $+1
	DD	00H
	DD	017H
	DD	00H
	DD	00H
	DD	01f4H
	DD	01f4H
	DD	01H
	DB	01H
	DB	02H
	ORG $+2
	DD	06dH
	DB	0aH
	DB	020H
	ORG $+2
	DD	FLAT:??_C@_0O@ILDK@Quarter?5Staff?$AA@
	DD	FLAT:??_C@_05EAPD@Staff?$AA@
	DB	09H
	ORG $+3
	DD	037H
	DD	06H
	DD	0cH
	DD	00H
	DD	00H
	DB	014H
	DB	00H
	DB	00H
	ORG $+1
	DD	00H
	DD	017H
	DD	00H
	DD	00H
	DD	03e8H
	DD	03e8H
	DD	01H
	DB	01H
	DB	02H
	ORG $+2
	DD	07cH
	DB	0aH
	DB	021H
	ORG $+2
	DD	FLAT:??_C@_09IIHC@War?5Staff?$AA@
	DD	FLAT:??_C@_05EAPD@Staff?$AA@
	DB	0cH
	ORG $+3
	DD	04bH
	DD	08H
	DD	010H
	DD	00H
	DD	00H
	DB	01eH
	DB	00H
	DB	00H
	ORG $+1
	DD	00H
	DD	017H
	DD	00H
	DD	00H
	DD	05dcH
	DD	05dcH
	DD	01H
	DB	03H
	DB	05H
	ORG $+2
	DD	0cH
	DB	0cH
	DB	036H
	ORG $+2
	DD	FLAT:??_C@_04FBEF@Ring?$AA@
	DD	FLAT:??_C@_04FBEF@Ring?$AA@
	DB	05H
	ORG $+3
	DD	00H
	DD	00H
	DD	00H
	DD	00H
	DD	00H
	DB	00H
	DB	00H
	DB	00H
	ORG $+1
	DD	00H
	DD	019H
	DD	00H
	DD	00H
	DD	03e8H
	DD	03e8H
	DD	01H
	DB	03H
	DB	05H
	ORG $+2
	DD	0cH
	DB	0cH
	DB	036H
	ORG $+2
	DD	FLAT:??_C@_04FBEF@Ring?$AA@
	DD	FLAT:??_C@_04FBEF@Ring?$AA@
	DB	0aH
	ORG $+3
	DD	00H
	DD	00H
	DD	00H
	DD	00H
	DD	00H
	DB	00H
	DB	00H
	DB	00H
	ORG $+1
	DD	00H
	DD	019H
	DD	00H
	DD	00H
	DD	03e8H
	DD	03e8H
	DD	01H
	DB	03H
	DB	05H
	ORG $+2
	DD	0cH
	DB	0cH
	DB	036H
	ORG $+2
	DD	FLAT:??_C@_04FBEF@Ring?$AA@
	DD	FLAT:??_C@_04FBEF@Ring?$AA@
	DB	0fH
	ORG $+3
	DD	00H
	DD	00H
	DD	00H
	DD	00H
	DD	00H
	DB	00H
	DB	00H
	DB	00H
	ORG $+1
	DD	00H
	DD	019H
	DD	00H
	DD	00H
	DD	03e8H
	DD	03e8H
	DD	01H
	DB	03H
	DB	06H
	ORG $+2
	DD	02dH
	DB	0dH
	DB	038H
	ORG $+2
	DD	FLAT:??_C@_06BCFK@Amulet?$AA@
	DD	FLAT:??_C@_06BCFK@Amulet?$AA@
	DB	08H
	ORG $+3
	DD	00H
	DD	00H
	DD	00H
	DD	00H
	DD	00H
	DB	00H
	DB	00H
	DB	00H
	ORG $+1
	DD	00H
	DD	01aH
	DD	00H
	DD	00H
	DD	04b0H
	DD	04b0H
	DD	01H
	DB	03H
	DB	06H
	ORG $+2
	DD	02dH
	DB	0dH
	DB	038H
	ORG $+2
	DD	FLAT:??_C@_06BCFK@Amulet?$AA@
	DD	FLAT:??_C@_06BCFK@Amulet?$AA@
	DB	010H
	ORG $+3
	DD	00H
	DD	00H
	DD	00H
	DD	00H
	DD	00H
	DB	00H
	DB	00H
	DB	00H
	ORG $+1
	DD	00H
	DD	01aH
	DD	00H
	DD	00H
	DD	04b0H
	DD	04b0H
	DD	00H
	DB	00H
	DB	0ffH
	ORG $+2
	DD	00H
	DB	00H
	DB	00H
	ORG $+2
	DD	00H
	DD	00H
	DB	00H
	ORG $+3
	DD	00H
	DD	00H
	DD	00H
	DD	00H
	DD	00H
	DB	00H
	DB	00H
	DB	00H
	ORG $+1
	DD	00H
	DD	00H
	DD	00H
	DD	00H
	DD	00H
	DD	00H
	ORG $+4
_ItemCAnimTbl DB 014H
	DB	010H
	DB	010H
	DB	010H
	DB	04H
	DB	04H
	DB	04H
	DB	0cH
	DB	0cH
	DB	0cH
	DB	0cH
	DB	0cH
	DB	0cH
	DB	0cH
	DB	0cH
	DB	015H
	DB	015H
	DB	019H
	DB	0cH
	DB	01cH
	DB	01cH
	DB	01cH
	DB	00H
	DB	00H
	DB	00H
	DB	020H
	DB	00H
	DB	00H
	DB	00H
	DB	018H
	DB	018H
	DB	01aH
	DB	02H
	DB	019H
	DB	016H
	DB	017H
	DB	018H
	DB	019H
	DB	01bH
	DB	01bH
	DB	01dH
	DB	00H
	DB	00H
	DB	00H
	DB	0cH
	DB	0cH
	DB	0cH
	DB	0cH
	DB	0cH
	DB	00H
	DB	08H
	DB	08H
	DB	00H
	DB	08H
	DB	08H
	DB	08H
	DB	08H
	DB	08H
	DB	08H
	DB	06H
	DB	08H
	DB	08H
	DB	08H
	DB	06H
	DB	08H
	DB	08H
	DB	06H
	DB	08H
	DB	08H
	DB	06H
	DB	06H
	DB	06H
	DB	08H
	DB	08H
	DB	08H
	DB	05H
	DB	09H
	DB	0dH
	DB	0dH
	DB	0dH
	DB	05H
	DB	05H
	DB	05H
	DB	0fH
	DB	05H
	DB	05H
	DB	012H
	DB	012H
	DB	012H
	DB	01eH
	DB	05H
	DB	05H
	DB	0eH
	DB	05H
	DB	0eH
	DB	0dH
	DB	010H
	DB	012H
	DB	05H
	DB	05H
	DB	07H
	DB	01H
	DB	03H
	DB	011H
	DB	01H
	DB	0fH
	DB	0aH
	DB	0eH
	DB	03H
	DB	0bH
	DB	08H
	DB	00H
	DB	01H
	DB	07H
	DB	00H
	DB	07H
	DB	0fH
	DB	07H
	DB	03H
	DB	03H
	DB	03H
	DB	06H
	DB	06H
	DB	0bH
	DB	0bH
	DB	0bH
	DB	01fH
	DB	0eH
	DB	0eH
	DB	0eH
	DB	06H
	DB	06H
	DB	07H
	DB	03H
	DB	08H
	DB	0eH
	DB	00H
	DB	0eH
	DB	0eH
	DB	00H
	DB	021H
	DB	01H
	DB	01H
	DB	01H
	DB	01H
	DB	01H
	DB	07H
	DB	07H
	DB	07H
	DB	0eH
	DB	0eH
	DB	011H
	DB	011H
	DB	011H
	DB	00H
	DB	022H
	DB	01H
	DB	00H
	DB	03H
	DB	011H
	DB	08H
	DB	08H
	DB	06H
	DB	01H
	DB	03H
	DB	03H
	DB	0bH
	DB	03H
	DB	04H
_DATA	ENDS
;	COMDAT ??_C@_06KJBL@Armor2?$AA@
_DATA	SEGMENT
??_C@_06KJBL@Armor2?$AA@ DB 'Armor2', 00H		; `string'
_DATA	ENDS
;	COMDAT ??_C@_06KLNE@FBttle?$AA@
_DATA	SEGMENT
??_C@_06KLNE@FBttle?$AA@ DB 'FBttle', 00H		; `string'
_DATA	ENDS
;	COMDAT ??_C@_08IFLC@GoldFlip?$AA@
_DATA	SEGMENT
??_C@_08IFLC@GoldFlip?$AA@ DB 'GoldFlip', 00H		; `string'
_DATA	ENDS
;	COMDAT ??_C@_06EJIN@Helmut?$AA@
_DATA	SEGMENT
??_C@_06EJIN@Helmut?$AA@ DB 'Helmut', 00H		; `string'
_DATA	ENDS
;	COMDAT ??_C@_08DANF@SwrdFlip?$AA@
_DATA	SEGMENT
??_C@_08DANF@SwrdFlip?$AA@ DB 'SwrdFlip', 00H		; `string'
_DATA	ENDS
;	COMDAT ??_C@_04LKIC@Rock?$AA@
_DATA	SEGMENT
??_C@_04LKIC@Rock?$AA@ DB 'Rock', 00H			; `string'
_DATA	ENDS
;	COMDAT ??_C@_06IHL@CrownF?$AA@
_DATA	SEGMENT
??_C@_06IHL@CrownF?$AA@ DB 'CrownF', 00H		; `string'
_DATA	ENDS
;	COMDAT ??_C@_06DGLF@LArmor?$AA@
_DATA	SEGMENT
??_C@_06DGLF@LArmor?$AA@ DB 'LArmor', 00H		; `string'
_DATA	ENDS
;	COMDAT ??_C@_07OEKG@WShield?$AA@
_DATA	SEGMENT
??_C@_07OEKG@WShield?$AA@ DB 'WShield', 00H		; `string'
_DATA	ENDS
;	COMDAT ??_C@_06PAFO@Scroll?$AA@
_DATA	SEGMENT
??_C@_06PAFO@Scroll?$AA@ DB 'Scroll', 00H		; `string'
_DATA	ENDS
;	COMDAT ??_C@_08CJML@FPlateAr?$AA@
_DATA	SEGMENT
??_C@_08CJML@FPlateAr?$AA@ DB 'FPlateAr', 00H		; `string'
_DATA	ENDS
;	COMDAT ??_C@_05MJNG@FBook?$AA@
_DATA	SEGMENT
??_C@_05MJNG@FBook?$AA@ DB 'FBook', 00H			; `string'
_DATA	ENDS
;	COMDAT ??_C@_04JEEI@Food?$AA@
_DATA	SEGMENT
??_C@_04JEEI@Food?$AA@ DB 'Food', 00H			; `string'
_DATA	ENDS
;	COMDAT ??_C@_08PHIC@FBttleBB?$AA@
_DATA	SEGMENT
??_C@_08PHIC@FBttleBB?$AA@ DB 'FBttleBB', 00H		; `string'
_DATA	ENDS
;	COMDAT ??_C@_08ICAM@FBttleDY?$AA@
_DATA	SEGMENT
??_C@_08ICAM@FBttleDY?$AA@ DB 'FBttleDY', 00H		; `string'
_DATA	ENDS
;	COMDAT ??_C@_08KHKG@FBttleOR?$AA@
_DATA	SEGMENT
??_C@_08KHKG@FBttleOR?$AA@ DB 'FBttleOR', 00H		; `string'
_DATA	ENDS
;	COMDAT ??_C@_08FOPC@FBttleBR?$AA@
_DATA	SEGMENT
??_C@_08FOPC@FBttleBR?$AA@ DB 'FBttleBR', 00H		; `string'
_DATA	ENDS
;	COMDAT ??_C@_08FMEI@FBttleBL?$AA@
_DATA	SEGMENT
??_C@_08FMEI@FBttleBL?$AA@ DB 'FBttleBL', 00H		; `string'
_DATA	ENDS
;	COMDAT ??_C@_08PFPD@FBttleBY?$AA@
_DATA	SEGMENT
??_C@_08PFPD@FBttleBY?$AA@ DB 'FBttleBY', 00H		; `string'
_DATA	ENDS
;	COMDAT ??_C@_08NALN@FBttleWH?$AA@
_DATA	SEGMENT
??_C@_08NALN@FBttleWH?$AA@ DB 'FBttleWH', 00H		; `string'
_DATA	ENDS
;	COMDAT ??_C@_08IAHN@FBttleDB?$AA@
_DATA	SEGMENT
??_C@_08IAHN@FBttleDB?$AA@ DB 'FBttleDB', 00H		; `string'
_DATA	ENDS
;	COMDAT ??_C@_04HGKM@FEar?$AA@
_DATA	SEGMENT
??_C@_04HGKM@FEar?$AA@ DB 'FEar', 00H			; `string'
_DATA	ENDS
;	COMDAT ??_C@_06KIBP@FBrain?$AA@
_DATA	SEGMENT
??_C@_06KIBP@FBrain?$AA@ DB 'FBrain', 00H		; `string'
_DATA	ENDS
;	COMDAT ??_C@_05HGOE@FMush?$AA@
_DATA	SEGMENT
??_C@_05HGOE@FMush?$AA@ DB 'FMush', 00H			; `string'
_DATA	ENDS
;	COMDAT ??_C@_07LMBD@Innsign?$AA@
_DATA	SEGMENT
??_C@_07LMBD@Innsign?$AA@ DB 'Innsign', 00H		; `string'
_DATA	ENDS
;	COMDAT ??_C@_06KHLH@Bldstn?$AA@
_DATA	SEGMENT
??_C@_06KHLH@Bldstn?$AA@ DB 'Bldstn', 00H		; `string'
_DATA	ENDS
;	COMDAT ??_C@_06GMAG@Fanvil?$AA@
_DATA	SEGMENT
??_C@_06GMAG@Fanvil?$AA@ DB 'Fanvil', 00H		; `string'
_DATA	ENDS
;	COMDAT ??_C@_08HGKF@FLazStaf?$AA@
_DATA	SEGMENT
??_C@_08HGKF@FLazStaf?$AA@ DB 'FLazStaf', 00H		; `string'
_DATA	ENDS
_DATA	SEGMENT
	ORG $+7
_ItemDropStrs DD FLAT:??_C@_06KJBL@Armor2?$AA@
	DD	FLAT:??_C@_03IAFN@Axe?$AA@
	DD	FLAT:??_C@_06KLNE@FBttle?$AA@
	DD	FLAT:??_C@_03IBME@Bow?$AA@
	DD	FLAT:??_C@_08IFLC@GoldFlip?$AA@
	DD	FLAT:??_C@_06EJIN@Helmut?$AA@
	DD	FLAT:??_C@_04OIIF@Mace?$AA@
	DD	FLAT:??_C@_06GBHM@Shield?$AA@
	DD	FLAT:??_C@_08DANF@SwrdFlip?$AA@
	DD	FLAT:??_C@_04LKIC@Rock?$AA@
	DD	FLAT:??_C@_07DFGK@Cleaver?$AA@
	DD	FLAT:??_C@_05EAPD@Staff?$AA@
	DD	FLAT:??_C@_04FBEF@Ring?$AA@
	DD	FLAT:??_C@_06IHL@CrownF?$AA@
	DD	FLAT:??_C@_06DGLF@LArmor?$AA@
	DD	FLAT:??_C@_07OEKG@WShield?$AA@
	DD	FLAT:??_C@_06PAFO@Scroll?$AA@
	DD	FLAT:??_C@_08CJML@FPlateAr?$AA@
	DD	FLAT:??_C@_05MJNG@FBook?$AA@
	DD	FLAT:??_C@_04JEEI@Food?$AA@
	DD	FLAT:??_C@_08PHIC@FBttleBB?$AA@
	DD	FLAT:??_C@_08ICAM@FBttleDY?$AA@
	DD	FLAT:??_C@_08KHKG@FBttleOR?$AA@
	DD	FLAT:??_C@_08FOPC@FBttleBR?$AA@
	DD	FLAT:??_C@_08FMEI@FBttleBL?$AA@
	DD	FLAT:??_C@_08PFPD@FBttleBY?$AA@
	DD	FLAT:??_C@_08NALN@FBttleWH?$AA@
	DD	FLAT:??_C@_08IAHN@FBttleDB?$AA@
	DD	FLAT:??_C@_04HGKM@FEar?$AA@
	DD	FLAT:??_C@_06KIBP@FBrain?$AA@
	DD	FLAT:??_C@_05HGOE@FMush?$AA@
	DD	FLAT:??_C@_07LMBD@Innsign?$AA@
	DD	FLAT:??_C@_06KHLH@Bldstn?$AA@
	DD	FLAT:??_C@_06GMAG@Fanvil?$AA@
	DD	FLAT:??_C@_08HGKF@FLazStaf?$AA@
_ItemAnimLs DB	0fH
	DB	0dH
	DB	010H
	DB	0dH
	DB	0aH
	DB	0dH
	DB	0dH
	DB	0dH
	DB	0dH
	DB	0aH
	DB	0dH
	DB	0dH
	DB	0dH
	DB	0dH
	DB	0dH
	DB	0dH
	DB	0dH
	DB	0dH
	DB	0dH
	DB	01H
	DB	010H
	DB	010H
	DB	010H
	DB	010H
	DB	010H
	DB	010H
	DB	010H
	DB	010H
	DB	0dH
	DB	0cH
	DB	0cH
	DB	0dH
	DB	0dH
	DB	0dH
	DB	08H
	ORG $+1
_ItemDropSnds DD 01cH
	DD	016H
	DD	021H
	DD	01aH
	DD	029H
	DD	01bH
	DD	028H
	DD	025H
	DD	028H
	DD	023H
	DD	016H
	DD	027H
	DD	022H
	DD	01bH
	DD	01dH
	DD	025H
	DD	024H
	DD	01cH
	DD	019H
	DD	01dH
	DD	021H
	DD	021H
	DD	021H
	DD	021H
	DD	021H
	DD	021H
	DD	021H
	DD	021H
	DD	018H
	DD	018H
	DD	020H
	DD	03bH
	DD	017H
	DD	015H
	DD	027H
	ORG $+4
_ItemInvSnds DD	033H
	DD	02cH
	DD	036H
	DD	030H
	DD	029H
	DD	031H
	DD	03dH
	DD	03aH
	DD	03dH
	DD	038H
	DD	02cH
	DD	03cH
	DD	037H
	DD	031H
	DD	034H
	DD	03aH
	DD	039H
	DD	033H
	DD	02fH
	DD	033H
	DD	036H
	DD	036H
	DD	036H
	DD	036H
	DD	036H
	DD	036H
	DD	036H
	DD	036H
	DD	02eH
	DD	02eH
	DD	035H
	DD	03bH
	DD	02dH
	DD	02bH
	DD	03cH
_idoppely DD	010H
_premiumlvladd DD 0ffffffffH
	DD	0ffffffffH
	DD	00H
	DD	00H
	DD	01H
	DD	02H
_DATA	ENDS
PUBLIC	??_C@_0N@ONAL@Items?2?$CFs?4CEL?$AA@		; `string'
PUBLIC	_InitItemGFX
EXTRN	_sprintf:NEAR
EXTRN	@LoadFileInMem@8:NEAR
EXTRN	_memset:NEAR
;	COMDAT ??_C@_0N@ONAL@Items?2?$CFs?4CEL?$AA@
; File Source/items.cpp
_DATA	SEGMENT
??_C@_0N@ONAL@Items?2?$CFs?4CEL?$AA@ DB 'Items\%s.CEL', 00H ; `string'
; Function compile flags: /Ogsy
_DATA	ENDS
;	COMDAT _InitItemGFX
_TEXT	SEGMENT
_arglist$ = -64
_InitItemGFX PROC NEAR					; COMDAT
; Line 639
	push	ebp
	mov	ebp, esp
	sub	esp, 64					; 00000040H
	push	esi
; Line 648
	xor	esi, esi
$L85503:
	push	DWORD PTR _ItemDropStrs[esi]
	lea	eax, DWORD PTR _arglist$[ebp]
	push	OFFSET FLAT:??_C@_0N@ONAL@Items?2?$CFs?4CEL?$AA@ ; `string'
	push	eax
	call	_sprintf
	add	esp, 12					; 0000000cH
	xor	edx, edx
	lea	ecx, DWORD PTR _arglist$[ebp]
	call	@LoadFileInMem@8
	mov	DWORD PTR _Item2Frm[esi], eax
	add	esi, 4
	cmp	esi, 140				; 0000008cH
	jl	SHORT $L85503
; Line 649
	push	512					; 00000200H
	push	0
	push	OFFSET FLAT:_UniqueItemFlag
	call	_memset
	add	esp, 12					; 0000000cH
	pop	esi
; Line 650
	leave
	ret	0
_InitItemGFX ENDP
_TEXT	ENDS
PUBLIC	@ItemPlace@8
EXTRN	_dFlags:BYTE
EXTRN	_dItem:BYTE
EXTRN	_dMonster:BYTE
EXTRN	_dObject:BYTE
EXTRN	_dPiece:BYTE
EXTRN	_nSolidTable:BYTE
EXTRN	_dPlayer:BYTE
; Function compile flags: /Ogsy
;	COMDAT @ItemPlace@8
_TEXT	SEGMENT
@ItemPlace@8 PROC NEAR					; COMDAT
; _xp$ = ecx
; _yp$ = edx
; Line 659
	imul	ecx, 112				; 00000070H
	push	ebx
; Line 660
	xor	ebx, ebx
	lea	eax, DWORD PTR [ecx+edx]
	shl	eax, 2
	cmp	DWORD PTR _dMonster[eax], ebx
	jne	SHORT $L85516
	cmp	BYTE PTR _dPlayer[ecx+edx], bl
	jne	SHORT $L85516
	cmp	BYTE PTR _dItem[ecx+edx], bl
	jne	SHORT $L85516
	cmp	BYTE PTR _dObject[ecx+edx], bl
	jne	SHORT $L85516
	test	BYTE PTR _dFlags[ecx+edx], 8
	jne	SHORT $L85516
; Line 663
	mov	eax, DWORD PTR _dPiece[eax]
	cmp	BYTE PTR _nSolidTable[eax], bl
	pop	ebx
	sete	al
; Line 665
	ret	0
$L85516:
; Line 661
	xor	al, al
	pop	ebx
; Line 665
	ret	0
@ItemPlace@8 ENDP
_TEXT	ENDS
PUBLIC	_AddInitItems
PUBLIC	@GetItemAttrs@12
PUBLIC	@SetupItem@4
EXTRN	@SetRndSeed@4:NEAR
EXTRN	_GetRndSeed:NEAR
EXTRN	@random@8:NEAR
EXTRN	@DeltaAddItem@4:NEAR
EXTRN	_currlevel:BYTE
; Function compile flags: /Ogsy
;	COMDAT _AddInitItems
_TEXT	SEGMENT
_AddInitItems PROC NEAR					; COMDAT
; Line 668
	push	ebp
; Line 675
	push	3
	pop	edx
	mov	cl, 11					; 0000000bH
	call	@random@8
	mov	ebp, eax
	add	ebp, 3
; Line 676
	test	ebp, ebp
	jle	$L85527
	push	ebx
	push	esi
	push	edi
$L85525:
; Line 679
	mov	eax, DWORD PTR _numitems
	mov	ebx, DWORD PTR _itemavail
	shl	eax, 2
; Line 680
	mov	ecx, OFFSET FLAT:_itemavail+504
	sub	ecx, eax
	mov	DWORD PTR _itemactive[eax], ebx
	mov	eax, DWORD PTR [ecx]
	mov	DWORD PTR _itemavail, eax
$L85528:
; Line 682
	push	80					; 00000050H
	mov	cl, 12					; 0000000cH
	pop	edx
	call	@random@8
; Line 683
	push	80					; 00000050H
	mov	edi, eax
	pop	edx
	mov	cl, 12					; 0000000cH
	add	edi, 16					; 00000010H
	call	@random@8
	mov	edx, eax
; Line 684
	mov	ecx, edi
	add	edx, 16					; 00000010H
	call	@ItemPlace@8
	test	al, al
	je	SHORT $L85528
; Line 685
	mov	esi, ebx
; Line 687
	mov	al, bl
	imul	esi, 368				; 00000170H
	inc	al
	mov	DWORD PTR _item[esi+12], edi
	imul	edi, 112				; 00000070H
	mov	DWORD PTR _item[esi+16], edx
	mov	BYTE PTR _dItem[edi+edx], al
; Line 688
	call	_GetRndSeed
; Line 690
	mov	ecx, eax
	mov	DWORD PTR _item[esi], eax
	call	@SetRndSeed@4
; Line 691
	push	2
	mov	cl, 12					; 0000000cH
	pop	edx
	call	@random@8
	test	eax, eax
; Line 692
	movzx	eax, BYTE PTR _currlevel
	mov	ecx, ebx
	push	eax
	je	SHORT $L85531
	push	24					; 00000018H
; Line 693
	jmp	SHORT $L88458
$L85531:
; Line 694
	push	25					; 00000019H
$L88458:
	pop	edx
	call	@GetItemAttrs@12
; Line 695
	movzx	ax, BYTE PTR _currlevel
	add	eax, 32768				; 00008000H
; Line 696
	mov	ecx, ebx
	mov	WORD PTR _item[esi+4], ax
	call	@SetupItem@4
; Line 698
	mov	eax, DWORD PTR _item[esi+28]
	and	DWORD PTR _item[esi+20], 0
; Line 700
	mov	ecx, ebx
	mov	DWORD PTR _item[esi+32], eax
	mov	BYTE PTR _item[esi+48], 1
	call	@DeltaAddItem@4
; Line 701
	inc	DWORD PTR _numitems
; Line 702
	dec	ebp
; Line 703
	jne	$L85525
	pop	edi
	pop	esi
	pop	ebx
$L85527:
	pop	ebp
; Line 705
	ret	0
_AddInitItems ENDP
_TEXT	ENDS
PUBLIC	_InitItems
PUBLIC	@SpawnQuestItem@20
PUBLIC	_SpawnRock
EXTRN	_setlevel:BYTE
EXTRN	_setpc_x:DWORD
EXTRN	_setpc_y:DWORD
EXTRN	@QuestStatus@4:NEAR
EXTRN	_golditem:BYTE
; Function compile flags: /Ogsy
;	COMDAT _InitItems
_TEXT	SEGMENT
_InitItems PROC NEAR					; COMDAT
; Line 708
	push	ebx
	push	esi
	push	edi
; Line 712
	push	1
	xor	edx, edx
	xor	ecx, ecx
	call	@GetItemAttrs@12
; Line 714
	push	92					; 0000005cH
	mov	esi, OFFSET FLAT:_item
	pop	ecx
	mov	edi, OFFSET FLAT:_golditem
	xor	ebx, ebx
