; Listing generated by Microsoft (R) Optimizing Compiler Version 12.00.9044.0 

	TITLE	Source/monster.cpp
	.386P
include listing.inc
if @Version gt 510
.model FLAT
else
_TEXT	SEGMENT PARA USE32 PUBLIC 'CODE'
_TEXT	ENDS
_DATA	SEGMENT DWORD USE32 PUBLIC 'DATA'
_DATA	ENDS
CONST	SEGMENT DWORD USE32 PUBLIC 'CONST'
CONST	ENDS
_BSS	SEGMENT DWORD USE32 PUBLIC 'BSS'
_BSS	ENDS
$$SYMBOLS	SEGMENT BYTE USE32 'DEBSYM'
$$SYMBOLS	ENDS
$$TYPES	SEGMENT BYTE USE32 'DEBTYP'
$$TYPES	ENDS
_TLS	SEGMENT DWORD USE32 PUBLIC 'TLS'
_TLS	ENDS
;	COMDAT ??_C@_0BN@IMIC@Monsters?2Zombie?2Zombie?$CFc?4CL2?$AA@
_DATA	SEGMENT DWORD USE32 PUBLIC 'DATA'
_DATA	ENDS
;	COMDAT ??_C@_0BP@IHKO@Monsters?2Zombie?2Zombie?$CFc?$CFi?4WAV?$AA@
_DATA	SEGMENT DWORD USE32 PUBLIC 'DATA'
_DATA	ENDS
;	COMDAT ??_C@_06PEJJ@Zombie?$AA@
_DATA	SEGMENT DWORD USE32 PUBLIC 'DATA'
_DATA	ENDS
;	COMDAT ??_C@_0BM@OMHC@Monsters?2Zombie?2Bluered?4TRN?$AA@
_DATA	SEGMENT DWORD USE32 PUBLIC 'DATA'
_DATA	ENDS
;	COMDAT ??_C@_05EMI@Ghoul?$AA@
_DATA	SEGMENT DWORD USE32 PUBLIC 'DATA'
_DATA	ENDS
;	COMDAT ??_C@_0BJ@PMIC@Monsters?2Zombie?2Grey?4TRN?$AA@
_DATA	SEGMENT DWORD USE32 PUBLIC 'DATA'
_DATA	ENDS
;	COMDAT ??_C@_0BA@CBFH@Rotting?5Carcass?$AA@
_DATA	SEGMENT DWORD USE32 PUBLIC 'DATA'
_DATA	ENDS
;	COMDAT ??_C@_0BL@NLEA@Monsters?2Zombie?2Yellow?4TRN?$AA@
_DATA	SEGMENT DWORD USE32 PUBLIC 'DATA'
_DATA	ENDS
;	COMDAT ??_C@_0M@IKLP@Black?5Death?$AA@
_DATA	SEGMENT DWORD USE32 PUBLIC 'DATA'
_DATA	ENDS
;	COMDAT ??_C@_0BO@OOMI@Monsters?2FalSpear?2Phall?$CFc?4CL2?$AA@
_DATA	SEGMENT DWORD USE32 PUBLIC 'DATA'
_DATA	ENDS
;	COMDAT ??_C@_0CA@LICE@Monsters?2FalSpear?2Phall?$CFc?$CFi?4WAV?$AA@
_DATA	SEGMENT DWORD USE32 PUBLIC 'DATA'
_DATA	ENDS
;	COMDAT ??_C@_0BO@MBIF@Monsters?2FalSpear?2FallenT?4TRN?$AA@
_DATA	SEGMENT DWORD USE32 PUBLIC 'DATA'
_DATA	ENDS
;	COMDAT ??_C@_0L@IHGK@Fallen?5One?$AA@
_DATA	SEGMENT DWORD USE32 PUBLIC 'DATA'
_DATA	ENDS
;	COMDAT ??_C@_0BL@NGAB@Monsters?2FalSpear?2Dark?4TRN?$AA@
_DATA	SEGMENT DWORD USE32 PUBLIC 'DATA'
_DATA	ENDS
;	COMDAT ??_C@_06KIJL@Carver?$AA@
_DATA	SEGMENT DWORD USE32 PUBLIC 'DATA'
_DATA	ENDS
;	COMDAT ??_C@_09CFFL@Devil?5Kin?$AA@
_DATA	SEGMENT DWORD USE32 PUBLIC 'DATA'
_DATA	ENDS
;	COMDAT ??_C@_0BL@KPBN@Monsters?2FalSpear?2Blue?4TRN?$AA@
_DATA	SEGMENT DWORD USE32 PUBLIC 'DATA'
_DATA	ENDS
;	COMDAT ??_C@_08HICJ@Dark?5One?$AA@
_DATA	SEGMENT DWORD USE32 PUBLIC 'DATA'
_DATA	ENDS
;	COMDAT ??_C@_0BN@KBEI@Monsters?2SkelAxe?2SklAx?$CFc?4CL2?$AA@
_DATA	SEGMENT DWORD USE32 PUBLIC 'DATA'
_DATA	ENDS
;	COMDAT ??_C@_0BP@IJNN@Monsters?2SkelAxe?2SklAx?$CFc?$CFi?4WAV?$AA@
_DATA	SEGMENT DWORD USE32 PUBLIC 'DATA'
_DATA	ENDS
;	COMDAT ??_C@_0BL@LDMJ@Monsters?2SkelAxe?2White?4TRN?$AA@
_DATA	SEGMENT DWORD USE32 PUBLIC 'DATA'
_DATA	ENDS
;	COMDAT ??_C@_08KFBC@Skeleton?$AA@
_DATA	SEGMENT DWORD USE32 PUBLIC 'DATA'
_DATA	ENDS
;	COMDAT ??_C@_0BL@PJBC@Monsters?2SkelAxe?2Skelt?4TRN?$AA@
_DATA	SEGMENT DWORD USE32 PUBLIC 'DATA'
_DATA	ENDS
;	COMDAT ??_C@_0L@FLJI@Corpse?5Axe?$AA@
_DATA	SEGMENT DWORD USE32 PUBLIC 'DATA'
_DATA	ENDS
;	COMDAT ??_C@_0N@OPIP@Burning?5Dead?$AA@
_DATA	SEGMENT DWORD USE32 PUBLIC 'DATA'
_DATA	ENDS
;	COMDAT ??_C@_0BL@HLKD@Monsters?2SkelAxe?2Black?4TRN?$AA@
_DATA	SEGMENT DWORD USE32 PUBLIC 'DATA'
_DATA	ENDS
;	COMDAT ??_C@_06KKNE@Horror?$AA@
_DATA	SEGMENT DWORD USE32 PUBLIC 'DATA'
_DATA	ENDS
;	COMDAT ??_C@_0BN@DAFP@Monsters?2FalSword?2Fall?$CFc?4CL2?$AA@
_DATA	SEGMENT DWORD USE32 PUBLIC 'DATA'
_DATA	ENDS
;	COMDAT ??_C@_0BP@LKDH@Monsters?2FalSword?2Fall?$CFc?$CFi?4WAV?$AA@
_DATA	SEGMENT DWORD USE32 PUBLIC 'DATA'
_DATA	ENDS
;	COMDAT ??_C@_0BO@KANN@Monsters?2FalSword?2FallenT?4TRN?$AA@
_DATA	SEGMENT DWORD USE32 PUBLIC 'DATA'
_DATA	ENDS
;	COMDAT ??_C@_0BL@JPEE@Monsters?2FalSword?2Dark?4TRN?$AA@
_DATA	SEGMENT DWORD USE32 PUBLIC 'DATA'
_DATA	ENDS
;	COMDAT ??_C@_0BL@OGFI@Monsters?2FalSword?2Blue?4TRN?$AA@
_DATA	SEGMENT DWORD USE32 PUBLIC 'DATA'
_DATA	ENDS
;	COMDAT ??_C@_0BJ@BBLM@Monsters?2Scav?2Scav?$CFc?4CL2?$AA@
_DATA	SEGMENT DWORD USE32 PUBLIC 'DATA'
_DATA	ENDS
;	COMDAT ??_C@_0BL@FEJI@Monsters?2Scav?2Scav?$CFc?$CFi?4WAV?$AA@
_DATA	SEGMENT DWORD USE32 PUBLIC 'DATA'
_DATA	ENDS
;	COMDAT ??_C@_09ODLB@Scavenger?$AA@
_DATA	SEGMENT DWORD USE32 PUBLIC 'DATA'
_DATA	ENDS
;	COMDAT ??_C@_0BJ@BABM@Monsters?2Scav?2ScavBr?4TRN?$AA@
_DATA	SEGMENT DWORD USE32 PUBLIC 'DATA'
_DATA	ENDS
;	COMDAT ??_C@_0N@GMAL@Plague?5Eater?$AA@
_DATA	SEGMENT DWORD USE32 PUBLIC 'DATA'
_DATA	ENDS
;	COMDAT ??_C@_0BJ@HCLD@Monsters?2Scav?2ScavBe?4TRN?$AA@
_DATA	SEGMENT DWORD USE32 PUBLIC 'DATA'
_DATA	ENDS
;	COMDAT ??_C@_0N@PNNC@Shadow?5Beast?$AA@
_DATA	SEGMENT DWORD USE32 PUBLIC 'DATA'
_DATA	ENDS
;	COMDAT ??_C@_0BI@HIBO@Monsters?2Scav?2ScavW?4TRN?$AA@
_DATA	SEGMENT DWORD USE32 PUBLIC 'DATA'
_DATA	ENDS
;	COMDAT ??_C@_0M@NJCA@Bone?5Gasher?$AA@
_DATA	SEGMENT DWORD USE32 PUBLIC 'DATA'
_DATA	ENDS
;	COMDAT ??_C@_0BN@FDDL@Monsters?2SkelBow?2SklBw?$CFc?4CL2?$AA@
_DATA	SEGMENT DWORD USE32 PUBLIC 'DATA'
_DATA	ENDS
;	COMDAT ??_C@_0BP@OGC@Monsters?2SkelBow?2SklBw?$CFc?$CFi?4WAV?$AA@
_DATA	SEGMENT DWORD USE32 PUBLIC 'DATA'
_DATA	ENDS
;	COMDAT ??_C@_0BL@OCKB@Monsters?2SkelBow?2White?4TRN?$AA@
_DATA	SEGMENT DWORD USE32 PUBLIC 'DATA'
_DATA	ENDS
;	COMDAT ??_C@_0BL@KIHK@Monsters?2SkelBow?2Skelt?4TRN?$AA@
_DATA	SEGMENT DWORD USE32 PUBLIC 'DATA'
_DATA	ENDS
;	COMDAT ??_C@_0L@FKAB@Corpse?5Bow?$AA@
_DATA	SEGMENT DWORD USE32 PUBLIC 'DATA'
_DATA	ENDS
;	COMDAT ??_C@_0BL@CKML@Monsters?2SkelBow?2Black?4TRN?$AA@
_DATA	SEGMENT DWORD USE32 PUBLIC 'DATA'
_DATA	ENDS
;	COMDAT ??_C@_0BM@LPCM@Monsters?2SkelSd?2SklSr?$CFc?4CL2?$AA@
_DATA	SEGMENT DWORD USE32 PUBLIC 'DATA'
_DATA	ENDS
;	COMDAT ??_C@_0BO@JGHO@Monsters?2SkelSd?2SklSr?$CFc?$CFi?4WAV?$AA@
_DATA	SEGMENT DWORD USE32 PUBLIC 'DATA'
_DATA	ENDS
;	COMDAT ??_C@_0BK@FEKE@Monsters?2SkelSd?2White?4TRN?$AA@
_DATA	SEGMENT DWORD USE32 PUBLIC 'DATA'
_DATA	ENDS
;	COMDAT ??_C@_0BB@OJGC@Skeleton?5Captain?$AA@
_DATA	SEGMENT DWORD USE32 PUBLIC 'DATA'
_DATA	ENDS
;	COMDAT ??_C@_0BK@BOHP@Monsters?2SkelSd?2Skelt?4TRN?$AA@
_DATA	SEGMENT DWORD USE32 PUBLIC 'DATA'
_DATA	ENDS
;	COMDAT ??_C@_0P@ONID@Corpse?5Captain?$AA@
_DATA	SEGMENT DWORD USE32 PUBLIC 'DATA'
_DATA	ENDS
;	COMDAT ??_C@_0BF@LNCI@Burning?5Dead?5Captain?$AA@
_DATA	SEGMENT DWORD USE32 PUBLIC 'DATA'
_DATA	ENDS
;	COMDAT ??_C@_0BK@JMMO@Monsters?2SkelSd?2Black?4TRN?$AA@
_DATA	SEGMENT DWORD USE32 PUBLIC 'DATA'
_DATA	ENDS
;	COMDAT ??_C@_0P@MKB@Horror?5Captain?$AA@
_DATA	SEGMENT DWORD USE32 PUBLIC 'DATA'
_DATA	ENDS
;	COMDAT ??_C@_0BN@EHND@Monsters?2TSneak?2TSneak?$CFc?4CL2?$AA@
_DATA	SEGMENT DWORD USE32 PUBLIC 'DATA'
_DATA	ENDS
;	COMDAT ??_C@_0BP@FIIK@Monsters?2TSneak?2Sneakl?$CFc?$CFi?4WAV?$AA@
_DATA	SEGMENT DWORD USE32 PUBLIC 'DATA'
_DATA	ENDS
;	COMDAT ??_C@_0P@KBCM@Invisible?5Lord?$AA@
_DATA	SEGMENT DWORD USE32 PUBLIC 'DATA'
_DATA	ENDS
;	COMDAT ??_C@_0BL@OIAO@Monsters?2Sneak?2Sneak?$CFc?4CL2?$AA@
_DATA	SEGMENT DWORD USE32 PUBLIC 'DATA'
_DATA	ENDS
;	COMDAT ??_C@_0BN@IEAE@Monsters?2Sneak?2Sneak?$CFc?$CFi?4WAV?$AA@
_DATA	SEGMENT DWORD USE32 PUBLIC 'DATA'
_DATA	ENDS
;	COMDAT ??_C@_06OCEO@Hidden?$AA@
_DATA	SEGMENT DWORD USE32 PUBLIC 'DATA'
_DATA	ENDS
;	COMDAT ??_C@_0BL@FIHM@Monsters?2Sneak?2Sneakv2?4TRN?$AA@
_DATA	SEGMENT DWORD USE32 PUBLIC 'DATA'
_DATA	ENDS
;	COMDAT ??_C@_07JKLP@Stalker?$AA@
_DATA	SEGMENT DWORD USE32 PUBLIC 'DATA'
_DATA	ENDS
;	COMDAT ??_C@_0BL@PIFJ@Monsters?2Sneak?2Sneakv3?4TRN?$AA@
_DATA	SEGMENT DWORD USE32 PUBLIC 'DATA'
_DATA	ENDS
;	COMDAT ??_C@_06ELBO@Unseen?$AA@
_DATA	SEGMENT DWORD USE32 PUBLIC 'DATA'
_DATA	ENDS
;	COMDAT ??_C@_0BL@LIBD@Monsters?2Sneak?2Sneakv1?4TRN?$AA@
_DATA	SEGMENT DWORD USE32 PUBLIC 'DATA'
_DATA	ENDS
;	COMDAT ??_C@_0BA@LANI@Illusion?5Weaver?$AA@
_DATA	SEGMENT DWORD USE32 PUBLIC 'DATA'
_DATA	ENDS
;	COMDAT ??_C@_0BO@FGPM@Monsters?2GoatLord?2GoatL?$CFc?4CL2?$AA@
_DATA	SEGMENT DWORD USE32 PUBLIC 'DATA'
_DATA	ENDS
;	COMDAT ??_C@_0CA@ECCN@Monsters?2GoatLord?2Goatl?$CFc?$CFi?4WAV?$AA@
_DATA	SEGMENT DWORD USE32 PUBLIC 'DATA'
_DATA	ENDS
;	COMDAT ??_C@_0M@BAIA@Lord?5Sayter?$AA@
_DATA	SEGMENT DWORD USE32 PUBLIC 'DATA'
_DATA	ENDS
;	COMDAT ??_C@_0BN@OGDO@Monsters?2GoatMace?2Goat?$CFc?4CL2?$AA@
_DATA	SEGMENT DWORD USE32 PUBLIC 'DATA'
_DATA	ENDS
;	COMDAT ??_C@_0BP@CPIM@Monsters?2GoatMace?2Goat?$CFc?$CFi?4WAV?$AA@
_DATA	SEGMENT DWORD USE32 PUBLIC 'DATA'
_DATA	ENDS
;	COMDAT ??_C@_0L@PPFJ@Flesh?5Clan?$AA@
_DATA	SEGMENT DWORD USE32 PUBLIC 'DATA'
_DATA	ENDS
;	COMDAT ??_C@_0BM@DGOA@Monsters?2GoatMace?2Beige?4TRN?$AA@
_DATA	SEGMENT DWORD USE32 PUBLIC 'DATA'
_DATA	ENDS
;	COMDAT ??_C@_0L@DDEJ@Stone?5Clan?$AA@
_DATA	SEGMENT DWORD USE32 PUBLIC 'DATA'
_DATA	ENDS
;	COMDAT ??_C@_0BK@IMBO@Monsters?2GoatMace?2Red?4TRN?$AA@
_DATA	SEGMENT DWORD USE32 PUBLIC 'DATA'
_DATA	ENDS
;	COMDAT ??_C@_09NBOI@Fire?5Clan?$AA@
_DATA	SEGMENT DWORD USE32 PUBLIC 'DATA'
_DATA	ENDS
;	COMDAT ??_C@_0BL@CPGA@Monsters?2GoatMace?2Gray?4TRN?$AA@
_DATA	SEGMENT DWORD USE32 PUBLIC 'DATA'
_DATA	ENDS
;	COMDAT ??_C@_0L@JFLE@Night?5Clan?$AA@
_DATA	SEGMENT DWORD USE32 PUBLIC 'DATA'
_DATA	ENDS
;	COMDAT ??_C@_0BH@KIOP@Monsters?2Bat?2Bat?$CFc?4CL2?$AA@
_DATA	SEGMENT DWORD USE32 PUBLIC 'DATA'
_DATA	ENDS
;	COMDAT ??_C@_0BJ@JLKA@Monsters?2Bat?2Bat?$CFc?$CFi?4WAV?$AA@
_DATA	SEGMENT DWORD USE32 PUBLIC 'DATA'
_DATA	ENDS
;	COMDAT ??_C@_0BF@FLIN@Monsters?2Bat?2red?4trn?$AA@
_DATA	SEGMENT DWORD USE32 PUBLIC 'DATA'
_DATA	ENDS
;	COMDAT ??_C@_05FJN@Fiend?$AA@
_DATA	SEGMENT DWORD USE32 PUBLIC 'DATA'
_DATA	ENDS
;	COMDAT ??_C@_05OMKA@Blink?$AA@
_DATA	SEGMENT DWORD USE32 PUBLIC 'DATA'
_DATA	ENDS
;	COMDAT ??_C@_0BG@BDJF@Monsters?2Bat?2grey?4trn?$AA@
_DATA	SEGMENT DWORD USE32 PUBLIC 'DATA'
_DATA	ENDS
;	COMDAT ??_C@_05MJLP@Gloom?$AA@
_DATA	SEGMENT DWORD USE32 PUBLIC 'DATA'
_DATA	ENDS
;	COMDAT ??_C@_0BI@NFPN@Monsters?2Bat?2orange?4trn?$AA@
_DATA	SEGMENT DWORD USE32 PUBLIC 'DATA'
_DATA	ENDS
;	COMDAT ??_C@_08NKDG@Familiar?$AA@
_DATA	SEGMENT DWORD USE32 PUBLIC 'DATA'
_DATA	ENDS
;	COMDAT ??_C@_0BN@KDEJ@Monsters?2GoatBow?2GoatB?$CFc?4CL2?$AA@
_DATA	SEGMENT DWORD USE32 PUBLIC 'DATA'
_DATA	ENDS
;	COMDAT ??_C@_0BP@DOBM@Monsters?2GoatBow?2GoatB?$CFc?$CFi?4WAV?$AA@
_DATA	SEGMENT DWORD USE32 PUBLIC 'DATA'
_DATA	ENDS
;	COMDAT ??_C@_0BL@NIME@Monsters?2GoatBow?2Beige?4TRN?$AA@
_DATA	SEGMENT DWORD USE32 PUBLIC 'DATA'
_DATA	ENDS
;	COMDAT ??_C@_0BJ@NLCC@Monsters?2GoatBow?2Red?4TRN?$AA@
_DATA	SEGMENT DWORD USE32 PUBLIC 'DATA'
_DATA	ENDS
;	COMDAT ??_C@_0BK@LDH@Monsters?2GoatBow?2Gray?4TRN?$AA@
_DATA	SEGMENT DWORD USE32 PUBLIC 'DATA'
_DATA	ENDS
;	COMDAT ??_C@_0BJ@CGEO@Monsters?2Acid?2Acid?$CFc?4CL2?$AA@
_DATA	SEGMENT DWORD USE32 PUBLIC 'DATA'
_DATA	ENDS
;	COMDAT ??_C@_0BL@HFAM@Monsters?2Acid?2Acid?$CFc?$CFi?4WAV?$AA@
_DATA	SEGMENT DWORD USE32 PUBLIC 'DATA'
_DATA	ENDS
;	COMDAT ??_C@_0L@NECC@Acid?5Beast?$AA@
_DATA	SEGMENT DWORD USE32 PUBLIC 'DATA'
_DATA	ENDS
;	COMDAT ??_C@_0BK@MMPI@Monsters?2Acid?2AcidBlk?4TRN?$AA@
_DATA	SEGMENT DWORD USE32 PUBLIC 'DATA'
_DATA	ENDS
;	COMDAT ??_C@_0P@NPHN@Poison?5Spitter?$AA@
_DATA	SEGMENT DWORD USE32 PUBLIC 'DATA'
_DATA	ENDS
;	COMDAT ??_C@_0BI@KIAF@Monsters?2Acid?2AcidB?4TRN?$AA@
_DATA	SEGMENT DWORD USE32 PUBLIC 'DATA'
_DATA	ENDS
;	COMDAT ??_C@_09GJHH@Pit?5Beast?$AA@
_DATA	SEGMENT DWORD USE32 PUBLIC 'DATA'
_DATA	ENDS
;	COMDAT ??_C@_0BI@KKFA@Monsters?2Acid?2AcidR?4TRN?$AA@
_DATA	SEGMENT DWORD USE32 PUBLIC 'DATA'
_DATA	ENDS
;	COMDAT ??_C@_08KCMP@Lava?5Maw?$AA@
_DATA	SEGMENT DWORD USE32 PUBLIC 'DATA'
_DATA	ENDS
;	COMDAT ??_C@_0BL@OAFB@Monsters?2SKing?2SKing?$CFc?4CL2?$AA@
_DATA	SEGMENT DWORD USE32 PUBLIC 'DATA'
_DATA	ENDS
;	COMDAT ??_C@_0BN@KOJK@Monsters?2SKing?2SKing?$CFc?$CFi?4WAV?$AA@
_DATA	SEGMENT DWORD USE32 PUBLIC 'DATA'
_DATA	ENDS
;	COMDAT ??_C@_0O@COOI@Skeleton?5King?$AA@
_DATA	SEGMENT DWORD USE32 PUBLIC 'DATA'
_DATA	ENDS
;	COMDAT ??_C@_0BJ@IFKI@Monsters?2FatC?2FatC?$CFc?4CL2?$AA@
_DATA	SEGMENT DWORD USE32 PUBLIC 'DATA'
_DATA	ENDS
;	COMDAT ??_C@_0BL@IGFL@Monsters?2FatC?2FatC?$CFc?$CFi?4WAV?$AA@
_DATA	SEGMENT DWORD USE32 PUBLIC 'DATA'
_DATA	ENDS
;	COMDAT ??_C@_0M@OGO@The?5Butcher?$AA@
_DATA	SEGMENT DWORD USE32 PUBLIC 'DATA'
_DATA	ENDS
;	COMDAT ??_C@_0BH@OEHI@Monsters?2Fat?2Fat?$CFc?4CL2?$AA@
_DATA	SEGMENT DWORD USE32 PUBLIC 'DATA'
_DATA	ENDS
;	COMDAT ??_C@_0BJ@DLBO@Monsters?2Fat?2Fat?$CFc?$CFi?4WAV?$AA@
_DATA	SEGMENT DWORD USE32 PUBLIC 'DATA'
_DATA	ENDS
;	COMDAT ??_C@_08FGOM@Overlord?$AA@
_DATA	SEGMENT DWORD USE32 PUBLIC 'DATA'
_DATA	ENDS
;	COMDAT ??_C@_0BG@KPHM@Monsters?2Fat?2Blue?4TRN?$AA@
_DATA	SEGMENT DWORD USE32 PUBLIC 'DATA'
_DATA	ENDS
;	COMDAT ??_C@_07BNOE@Mud?5Man?$AA@
_DATA	SEGMENT DWORD USE32 PUBLIC 'DATA'
_DATA	ENDS
;	COMDAT ??_C@_0BG@JOFI@Monsters?2Fat?2FatB?4TRN?$AA@
_DATA	SEGMENT DWORD USE32 PUBLIC 'DATA'
_DATA	ENDS
;	COMDAT ??_C@_0L@PHFJ@Toad?5Demon?$AA@
_DATA	SEGMENT DWORD USE32 PUBLIC 'DATA'
_DATA	ENDS
;	COMDAT ??_C@_0BG@BOMN@Monsters?2Fat?2FatF?4TRN?$AA@
_DATA	SEGMENT DWORD USE32 PUBLIC 'DATA'
_DATA	ENDS
;	COMDAT ??_C@_0L@ELFK@Flayed?5One?$AA@
_DATA	SEGMENT DWORD USE32 PUBLIC 'DATA'
_DATA	ENDS
;	COMDAT ??_C@_0BJ@OKOD@Monsters?2Worm?2Worm?$CFc?4CL2?$AA@
_DATA	SEGMENT DWORD USE32 PUBLIC 'DATA'
_DATA	ENDS
;	COMDAT ??_C@_04EEPE@Wyrm?$AA@
_DATA	SEGMENT DWORD USE32 PUBLIC 'DATA'
_DATA	ENDS
;	COMDAT ??_C@_09HKKP@Cave?5Slug?$AA@
_DATA	SEGMENT DWORD USE32 PUBLIC 'DATA'
_DATA	ENDS
;	COMDAT ??_C@_0L@KJLC@Devil?5Wyrm?$AA@
_DATA	SEGMENT DWORD USE32 PUBLIC 'DATA'
_DATA	ENDS
;	COMDAT ??_C@_08DOKM@Devourer?$AA@
_DATA	SEGMENT DWORD USE32 PUBLIC 'DATA'
_DATA	ENDS
;	COMDAT ??_C@_0BL@GJJN@Monsters?2Magma?2Magma?$CFc?4CL2?$AA@
_DATA	SEGMENT DWORD USE32 PUBLIC 'DATA'
_DATA	ENDS
;	COMDAT ??_C@_0BN@LADC@Monsters?2Magma?2Magma?$CFc?$CFi?4WAV?$AA@
_DATA	SEGMENT DWORD USE32 PUBLIC 'DATA'
_DATA	ENDS
;	COMDAT ??_C@_0M@BDIN@Magma?5Demon?$AA@
_DATA	SEGMENT DWORD USE32 PUBLIC 'DATA'
_DATA	ENDS
;	COMDAT ??_C@_0BK@PAJG@Monsters?2Magma?2Yellow?4TRN?$AA@
_DATA	SEGMENT DWORD USE32 PUBLIC 'DATA'
_DATA	ENDS
;	COMDAT ??_C@_0M@BAA@Blood?5Stone?$AA@
_DATA	SEGMENT DWORD USE32 PUBLIC 'DATA'
_DATA	ENDS
;	COMDAT ??_C@_0BI@HBBI@Monsters?2Magma?2Blue?4TRN?$AA@
_DATA	SEGMENT DWORD USE32 PUBLIC 'DATA'
_DATA	ENDS
;	COMDAT ??_C@_0L@IKKA@Hell?5Stone?$AA@
_DATA	SEGMENT DWORD USE32 PUBLIC 'DATA'
_DATA	ENDS
;	COMDAT ??_C@_0BJ@KPPL@Monsters?2Magma?2Wierd?4TRN?$AA@
_DATA	SEGMENT DWORD USE32 PUBLIC 'DATA'
_DATA	ENDS
;	COMDAT ??_C@_09JMEO@Lava?5Lord?$AA@
_DATA	SEGMENT DWORD USE32 PUBLIC 'DATA'
_DATA	ENDS
;	COMDAT ??_C@_0BL@DDCB@Monsters?2Rhino?2Rhino?$CFc?4CL2?$AA@
_DATA	SEGMENT DWORD USE32 PUBLIC 'DATA'
_DATA	ENDS
;	COMDAT ??_C@_0BN@INFH@Monsters?2Rhino?2Rhino?$CFc?$CFi?4WAV?$AA@
_DATA	SEGMENT DWORD USE32 PUBLIC 'DATA'
_DATA	ENDS
;	COMDAT ??_C@_0N@OLEB@Horned?5Demon?$AA@
_DATA	SEGMENT DWORD USE32 PUBLIC 'DATA'
_DATA	ENDS
;	COMDAT ??_C@_0BK@MPLB@Monsters?2Rhino?2Orange?4TRN?$AA@
_DATA	SEGMENT DWORD USE32 PUBLIC 'DATA'
_DATA	ENDS
;	COMDAT ??_C@_0L@EIAJ@Mud?5Runner?$AA@
_DATA	SEGMENT DWORD USE32 PUBLIC 'DATA'
_DATA	ENDS
;	COMDAT ??_C@_0BI@KPBF@Monsters?2Rhino?2Blue?4TRN?$AA@
_DATA	SEGMENT DWORD USE32 PUBLIC 'DATA'
_DATA	ENDS
;	COMDAT ??_C@_0O@HAFD@Frost?5Charger?$AA@
_DATA	SEGMENT DWORD USE32 PUBLIC 'DATA'
_DATA	ENDS
;	COMDAT ??_C@_0BK@MHDK@Monsters?2Rhino?2RhinoB?4TRN?$AA@
_DATA	SEGMENT DWORD USE32 PUBLIC 'DATA'
_DATA	ENDS
;	COMDAT ??_C@_0O@FPB@Obsidian?5Lord?$AA@
_DATA	SEGMENT DWORD USE32 PUBLIC 'DATA'
_DATA	ENDS
;	COMDAT ??_C@_0BO@PCKO@Monsters?2Demskel?2Demskl?$CFc?4CL2?$AA@
_DATA	SEGMENT DWORD USE32 PUBLIC 'DATA'
_DATA	ENDS
;	COMDAT ??_C@_0BL@MEBK@Monsters?2Thin?2Thin?$CFc?$CFi?4WAV?$AA@
_DATA	SEGMENT DWORD USE32 PUBLIC 'DATA'
_DATA	ENDS
;	COMDAT ??_C@_0BJ@LDDE@Monsters?2Thin?2Thinv3?4TRN?$AA@
_DATA	SEGMENT DWORD USE32 PUBLIC 'DATA'
_DATA	ENDS
;	COMDAT ??_C@_0L@LMNI@Bone?5Demon?$AA@
_DATA	SEGMENT DWORD USE32 PUBLIC 'DATA'
_DATA	ENDS
;	COMDAT ??_C@_0BJ@KDGD@Monsters?2Thin?2Thin?$CFc?4CL2?$AA@
_DATA	SEGMENT DWORD USE32 PUBLIC 'DATA'
_DATA	ENDS
;	COMDAT ??_C@_09JDGN@Red?5Death?$AA@
_DATA	SEGMENT DWORD USE32 PUBLIC 'DATA'
_DATA	ENDS
;	COMDAT ??_C@_0M@EOOB@Litch?5Demon?$AA@
_DATA	SEGMENT DWORD USE32 PUBLIC 'DATA'
_DATA	ENDS
;	COMDAT ??_C@_0O@HMDJ@Undead?5Balrog?$AA@
_DATA	SEGMENT DWORD USE32 PUBLIC 'DATA'
_DATA	ENDS
;	COMDAT ??_C@_0BN@JOPB@Monsters?2Fireman?2FireM?$CFc?4CL2?$AA@
_DATA	SEGMENT DWORD USE32 PUBLIC 'DATA'
_DATA	ENDS
;	COMDAT ??_C@_0M@LACM@Incinerator?$AA@
_DATA	SEGMENT DWORD USE32 PUBLIC 'DATA'
_DATA	ENDS
;	COMDAT ??_C@_0L@LNJN@Flame?5Lord?$AA@
_DATA	SEGMENT DWORD USE32 PUBLIC 'DATA'
_DATA	ENDS
;	COMDAT ??_C@_09BBKL@Doom?5Fire?$AA@
_DATA	SEGMENT DWORD USE32 PUBLIC 'DATA'
_DATA	ENDS
;	COMDAT ??_C@_0M@DMNI@Hell?5Burner?$AA@
_DATA	SEGMENT DWORD USE32 PUBLIC 'DATA'
_DATA	ENDS
;	COMDAT ??_C@_09IKEH@Red?5Storm?$AA@
_DATA	SEGMENT DWORD USE32 PUBLIC 'DATA'
_DATA	ENDS
;	COMDAT ??_C@_0M@ELEK@Storm?5Rider?$AA@
_DATA	SEGMENT DWORD USE32 PUBLIC 'DATA'
_DATA	ENDS
;	COMDAT ??_C@_0BJ@BDBB@Monsters?2Thin?2Thinv2?4TRN?$AA@
_DATA	SEGMENT DWORD USE32 PUBLIC 'DATA'
_DATA	ENDS
;	COMDAT ??_C@_0L@MPDM@Storm?5Lord?$AA@
_DATA	SEGMENT DWORD USE32 PUBLIC 'DATA'
_DATA	ENDS
;	COMDAT ??_C@_0BJ@PDHO@Monsters?2Thin?2Thinv1?4TRN?$AA@
_DATA	SEGMENT DWORD USE32 PUBLIC 'DATA'
_DATA	ENDS
;	COMDAT ??_C@_09GKHB@Maelstorm?$AA@
_DATA	SEGMENT DWORD USE32 PUBLIC 'DATA'
_DATA	ENDS
;	COMDAT ??_C@_0BN@PDMB@Monsters?2BigFall?2Fallg?$CFc?4CL2?$AA@
_DATA	SEGMENT DWORD USE32 PUBLIC 'DATA'
_DATA	ENDS
;	COMDAT ??_C@_0BO@COGP@Monsters?2BigFall?2Bfal?$CFc?$CFi?4WAV?$AA@
_DATA	SEGMENT DWORD USE32 PUBLIC 'DATA'
_DATA	ENDS
;	COMDAT ??_C@_0BA@FGGD@Devil?5Kin?5Brute?$AA@
_DATA	SEGMENT DWORD USE32 PUBLIC 'DATA'
_DATA	ENDS
;	COMDAT ??_C@_0BO@DCJK@Monsters?2Gargoyle?2Gargo?$CFc?4CL2?$AA@
_DATA	SEGMENT DWORD USE32 PUBLIC 'DATA'
_DATA	ENDS
;	COMDAT ??_C@_0CA@OJJF@Monsters?2Gargoyle?2Gargo?$CFc?$CFi?4WAV?$AA@
_DATA	SEGMENT DWORD USE32 PUBLIC 'DATA'
_DATA	ENDS
;	COMDAT ??_C@_0N@CHBP@Winged?9Demon?$AA@
_DATA	SEGMENT DWORD USE32 PUBLIC 'DATA'
_DATA	ENDS
;	COMDAT ??_C@_0BL@GLPH@Monsters?2Gargoyle?2GarE?4TRN?$AA@
_DATA	SEGMENT DWORD USE32 PUBLIC 'DATA'
_DATA	ENDS
;	COMDAT ??_C@_08HND@Gargoyle?$AA@
_DATA	SEGMENT DWORD USE32 PUBLIC 'DATA'
_DATA	ENDS
;	COMDAT ??_C@_0BN@KACC@Monsters?2Gargoyle?2GargBr?4TRN?$AA@
_DATA	SEGMENT DWORD USE32 PUBLIC 'DATA'
_DATA	ENDS
;	COMDAT ??_C@_0L@JKAG@Blood?5Claw?$AA@
_DATA	SEGMENT DWORD USE32 PUBLIC 'DATA'
_DATA	ENDS
;	COMDAT ??_C@_0BM@GEJG@Monsters?2Gargoyle?2GargB?4TRN?$AA@
_DATA	SEGMENT DWORD USE32 PUBLIC 'DATA'
_DATA	ENDS
;	COMDAT ??_C@_0L@CJIN@Death?5Wing?$AA@
_DATA	SEGMENT DWORD USE32 PUBLIC 'DATA'
_DATA	ENDS
;	COMDAT ??_C@_0BJ@OHJC@Monsters?2Mega?2Mega?$CFc?4CL2?$AA@
_DATA	SEGMENT DWORD USE32 PUBLIC 'DATA'
_DATA	ENDS
;	COMDAT ??_C@_0BL@EJPE@Monsters?2Mega?2Mega?$CFc?$CFi?4WAV?$AA@
_DATA	SEGMENT DWORD USE32 PUBLIC 'DATA'
_DATA	ENDS
;	COMDAT ??_C@_06MHAA@Slayer?$AA@
_DATA	SEGMENT DWORD USE32 PUBLIC 'DATA'
_DATA	ENDS
;	COMDAT ??_C@_0BI@KHJI@Monsters?2Mega?2Guard?4TRN?$AA@
_DATA	SEGMENT DWORD USE32 PUBLIC 'DATA'
_DATA	ENDS
;	COMDAT ??_C@_08KEIB@Guardian?$AA@
_DATA	SEGMENT DWORD USE32 PUBLIC 'DATA'
_DATA	ENDS
;	COMDAT ??_C@_0BI@DEEB@Monsters?2Mega?2Vtexl?4TRN?$AA@
_DATA	SEGMENT DWORD USE32 PUBLIC 'DATA'
_DATA	ENDS
;	COMDAT ??_C@_0M@NBKI@Vortex?5Lord?$AA@
_DATA	SEGMENT DWORD USE32 PUBLIC 'DATA'
_DATA	ENDS
;	COMDAT ??_C@_0BH@BNN@Monsters?2Mega?2Balr?4TRN?$AA@
_DATA	SEGMENT DWORD USE32 PUBLIC 'DATA'
_DATA	ENDS
;	COMDAT ??_C@_06OEIG@Balrog?$AA@
_DATA	SEGMENT DWORD USE32 PUBLIC 'DATA'
_DATA	ENDS
;	COMDAT ??_C@_0BL@IHHM@Monsters?2Snake?2Snake?$CFc?4CL2?$AA@
_DATA	SEGMENT DWORD USE32 PUBLIC 'DATA'
_DATA	ENDS
;	COMDAT ??_C@_0BN@NHII@Monsters?2Snake?2Snake?$CFc?$CFi?4WAV?$AA@
_DATA	SEGMENT DWORD USE32 PUBLIC 'DATA'
_DATA	ENDS
;	COMDAT ??_C@_0L@PGLH@Cave?5Viper?$AA@
_DATA	SEGMENT DWORD USE32 PUBLIC 'DATA'
_DATA	ENDS
;	COMDAT ??_C@_0BJ@LCBA@Monsters?2Snake?2SnakR?4TRN?$AA@
_DATA	SEGMENT DWORD USE32 PUBLIC 'DATA'
_DATA	ENDS
;	COMDAT ??_C@_0L@GLJN@Fire?5Drake?$AA@
_DATA	SEGMENT DWORD USE32 PUBLIC 'DATA'
_DATA	ENDS
;	COMDAT ??_C@_0BJ@JEFP@Monsters?2Snake?2Snakg?4TRN?$AA@
_DATA	SEGMENT DWORD USE32 PUBLIC 'DATA'
_DATA	ENDS
;	COMDAT ??_C@_0L@CLBK@Gold?5Viper?$AA@
_DATA	SEGMENT DWORD USE32 PUBLIC 'DATA'
_DATA	ENDS
;	COMDAT ??_C@_0BJ@LEOP@Monsters?2Snake?2Snakb?4TRN?$AA@
_DATA	SEGMENT DWORD USE32 PUBLIC 'DATA'
_DATA	ENDS
;	COMDAT ??_C@_0M@FIHH@Azure?5Drake?$AA@
_DATA	SEGMENT DWORD USE32 PUBLIC 'DATA'
_DATA	ENDS
;	COMDAT ??_C@_0BL@JDBP@Monsters?2Black?2Black?$CFc?4CL2?$AA@
_DATA	SEGMENT DWORD USE32 PUBLIC 'DATA'
_DATA	ENDS
;	COMDAT ??_C@_0BN@KHJ@Monsters?2Black?2Black?$CFc?$CFi?4WAV?$AA@
_DATA	SEGMENT DWORD USE32 PUBLIC 'DATA'
_DATA	ENDS
;	COMDAT ??_C@_0N@PDGD@Black?5Knight?$AA@
_DATA	SEGMENT DWORD USE32 PUBLIC 'DATA'
_DATA	ENDS
;	COMDAT ??_C@_0BM@GOHA@Monsters?2Black?2BlkKntRT?4TRN?$AA@
_DATA	SEGMENT DWORD USE32 PUBLIC 'DATA'
_DATA	ENDS
;	COMDAT ??_C@_0L@FPBM@Doom?5Guard?$AA@
_DATA	SEGMENT DWORD USE32 PUBLIC 'DATA'
_DATA	ENDS
;	COMDAT ??_C@_0BM@DEHC@Monsters?2Black?2BlkKntBT?4TRN?$AA@
_DATA	SEGMENT DWORD USE32 PUBLIC 'DATA'
_DATA	ENDS
;	COMDAT ??_C@_0L@KLAH@Steel?5Lord?$AA@
_DATA	SEGMENT DWORD USE32 PUBLIC 'DATA'
_DATA	ENDS
;	COMDAT ??_C@_0BM@JCKI@Monsters?2Black?2BlkKntBe?4TRN?$AA@
_DATA	SEGMENT DWORD USE32 PUBLIC 'DATA'
_DATA	ENDS
;	COMDAT ??_C@_0N@PCA@Blood?5Knight?$AA@
_DATA	SEGMENT DWORD USE32 PUBLIC 'DATA'
_DATA	ENDS
;	COMDAT ??_C@_0BL@CDKL@Monsters?2Unrav?2Unrav?$CFc?4CL2?$AA@
_DATA	SEGMENT DWORD USE32 PUBLIC 'DATA'
_DATA	ENDS
;	COMDAT ??_C@_09KOLF@Unraveler?$AA@
_DATA	SEGMENT DWORD USE32 PUBLIC 'DATA'
_DATA	ENDS
;	COMDAT ??_C@_0L@GDBP@Hollow?5One?$AA@
_DATA	SEGMENT DWORD USE32 PUBLIC 'DATA'
_DATA	ENDS
;	COMDAT ??_C@_0M@FDGH@Pain?5Master?$AA@
_DATA	SEGMENT DWORD USE32 PUBLIC 'DATA'
_DATA	ENDS
;	COMDAT ??_C@_0P@NDCP@Reality?5Weaver?$AA@
_DATA	SEGMENT DWORD USE32 PUBLIC 'DATA'
_DATA	ENDS
;	COMDAT ??_C@_0BJ@DPMO@Monsters?2Succ?2Scbs?$CFc?4CL2?$AA@
_DATA	SEGMENT DWORD USE32 PUBLIC 'DATA'
_DATA	ENDS
;	COMDAT ??_C@_0BL@HGFB@Monsters?2Succ?2Scbs?$CFc?$CFi?4WAV?$AA@
_DATA	SEGMENT DWORD USE32 PUBLIC 'DATA'
_DATA	ENDS
;	COMDAT ??_C@_08FEBP@Succubus?$AA@
_DATA	SEGMENT DWORD USE32 PUBLIC 'DATA'
_DATA	ENDS
;	COMDAT ??_C@_0BI@GKHN@Monsters?2Succ?2Succb?4TRN?$AA@
_DATA	SEGMENT DWORD USE32 PUBLIC 'DATA'
_DATA	ENDS
;	COMDAT ??_C@_0L@FPIO@Snow?5Witch?$AA@
_DATA	SEGMENT DWORD USE32 PUBLIC 'DATA'
_DATA	ENDS
;	COMDAT ??_C@_0BJ@PIJO@Monsters?2Succ?2Succrw?4TRN?$AA@
_DATA	SEGMENT DWORD USE32 PUBLIC 'DATA'
_DATA	ENDS
;	COMDAT ??_C@_0L@BHM@Hell?5Spawn?$AA@
_DATA	SEGMENT DWORD USE32 PUBLIC 'DATA'
_DATA	ENDS
;	COMDAT ??_C@_0BJ@KCJM@Monsters?2Succ?2Succbw?4TRN?$AA@
_DATA	SEGMENT DWORD USE32 PUBLIC 'DATA'
_DATA	ENDS
;	COMDAT ??_C@_0M@GKNH@Soul?5Burner?$AA@
_DATA	SEGMENT DWORD USE32 PUBLIC 'DATA'
_DATA	ENDS
;	COMDAT ??_C@_0BJ@GCAL@Monsters?2Mage?2Mage?$CFc?4CL2?$AA@
_DATA	SEGMENT DWORD USE32 PUBLIC 'DATA'
_DATA	ENDS
;	COMDAT ??_C@_0BL@OMKE@Monsters?2Mage?2Mage?$CFc?$CFi?4WAV?$AA@
_DATA	SEGMENT DWORD USE32 PUBLIC 'DATA'
_DATA	ENDS
;	COMDAT ??_C@_09HLJB@Counselor?$AA@
_DATA	SEGMENT DWORD USE32 PUBLIC 'DATA'
_DATA	ENDS
;	COMDAT ??_C@_0BJ@IEPO@Monsters?2Mage?2Cnselg?4TRN?$AA@
_DATA	SEGMENT DWORD USE32 PUBLIC 'DATA'
_DATA	ENDS
;	COMDAT ??_C@_0L@IHLC@Magistrate?$AA@
_DATA	SEGMENT DWORD USE32 PUBLIC 'DATA'
_DATA	ENDS
;	COMDAT ??_C@_0BK@IAEI@Monsters?2Mage?2Cnselgd?4TRN?$AA@
_DATA	SEGMENT DWORD USE32 PUBLIC 'DATA'
_DATA	ENDS
;	COMDAT ??_C@_08EOGH@Cabalist?$AA@
_DATA	SEGMENT DWORD USE32 PUBLIC 'DATA'
_DATA	ENDS
;	COMDAT ??_C@_0BK@CCLI@Monsters?2Mage?2Cnselbk?4TRN?$AA@
_DATA	SEGMENT DWORD USE32 PUBLIC 'DATA'
_DATA	ENDS
;	COMDAT ??_C@_08KFKH@Advocate?$AA@
_DATA	SEGMENT DWORD USE32 PUBLIC 'DATA'
_DATA	ENDS
;	COMDAT ??_C@_0BL@HABD@Monsters?2Golem?2Golem?$CFc?4CL2?$AA@
_DATA	SEGMENT DWORD USE32 PUBLIC 'DATA'
_DATA	ENDS
;	COMDAT ??_C@_0BM@PJFI@Monsters?2Golem?2Golm?$CFc?$CFi?4WAV?$AA@
_DATA	SEGMENT DWORD USE32 PUBLIC 'DATA'
_DATA	ENDS
;	COMDAT ??_C@_05MIHD@Golem?$AA@
_DATA	SEGMENT DWORD USE32 PUBLIC 'DATA'
_DATA	ENDS
;	COMDAT ??_C@_0BN@LMBN@Monsters?2Diablo?2Diablo?$CFc?4CL2?$AA@
_DATA	SEGMENT DWORD USE32 PUBLIC 'DATA'
_DATA	ENDS
;	COMDAT ??_C@_0BP@FGDO@Monsters?2Diablo?2Diablo?$CFc?$CFi?4WAV?$AA@
_DATA	SEGMENT DWORD USE32 PUBLIC 'DATA'
_DATA	ENDS
;	COMDAT ??_C@_0O@FIFM@The?5Dark?5Lord?$AA@
_DATA	SEGMENT DWORD USE32 PUBLIC 'DATA'
_DATA	ENDS
;	COMDAT ??_C@_0BO@BEOI@Monsters?2DarkMage?2Dmage?$CFc?4CL2?$AA@
_DATA	SEGMENT DWORD USE32 PUBLIC 'DATA'
_DATA	ENDS
;	COMDAT ??_C@_0BP@HJAJ@Monsters?2DarkMage?2Dmag?$CFc?$CFi?4WAV?$AA@
_DATA	SEGMENT DWORD USE32 PUBLIC 'DATA'
_DATA	ENDS
;	COMDAT ??_C@_0BI@JDKB@The?5Arch?9Litch?5Malignus?$AA@
_DATA	SEGMENT DWORD USE32 PUBLIC 'DATA'
_DATA	ENDS
;	COMDAT ??_C@_0BB@NNOM@Gharbad?5the?5Weak?$AA@
_DATA	SEGMENT DWORD USE32 PUBLIC 'DATA'
_DATA	ENDS
;	COMDAT ??_C@_04EMDL@BSDB?$AA@
_DATA	SEGMENT DWORD USE32 PUBLIC 'DATA'
_DATA	ENDS
;	COMDAT ??_C@_05MCCE@GENRL?$AA@
_DATA	SEGMENT DWORD USE32 PUBLIC 'DATA'
_DATA	ENDS
;	COMDAT ??_C@_0N@KGIJ@Zhar?5the?5Mad?$AA@
_DATA	SEGMENT DWORD USE32 PUBLIC 'DATA'
_DATA	ENDS
;	COMDAT ??_C@_07MFB@GENERAL?$AA@
_DATA	SEGMENT DWORD USE32 PUBLIC 'DATA'
_DATA	ENDS
;	COMDAT ??_C@_09MNJA@Snotspill?$AA@
_DATA	SEGMENT DWORD USE32 PUBLIC 'DATA'
_DATA	ENDS
;	COMDAT ??_C@_03LJKM@BNG?$AA@
_DATA	SEGMENT DWORD USE32 PUBLIC 'DATA'
_DATA	ENDS
;	COMDAT ??_C@_0BE@EMLM@Arch?9Bishop?5Lazarus?$AA@
_DATA	SEGMENT DWORD USE32 PUBLIC 'DATA'
_DATA	ENDS
;	COMDAT ??_C@_07FILF@Red?5Vex?$AA@
_DATA	SEGMENT DWORD USE32 PUBLIC 'DATA'
_DATA	ENDS
;	COMDAT ??_C@_04NHCL@REDV?$AA@
_DATA	SEGMENT DWORD USE32 PUBLIC 'DATA'
_DATA	ENDS
;	COMDAT ??_C@_09NNFD@BlackJade?$AA@
_DATA	SEGMENT DWORD USE32 PUBLIC 'DATA'
_DATA	ENDS
;	COMDAT ??_C@_05HMFP@BLKJD?$AA@
_DATA	SEGMENT DWORD USE32 PUBLIC 'DATA'
_DATA	ENDS
;	COMDAT ??_C@_09GCKJ@Lachdanan?$AA@
_DATA	SEGMENT DWORD USE32 PUBLIC 'DATA'
_DATA	ENDS
;	COMDAT ??_C@_04CAGH@BHKA?$AA@
_DATA	SEGMENT DWORD USE32 PUBLIC 'DATA'
_DATA	ENDS
;	COMDAT ??_C@_0BB@IIOM@Warlord?5of?5Blood?$AA@
_DATA	SEGMENT DWORD USE32 PUBLIC 'DATA'
_DATA	ENDS
;	COMDAT ??_C@_0BB@DLIH@Bonehead?5Keenaxe?$AA@
_DATA	SEGMENT DWORD USE32 PUBLIC 'DATA'
_DATA	ENDS
;	COMDAT ??_C@_0BG@CLDJ@Bladeskin?5the?5Slasher?$AA@
_DATA	SEGMENT DWORD USE32 PUBLIC 'DATA'
_DATA	ENDS
;	COMDAT ??_C@_04CFHF@BSTS?$AA@
_DATA	SEGMENT DWORD USE32 PUBLIC 'DATA'
_DATA	ENDS
;	COMDAT ??_C@_07NGEG@Soulpus?$AA@
_DATA	SEGMENT DWORD USE32 PUBLIC 'DATA'
_DATA	ENDS
;	COMDAT ??_C@_0BE@BDNK@Pukerat?5the?5Unclean?$AA@
_DATA	SEGMENT DWORD USE32 PUBLIC 'DATA'
_DATA	ENDS
;	COMDAT ??_C@_03DCBN@PTU?$AA@
_DATA	SEGMENT DWORD USE32 PUBLIC 'DATA'
_DATA	ENDS
;	COMDAT ??_C@_0L@BJO@Boneripper?$AA@
_DATA	SEGMENT DWORD USE32 PUBLIC 'DATA'
_DATA	ENDS
;	COMDAT ??_C@_02NOGO@BR?$AA@
_DATA	SEGMENT DWORD USE32 PUBLIC 'DATA'
_DATA	ENDS
;	COMDAT ??_C@_0BE@FPNL@Rotfeast?5the?5Hungry?$AA@
_DATA	SEGMENT DWORD USE32 PUBLIC 'DATA'
_DATA	ENDS
;	COMDAT ??_C@_03PEDI@ETH?$AA@
_DATA	SEGMENT DWORD USE32 PUBLIC 'DATA'
_DATA	ENDS
;	COMDAT ??_C@_0BD@GBKJ@Gutshank?5the?5Quick?$AA@
_DATA	SEGMENT DWORD USE32 PUBLIC 'DATA'
_DATA	ENDS
;	COMDAT ??_C@_03HEK@GTQ?$AA@
_DATA	SEGMENT DWORD USE32 PUBLIC 'DATA'
_DATA	ENDS
;	COMDAT ??_C@_0BG@IPBC@Brokenhead?5Bangshield?$AA@
_DATA	SEGMENT DWORD USE32 PUBLIC 'DATA'
_DATA	ENDS
;	COMDAT ??_C@_04HPMH@BHBS?$AA@
_DATA	SEGMENT DWORD USE32 PUBLIC 'DATA'
_DATA	ENDS
;	COMDAT ??_C@_05DEJF@Bongo?$AA@
_DATA	SEGMENT DWORD USE32 PUBLIC 'DATA'
_DATA	ENDS
;	COMDAT ??_C@_0L@EMBE@Rotcarnage?$AA@
_DATA	SEGMENT DWORD USE32 PUBLIC 'DATA'
_DATA	ENDS
;	COMDAT ??_C@_04NLMC@RCRN?$AA@
_DATA	SEGMENT DWORD USE32 PUBLIC 'DATA'
_DATA	ENDS
;	COMDAT ??_C@_0L@CBPB@Shadowbite?$AA@
_DATA	SEGMENT DWORD USE32 PUBLIC 'DATA'
_DATA	ENDS
;	COMDAT ??_C@_04FKFB@SHBT?$AA@
_DATA	SEGMENT DWORD USE32 PUBLIC 'DATA'
_DATA	ENDS
;	COMDAT ??_C@_07FKDP@Deadeye?$AA@
_DATA	SEGMENT DWORD USE32 PUBLIC 'DATA'
_DATA	ENDS
;	COMDAT ??_C@_02FFAE@DE?$AA@
_DATA	SEGMENT DWORD USE32 PUBLIC 'DATA'
_DATA	ENDS
;	COMDAT ??_C@_0BA@GMMP@Madeye?5the?5Dead?$AA@
_DATA	SEGMENT DWORD USE32 PUBLIC 'DATA'
_DATA	ENDS
;	COMDAT ??_C@_03JKGJ@MTD?$AA@
_DATA	SEGMENT DWORD USE32 PUBLIC 'DATA'
_DATA	ENDS
;	COMDAT ??_C@_0P@MKEC@El?5Chupacabras?$AA@
_DATA	SEGMENT DWORD USE32 PUBLIC 'DATA'
_DATA	ENDS
;	COMDAT ??_C@_09CNLO@Skullfire?$AA@
_DATA	SEGMENT DWORD USE32 PUBLIC 'DATA'
_DATA	ENDS
;	COMDAT ??_C@_04JLC@SKFR?$AA@
_DATA	SEGMENT DWORD USE32 PUBLIC 'DATA'
_DATA	ENDS
;	COMDAT ??_C@_09MLHL@Warpskull?$AA@
_DATA	SEGMENT DWORD USE32 PUBLIC 'DATA'
_DATA	ENDS
;	COMDAT ??_C@_04KCIG@TSPO?$AA@
_DATA	SEGMENT DWORD USE32 PUBLIC 'DATA'
_DATA	ENDS
;	COMDAT ??_C@_0L@EGAH@Goretongue?$AA@
_DATA	SEGMENT DWORD USE32 PUBLIC 'DATA'
_DATA	ENDS
;	COMDAT ??_C@_03KOKP@PMR?$AA@
_DATA	SEGMENT DWORD USE32 PUBLIC 'DATA'
_DATA	ENDS
;	COMDAT ??_C@_0N@FKIP@Pulsecrawler?$AA@
_DATA	SEGMENT DWORD USE32 PUBLIC 'DATA'
_DATA	ENDS
;	COMDAT ??_C@_0L@INCO@Moonbender?$AA@
_DATA	SEGMENT DWORD USE32 PUBLIC 'DATA'
_DATA	ENDS
;	COMDAT ??_C@_0L@DKGL@Wrathraven?$AA@
_DATA	SEGMENT DWORD USE32 PUBLIC 'DATA'
_DATA	ENDS
;	COMDAT ??_C@_0L@PPGN@Spineeater?$AA@
_DATA	SEGMENT DWORD USE32 PUBLIC 'DATA'
_DATA	ENDS
;	COMDAT ??_C@_0BF@KAKP@Blackash?5the?5Burning?$AA@
_DATA	SEGMENT DWORD USE32 PUBLIC 'DATA'
_DATA	ENDS
;	COMDAT ??_C@_06PLDN@BASHTB?$AA@
_DATA	SEGMENT DWORD USE32 PUBLIC 'DATA'
_DATA	ENDS
;	COMDAT ??_C@_0L@FLBL@Shadowcrow?$AA@
_DATA	SEGMENT DWORD USE32 PUBLIC 'DATA'
_DATA	ENDS
;	COMDAT ??_C@_0BF@GMIP@Blightstone?5the?5Weak?$AA@
_DATA	SEGMENT DWORD USE32 PUBLIC 'DATA'
_DATA	ENDS
;	COMDAT ??_C@_0BJ@JMDI@Bilefroth?5the?5Pit?5Master?$AA@
_DATA	SEGMENT DWORD USE32 PUBLIC 'DATA'
_DATA	ENDS
;	COMDAT ??_C@_04OBOK@BFTP?$AA@
_DATA	SEGMENT DWORD USE32 PUBLIC 'DATA'
_DATA	ENDS
;	COMDAT ??_C@_0BC@CEPB@Bloodskin?5Darkbow?$AA@
_DATA	SEGMENT DWORD USE32 PUBLIC 'DATA'
_DATA	ENDS
;	COMDAT ??_C@_08PDKI@Foulwing?$AA@
_DATA	SEGMENT DWORD USE32 PUBLIC 'DATA'
_DATA	ENDS
;	COMDAT ??_C@_02OB@DB?$AA@
_DATA	SEGMENT DWORD USE32 PUBLIC 'DATA'
_DATA	ENDS
;	COMDAT ??_C@_0O@JFPG@Shadowdrinker?$AA@
_DATA	SEGMENT DWORD USE32 PUBLIC 'DATA'
_DATA	ENDS
;	COMDAT ??_C@_04NCNM@SHDR?$AA@
_DATA	SEGMENT DWORD USE32 PUBLIC 'DATA'
_DATA	ENDS
;	COMDAT ??_C@_0M@PIAB@Hazeshifter?$AA@
_DATA	SEGMENT DWORD USE32 PUBLIC 'DATA'
_DATA	ENDS
;	COMDAT ??_C@_09HCNK@Deathspit?$AA@
_DATA	SEGMENT DWORD USE32 PUBLIC 'DATA'
_DATA	ENDS
;	COMDAT ??_C@_04HEPK@BFDS?$AA@
_DATA	SEGMENT DWORD USE32 PUBLIC 'DATA'
_DATA	ENDS
;	COMDAT ??_C@_0M@HAMG@Bloodgutter?$AA@
_DATA	SEGMENT DWORD USE32 PUBLIC 'DATA'
_DATA	ENDS
;	COMDAT ??_C@_04PJDO@BGBL?$AA@
_DATA	SEGMENT DWORD USE32 PUBLIC 'DATA'
_DATA	ENDS
;	COMDAT ??_C@_0BF@KJCD@Deathshade?5Fleshmaul?$AA@
_DATA	SEGMENT DWORD USE32 PUBLIC 'DATA'
_DATA	ENDS
;	COMDAT ??_C@_04LPNP@DSFM?$AA@
_DATA	SEGMENT DWORD USE32 PUBLIC 'DATA'
_DATA	ENDS
;	COMDAT ??_C@_0BC@MEDF@Warmaggot?5the?5Mad?$AA@
_DATA	SEGMENT DWORD USE32 PUBLIC 'DATA'
_DATA	ENDS
;	COMDAT ??_C@_0BF@MNGJ@Glasskull?5the?5Jagged?$AA@
_DATA	SEGMENT DWORD USE32 PUBLIC 'DATA'
_DATA	ENDS
;	COMDAT ??_C@_0L@IDEF@Blightfire?$AA@
_DATA	SEGMENT DWORD USE32 PUBLIC 'DATA'
_DATA	ENDS
;	COMDAT ??_C@_03DOGO@BLF?$AA@
_DATA	SEGMENT DWORD USE32 PUBLIC 'DATA'
_DATA	ENDS
;	COMDAT ??_C@_0BD@CGJC@Nightwing?5the?5Cold?$AA@
_DATA	SEGMENT DWORD USE32 PUBLIC 'DATA'
_DATA	ENDS
;	COMDAT ??_C@_09MEMP@Gorestone?$AA@
_DATA	SEGMENT DWORD USE32 PUBLIC 'DATA'
_DATA	ENDS
;	COMDAT ??_C@_0BF@HNAH@Bronzefist?5Firestone?$AA@
_DATA	SEGMENT DWORD USE32 PUBLIC 'DATA'
_DATA	ENDS
;	COMDAT ??_C@_0BF@HHDN@Wrathfire?5the?5Doomed?$AA@
_DATA	SEGMENT DWORD USE32 PUBLIC 'DATA'
_DATA	ENDS
;	COMDAT ??_C@_04HPN@WFTD?$AA@
_DATA	SEGMENT DWORD USE32 PUBLIC 'DATA'
_DATA	ENDS
;	COMDAT ??_C@_0BD@IJFE@Firewound?5the?5Grim?$AA@
_DATA	SEGMENT DWORD USE32 PUBLIC 'DATA'
_DATA	ENDS
;	COMDAT ??_C@_0N@IEFH@Baron?5Sludge?$AA@
_DATA	SEGMENT DWORD USE32 PUBLIC 'DATA'
_DATA	ENDS
;	COMDAT ??_C@_03CLMH@BSM?$AA@
_DATA	SEGMENT DWORD USE32 PUBLIC 'DATA'
_DATA	ENDS
;	COMDAT ??_C@_0BF@EOEA@Blighthorn?5Steelmace?$AA@
_DATA	SEGMENT DWORD USE32 PUBLIC 'DATA'
_DATA	ENDS
;	COMDAT ??_C@_04BHO@BHSM?$AA@
_DATA	SEGMENT DWORD USE32 PUBLIC 'DATA'
_DATA	ENDS
;	COMDAT ??_C@_0M@MCHO@Chaoshowler?$AA@
_DATA	SEGMENT DWORD USE32 PUBLIC 'DATA'
_DATA	ENDS
;	COMDAT ??_C@_0BF@OELM@Doomgrin?5the?5Rotting?$AA@
_DATA	SEGMENT DWORD USE32 PUBLIC 'DATA'
_DATA	ENDS
;	COMDAT ??_C@_09HKNB@Madburner?$AA@
_DATA	SEGMENT DWORD USE32 PUBLIC 'DATA'
_DATA	ENDS
;	COMDAT ??_C@_0BC@MKAI@Bonesaw?5the?5Litch?$AA@
_DATA	SEGMENT DWORD USE32 PUBLIC 'DATA'
_DATA	ENDS
;	COMDAT ??_C@_0L@GPAF@Breakspine?$AA@
_DATA	SEGMENT DWORD USE32 PUBLIC 'DATA'
_DATA	ENDS
;	COMDAT ??_C@_0BF@OIDE@Devilskull?5Sharpbone?$AA@
_DATA	SEGMENT DWORD USE32 PUBLIC 'DATA'
_DATA	ENDS
;	COMDAT ??_C@_0M@MABJ@Brokenstorm?$AA@
_DATA	SEGMENT DWORD USE32 PUBLIC 'DATA'
_DATA	ENDS
;	COMDAT ??_C@_09HMHK@Stormbane?$AA@
_DATA	SEGMENT DWORD USE32 PUBLIC 'DATA'
_DATA	ENDS
;	COMDAT ??_C@_09PHOF@Oozedrool?$AA@
_DATA	SEGMENT DWORD USE32 PUBLIC 'DATA'
_DATA	ENDS
;	COMDAT ??_C@_0BI@NKPB@Goldblight?5of?5the?5Flame?$AA@
_DATA	SEGMENT DWORD USE32 PUBLIC 'DATA'
_DATA	ENDS
;	COMDAT ??_C@_0L@BDH@Blackstorm?$AA@
_DATA	SEGMENT DWORD USE32 PUBLIC 'DATA'
_DATA	ENDS
;	COMDAT ??_C@_0M@EPEK@Plaguewrath?$AA@
_DATA	SEGMENT DWORD USE32 PUBLIC 'DATA'
_DATA	ENDS
;	COMDAT ??_C@_0L@BAIF@The?5Flayer?$AA@
_DATA	SEGMENT DWORD USE32 PUBLIC 'DATA'
_DATA	ENDS
;	COMDAT ??_C@_08BDKD@Bluehorn?$AA@
_DATA	SEGMENT DWORD USE32 PUBLIC 'DATA'
_DATA	ENDS
;	COMDAT ??_C@_0BD@IICF@Warpfire?5Hellspawn?$AA@
_DATA	SEGMENT DWORD USE32 PUBLIC 'DATA'
_DATA	ENDS
;	COMDAT ??_C@_09MHOF@Fangspeir?$AA@
_DATA	SEGMENT DWORD USE32 PUBLIC 'DATA'
_DATA	ENDS
;	COMDAT ??_C@_0M@OBB@Festerskull?$AA@
_DATA	SEGMENT DWORD USE32 PUBLIC 'DATA'
_DATA	ENDS
;	COMDAT ??_C@_0BD@JNOM@Lionskull?5the?5Bent?$AA@
_DATA	SEGMENT DWORD USE32 PUBLIC 'DATA'
_DATA	ENDS
;	COMDAT ??_C@_0M@OABD@Blacktongue?$AA@
_DATA	SEGMENT DWORD USE32 PUBLIC 'DATA'
_DATA	ENDS
;	COMDAT ??_C@_09CAAA@Viletouch?$AA@
_DATA	SEGMENT DWORD USE32 PUBLIC 'DATA'
_DATA	ENDS
;	COMDAT ??_C@_0L@INON@Viperflame?$AA@
_DATA	SEGMENT DWORD USE32 PUBLIC 'DATA'
_DATA	ENDS
;	COMDAT ??_C@_08GGMB@Fangskin?$AA@
_DATA	SEGMENT DWORD USE32 PUBLIC 'DATA'
_DATA	ENDS
;	COMDAT ??_C@_0BF@JIIF@Witchfire?5the?5Unholy?$AA@
_DATA	SEGMENT DWORD USE32 PUBLIC 'DATA'
_DATA	ENDS
;	COMDAT ??_C@_0L@JDFP@Blackskull?$AA@
_DATA	SEGMENT DWORD USE32 PUBLIC 'DATA'
_DATA	ENDS
;	COMDAT ??_C@_09NMNJ@Soulslash?$AA@
_DATA	SEGMENT DWORD USE32 PUBLIC 'DATA'
_DATA	ENDS
;	COMDAT ??_C@_09GJHH@Windspawn?$AA@
_DATA	SEGMENT DWORD USE32 PUBLIC 'DATA'
_DATA	ENDS
;	COMDAT ??_C@_0BA@PNEB@Lord?5of?5the?5Pit?$AA@
_DATA	SEGMENT DWORD USE32 PUBLIC 'DATA'
_DATA	ENDS
;	COMDAT ??_C@_0L@PNLE@Rustweaver?$AA@
_DATA	SEGMENT DWORD USE32 PUBLIC 'DATA'
_DATA	ENDS
;	COMDAT ??_C@_0BF@GJGM@Howlingire?5the?5Shade?$AA@
_DATA	SEGMENT DWORD USE32 PUBLIC 'DATA'
_DATA	ENDS
;	COMDAT ??_C@_09BFFD@Doomcloud?$AA@
_DATA	SEGMENT DWORD USE32 PUBLIC 'DATA'
_DATA	ENDS
;	COMDAT ??_C@_0BD@OGMN@Bloodmoon?5Soulfire?$AA@
_DATA	SEGMENT DWORD USE32 PUBLIC 'DATA'
_DATA	ENDS
;	COMDAT ??_C@_09MOEP@Witchmoon?$AA@
_DATA	SEGMENT DWORD USE32 PUBLIC 'DATA'
_DATA	ENDS
;	COMDAT ??_C@_09HKIB@Gorefeast?$AA@
_DATA	SEGMENT DWORD USE32 PUBLIC 'DATA'
_DATA	ENDS
;	COMDAT ??_C@_0BD@OFLB@Graywar?5the?5Slayer?$AA@
_DATA	SEGMENT DWORD USE32 PUBLIC 'DATA'
_DATA	ENDS
;	COMDAT ??_C@_0L@DAKO@Dreadjudge?$AA@
_DATA	SEGMENT DWORD USE32 PUBLIC 'DATA'
_DATA	ENDS
;	COMDAT ??_C@_0BC@OODD@Stareye?5the?5Witch?$AA@
_DATA	SEGMENT DWORD USE32 PUBLIC 'DATA'
_DATA	ENDS
;	COMDAT ??_C@_0BG@LMMA@Steelskull?5the?5Hunter?$AA@
_DATA	SEGMENT DWORD USE32 PUBLIC 'DATA'
_DATA	ENDS
;	COMDAT ??_C@_0L@EMNF@Sir?5Gorash?$AA@
_DATA	SEGMENT DWORD USE32 PUBLIC 'DATA'
_DATA	ENDS
;	COMDAT ??_C@_0L@FLBK@The?5Vizier?$AA@
_DATA	SEGMENT DWORD USE32 PUBLIC 'DATA'
_DATA	ENDS
;	COMDAT ??_C@_07CLCG@Zamphir?$AA@
_DATA	SEGMENT DWORD USE32 PUBLIC 'DATA'
_DATA	ENDS
;	COMDAT ??_C@_09MAFH@Bloodlust?$AA@
_DATA	SEGMENT DWORD USE32 PUBLIC 'DATA'
_DATA	ENDS
;	COMDAT ??_C@_08NEOF@Webwidow?$AA@
_DATA	SEGMENT DWORD USE32 PUBLIC 'DATA'
_DATA	ENDS
;	COMDAT ??_C@_0M@PHMK@Fleshdancer?$AA@
_DATA	SEGMENT DWORD USE32 PUBLIC 'DATA'
_DATA	ENDS
;	COMDAT ??_C@_09BJLB@Grimspike?$AA@
_DATA	SEGMENT DWORD USE32 PUBLIC 'DATA'
_DATA	ENDS
;	COMDAT ??_C@_08OEBD@Doomlock?$AA@
_DATA	SEGMENT DWORD USE32 PUBLIC 'DATA'
_DATA	ENDS
;	COMDAT ??_C@_0BA@OPMI@Invalid?5Monster?$AA@
_DATA	SEGMENT DWORD USE32 PUBLIC 'DATA'
_DATA	ENDS
;	COMDAT ??_C@_0BJ@HOFI@Monsters?2Monsters?2?$CFs?4TRN?$AA@
_DATA	SEGMENT DWORD USE32 PUBLIC 'DATA'
_DATA	ENDS
;	COMDAT ??_C@_0BK@GIJH@Levels?2L1Data?2Banner1?4DUN?$AA@
_DATA	SEGMENT DWORD USE32 PUBLIC 'DATA'
_DATA	ENDS
;	COMDAT ??_C@_0BJ@NENH@Levels?2L2Data?2Blood2?4DUN?$AA@
_DATA	SEGMENT DWORD USE32 PUBLIC 'DATA'
_DATA	ENDS
;	COMDAT ??_C@_0BJ@EKKF@Levels?2L2Data?2Blind2?4DUN?$AA@
_DATA	SEGMENT DWORD USE32 PUBLIC 'DATA'
_DATA	ENDS
;	COMDAT ??_C@_0BI@GBOG@Levels?2L3Data?2Anvil?4DUN?$AA@
_DATA	SEGMENT DWORD USE32 PUBLIC 'DATA'
_DATA	ENDS
;	COMDAT ??_C@_0BK@JPE@Levels?2L4Data?2Warlord?4DUN?$AA@
_DATA	SEGMENT DWORD USE32 PUBLIC 'DATA'
_DATA	ENDS
;	COMDAT ??_C@_0BI@KOPC@Levels?2L4Data?2Vile1?4DUN?$AA@
_DATA	SEGMENT DWORD USE32 PUBLIC 'DATA'
_DATA	ENDS
;	COMDAT ??_C@_0BI@EPOL@Levels?2L4Data?2diab1?4DUN?$AA@
_DATA	SEGMENT DWORD USE32 PUBLIC 'DATA'
_DATA	ENDS
;	COMDAT ??_C@_0BJ@LGKM@Levels?2L4Data?2diab2a?4DUN?$AA@
_DATA	SEGMENT DWORD USE32 PUBLIC 'DATA'
_DATA	ENDS
;	COMDAT ??_C@_0BJ@CDAM@Levels?2L4Data?2diab3a?4DUN?$AA@
_DATA	SEGMENT DWORD USE32 PUBLIC 'DATA'
_DATA	ENDS
;	COMDAT ??_C@_0BJ@MLGM@Levels?2L4Data?2diab4a?4DUN?$AA@
_DATA	SEGMENT DWORD USE32 PUBLIC 'DATA'
_DATA	ENDS
;	COMDAT ??_C@_0CK@NMPO@Invalid?5monster?5?$CFd?5getting?5hit?5b@
_DATA	SEGMENT DWORD USE32 PUBLIC 'DATA'
_DATA	ENDS
;	COMDAT ??_C@_0DD@FGPH@Monster?5?$CFd?5?$CC?$CFs?$CC?5getting?5hit?5by?5m@
_DATA	SEGMENT DWORD USE32 PUBLIC 'DATA'
_DATA	ENDS
;	COMDAT ??_C@_0CD@LJIP@MonstStartKill?3?5Invalid?5monster?5@
_DATA	SEGMENT DWORD USE32 PUBLIC 'DATA'
_DATA	ENDS
;	COMDAT ??_C@_0CL@FDEE@MonstStartKill?3?5Monster?5?$CFd?5?$CC?$CFs?$CC?5@
_DATA	SEGMENT DWORD USE32 PUBLIC 'DATA'
_DATA	ENDS
;	COMDAT ??_C@_0CM@ICJO@M2MStartKill?3?5Invalid?5monster?5?$CIa@
_DATA	SEGMENT DWORD USE32 PUBLIC 'DATA'
_DATA	ENDS
;	COMDAT ??_C@_0CK@EJPI@M2MStartKill?3?5Invalid?5monster?5?$CIk@
_DATA	SEGMENT DWORD USE32 PUBLIC 'DATA'
_DATA	ENDS
;	COMDAT ??_C@_0CJ@EFAN@M2MStartKill?3?5Monster?5?$CFd?5?$CC?$CFs?$CC?5MT@
_DATA	SEGMENT DWORD USE32 PUBLIC 'DATA'
_DATA	ENDS
;	COMDAT ??_C@_0CA@CHPM@M_StartKill?3?5Invalid?5monster?5?$CFd?$AA@
_DATA	SEGMENT DWORD USE32 PUBLIC 'DATA'
_DATA	ENDS
;	COMDAT ??_C@_0CE@JLGP@M_SyncStartKill?3?5Invalid?5monster@
_DATA	SEGMENT DWORD USE32 PUBLIC 'DATA'
_DATA	ENDS
;	COMDAT ??_C@_0CC@IBDL@M_StartFadein?3?5Invalid?5monster?5?$CF@
_DATA	SEGMENT DWORD USE32 PUBLIC 'DATA'
_DATA	ENDS
;	COMDAT ??_C@_0CK@PIKK@M_StartFadein?3?5Monster?5?$CFd?5?$CC?$CFs?$CC?5M@
_DATA	SEGMENT DWORD USE32 PUBLIC 'DATA'
_DATA	ENDS
;	COMDAT ??_C@_0CD@KGAD@M_StartFadeout?3?5Invalid?5monster?5@
_DATA	SEGMENT DWORD USE32 PUBLIC 'DATA'
_DATA	ENDS
;	COMDAT ??_C@_0CL@JIMC@M_StartFadeout?3?5Monster?5?$CFd?5?$CC?$CFs?$CC?5@
_DATA	SEGMENT DWORD USE32 PUBLIC 'DATA'
_DATA	ENDS
;	COMDAT ??_C@_0CA@GFDF@M_StartHeal?3?5Invalid?5monster?5?$CFd?$AA@
_DATA	SEGMENT DWORD USE32 PUBLIC 'DATA'
_DATA	ENDS
;	COMDAT ??_C@_0CI@ONMJ@M_StartHeal?3?5Monster?5?$CFd?5?$CC?$CFs?$CC?5MTy@
_DATA	SEGMENT DWORD USE32 PUBLIC 'DATA'
_DATA	ENDS
;	COMDAT ??_C@_0CI@GMM@M_ChangeLightOffset?3?5Invalid?5mon@
_DATA	SEGMENT DWORD USE32 PUBLIC 'DATA'
_DATA	ENDS
;	COMDAT ??_C@_0BO@JMIC@M_DoStand?3?5Invalid?5monster?5?$CFd?$AA@
_DATA	SEGMENT DWORD USE32 PUBLIC 'DATA'
_DATA	ENDS
;	COMDAT ??_C@_0CG@IJKO@M_DoStand?3?5Monster?5?$CFd?5?$CC?$CFs?$CC?5MType@
_DATA	SEGMENT DWORD USE32 PUBLIC 'DATA'
_DATA	ENDS
;	COMDAT ??_C@_0BN@HJBA@M_DoWalk?3?5Invalid?5monster?5?$CFd?$AA@
_DATA	SEGMENT DWORD USE32 PUBLIC 'DATA'
_DATA	ENDS
;	COMDAT ??_C@_0CF@JJMM@M_DoWalk?3?5Monster?5?$CFd?5?$CC?$CFs?$CC?5MType?5@
_DATA	SEGMENT DWORD USE32 PUBLIC 'DATA'
_DATA	ENDS
;	COMDAT ??_C@_0BO@KGGF@M_DoWalk2?3?5Invalid?5monster?5?$CFd?$AA@
_DATA	SEGMENT DWORD USE32 PUBLIC 'DATA'
_DATA	ENDS
;	COMDAT ??_C@_0CG@KAFN@M_DoWalk2?3?5Monster?5?$CFd?5?$CC?$CFs?$CC?5MType@
_DATA	SEGMENT DWORD USE32 PUBLIC 'DATA'
_DATA	ENDS
;	COMDAT ??_C@_0BO@DGCG@M_DoWalk3?3?5Invalid?5monster?5?$CFd?$AA@
_DATA	SEGMENT DWORD USE32 PUBLIC 'DATA'
_DATA	ENDS
;	COMDAT ??_C@_0CG@FHKJ@M_DoWalk3?3?5Monster?5?$CFd?5?$CC?$CFs?$CC?5MType@
_DATA	SEGMENT DWORD USE32 PUBLIC 'DATA'
_DATA	ENDS
;	COMDAT ??_C@_0CA@ODLB@M_TryM2MHit?3?5Invalid?5monster?5?$CFd?$AA@
_DATA	SEGMENT DWORD USE32 PUBLIC 'DATA'
_DATA	ENDS
;	COMDAT ??_C@_0CI@BACF@M_TryM2MHit?3?5Monster?5?$CFd?5?$CC?$CFs?$CC?5MTy@
_DATA	SEGMENT DWORD USE32 PUBLIC 'DATA'
_DATA	ENDS
;	COMDAT ??_C@_0CA@HCPJ@M_TryH2HHit?3?5Invalid?5monster?5?$CFd?$AA@
_DATA	SEGMENT DWORD USE32 PUBLIC 'DATA'
_DATA	ENDS
;	COMDAT ??_C@_0CI@MDJD@M_TryH2HHit?3?5Monster?5?$CFd?5?$CC?$CFs?$CC?5MTy@
_DATA	SEGMENT DWORD USE32 PUBLIC 'DATA'
_DATA	ENDS
;	COMDAT ??_C@_0BP@FMDJ@M_DoAttack?3?5Invalid?5monster?5?$CFd?$AA@
_DATA	SEGMENT DWORD USE32 PUBLIC 'DATA'
_DATA	ENDS
;	COMDAT ??_C@_0CH@CFOD@M_DoAttack?3?5Monster?5?$CFd?5?$CC?$CFs?$CC?5MTyp@
_DATA	SEGMENT DWORD USE32 PUBLIC 'DATA'
_DATA	ENDS
;	COMDAT ??_C@_0CH@COCK@M_DoAttack?3?5Monster?5?$CFd?5?$CC?$CFs?$CC?5MDat@
_DATA	SEGMENT DWORD USE32 PUBLIC 'DATA'
_DATA	ENDS
;	COMDAT ??_C@_0CA@IGLH@M_DoRAttack?3?5Invalid?5monster?5?$CFd?$AA@
_DATA	SEGMENT DWORD USE32 PUBLIC 'DATA'
_DATA	ENDS
;	COMDAT ??_C@_0CI@GLGF@M_DoRAttack?3?5Monster?5?$CFd?5?$CC?$CFs?$CC?5MTy@
_DATA	SEGMENT DWORD USE32 PUBLIC 'DATA'
_DATA	ENDS
;	COMDAT ??_C@_0CI@GAKM@M_DoRAttack?3?5Monster?5?$CFd?5?$CC?$CFs?$CC?5MDa@
_DATA	SEGMENT DWORD USE32 PUBLIC 'DATA'
_DATA	ENDS
;	COMDAT ??_C@_0CC@PDAD@M_DoRSpAttack?3?5Invalid?5monster?5?$CF@
_DATA	SEGMENT DWORD USE32 PUBLIC 'DATA'
_DATA	ENDS
;	COMDAT ??_C@_0CK@OJEH@M_DoRSpAttack?3?5Monster?5?$CFd?5?$CC?$CFs?$CC?5M@
_DATA	SEGMENT DWORD USE32 PUBLIC 'DATA'
_DATA	ENDS
;	COMDAT ??_C@_0CK@OCIO@M_DoRSpAttack?3?5Monster?5?$CFd?5?$CC?$CFs?$CC?5M@
_DATA	SEGMENT DWORD USE32 PUBLIC 'DATA'
_DATA	ENDS
;	COMDAT ??_C@_0CA@IEAK@M_DoSAttack?3?5Invalid?5monster?5?$CFd?$AA@
_DATA	SEGMENT DWORD USE32 PUBLIC 'DATA'
_DATA	ENDS
;	COMDAT ??_C@_0CI@GKEA@M_DoSAttack?3?5Monster?5?$CFd?5?$CC?$CFs?$CC?5MTy@
_DATA	SEGMENT DWORD USE32 PUBLIC 'DATA'
_DATA	ENDS
;	COMDAT ??_C@_0CI@GBIJ@M_DoSAttack?3?5Monster?5?$CFd?5?$CC?$CFs?$CC?5MDa@
_DATA	SEGMENT DWORD USE32 PUBLIC 'DATA'
_DATA	ENDS
;	COMDAT ??_C@_0BP@LCOO@M_DoFadein?3?5Invalid?5monster?5?$CFd?$AA@
_DATA	SEGMENT DWORD USE32 PUBLIC 'DATA'
_DATA	ENDS
;	COMDAT ??_C@_0CA@ODA@M_DoFadeout?3?5Invalid?5monster?5?$CFd?$AA@
_DATA	SEGMENT DWORD USE32 PUBLIC 'DATA'
_DATA	ENDS
;	COMDAT ??_C@_0BN@CGGK@M_DoHeal?3?5Invalid?5monster?5?$CFd?$AA@
_DATA	SEGMENT DWORD USE32 PUBLIC 'DATA'
_DATA	ENDS
;	COMDAT ??_C@_0BN@MODE@M_DoTalk?3?5Invalid?5monster?5?$CFd?$AA@
_DATA	SEGMENT DWORD USE32 PUBLIC 'DATA'
_DATA	ENDS
;	COMDAT ??_C@_0BJ@JLPK@SS?5Talk?5?$DN?5?$CFi?0?5Flags?5?$DN?5?$CFi?$AA@
_DATA	SEGMENT DWORD USE32 PUBLIC 'DATA'
_DATA	ENDS
;	COMDAT ??_C@_0BP@KLMH@M_Teleport?3?5Invalid?5monster?5?$CFd?$AA@
_DATA	SEGMENT DWORD USE32 PUBLIC 'DATA'
_DATA	ENDS
;	COMDAT ??_C@_0BP@LNOF@M_DoGotHit?3?5Invalid?5monster?5?$CFd?$AA@
_DATA	SEGMENT DWORD USE32 PUBLIC 'DATA'
_DATA	ENDS
;	COMDAT ??_C@_0CH@INE@M_DoGotHit?3?5Monster?5?$CFd?5?$CC?$CFs?$CC?5MTyp@
_DATA	SEGMENT DWORD USE32 PUBLIC 'DATA'
_DATA	ENDS
;	COMDAT ??_C@_0CD@OA@M_UpdateLeader?3?5Invalid?5monster?5@
_DATA	SEGMENT DWORD USE32 PUBLIC 'DATA'
_DATA	ENDS
;	COMDAT ??_C@_0BF@DCOL@gendata?2DiabVic2?4smk?$AA@
_DATA	SEGMENT DWORD USE32 PUBLIC 'DATA'
_DATA	ENDS
;	COMDAT ??_C@_0BF@NCIE@gendata?2DiabVic1?4smk?$AA@
_DATA	SEGMENT DWORD USE32 PUBLIC 'DATA'
_DATA	ENDS
;	COMDAT ??_C@_0BF@JCMO@gendata?2DiabVic3?4smk?$AA@
_DATA	SEGMENT DWORD USE32 PUBLIC 'DATA'
_DATA	ENDS
;	COMDAT ??_C@_0BE@JJDA@gendata?2Diabend?4smk?$AA@
_DATA	SEGMENT DWORD USE32 PUBLIC 'DATA'
_DATA	ENDS
;	COMDAT ??_C@_0BF@BNCB@gendata?2loopdend?4smk?$AA@
_DATA	SEGMENT DWORD USE32 PUBLIC 'DATA'
_DATA	ENDS
;	COMDAT ??_C@_0BO@FLDI@M_DoDeath?3?5Invalid?5monster?5?$CFd?$AA@
_DATA	SEGMENT DWORD USE32 PUBLIC 'DATA'
_DATA	ENDS
;	COMDAT ??_C@_0CG@MEGD@M_DoDeath?3?5Monster?5?$CFd?5?$CC?$CFs?$CC?5MType@
_DATA	SEGMENT DWORD USE32 PUBLIC 'DATA'
_DATA	ENDS
;	COMDAT ??_C@_0CA@BLEI@M_DoSpStand?3?5Invalid?5monster?5?$CFd?$AA@
_DATA	SEGMENT DWORD USE32 PUBLIC 'DATA'
_DATA	ENDS
;	COMDAT ??_C@_0CI@LEAM@M_DoSpStand?3?5Monster?5?$CFd?5?$CC?$CFs?$CC?5MTy@
_DATA	SEGMENT DWORD USE32 PUBLIC 'DATA'
_DATA	ENDS
;	COMDAT ??_C@_0BO@KEPF@M_DoDelay?3?5Invalid?5monster?5?$CFd?$AA@
_DATA	SEGMENT DWORD USE32 PUBLIC 'DATA'
_DATA	ENDS
;	COMDAT ??_C@_0CG@JEG@M_DoDelay?3?5Monster?5?$CFd?5?$CC?$CFs?$CC?5MType@
_DATA	SEGMENT DWORD USE32 PUBLIC 'DATA'
_DATA	ENDS
;	COMDAT ??_C@_0BO@FKMK@M_DoStone?3?5Invalid?5monster?5?$CFd?$AA@
_DATA	SEGMENT DWORD USE32 PUBLIC 'DATA'
_DATA	ENDS
;	COMDAT ??_C@_0BO@LBJG@M_WalkDir?3?5Invalid?5monster?5?$CFd?$AA@
_DATA	SEGMENT DWORD USE32 PUBLIC 'DATA'
_DATA	ENDS
;	COMDAT ??_C@_0BP@FFLL@GroupUnity?3?5Invalid?5monster?5?$CFd?$AA@
_DATA	SEGMENT DWORD USE32 PUBLIC 'DATA'
_DATA	ENDS
;	COMDAT ??_C@_0BP@LNLM@M_PathWalk?3?5Invalid?5monster?5?$CFd?$AA@
_DATA	SEGMENT DWORD USE32 PUBLIC 'DATA'
_DATA	ENDS
;	COMDAT ??_C@_0BP@NPOI@MAI_Zombie?3?5Invalid?5monster?5?$CFd?$AA@
_DATA	SEGMENT DWORD USE32 PUBLIC 'DATA'
_DATA	ENDS
;	COMDAT ??_C@_0BP@DJPB@MAI_SkelSd?3?5Invalid?5monster?5?$CFd?$AA@
_DATA	SEGMENT DWORD USE32 PUBLIC 'DATA'
_DATA	ENDS
;	COMDAT ??_C@_0BN@OAOL@MAI_Path?3?5Invalid?5monster?5?$CFd?$AA@
_DATA	SEGMENT DWORD USE32 PUBLIC 'DATA'
_DATA	ENDS
;	COMDAT ??_C@_0BO@JLFM@MAI_Snake?3?5Invalid?5monster?5?$CFd?$AA@
_DATA	SEGMENT DWORD USE32 PUBLIC 'DATA'
_DATA	ENDS
;	COMDAT ??_C@_0BM@FFIA@MAI_Bat?3?5Invalid?5monster?5?$CFd?$AA@
_DATA	SEGMENT DWORD USE32 PUBLIC 'DATA'
_DATA	ENDS
;	COMDAT ??_C@_0CA@KGNH@MAI_SkelBow?3?5Invalid?5monster?5?$CFd?$AA@
_DATA	SEGMENT DWORD USE32 PUBLIC 'DATA'
_DATA	ENDS
;	COMDAT ??_C@_0BM@NKOK@MAI_Fat?3?5Invalid?5monster?5?$CFd?$AA@
_DATA	SEGMENT DWORD USE32 PUBLIC 'DATA'
_DATA	ENDS
;	COMDAT ??_C@_0BO@JGAD@MAI_Sneak?3?5Invalid?5monster?5?$CFd?$AA@
_DATA	SEGMENT DWORD USE32 PUBLIC 'DATA'
_DATA	ENDS
;	COMDAT ??_C@_0CA@FJNL@MAI_Fireman?3?5Invalid?5monster?5?$CFd?$AA@
_DATA	SEGMENT DWORD USE32 PUBLIC 'DATA'
_DATA	ENDS
;	COMDAT ??_C@_0BP@GOIG@MAI_Fallen?3?5Invalid?5monster?5?$CFd?$AA@
_DATA	SEGMENT DWORD USE32 PUBLIC 'DATA'
_DATA	ENDS
;	COMDAT ??_C@_0CA@IIJG@MAI_Cleaver?3?5Invalid?5monster?5?$CFd?$AA@
_DATA	SEGMENT DWORD USE32 PUBLIC 'DATA'
_DATA	ENDS
;	COMDAT ??_C@_0BO@MFHM@MAI_Round?3?5Invalid?5monster?5?$CFd?$AA@
_DATA	SEGMENT DWORD USE32 PUBLIC 'DATA'
_DATA	ENDS
;	COMDAT ??_C@_0BP@PDPB@MAI_Ranged?3?5Invalid?5monster?5?$CFd?$AA@
_DATA	SEGMENT DWORD USE32 PUBLIC 'DATA'
_DATA	ENDS
;	COMDAT ??_C@_0BN@GOAH@MAI_Scav?3?5Invalid?5monster?5?$CFd?$AA@
_DATA	SEGMENT DWORD USE32 PUBLIC 'DATA'
_DATA	ENDS
;	COMDAT ??_C@_0BN@JOMI@MAI_Garg?3?5Invalid?5monster?5?$CFd?$AA@
_DATA	SEGMENT DWORD USE32 PUBLIC 'DATA'
_DATA	ENDS
;	COMDAT ??_C@_0CE@HJCM@MAI_RoundRanged?3?5Invalid?5monster@
_DATA	SEGMENT DWORD USE32 PUBLIC 'DATA'
_DATA	ENDS
;	COMDAT ??_C@_0BM@INOC@MAI_RR2?3?5Invalid?5monster?5?$CFd?$AA@
_DATA	SEGMENT DWORD USE32 PUBLIC 'DATA'
_DATA	ENDS
;	COMDAT ??_C@_0BO@MIEG@MAI_Golum?3?5Invalid?5monster?5?$CFd?$AA@
_DATA	SEGMENT DWORD USE32 PUBLIC 'DATA'
_DATA	ENDS
;	COMDAT ??_C@_0CB@NIAC@MAI_SkelKing?3?5Invalid?5monster?5?$CFd@
_DATA	SEGMENT DWORD USE32 PUBLIC 'DATA'
_DATA	ENDS
;	COMDAT ??_C@_0BO@KHBL@MAI_Rhino?3?5Invalid?5monster?5?$CFd?$AA@
_DATA	SEGMENT DWORD USE32 PUBLIC 'DATA'
_DATA	ENDS
;	COMDAT ??_C@_0CC@FK@MAI_Counselor?3?5Invalid?5monster?5?$CF@
_DATA	SEGMENT DWORD USE32 PUBLIC 'DATA'
_DATA	ENDS
;	COMDAT ??_C@_0BP@FJCE@MAI_Garbud?3?5Invalid?5monster?5?$CFd?$AA@
_DATA	SEGMENT DWORD USE32 PUBLIC 'DATA'
_DATA	ENDS
;	COMDAT ??_C@_0BN@BAEO@MAI_Zhar?3?5Invalid?5monster?5?$CFd?$AA@
_DATA	SEGMENT DWORD USE32 PUBLIC 'DATA'
_DATA	ENDS
;	COMDAT ??_C@_0CB@BDBE@MAI_SnotSpil?3?5Invalid?5monster?5?$CFd@
_DATA	SEGMENT DWORD USE32 PUBLIC 'DATA'
_DATA	ENDS
;	COMDAT ??_C@_0CA@GFEE@MAI_Lazurus?3?5Invalid?5monster?5?$CFd?$AA@
_DATA	SEGMENT DWORD USE32 PUBLIC 'DATA'
_DATA	ENDS
;	COMDAT ??_C@_0BD@DHCH@gendata?2fprst3?4smk?$AA@
_DATA	SEGMENT DWORD USE32 PUBLIC 'DATA'
_DATA	ENDS
;	COMDAT ??_C@_0CA@IEHF@MAI_Lazhelp?3?5Invalid?5monster?5?$CFd?$AA@
_DATA	SEGMENT DWORD USE32 PUBLIC 'DATA'
_DATA	ENDS
;	COMDAT ??_C@_0CC@HLJF@MAI_Lachdanan?3?5Invalid?5monster?5?$CF@
_DATA	SEGMENT DWORD USE32 PUBLIC 'DATA'
_DATA	ENDS
;	COMDAT ??_C@_0CA@DMCD@MAI_Warlord?3?5Invalid?5monster?5?$CFd?$AA@
_DATA	SEGMENT DWORD USE32 PUBLIC 'DATA'
_DATA	ENDS
;	COMDAT ??_C@_0CK@PKLN@Illegal?5enemy?5monster?5?$CFd?5for?5mon@
_DATA	SEGMENT DWORD USE32 PUBLIC 'DATA'
_DATA	ENDS
;	COMDAT ??_C@_0CJ@MDKJ@Illegal?5enemy?5player?5?$CFd?5for?5mons@
_DATA	SEGMENT DWORD USE32 PUBLIC 'DATA'
_DATA	ENDS
;	COMDAT ??_C@_0BK@KBEL@DirOK?3?5Invalid?5monster?5?$CFd?$AA@
_DATA	SEGMENT DWORD USE32 PUBLIC 'DATA'
_DATA	ENDS
;	COMDAT ??_C@_0CE@MBEK@SyncMonsterAnim?3?5Invalid?5monster@
_DATA	SEGMENT DWORD USE32 PUBLIC 'DATA'
_DATA	ENDS
;	COMDAT ??_C@_0BB@PGAC@Total?5kills?5?3?5?$CFi?$AA@
_DATA	SEGMENT DWORD USE32 PUBLIC 'DATA'
_DATA	ENDS
;	COMDAT ??_C@_0BD@JGJE@Hit?5Points?5?3?5?$CFi?9?$CFi?$AA@
_DATA	SEGMENT DWORD USE32 PUBLIC 'DATA'
_DATA	ENDS
;	COMDAT ??_C@_0L@DOFD@Resists?5?3?5?$AA@
_DATA	SEGMENT DWORD USE32 PUBLIC 'DATA'
_DATA	ENDS
;	COMDAT ??_C@_06LMLO@Magic?5?$AA@
_DATA	SEGMENT DWORD USE32 PUBLIC 'DATA'
_DATA	ENDS
;	COMDAT ??_C@_05BLKB@Fire?5?$AA@
_DATA	SEGMENT DWORD USE32 PUBLIC 'DATA'
_DATA	ENDS
;	COMDAT ??_C@_0L@FFDP@Lightning?5?$AA@
_DATA	SEGMENT DWORD USE32 PUBLIC 'DATA'
_DATA	ENDS
;	COMDAT ??_C@_09CBB@Immune?5?3?5?$AA@
_DATA	SEGMENT DWORD USE32 PUBLIC 'DATA'
_DATA	ENDS
;	COMDAT ??_C@_0BE@DLNG@No?5magic?5resistance?$AA@
_DATA	SEGMENT DWORD USE32 PUBLIC 'DATA'
_DATA	ENDS
;	COMDAT ??_C@_0BH@BEKG@Some?5Magic?5Resistances?$AA@
_DATA	SEGMENT DWORD USE32 PUBLIC 'DATA'
_DATA	ENDS
;	COMDAT ??_C@_0P@JAMA@No?5resistances?$AA@
_DATA	SEGMENT DWORD USE32 PUBLIC 'DATA'
_DATA	ENDS
;	COMDAT ??_C@_0BG@HGOK@Some?5Magic?5Immunities?$AA@
_DATA	SEGMENT DWORD USE32 PUBLIC 'DATA'
_DATA	ENDS
;	COMDAT ??_C@_0O@OIFE@No?5Immunities?$AA@
_DATA	SEGMENT DWORD USE32 PUBLIC 'DATA'
_DATA	ENDS
;	COMDAT ??_C@_0CA@DGBE@MissToMonst?3?5Invalid?5missile?5?$CFd?$AA@
_DATA	SEGMENT DWORD USE32 PUBLIC 'DATA'
_DATA	ENDS
;	COMDAT ??_C@_0CA@CKBO@MissToMonst?3?5Invalid?5monster?5?$CFd?$AA@
_DATA	SEGMENT DWORD USE32 PUBLIC 'DATA'
_DATA	ENDS
;	COMDAT ??_C@_0CC@BCCD@TalktoMonster?3?5Invalid?5monster?5?$CF@
_DATA	SEGMENT DWORD USE32 PUBLIC 'DATA'
_DATA	ENDS
;	COMDAT ??_C@_0BP@OGLB@SpawnGolum?3?5Invalid?5monster?5?$CFd?$AA@
_DATA	SEGMENT DWORD USE32 PUBLIC 'DATA'
_DATA	ENDS
;	COMDAT ??_C@_0CD@PBFC@CanTalkToMonst?3?5Invalid?5monster?5@
_DATA	SEGMENT DWORD USE32 PUBLIC 'DATA'
_DATA	ENDS
;	COMDAT ??_C@_0CE@FNNK@CheckMonsterHit?3?5Invalid?5monster@
_DATA	SEGMENT DWORD USE32 PUBLIC 'DATA'
_DATA	ENDS
CRT$XCU	SEGMENT DWORD USE32 PUBLIC ''
CRT$XCU	ENDS
;	COMDAT @InitMonsterTRN@8
_TEXT	SEGMENT PARA USE32 PUBLIC 'CODE'
_TEXT	ENDS
;	COMDAT _InitLevelMonsters
_TEXT	SEGMENT PARA USE32 PUBLIC 'CODE'
_TEXT	ENDS
;	COMDAT @AddMonsterType@8
_TEXT	SEGMENT PARA USE32 PUBLIC 'CODE'
_TEXT	ENDS
;	COMDAT _GetLevelMTypes
_TEXT	SEGMENT PARA USE32 PUBLIC 'CODE'
_TEXT	ENDS
;	COMDAT @InitMonsterGFX@4
_TEXT	SEGMENT PARA USE32 PUBLIC 'CODE'
_TEXT	ENDS
;	COMDAT @ClearMVars@4
_TEXT	SEGMENT PARA USE32 PUBLIC 'CODE'
_TEXT	ENDS
;	COMDAT @InitMonster@20
_TEXT	SEGMENT PARA USE32 PUBLIC 'CODE'
_TEXT	ENDS
;	COMDAT _ClrAllMonsters
_TEXT	SEGMENT PARA USE32 PUBLIC 'CODE'
_TEXT	ENDS
;	COMDAT @MonstPlace@8
_TEXT	SEGMENT PARA USE32 PUBLIC 'CODE'
_TEXT	ENDS
;	COMDAT @PlaceMonster@16
_TEXT	SEGMENT PARA USE32 PUBLIC 'CODE'
_TEXT	ENDS
;	COMDAT @PlaceUniqueMonst@12
_TEXT	SEGMENT PARA USE32 PUBLIC 'CODE'
_TEXT	ENDS
;	COMDAT _PlaceQuestMonsters
_TEXT	SEGMENT PARA USE32 PUBLIC 'CODE'
_TEXT	ENDS
;	COMDAT @PlaceGroup@16
_TEXT	SEGMENT PARA USE32 PUBLIC 'CODE'
_TEXT	ENDS
;	COMDAT _LoadDiabMonsts
_TEXT	SEGMENT PARA USE32 PUBLIC 'CODE'
_TEXT	ENDS
;	COMDAT _InitMonsters
_TEXT	SEGMENT PARA USE32 PUBLIC 'CODE'
_TEXT	ENDS
;	COMDAT _PlaceUniques
_TEXT	SEGMENT PARA USE32 PUBLIC 'CODE'
_TEXT	ENDS
;	COMDAT @SetMapMonsters@12
_TEXT	SEGMENT PARA USE32 PUBLIC 'CODE'
_TEXT	ENDS
;	COMDAT @DeleteMonster@4
_TEXT	SEGMENT PARA USE32 PUBLIC 'CODE'
_TEXT	ENDS
;	COMDAT @AddMonster@20
_TEXT	SEGMENT PARA USE32 PUBLIC 'CODE'
_TEXT	ENDS
;	COMDAT @NewMonsterAnim@12
_TEXT	SEGMENT PARA USE32 PUBLIC 'CODE'
_TEXT	ENDS
;	COMDAT @M_Ranged@4
_TEXT	SEGMENT PARA USE32 PUBLIC 'CODE'
_TEXT	ENDS
;	COMDAT @M_Talker@4
_TEXT	SEGMENT PARA USE32 PUBLIC 'CODE'
_TEXT	ENDS
;	COMDAT @M_Enemy@4
_TEXT	SEGMENT PARA USE32 PUBLIC 'CODE'
_TEXT	ENDS
;	COMDAT @M_GetDir@4
_TEXT	SEGMENT PARA USE32 PUBLIC 'CODE'
_TEXT	ENDS
;	COMDAT @M_CheckEFlag@4
_TEXT	SEGMENT PARA USE32 PUBLIC 'CODE'
_TEXT	ENDS
;	COMDAT @M_StartStand@8
_TEXT	SEGMENT PARA USE32 PUBLIC 'CODE'
_TEXT	ENDS
;	COMDAT @M_StartDelay@8
_TEXT	SEGMENT PARA USE32 PUBLIC 'CODE'
_TEXT	ENDS
;	COMDAT @M_StartSpStand@8
_TEXT	SEGMENT PARA USE32 PUBLIC 'CODE'
_TEXT	ENDS
;	COMDAT @M_StartWalk@24
_TEXT	SEGMENT PARA USE32 PUBLIC 'CODE'
_TEXT	ENDS
;	COMDAT @M_StartWalk2@32
_TEXT	SEGMENT PARA USE32 PUBLIC 'CODE'
_TEXT	ENDS
;	COMDAT @M_StartWalk3@40
_TEXT	SEGMENT PARA USE32 PUBLIC 'CODE'
_TEXT	ENDS
;	COMDAT @M_StartAttack@4
_TEXT	SEGMENT PARA USE32 PUBLIC 'CODE'
_TEXT	ENDS
;	COMDAT @M_StartRAttack@12
_TEXT	SEGMENT PARA USE32 PUBLIC 'CODE'
_TEXT	ENDS
;	COMDAT @M_StartRSpAttack@12
_TEXT	SEGMENT PARA USE32 PUBLIC 'CODE'
_TEXT	ENDS
;	COMDAT @M_StartSpAttack@4
_TEXT	SEGMENT PARA USE32 PUBLIC 'CODE'
_TEXT	ENDS
;	COMDAT @M_StartEat@4
_TEXT	SEGMENT PARA USE32 PUBLIC 'CODE'
_TEXT	ENDS
;	COMDAT @M_ClearSquares@4
_TEXT	SEGMENT PARA USE32 PUBLIC 'CODE'
_TEXT	ENDS
;	COMDAT @M_GetKnockback@4
_TEXT	SEGMENT PARA USE32 PUBLIC 'CODE'
_TEXT	ENDS
;	COMDAT @M_StartHit@12
_TEXT	SEGMENT PARA USE32 PUBLIC 'CODE'
_TEXT	ENDS
;	COMDAT @M_DiabloDeath@8
_TEXT	SEGMENT PARA USE32 PUBLIC 'CODE'
_TEXT	ENDS
;	COMDAT @M2MStartHit@12
_TEXT	SEGMENT PARA USE32 PUBLIC 'CODE'
_TEXT	ENDS
;	COMDAT @MonstStartKill@12
_TEXT	SEGMENT PARA USE32 PUBLIC 'CODE'
_TEXT	ENDS
;	COMDAT @M2MStartKill@8
_TEXT	SEGMENT PARA USE32 PUBLIC 'CODE'
_TEXT	ENDS
;	COMDAT @M_StartKill@8
_TEXT	SEGMENT PARA USE32 PUBLIC 'CODE'
_TEXT	ENDS
;	COMDAT @M_SyncStartKill@16
_TEXT	SEGMENT PARA USE32 PUBLIC 'CODE'
_TEXT	ENDS
;	COMDAT @M_StartFadein@12
_TEXT	SEGMENT PARA USE32 PUBLIC 'CODE'
_TEXT	ENDS
;	COMDAT @M_StartFadeout@12
_TEXT	SEGMENT PARA USE32 PUBLIC 'CODE'
_TEXT	ENDS
;	COMDAT @M_StartHeal@4
_TEXT	SEGMENT PARA USE32 PUBLIC 'CODE'
_TEXT	ENDS
;	COMDAT @M_ChangeLightOffset@4
_TEXT	SEGMENT PARA USE32 PUBLIC 'CODE'
_TEXT	ENDS
;	COMDAT @M_DoStand@4
_TEXT	SEGMENT PARA USE32 PUBLIC 'CODE'
_TEXT	ENDS
;	COMDAT @M_DoWalk@4
_TEXT	SEGMENT PARA USE32 PUBLIC 'CODE'
_TEXT	ENDS
;	COMDAT @M_DoWalk2@4
_TEXT	SEGMENT PARA USE32 PUBLIC 'CODE'
_TEXT	ENDS
;	COMDAT @M_DoWalk3@4
_TEXT	SEGMENT PARA USE32 PUBLIC 'CODE'
_TEXT	ENDS
;	COMDAT @M_TryM2MHit@20
_TEXT	SEGMENT PARA USE32 PUBLIC 'CODE'
_TEXT	ENDS
;	COMDAT @M_TryH2HHit@20
_TEXT	SEGMENT PARA USE32 PUBLIC 'CODE'
_TEXT	ENDS
;	COMDAT @M_DoAttack@4
_TEXT	SEGMENT PARA USE32 PUBLIC 'CODE'
_TEXT	ENDS
;	COMDAT @M_DoRAttack@4
_TEXT	SEGMENT PARA USE32 PUBLIC 'CODE'
_TEXT	ENDS
;	COMDAT @M_DoRSpAttack@4
_TEXT	SEGMENT PARA USE32 PUBLIC 'CODE'
_TEXT	ENDS
;	COMDAT @M_DoSAttack@4
_TEXT	SEGMENT PARA USE32 PUBLIC 'CODE'
_TEXT	ENDS
;	COMDAT @M_DoFadein@4
_TEXT	SEGMENT PARA USE32 PUBLIC 'CODE'
_TEXT	ENDS
;	COMDAT @M_DoFadeout@4
_TEXT	SEGMENT PARA USE32 PUBLIC 'CODE'
_TEXT	ENDS
;	COMDAT @M_DoHeal@4
_TEXT	SEGMENT PARA USE32 PUBLIC 'CODE'
_TEXT	ENDS
;	COMDAT @M_DoTalk@4
_TEXT	SEGMENT PARA USE32 PUBLIC 'CODE'
_TEXT	ENDS
;	COMDAT @M_Teleport@4
_TEXT	SEGMENT PARA USE32 PUBLIC 'CODE'
_TEXT	ENDS
;	COMDAT @M_DoGotHit@4
_TEXT	SEGMENT PARA USE32 PUBLIC 'CODE'
_TEXT	ENDS
;	COMDAT @M_UpdateLeader@4
_TEXT	SEGMENT PARA USE32 PUBLIC 'CODE'
_TEXT	ENDS
;	COMDAT _DoEnding
_TEXT	SEGMENT PARA USE32 PUBLIC 'CODE'
_TEXT	ENDS
;	COMDAT _PrepDoEnding
_TEXT	SEGMENT PARA USE32 PUBLIC 'CODE'
_TEXT	ENDS
;	COMDAT @M_DoDeath@4
_TEXT	SEGMENT PARA USE32 PUBLIC 'CODE'
_TEXT	ENDS
;	COMDAT @M_DoSpStand@4
_TEXT	SEGMENT PARA USE32 PUBLIC 'CODE'
_TEXT	ENDS
;	COMDAT @M_DoDelay@4
_TEXT	SEGMENT PARA USE32 PUBLIC 'CODE'
_TEXT	ENDS
;	COMDAT @M_DoStone@4
_TEXT	SEGMENT PARA USE32 PUBLIC 'CODE'
_TEXT	ENDS
;	COMDAT @M_WalkDir@8
_TEXT	SEGMENT PARA USE32 PUBLIC 'CODE'
_TEXT	ENDS
;	COMDAT @GroupUnity@4
_TEXT	SEGMENT PARA USE32 PUBLIC 'CODE'
_TEXT	ENDS
;	COMDAT @M_CallWalk@8
_TEXT	SEGMENT PARA USE32 PUBLIC 'CODE'
_TEXT	ENDS
;	COMDAT @M_PathWalk@4
_TEXT	SEGMENT PARA USE32 PUBLIC 'CODE'
_TEXT	ENDS
;	COMDAT @M_CallWalk2@8
_TEXT	SEGMENT PARA USE32 PUBLIC 'CODE'
_TEXT	ENDS
;	COMDAT @M_DumbWalk@8
_TEXT	SEGMENT PARA USE32 PUBLIC 'CODE'
_TEXT	ENDS
;	COMDAT @M_RoundWalk@12
_TEXT	SEGMENT PARA USE32 PUBLIC 'CODE'
_TEXT	ENDS
;	COMDAT @MAI_Zombie@4
_TEXT	SEGMENT PARA USE32 PUBLIC 'CODE'
_TEXT	ENDS
;	COMDAT @MAI_SkelSd@4
_TEXT	SEGMENT PARA USE32 PUBLIC 'CODE'
_TEXT	ENDS
;	COMDAT @MAI_Path@4
_TEXT	SEGMENT PARA USE32 PUBLIC 'CODE'
_TEXT	ENDS
;	COMDAT @MAI_Snake@4
_TEXT	SEGMENT PARA USE32 PUBLIC 'CODE'
_TEXT	ENDS
;	COMDAT @MAI_Bat@4
_TEXT	SEGMENT PARA USE32 PUBLIC 'CODE'
_TEXT	ENDS
;	COMDAT @MAI_SkelBow@4
_TEXT	SEGMENT PARA USE32 PUBLIC 'CODE'
_TEXT	ENDS
;	COMDAT @MAI_Fat@4
_TEXT	SEGMENT PARA USE32 PUBLIC 'CODE'
_TEXT	ENDS
;	COMDAT @MAI_Sneak@4
_TEXT	SEGMENT PARA USE32 PUBLIC 'CODE'
_TEXT	ENDS
;	COMDAT @MAI_Fireman@4
_TEXT	SEGMENT PARA USE32 PUBLIC 'CODE'
_TEXT	ENDS
;	COMDAT @MAI_Fallen@4
_TEXT	SEGMENT PARA USE32 PUBLIC 'CODE'
_TEXT	ENDS
;	COMDAT @MAI_Cleaver@4
_TEXT	SEGMENT PARA USE32 PUBLIC 'CODE'
_TEXT	ENDS
;	COMDAT @MAI_Round@8
_TEXT	SEGMENT PARA USE32 PUBLIC 'CODE'
_TEXT	ENDS
;	COMDAT @MAI_GoatMc@4
_TEXT	SEGMENT PARA USE32 PUBLIC 'CODE'
_TEXT	ENDS
;	COMDAT @MAI_Ranged@12
_TEXT	SEGMENT PARA USE32 PUBLIC 'CODE'
_TEXT	ENDS
;	COMDAT @MAI_GoatBow@4
_TEXT	SEGMENT PARA USE32 PUBLIC 'CODE'
_TEXT	ENDS
;	COMDAT @MAI_Succ@4
_TEXT	SEGMENT PARA USE32 PUBLIC 'CODE'
_TEXT	ENDS
;	COMDAT @MAI_AcidUniq@4
_TEXT	SEGMENT PARA USE32 PUBLIC 'CODE'
_TEXT	ENDS
;	COMDAT @MAI_Scav@4
_TEXT	SEGMENT PARA USE32 PUBLIC 'CODE'
_TEXT	ENDS
;	COMDAT @MAI_Garg@4
_TEXT	SEGMENT PARA USE32 PUBLIC 'CODE'
_TEXT	ENDS
;	COMDAT @MAI_RoundRanged@20
_TEXT	SEGMENT PARA USE32 PUBLIC 'CODE'
_TEXT	ENDS
;	COMDAT @MAI_Magma@4
_TEXT	SEGMENT PARA USE32 PUBLIC 'CODE'
_TEXT	ENDS
;	COMDAT @MAI_Storm@4
_TEXT	SEGMENT PARA USE32 PUBLIC 'CODE'
_TEXT	ENDS
;	COMDAT @MAI_Acid@4
_TEXT	SEGMENT PARA USE32 PUBLIC 'CODE'
_TEXT	ENDS
;	COMDAT @MAI_Diablo@4
_TEXT	SEGMENT PARA USE32 PUBLIC 'CODE'
_TEXT	ENDS
;	COMDAT @MAI_RR2@12
_TEXT	SEGMENT PARA USE32 PUBLIC 'CODE'
_TEXT	ENDS
;	COMDAT @MAI_Mega@4
_TEXT	SEGMENT PARA USE32 PUBLIC 'CODE'
_TEXT	ENDS
;	COMDAT @MAI_Golum@4
_TEXT	SEGMENT PARA USE32 PUBLIC 'CODE'
_TEXT	ENDS
;	COMDAT @MAI_SkelKing@4
_TEXT	SEGMENT PARA USE32 PUBLIC 'CODE'
_TEXT	ENDS
;	COMDAT @MAI_Rhino@4
_TEXT	SEGMENT PARA USE32 PUBLIC 'CODE'
_TEXT	ENDS
;	COMDAT @MAI_Counselor@4
_TEXT	SEGMENT PARA USE32 PUBLIC 'CODE'
_TEXT	ENDS
;	COMDAT @MAI_Garbud@4
_TEXT	SEGMENT PARA USE32 PUBLIC 'CODE'
_TEXT	ENDS
;	COMDAT @MAI_Zhar@4
_TEXT	SEGMENT PARA USE32 PUBLIC 'CODE'
_TEXT	ENDS
;	COMDAT @MAI_SnotSpil@4
_TEXT	SEGMENT PARA USE32 PUBLIC 'CODE'
_TEXT	ENDS
;	COMDAT @MAI_Lazurus@4
_TEXT	SEGMENT PARA USE32 PUBLIC 'CODE'
_TEXT	ENDS
;	COMDAT @MAI_Lazhelp@4
_TEXT	SEGMENT PARA USE32 PUBLIC 'CODE'
_TEXT	ENDS
;	COMDAT @MAI_Lachdanan@4
_TEXT	SEGMENT PARA USE32 PUBLIC 'CODE'
_TEXT	ENDS
;	COMDAT @MAI_Warlord@4
_TEXT	SEGMENT PARA USE32 PUBLIC 'CODE'
_TEXT	ENDS
;	COMDAT _DeleteMonsterList
_TEXT	SEGMENT PARA USE32 PUBLIC 'CODE'
_TEXT	ENDS
;	COMDAT _ProcessMonsters
_TEXT	SEGMENT PARA USE32 PUBLIC 'CODE'
_TEXT	ENDS
;	COMDAT _FreeMonsters
_TEXT	SEGMENT PARA USE32 PUBLIC 'CODE'
_TEXT	ENDS
;	COMDAT @DirOK@8
_TEXT	SEGMENT PARA USE32 PUBLIC 'CODE'
_TEXT	ENDS
;	COMDAT @PosOkMissile@8
_TEXT	SEGMENT PARA USE32 PUBLIC 'CODE'
_TEXT	ENDS
;	COMDAT @CheckNoSolid@8
_TEXT	SEGMENT PARA USE32 PUBLIC 'CODE'
_TEXT	ENDS
;	COMDAT @LineClearF@20
_TEXT	SEGMENT PARA USE32 PUBLIC 'CODE'
_TEXT	ENDS
;	COMDAT @LineClear@16
_TEXT	SEGMENT PARA USE32 PUBLIC 'CODE'
_TEXT	ENDS
;	COMDAT @LineClearF1@24
_TEXT	SEGMENT PARA USE32 PUBLIC 'CODE'
_TEXT	ENDS
;	COMDAT @SyncMonsterAnim@4
_TEXT	SEGMENT PARA USE32 PUBLIC 'CODE'
_TEXT	ENDS
;	COMDAT @M_FallenFear@8
_TEXT	SEGMENT PARA USE32 PUBLIC 'CODE'
_TEXT	ENDS
;	COMDAT @PrintMonstHistory@4
_TEXT	SEGMENT PARA USE32 PUBLIC 'CODE'
_TEXT	ENDS
;	COMDAT _PrintUniqueHistory
_TEXT	SEGMENT PARA USE32 PUBLIC 'CODE'
_TEXT	ENDS
;	COMDAT @MissToMonst@12
_TEXT	SEGMENT PARA USE32 PUBLIC 'CODE'
_TEXT	ENDS
;	COMDAT @PosOkMonst@12
_TEXT	SEGMENT PARA USE32 PUBLIC 'CODE'
_TEXT	ENDS
;	COMDAT @PosOkMonst2@12
_TEXT	SEGMENT PARA USE32 PUBLIC 'CODE'
_TEXT	ENDS
;	COMDAT @PosOkMonst3@12
_TEXT	SEGMENT PARA USE32 PUBLIC 'CODE'
_TEXT	ENDS
;	COMDAT @IsSkel@4
_TEXT	SEGMENT PARA USE32 PUBLIC 'CODE'
_TEXT	ENDS
;	COMDAT @IsGoat@4
_TEXT	SEGMENT PARA USE32 PUBLIC 'CODE'
_TEXT	ENDS
;	COMDAT @M_SpawnSkel@12
_TEXT	SEGMENT PARA USE32 PUBLIC 'CODE'
_TEXT	ENDS
;	COMDAT @ActivateSpawn@16
_TEXT	SEGMENT PARA USE32 PUBLIC 'CODE'
_TEXT	ENDS
;	COMDAT @SpawnSkeleton@12
_TEXT	SEGMENT PARA USE32 PUBLIC 'CODE'
_TEXT	ENDS
;	COMDAT _PreSpawnSkeleton
_TEXT	SEGMENT PARA USE32 PUBLIC 'CODE'
_TEXT	ENDS
;	COMDAT @TalktoMonster@4
_TEXT	SEGMENT PARA USE32 PUBLIC 'CODE'
_TEXT	ENDS
;	COMDAT @SpawnGolum@16
_TEXT	SEGMENT PARA USE32 PUBLIC 'CODE'
_TEXT	ENDS
;	COMDAT @CanTalkToMonst@4
_TEXT	SEGMENT PARA USE32 PUBLIC 'CODE'
_TEXT	ENDS
;	COMDAT @CheckMonsterHit@8
_TEXT	SEGMENT PARA USE32 PUBLIC 'CODE'
_TEXT	ENDS
;	COMDAT @encode_enemy@4
_TEXT	SEGMENT PARA USE32 PUBLIC 'CODE'
_TEXT	ENDS
;	COMDAT @decode_enemy@8
_TEXT	SEGMENT PARA USE32 PUBLIC 'CODE'
_TEXT	ENDS
FLAT	GROUP _DATA, CONST, _BSS, CRT$XCU
	ASSUME	CS: FLAT, DS: FLAT, SS: FLAT
endif

INCLUDELIB LIBCMT
INCLUDELIB OLDNAMES

PUBLIC	??_C@_0BI@NKPB@Goldblight?5of?5the?5Flame?$AA@	; `string'
PUBLIC	??_C@_0L@BDH@Blackstorm?$AA@			; `string'
PUBLIC	??_C@_0M@EPEK@Plaguewrath?$AA@			; `string'
PUBLIC	??_C@_0L@BAIF@The?5Flayer?$AA@			; `string'
PUBLIC	??_C@_08BDKD@Bluehorn?$AA@			; `string'
PUBLIC	??_C@_0BD@IICF@Warpfire?5Hellspawn?$AA@		; `string'
PUBLIC	??_C@_09MHOF@Fangspeir?$AA@			; `string'
PUBLIC	??_C@_0M@OBB@Festerskull?$AA@			; `string'
PUBLIC	??_C@_0BD@JNOM@Lionskull?5the?5Bent?$AA@	; `string'
PUBLIC	??_C@_0M@OABD@Blacktongue?$AA@			; `string'
PUBLIC	??_C@_09CAAA@Viletouch?$AA@			; `string'
PUBLIC	??_C@_0L@INON@Viperflame?$AA@			; `string'
PUBLIC	??_C@_08GGMB@Fangskin?$AA@			; `string'
PUBLIC	??_C@_0BF@JIIF@Witchfire?5the?5Unholy?$AA@	; `string'
PUBLIC	??_C@_0L@JDFP@Blackskull?$AA@			; `string'
PUBLIC	??_C@_09NMNJ@Soulslash?$AA@			; `string'
PUBLIC	??_C@_09GJHH@Windspawn?$AA@			; `string'
PUBLIC	??_C@_0BA@PNEB@Lord?5of?5the?5Pit?$AA@		; `string'
PUBLIC	??_C@_0L@PNLE@Rustweaver?$AA@			; `string'
PUBLIC	??_C@_0BF@GJGM@Howlingire?5the?5Shade?$AA@	; `string'
PUBLIC	??_C@_09BFFD@Doomcloud?$AA@			; `string'
PUBLIC	??_C@_0BD@OGMN@Bloodmoon?5Soulfire?$AA@		; `string'
PUBLIC	??_C@_09MOEP@Witchmoon?$AA@			; `string'
PUBLIC	??_C@_09HKIB@Gorefeast?$AA@			; `string'
PUBLIC	??_C@_0BD@OFLB@Graywar?5the?5Slayer?$AA@	; `string'
PUBLIC	??_C@_0L@DAKO@Dreadjudge?$AA@			; `string'
PUBLIC	??_C@_0BC@OODD@Stareye?5the?5Witch?$AA@		; `string'
PUBLIC	??_C@_0BG@LMMA@Steelskull?5the?5Hunter?$AA@	; `string'
PUBLIC	??_C@_0L@EMNF@Sir?5Gorash?$AA@			; `string'
PUBLIC	??_C@_0L@FLBK@The?5Vizier?$AA@			; `string'
PUBLIC	??_C@_07CLCG@Zamphir?$AA@			; `string'
PUBLIC	??_C@_09MAFH@Bloodlust?$AA@			; `string'
PUBLIC	??_C@_08NEOF@Webwidow?$AA@			; `string'
PUBLIC	??_C@_0M@PHMK@Fleshdancer?$AA@			; `string'
PUBLIC	??_C@_09BJLB@Grimspike?$AA@			; `string'
PUBLIC	??_C@_08OEBD@Doomlock?$AA@			; `string'
PUBLIC	@MAI_Zombie@4
PUBLIC	@MAI_SkelSd@4
PUBLIC	@MAI_Snake@4
PUBLIC	@MAI_Bat@4
PUBLIC	@MAI_SkelBow@4
PUBLIC	@MAI_Fat@4
PUBLIC	@MAI_Sneak@4
PUBLIC	@MAI_Fireman@4
PUBLIC	@MAI_Fallen@4
PUBLIC	@MAI_Cleaver@4
PUBLIC	@MAI_GoatMc@4
PUBLIC	@MAI_GoatBow@4
PUBLIC	@MAI_Succ@4
PUBLIC	@MAI_AcidUniq@4
PUBLIC	@MAI_Scav@4
PUBLIC	@MAI_Garg@4
PUBLIC	@MAI_Magma@4
PUBLIC	@MAI_Storm@4
PUBLIC	@MAI_Acid@4
PUBLIC	@MAI_Diablo@4
PUBLIC	@MAI_Mega@4
PUBLIC	@MAI_Golum@4
PUBLIC	@MAI_SkelKing@4
PUBLIC	@MAI_Rhino@4
PUBLIC	@MAI_Counselor@4
PUBLIC	@MAI_Garbud@4
PUBLIC	@MAI_Zhar@4
PUBLIC	@MAI_SnotSpil@4
PUBLIC	@MAI_Lazurus@4
PUBLIC	@MAI_Lazhelp@4
PUBLIC	@MAI_Lachdanan@4
PUBLIC	@MAI_Warlord@4
PUBLIC	_plr2monst
PUBLIC	_counsmiss
PUBLIC	_monsterdata
PUBLIC	_MonstConvTbl
PUBLIC	_MonstAvailTbl
PUBLIC	_UniqMonst
PUBLIC	_MWVel
PUBLIC	_animletter
PUBLIC	_left
PUBLIC	_right
PUBLIC	_opposite
PUBLIC	_offset_x
PUBLIC	_offset_y
PUBLIC	_rnd5
PUBLIC	_rnd10
PUBLIC	_rnd20
PUBLIC	_rnd60
PUBLIC	_AiProc
PUBLIC	??_C@_0BN@IMIC@Monsters?2Zombie?2Zombie?$CFc?4CL2?$AA@ ; `string'
PUBLIC	??_C@_0BP@IHKO@Monsters?2Zombie?2Zombie?$CFc?$CFi?4WAV?$AA@ ; `string'
PUBLIC	??_C@_06PEJJ@Zombie?$AA@			; `string'
PUBLIC	??_C@_0BM@OMHC@Monsters?2Zombie?2Bluered?4TRN?$AA@ ; `string'
PUBLIC	??_C@_05EMI@Ghoul?$AA@				; `string'
PUBLIC	??_C@_0BJ@PMIC@Monsters?2Zombie?2Grey?4TRN?$AA@	; `string'
PUBLIC	??_C@_0BA@CBFH@Rotting?5Carcass?$AA@		; `string'
PUBLIC	??_C@_0BL@NLEA@Monsters?2Zombie?2Yellow?4TRN?$AA@ ; `string'
PUBLIC	??_C@_0M@IKLP@Black?5Death?$AA@			; `string'
PUBLIC	??_C@_0BO@OOMI@Monsters?2FalSpear?2Phall?$CFc?4CL2?$AA@ ; `string'
PUBLIC	??_C@_0CA@LICE@Monsters?2FalSpear?2Phall?$CFc?$CFi?4WAV?$AA@ ; `string'
PUBLIC	??_C@_0BO@MBIF@Monsters?2FalSpear?2FallenT?4TRN?$AA@ ; `string'
PUBLIC	??_C@_0L@IHGK@Fallen?5One?$AA@			; `string'
PUBLIC	??_C@_0BL@NGAB@Monsters?2FalSpear?2Dark?4TRN?$AA@ ; `string'
PUBLIC	??_C@_06KIJL@Carver?$AA@			; `string'
PUBLIC	??_C@_09CFFL@Devil?5Kin?$AA@			; `string'
PUBLIC	??_C@_0BL@KPBN@Monsters?2FalSpear?2Blue?4TRN?$AA@ ; `string'
PUBLIC	??_C@_08HICJ@Dark?5One?$AA@			; `string'
PUBLIC	??_C@_0BN@KBEI@Monsters?2SkelAxe?2SklAx?$CFc?4CL2?$AA@ ; `string'
PUBLIC	??_C@_0BP@IJNN@Monsters?2SkelAxe?2SklAx?$CFc?$CFi?4WAV?$AA@ ; `string'
PUBLIC	??_C@_0BL@LDMJ@Monsters?2SkelAxe?2White?4TRN?$AA@ ; `string'
PUBLIC	??_C@_08KFBC@Skeleton?$AA@			; `string'
PUBLIC	??_C@_0BL@PJBC@Monsters?2SkelAxe?2Skelt?4TRN?$AA@ ; `string'
PUBLIC	??_C@_0L@FLJI@Corpse?5Axe?$AA@			; `string'
PUBLIC	??_C@_0N@OPIP@Burning?5Dead?$AA@		; `string'
PUBLIC	??_C@_0BL@HLKD@Monsters?2SkelAxe?2Black?4TRN?$AA@ ; `string'
PUBLIC	??_C@_06KKNE@Horror?$AA@			; `string'
PUBLIC	??_C@_0BN@DAFP@Monsters?2FalSword?2Fall?$CFc?4CL2?$AA@ ; `string'
PUBLIC	??_C@_0BP@LKDH@Monsters?2FalSword?2Fall?$CFc?$CFi?4WAV?$AA@ ; `string'
PUBLIC	??_C@_0BO@KANN@Monsters?2FalSword?2FallenT?4TRN?$AA@ ; `string'
PUBLIC	??_C@_0BL@JPEE@Monsters?2FalSword?2Dark?4TRN?$AA@ ; `string'
PUBLIC	??_C@_0BL@OGFI@Monsters?2FalSword?2Blue?4TRN?$AA@ ; `string'
PUBLIC	??_C@_0BJ@BBLM@Monsters?2Scav?2Scav?$CFc?4CL2?$AA@ ; `string'
PUBLIC	??_C@_0BL@FEJI@Monsters?2Scav?2Scav?$CFc?$CFi?4WAV?$AA@ ; `string'
PUBLIC	??_C@_09ODLB@Scavenger?$AA@			; `string'
PUBLIC	??_C@_0BJ@BABM@Monsters?2Scav?2ScavBr?4TRN?$AA@	; `string'
PUBLIC	??_C@_0N@GMAL@Plague?5Eater?$AA@		; `string'
PUBLIC	??_C@_0BJ@HCLD@Monsters?2Scav?2ScavBe?4TRN?$AA@	; `string'
PUBLIC	??_C@_0N@PNNC@Shadow?5Beast?$AA@		; `string'
PUBLIC	??_C@_0BI@HIBO@Monsters?2Scav?2ScavW?4TRN?$AA@	; `string'
PUBLIC	??_C@_0M@NJCA@Bone?5Gasher?$AA@			; `string'
PUBLIC	??_C@_0BN@FDDL@Monsters?2SkelBow?2SklBw?$CFc?4CL2?$AA@ ; `string'
PUBLIC	??_C@_0BP@OGC@Monsters?2SkelBow?2SklBw?$CFc?$CFi?4WAV?$AA@ ; `string'
PUBLIC	??_C@_0BL@OCKB@Monsters?2SkelBow?2White?4TRN?$AA@ ; `string'
PUBLIC	??_C@_0BL@KIHK@Monsters?2SkelBow?2Skelt?4TRN?$AA@ ; `string'
PUBLIC	??_C@_0L@FKAB@Corpse?5Bow?$AA@			; `string'
PUBLIC	??_C@_0BL@CKML@Monsters?2SkelBow?2Black?4TRN?$AA@ ; `string'
PUBLIC	??_C@_0BM@LPCM@Monsters?2SkelSd?2SklSr?$CFc?4CL2?$AA@ ; `string'
PUBLIC	??_C@_0BO@JGHO@Monsters?2SkelSd?2SklSr?$CFc?$CFi?4WAV?$AA@ ; `string'
PUBLIC	??_C@_0BK@FEKE@Monsters?2SkelSd?2White?4TRN?$AA@ ; `string'
PUBLIC	??_C@_0BB@OJGC@Skeleton?5Captain?$AA@		; `string'
PUBLIC	??_C@_0BK@BOHP@Monsters?2SkelSd?2Skelt?4TRN?$AA@ ; `string'
PUBLIC	??_C@_0P@ONID@Corpse?5Captain?$AA@		; `string'
PUBLIC	??_C@_0BF@LNCI@Burning?5Dead?5Captain?$AA@	; `string'
PUBLIC	??_C@_0BK@JMMO@Monsters?2SkelSd?2Black?4TRN?$AA@ ; `string'
PUBLIC	??_C@_0P@MKB@Horror?5Captain?$AA@		; `string'
PUBLIC	??_C@_0BN@EHND@Monsters?2TSneak?2TSneak?$CFc?4CL2?$AA@ ; `string'
PUBLIC	??_C@_0BP@FIIK@Monsters?2TSneak?2Sneakl?$CFc?$CFi?4WAV?$AA@ ; `string'
PUBLIC	??_C@_0P@KBCM@Invisible?5Lord?$AA@		; `string'
PUBLIC	??_C@_0BL@OIAO@Monsters?2Sneak?2Sneak?$CFc?4CL2?$AA@ ; `string'
PUBLIC	??_C@_0BN@IEAE@Monsters?2Sneak?2Sneak?$CFc?$CFi?4WAV?$AA@ ; `string'
PUBLIC	??_C@_06OCEO@Hidden?$AA@			; `string'
PUBLIC	??_C@_0BL@FIHM@Monsters?2Sneak?2Sneakv2?4TRN?$AA@ ; `string'
PUBLIC	??_C@_07JKLP@Stalker?$AA@			; `string'
PUBLIC	??_C@_0BL@PIFJ@Monsters?2Sneak?2Sneakv3?4TRN?$AA@ ; `string'
PUBLIC	??_C@_06ELBO@Unseen?$AA@			; `string'
PUBLIC	??_C@_0BL@LIBD@Monsters?2Sneak?2Sneakv1?4TRN?$AA@ ; `string'
PUBLIC	??_C@_0BA@LANI@Illusion?5Weaver?$AA@		; `string'
PUBLIC	??_C@_0BO@FGPM@Monsters?2GoatLord?2GoatL?$CFc?4CL2?$AA@ ; `string'
PUBLIC	??_C@_0CA@ECCN@Monsters?2GoatLord?2Goatl?$CFc?$CFi?4WAV?$AA@ ; `string'
PUBLIC	??_C@_0M@BAIA@Lord?5Sayter?$AA@			; `string'
PUBLIC	??_C@_0BN@OGDO@Monsters?2GoatMace?2Goat?$CFc?4CL2?$AA@ ; `string'
PUBLIC	??_C@_0BP@CPIM@Monsters?2GoatMace?2Goat?$CFc?$CFi?4WAV?$AA@ ; `string'
PUBLIC	??_C@_0L@PPFJ@Flesh?5Clan?$AA@			; `string'
PUBLIC	??_C@_0BM@DGOA@Monsters?2GoatMace?2Beige?4TRN?$AA@ ; `string'
PUBLIC	??_C@_0L@DDEJ@Stone?5Clan?$AA@			; `string'
PUBLIC	??_C@_0BK@IMBO@Monsters?2GoatMace?2Red?4TRN?$AA@ ; `string'
PUBLIC	??_C@_09NBOI@Fire?5Clan?$AA@			; `string'
PUBLIC	??_C@_0BL@CPGA@Monsters?2GoatMace?2Gray?4TRN?$AA@ ; `string'
PUBLIC	??_C@_0L@JFLE@Night?5Clan?$AA@			; `string'
PUBLIC	??_C@_0BH@KIOP@Monsters?2Bat?2Bat?$CFc?4CL2?$AA@ ; `string'
PUBLIC	??_C@_0BJ@JLKA@Monsters?2Bat?2Bat?$CFc?$CFi?4WAV?$AA@ ; `string'
PUBLIC	??_C@_0BF@FLIN@Monsters?2Bat?2red?4trn?$AA@	; `string'
PUBLIC	??_C@_05FJN@Fiend?$AA@				; `string'
PUBLIC	??_C@_05OMKA@Blink?$AA@				; `string'
PUBLIC	??_C@_0BG@BDJF@Monsters?2Bat?2grey?4trn?$AA@	; `string'
PUBLIC	??_C@_05MJLP@Gloom?$AA@				; `string'
PUBLIC	??_C@_0BI@NFPN@Monsters?2Bat?2orange?4trn?$AA@	; `string'
PUBLIC	??_C@_08NKDG@Familiar?$AA@			; `string'
PUBLIC	??_C@_0BN@KDEJ@Monsters?2GoatBow?2GoatB?$CFc?4CL2?$AA@ ; `string'
PUBLIC	??_C@_0BP@DOBM@Monsters?2GoatBow?2GoatB?$CFc?$CFi?4WAV?$AA@ ; `string'
PUBLIC	??_C@_0BL@NIME@Monsters?2GoatBow?2Beige?4TRN?$AA@ ; `string'
PUBLIC	??_C@_0BJ@NLCC@Monsters?2GoatBow?2Red?4TRN?$AA@	; `string'
PUBLIC	??_C@_0BK@LDH@Monsters?2GoatBow?2Gray?4TRN?$AA@	; `string'
PUBLIC	??_C@_0BJ@CGEO@Monsters?2Acid?2Acid?$CFc?4CL2?$AA@ ; `string'
PUBLIC	??_C@_0BL@HFAM@Monsters?2Acid?2Acid?$CFc?$CFi?4WAV?$AA@ ; `string'
PUBLIC	??_C@_0L@NECC@Acid?5Beast?$AA@			; `string'
PUBLIC	??_C@_0BK@MMPI@Monsters?2Acid?2AcidBlk?4TRN?$AA@ ; `string'
PUBLIC	??_C@_0P@NPHN@Poison?5Spitter?$AA@		; `string'
PUBLIC	??_C@_0BI@KIAF@Monsters?2Acid?2AcidB?4TRN?$AA@	; `string'
PUBLIC	??_C@_09GJHH@Pit?5Beast?$AA@			; `string'
PUBLIC	??_C@_0BI@KKFA@Monsters?2Acid?2AcidR?4TRN?$AA@	; `string'
PUBLIC	??_C@_08KCMP@Lava?5Maw?$AA@			; `string'
PUBLIC	??_C@_0BL@OAFB@Monsters?2SKing?2SKing?$CFc?4CL2?$AA@ ; `string'
PUBLIC	??_C@_0BN@KOJK@Monsters?2SKing?2SKing?$CFc?$CFi?4WAV?$AA@ ; `string'
PUBLIC	??_C@_0O@COOI@Skeleton?5King?$AA@		; `string'
PUBLIC	??_C@_0BJ@IFKI@Monsters?2FatC?2FatC?$CFc?4CL2?$AA@ ; `string'
PUBLIC	??_C@_0BL@IGFL@Monsters?2FatC?2FatC?$CFc?$CFi?4WAV?$AA@ ; `string'
PUBLIC	??_C@_0M@OGO@The?5Butcher?$AA@			; `string'
PUBLIC	??_C@_0BH@OEHI@Monsters?2Fat?2Fat?$CFc?4CL2?$AA@ ; `string'
PUBLIC	??_C@_0BJ@DLBO@Monsters?2Fat?2Fat?$CFc?$CFi?4WAV?$AA@ ; `string'
PUBLIC	??_C@_08FGOM@Overlord?$AA@			; `string'
PUBLIC	??_C@_0BG@KPHM@Monsters?2Fat?2Blue?4TRN?$AA@	; `string'
PUBLIC	??_C@_07BNOE@Mud?5Man?$AA@			; `string'
PUBLIC	??_C@_0BG@JOFI@Monsters?2Fat?2FatB?4TRN?$AA@	; `string'
PUBLIC	??_C@_0L@PHFJ@Toad?5Demon?$AA@			; `string'
PUBLIC	??_C@_0BG@BOMN@Monsters?2Fat?2FatF?4TRN?$AA@	; `string'
PUBLIC	??_C@_0L@ELFK@Flayed?5One?$AA@			; `string'
PUBLIC	??_C@_0BJ@OKOD@Monsters?2Worm?2Worm?$CFc?4CL2?$AA@ ; `string'
PUBLIC	??_C@_04EEPE@Wyrm?$AA@				; `string'
PUBLIC	??_C@_09HKKP@Cave?5Slug?$AA@			; `string'
PUBLIC	??_C@_0L@KJLC@Devil?5Wyrm?$AA@			; `string'
PUBLIC	??_C@_08DOKM@Devourer?$AA@			; `string'
PUBLIC	??_C@_0BL@GJJN@Monsters?2Magma?2Magma?$CFc?4CL2?$AA@ ; `string'
PUBLIC	??_C@_0BN@LADC@Monsters?2Magma?2Magma?$CFc?$CFi?4WAV?$AA@ ; `string'
PUBLIC	??_C@_0M@BDIN@Magma?5Demon?$AA@			; `string'
PUBLIC	??_C@_0BK@PAJG@Monsters?2Magma?2Yellow?4TRN?$AA@ ; `string'
PUBLIC	??_C@_0M@BAA@Blood?5Stone?$AA@			; `string'
PUBLIC	??_C@_0BI@HBBI@Monsters?2Magma?2Blue?4TRN?$AA@	; `string'
PUBLIC	??_C@_0L@IKKA@Hell?5Stone?$AA@			; `string'
PUBLIC	??_C@_0BJ@KPPL@Monsters?2Magma?2Wierd?4TRN?$AA@	; `string'
PUBLIC	??_C@_09JMEO@Lava?5Lord?$AA@			; `string'
PUBLIC	??_C@_0BL@DDCB@Monsters?2Rhino?2Rhino?$CFc?4CL2?$AA@ ; `string'
PUBLIC	??_C@_0BN@INFH@Monsters?2Rhino?2Rhino?$CFc?$CFi?4WAV?$AA@ ; `string'
PUBLIC	??_C@_0N@OLEB@Horned?5Demon?$AA@		; `string'
PUBLIC	??_C@_0BK@MPLB@Monsters?2Rhino?2Orange?4TRN?$AA@ ; `string'
PUBLIC	??_C@_0L@EIAJ@Mud?5Runner?$AA@			; `string'
PUBLIC	??_C@_0BI@KPBF@Monsters?2Rhino?2Blue?4TRN?$AA@	; `string'
PUBLIC	??_C@_0O@HAFD@Frost?5Charger?$AA@		; `string'
PUBLIC	??_C@_0BK@MHDK@Monsters?2Rhino?2RhinoB?4TRN?$AA@ ; `string'
PUBLIC	??_C@_0O@FPB@Obsidian?5Lord?$AA@		; `string'
PUBLIC	??_C@_0BO@PCKO@Monsters?2Demskel?2Demskl?$CFc?4CL2?$AA@ ; `string'
PUBLIC	??_C@_0BL@MEBK@Monsters?2Thin?2Thin?$CFc?$CFi?4WAV?$AA@ ; `string'
PUBLIC	??_C@_0BJ@LDDE@Monsters?2Thin?2Thinv3?4TRN?$AA@	; `string'
PUBLIC	??_C@_0L@LMNI@Bone?5Demon?$AA@			; `string'
PUBLIC	??_C@_0BJ@KDGD@Monsters?2Thin?2Thin?$CFc?4CL2?$AA@ ; `string'
PUBLIC	??_C@_09JDGN@Red?5Death?$AA@			; `string'
PUBLIC	??_C@_0M@EOOB@Litch?5Demon?$AA@			; `string'
PUBLIC	??_C@_0O@HMDJ@Undead?5Balrog?$AA@		; `string'
PUBLIC	??_C@_0BN@JOPB@Monsters?2Fireman?2FireM?$CFc?4CL2?$AA@ ; `string'
PUBLIC	??_C@_0M@LACM@Incinerator?$AA@			; `string'
PUBLIC	??_C@_0L@LNJN@Flame?5Lord?$AA@			; `string'
PUBLIC	??_C@_09BBKL@Doom?5Fire?$AA@			; `string'
PUBLIC	??_C@_0M@DMNI@Hell?5Burner?$AA@			; `string'
PUBLIC	??_C@_09IKEH@Red?5Storm?$AA@			; `string'
PUBLIC	??_C@_0M@ELEK@Storm?5Rider?$AA@			; `string'
PUBLIC	??_C@_0BJ@BDBB@Monsters?2Thin?2Thinv2?4TRN?$AA@	; `string'
PUBLIC	??_C@_0L@MPDM@Storm?5Lord?$AA@			; `string'
PUBLIC	??_C@_0BJ@PDHO@Monsters?2Thin?2Thinv1?4TRN?$AA@	; `string'
PUBLIC	??_C@_09GKHB@Maelstorm?$AA@			; `string'
PUBLIC	??_C@_0BN@PDMB@Monsters?2BigFall?2Fallg?$CFc?4CL2?$AA@ ; `string'
PUBLIC	??_C@_0BO@COGP@Monsters?2BigFall?2Bfal?$CFc?$CFi?4WAV?$AA@ ; `string'
PUBLIC	??_C@_0BA@FGGD@Devil?5Kin?5Brute?$AA@		; `string'
PUBLIC	??_C@_0BO@DCJK@Monsters?2Gargoyle?2Gargo?$CFc?4CL2?$AA@ ; `string'
PUBLIC	??_C@_0CA@OJJF@Monsters?2Gargoyle?2Gargo?$CFc?$CFi?4WAV?$AA@ ; `string'
PUBLIC	??_C@_0N@CHBP@Winged?9Demon?$AA@		; `string'
PUBLIC	??_C@_0BL@GLPH@Monsters?2Gargoyle?2GarE?4TRN?$AA@ ; `string'
PUBLIC	??_C@_08HND@Gargoyle?$AA@			; `string'
PUBLIC	??_C@_0BN@KACC@Monsters?2Gargoyle?2GargBr?4TRN?$AA@ ; `string'
PUBLIC	??_C@_0L@JKAG@Blood?5Claw?$AA@			; `string'
PUBLIC	??_C@_0BM@GEJG@Monsters?2Gargoyle?2GargB?4TRN?$AA@ ; `string'
PUBLIC	??_C@_0L@CJIN@Death?5Wing?$AA@			; `string'
PUBLIC	??_C@_0BJ@OHJC@Monsters?2Mega?2Mega?$CFc?4CL2?$AA@ ; `string'
PUBLIC	??_C@_0BL@EJPE@Monsters?2Mega?2Mega?$CFc?$CFi?4WAV?$AA@ ; `string'
PUBLIC	??_C@_06MHAA@Slayer?$AA@			; `string'
PUBLIC	??_C@_0BI@KHJI@Monsters?2Mega?2Guard?4TRN?$AA@	; `string'
PUBLIC	??_C@_08KEIB@Guardian?$AA@			; `string'
PUBLIC	??_C@_0BI@DEEB@Monsters?2Mega?2Vtexl?4TRN?$AA@	; `string'
PUBLIC	??_C@_0M@NBKI@Vortex?5Lord?$AA@			; `string'
PUBLIC	??_C@_0BH@BNN@Monsters?2Mega?2Balr?4TRN?$AA@	; `string'
PUBLIC	??_C@_06OEIG@Balrog?$AA@			; `string'
PUBLIC	??_C@_0BL@IHHM@Monsters?2Snake?2Snake?$CFc?4CL2?$AA@ ; `string'
PUBLIC	??_C@_0BN@NHII@Monsters?2Snake?2Snake?$CFc?$CFi?4WAV?$AA@ ; `string'
PUBLIC	??_C@_0L@PGLH@Cave?5Viper?$AA@			; `string'
PUBLIC	??_C@_0BJ@LCBA@Monsters?2Snake?2SnakR?4TRN?$AA@	; `string'
PUBLIC	??_C@_0L@GLJN@Fire?5Drake?$AA@			; `string'
PUBLIC	??_C@_0BJ@JEFP@Monsters?2Snake?2Snakg?4TRN?$AA@	; `string'
PUBLIC	??_C@_0L@CLBK@Gold?5Viper?$AA@			; `string'
PUBLIC	??_C@_0BJ@LEOP@Monsters?2Snake?2Snakb?4TRN?$AA@	; `string'
PUBLIC	??_C@_0M@FIHH@Azure?5Drake?$AA@			; `string'
PUBLIC	??_C@_0BL@JDBP@Monsters?2Black?2Black?$CFc?4CL2?$AA@ ; `string'
PUBLIC	??_C@_0BN@KHJ@Monsters?2Black?2Black?$CFc?$CFi?4WAV?$AA@ ; `string'
PUBLIC	??_C@_0N@PDGD@Black?5Knight?$AA@		; `string'
PUBLIC	??_C@_0BM@GOHA@Monsters?2Black?2BlkKntRT?4TRN?$AA@ ; `string'
PUBLIC	??_C@_0L@FPBM@Doom?5Guard?$AA@			; `string'
PUBLIC	??_C@_0BM@DEHC@Monsters?2Black?2BlkKntBT?4TRN?$AA@ ; `string'
PUBLIC	??_C@_0L@KLAH@Steel?5Lord?$AA@			; `string'
PUBLIC	??_C@_0BM@JCKI@Monsters?2Black?2BlkKntBe?4TRN?$AA@ ; `string'
PUBLIC	??_C@_0N@PCA@Blood?5Knight?$AA@			; `string'
PUBLIC	??_C@_0BL@CDKL@Monsters?2Unrav?2Unrav?$CFc?4CL2?$AA@ ; `string'
PUBLIC	??_C@_09KOLF@Unraveler?$AA@			; `string'
PUBLIC	??_C@_0L@GDBP@Hollow?5One?$AA@			; `string'
PUBLIC	??_C@_0M@FDGH@Pain?5Master?$AA@			; `string'
PUBLIC	??_C@_0P@NDCP@Reality?5Weaver?$AA@		; `string'
PUBLIC	??_C@_0BJ@DPMO@Monsters?2Succ?2Scbs?$CFc?4CL2?$AA@ ; `string'
PUBLIC	??_C@_0BL@HGFB@Monsters?2Succ?2Scbs?$CFc?$CFi?4WAV?$AA@ ; `string'
PUBLIC	??_C@_08FEBP@Succubus?$AA@			; `string'
PUBLIC	??_C@_0BI@GKHN@Monsters?2Succ?2Succb?4TRN?$AA@	; `string'
PUBLIC	??_C@_0L@FPIO@Snow?5Witch?$AA@			; `string'
PUBLIC	??_C@_0BJ@PIJO@Monsters?2Succ?2Succrw?4TRN?$AA@	; `string'
PUBLIC	??_C@_0L@BHM@Hell?5Spawn?$AA@			; `string'
PUBLIC	??_C@_0BJ@KCJM@Monsters?2Succ?2Succbw?4TRN?$AA@	; `string'
PUBLIC	??_C@_0M@GKNH@Soul?5Burner?$AA@			; `string'
PUBLIC	??_C@_0BJ@GCAL@Monsters?2Mage?2Mage?$CFc?4CL2?$AA@ ; `string'
PUBLIC	??_C@_0BL@OMKE@Monsters?2Mage?2Mage?$CFc?$CFi?4WAV?$AA@ ; `string'
PUBLIC	??_C@_09HLJB@Counselor?$AA@			; `string'
PUBLIC	??_C@_0BJ@IEPO@Monsters?2Mage?2Cnselg?4TRN?$AA@	; `string'
PUBLIC	??_C@_0L@IHLC@Magistrate?$AA@			; `string'
PUBLIC	??_C@_0BK@IAEI@Monsters?2Mage?2Cnselgd?4TRN?$AA@ ; `string'
PUBLIC	??_C@_08EOGH@Cabalist?$AA@			; `string'
PUBLIC	??_C@_0BK@CCLI@Monsters?2Mage?2Cnselbk?4TRN?$AA@ ; `string'
PUBLIC	??_C@_08KFKH@Advocate?$AA@			; `string'
PUBLIC	??_C@_0BL@HABD@Monsters?2Golem?2Golem?$CFc?4CL2?$AA@ ; `string'
PUBLIC	??_C@_0BM@PJFI@Monsters?2Golem?2Golm?$CFc?$CFi?4WAV?$AA@ ; `string'
PUBLIC	??_C@_05MIHD@Golem?$AA@				; `string'
PUBLIC	??_C@_0BN@LMBN@Monsters?2Diablo?2Diablo?$CFc?4CL2?$AA@ ; `string'
PUBLIC	??_C@_0BP@FGDO@Monsters?2Diablo?2Diablo?$CFc?$CFi?4WAV?$AA@ ; `string'
PUBLIC	??_C@_0O@FIFM@The?5Dark?5Lord?$AA@		; `string'
PUBLIC	??_C@_0BO@BEOI@Monsters?2DarkMage?2Dmage?$CFc?4CL2?$AA@ ; `string'
PUBLIC	??_C@_0BP@HJAJ@Monsters?2DarkMage?2Dmag?$CFc?$CFi?4WAV?$AA@ ; `string'
PUBLIC	??_C@_0BI@JDKB@The?5Arch?9Litch?5Malignus?$AA@	; `string'
PUBLIC	??_C@_0BB@NNOM@Gharbad?5the?5Weak?$AA@		; `string'
PUBLIC	??_C@_04EMDL@BSDB?$AA@				; `string'
PUBLIC	??_C@_05MCCE@GENRL?$AA@				; `string'
PUBLIC	??_C@_0N@KGIJ@Zhar?5the?5Mad?$AA@		; `string'
PUBLIC	??_C@_07MFB@GENERAL?$AA@			; `string'
PUBLIC	??_C@_09MNJA@Snotspill?$AA@			; `string'
PUBLIC	??_C@_03LJKM@BNG?$AA@				; `string'
PUBLIC	??_C@_0BE@EMLM@Arch?9Bishop?5Lazarus?$AA@	; `string'
PUBLIC	??_C@_07FILF@Red?5Vex?$AA@			; `string'
PUBLIC	??_C@_04NHCL@REDV?$AA@				; `string'
PUBLIC	??_C@_09NNFD@BlackJade?$AA@			; `string'
PUBLIC	??_C@_05HMFP@BLKJD?$AA@				; `string'
PUBLIC	??_C@_09GCKJ@Lachdanan?$AA@			; `string'
PUBLIC	??_C@_04CAGH@BHKA?$AA@				; `string'
PUBLIC	??_C@_0BB@IIOM@Warlord?5of?5Blood?$AA@		; `string'
PUBLIC	??_C@_0BB@DLIH@Bonehead?5Keenaxe?$AA@		; `string'
PUBLIC	??_C@_0BG@CLDJ@Bladeskin?5the?5Slasher?$AA@	; `string'
PUBLIC	??_C@_04CFHF@BSTS?$AA@				; `string'
PUBLIC	??_C@_07NGEG@Soulpus?$AA@			; `string'
PUBLIC	??_C@_0BE@BDNK@Pukerat?5the?5Unclean?$AA@	; `string'
PUBLIC	??_C@_03DCBN@PTU?$AA@				; `string'
PUBLIC	??_C@_0L@BJO@Boneripper?$AA@			; `string'
PUBLIC	??_C@_02NOGO@BR?$AA@				; `string'
PUBLIC	??_C@_0BE@FPNL@Rotfeast?5the?5Hungry?$AA@	; `string'
PUBLIC	??_C@_03PEDI@ETH?$AA@				; `string'
PUBLIC	??_C@_0BD@GBKJ@Gutshank?5the?5Quick?$AA@	; `string'
PUBLIC	??_C@_03HEK@GTQ?$AA@				; `string'
PUBLIC	??_C@_0BG@IPBC@Brokenhead?5Bangshield?$AA@	; `string'
PUBLIC	??_C@_04HPMH@BHBS?$AA@				; `string'
PUBLIC	??_C@_05DEJF@Bongo?$AA@				; `string'
PUBLIC	??_C@_0L@EMBE@Rotcarnage?$AA@			; `string'
PUBLIC	??_C@_04NLMC@RCRN?$AA@				; `string'
PUBLIC	??_C@_0L@CBPB@Shadowbite?$AA@			; `string'
PUBLIC	??_C@_04FKFB@SHBT?$AA@				; `string'
PUBLIC	??_C@_07FKDP@Deadeye?$AA@			; `string'
PUBLIC	??_C@_02FFAE@DE?$AA@				; `string'
PUBLIC	??_C@_0BA@GMMP@Madeye?5the?5Dead?$AA@		; `string'
PUBLIC	??_C@_03JKGJ@MTD?$AA@				; `string'
PUBLIC	??_C@_0P@MKEC@El?5Chupacabras?$AA@		; `string'
PUBLIC	??_C@_09CNLO@Skullfire?$AA@			; `string'
PUBLIC	??_C@_04JLC@SKFR?$AA@				; `string'
PUBLIC	??_C@_09MLHL@Warpskull?$AA@			; `string'
PUBLIC	??_C@_04KCIG@TSPO?$AA@				; `string'
PUBLIC	??_C@_0L@EGAH@Goretongue?$AA@			; `string'
PUBLIC	??_C@_03KOKP@PMR?$AA@				; `string'
PUBLIC	??_C@_0N@FKIP@Pulsecrawler?$AA@			; `string'
PUBLIC	??_C@_0L@INCO@Moonbender?$AA@			; `string'
PUBLIC	??_C@_0L@DKGL@Wrathraven?$AA@			; `string'
PUBLIC	??_C@_0L@PPGN@Spineeater?$AA@			; `string'
PUBLIC	??_C@_0BF@KAKP@Blackash?5the?5Burning?$AA@	; `string'
PUBLIC	??_C@_06PLDN@BASHTB?$AA@			; `string'
PUBLIC	??_C@_0L@FLBL@Shadowcrow?$AA@			; `string'
PUBLIC	??_C@_0BF@GMIP@Blightstone?5the?5Weak?$AA@	; `string'
PUBLIC	??_C@_0BJ@JMDI@Bilefroth?5the?5Pit?5Master?$AA@	; `string'
PUBLIC	??_C@_04OBOK@BFTP?$AA@				; `string'
PUBLIC	??_C@_0BC@CEPB@Bloodskin?5Darkbow?$AA@		; `string'
PUBLIC	??_C@_08PDKI@Foulwing?$AA@			; `string'
PUBLIC	??_C@_02OB@DB?$AA@				; `string'
PUBLIC	??_C@_0O@JFPG@Shadowdrinker?$AA@		; `string'
PUBLIC	??_C@_04NCNM@SHDR?$AA@				; `string'
PUBLIC	??_C@_0M@PIAB@Hazeshifter?$AA@			; `string'
PUBLIC	??_C@_09HCNK@Deathspit?$AA@			; `string'
PUBLIC	??_C@_04HEPK@BFDS?$AA@				; `string'
PUBLIC	??_C@_0M@HAMG@Bloodgutter?$AA@			; `string'
PUBLIC	??_C@_04PJDO@BGBL?$AA@				; `string'
PUBLIC	??_C@_0BF@KJCD@Deathshade?5Fleshmaul?$AA@	; `string'
PUBLIC	??_C@_04LPNP@DSFM?$AA@				; `string'
PUBLIC	??_C@_0BC@MEDF@Warmaggot?5the?5Mad?$AA@		; `string'
PUBLIC	??_C@_0BF@MNGJ@Glasskull?5the?5Jagged?$AA@	; `string'
PUBLIC	??_C@_0L@IDEF@Blightfire?$AA@			; `string'
PUBLIC	??_C@_03DOGO@BLF?$AA@				; `string'
PUBLIC	??_C@_0BD@CGJC@Nightwing?5the?5Cold?$AA@	; `string'
PUBLIC	??_C@_09MEMP@Gorestone?$AA@			; `string'
PUBLIC	??_C@_0BF@HNAH@Bronzefist?5Firestone?$AA@	; `string'
PUBLIC	??_C@_0BF@HHDN@Wrathfire?5the?5Doomed?$AA@	; `string'
PUBLIC	??_C@_04HPN@WFTD?$AA@				; `string'
PUBLIC	??_C@_0BD@IJFE@Firewound?5the?5Grim?$AA@	; `string'
PUBLIC	??_C@_0N@IEFH@Baron?5Sludge?$AA@		; `string'
PUBLIC	??_C@_03CLMH@BSM?$AA@				; `string'
PUBLIC	??_C@_0BF@EOEA@Blighthorn?5Steelmace?$AA@	; `string'
PUBLIC	??_C@_04BHO@BHSM?$AA@				; `string'
PUBLIC	??_C@_0M@MCHO@Chaoshowler?$AA@			; `string'
PUBLIC	??_C@_0BF@OELM@Doomgrin?5the?5Rotting?$AA@	; `string'
PUBLIC	??_C@_09HKNB@Madburner?$AA@			; `string'
PUBLIC	??_C@_0BC@MKAI@Bonesaw?5the?5Litch?$AA@		; `string'
PUBLIC	??_C@_0L@GPAF@Breakspine?$AA@			; `string'
PUBLIC	??_C@_0BF@OIDE@Devilskull?5Sharpbone?$AA@	; `string'
PUBLIC	??_C@_0M@MABJ@Brokenstorm?$AA@			; `string'
PUBLIC	??_C@_09HMHK@Stormbane?$AA@			; `string'
PUBLIC	??_C@_09PHOF@Oozedrool?$AA@			; `string'
_DATA	SEGMENT
COMM	_sgbSaveSoundOn:DWORD
COMM	_MissileFileFlag:DWORD
COMM	_monstkills:DWORD:0c8H
COMM	_monstactive:DWORD:0c8H
COMM	_nummonsters:DWORD
COMM	_monster:BYTE:0b220H
COMM	_totalmonsters:DWORD
COMM	_Monsters:BYTE:01480H
COMM	_monstimgtot:DWORD
COMM	_uniquetrans:DWORD
COMM	_nummtypes:DWORD
_DATA	ENDS
CONST	SEGMENT
_plr2monst DB	00H
	DB	05H
	DB	03H
	DB	07H
	DB	01H
	DB	04H
	DB	06H
	DB	00H
	DB	02H
	ORG $+3
_counsmiss DB	01H
	DB	034H
	DB	07H
	DB	06H
CONST	ENDS
;	COMDAT ??_C@_0BN@IMIC@Monsters?2Zombie?2Zombie?$CFc?4CL2?$AA@
_DATA	SEGMENT
??_C@_0BN@IMIC@Monsters?2Zombie?2Zombie?$CFc?4CL2?$AA@ DB 'Monsters\Zombi'
	DB	'e\Zombie%c.CL2', 00H			; `string'
_DATA	ENDS
;	COMDAT ??_C@_0BP@IHKO@Monsters?2Zombie?2Zombie?$CFc?$CFi?4WAV?$AA@
_DATA	SEGMENT
??_C@_0BP@IHKO@Monsters?2Zombie?2Zombie?$CFc?$CFi?4WAV?$AA@ DB 'Monsters\'
	DB	'Zombie\Zombie%c%i.WAV', 00H			; `string'
_DATA	ENDS
;	COMDAT ??_C@_06PEJJ@Zombie?$AA@
_DATA	SEGMENT
??_C@_06PEJJ@Zombie?$AA@ DB 'Zombie', 00H		; `string'
_DATA	ENDS
;	COMDAT ??_C@_0BM@OMHC@Monsters?2Zombie?2Bluered?4TRN?$AA@
_DATA	SEGMENT
??_C@_0BM@OMHC@Monsters?2Zombie?2Bluered?4TRN?$AA@ DB 'Monsters\Zombie\Bl'
	DB	'uered.TRN', 00H				; `string'
_DATA	ENDS
;	COMDAT ??_C@_05EMI@Ghoul?$AA@
_DATA	SEGMENT
??_C@_05EMI@Ghoul?$AA@ DB 'Ghoul', 00H			; `string'
_DATA	ENDS
;	COMDAT ??_C@_0BJ@PMIC@Monsters?2Zombie?2Grey?4TRN?$AA@
_DATA	SEGMENT
??_C@_0BJ@PMIC@Monsters?2Zombie?2Grey?4TRN?$AA@ DB 'Monsters\Zombie\Grey.'
	DB	'TRN', 00H					; `string'
_DATA	ENDS
;	COMDAT ??_C@_0BA@CBFH@Rotting?5Carcass?$AA@
_DATA	SEGMENT
??_C@_0BA@CBFH@Rotting?5Carcass?$AA@ DB 'Rotting Carcass', 00H ; `string'
_DATA	ENDS
;	COMDAT ??_C@_0BL@NLEA@Monsters?2Zombie?2Yellow?4TRN?$AA@
_DATA	SEGMENT
??_C@_0BL@NLEA@Monsters?2Zombie?2Yellow?4TRN?$AA@ DB 'Monsters\Zombie\Yel'
	DB	'low.TRN', 00H				; `string'
_DATA	ENDS
;	COMDAT ??_C@_0M@IKLP@Black?5Death?$AA@
_DATA	SEGMENT
??_C@_0M@IKLP@Black?5Death?$AA@ DB 'Black Death', 00H	; `string'
_DATA	ENDS
;	COMDAT ??_C@_0BO@OOMI@Monsters?2FalSpear?2Phall?$CFc?4CL2?$AA@
_DATA	SEGMENT
??_C@_0BO@OOMI@Monsters?2FalSpear?2Phall?$CFc?4CL2?$AA@ DB 'Monsters\FalS'
	DB	'pear\Phall%c.CL2', 00H			; `string'
_DATA	ENDS
;	COMDAT ??_C@_0CA@LICE@Monsters?2FalSpear?2Phall?$CFc?$CFi?4WAV?$AA@
_DATA	SEGMENT
??_C@_0CA@LICE@Monsters?2FalSpear?2Phall?$CFc?$CFi?4WAV?$AA@ DB 'Monsters'
	DB	'\FalSpear\Phall%c%i.WAV', 00H		; `string'
_DATA	ENDS
;	COMDAT ??_C@_0BO@MBIF@Monsters?2FalSpear?2FallenT?4TRN?$AA@
_DATA	SEGMENT
??_C@_0BO@MBIF@Monsters?2FalSpear?2FallenT?4TRN?$AA@ DB 'Monsters\FalSpea'
	DB	'r\FallenT.TRN', 00H				; `string'
_DATA	ENDS
;	COMDAT ??_C@_0L@IHGK@Fallen?5One?$AA@
_DATA	SEGMENT
??_C@_0L@IHGK@Fallen?5One?$AA@ DB 'Fallen One', 00H	; `string'
_DATA	ENDS
;	COMDAT ??_C@_0BL@NGAB@Monsters?2FalSpear?2Dark?4TRN?$AA@
_DATA	SEGMENT
??_C@_0BL@NGAB@Monsters?2FalSpear?2Dark?4TRN?$AA@ DB 'Monsters\FalSpear\D'
	DB	'ark.TRN', 00H				; `string'
_DATA	ENDS
;	COMDAT ??_C@_06KIJL@Carver?$AA@
_DATA	SEGMENT
??_C@_06KIJL@Carver?$AA@ DB 'Carver', 00H		; `string'
_DATA	ENDS
;	COMDAT ??_C@_09CFFL@Devil?5Kin?$AA@
_DATA	SEGMENT
??_C@_09CFFL@Devil?5Kin?$AA@ DB 'Devil Kin', 00H	; `string'
_DATA	ENDS
;	COMDAT ??_C@_0BL@KPBN@Monsters?2FalSpear?2Blue?4TRN?$AA@
_DATA	SEGMENT
??_C@_0BL@KPBN@Monsters?2FalSpear?2Blue?4TRN?$AA@ DB 'Monsters\FalSpear\B'
	DB	'lue.TRN', 00H				; `string'
_DATA	ENDS
;	COMDAT ??_C@_08HICJ@Dark?5One?$AA@
_DATA	SEGMENT
??_C@_08HICJ@Dark?5One?$AA@ DB 'Dark One', 00H		; `string'
_DATA	ENDS
;	COMDAT ??_C@_0BN@KBEI@Monsters?2SkelAxe?2SklAx?$CFc?4CL2?$AA@
_DATA	SEGMENT
??_C@_0BN@KBEI@Monsters?2SkelAxe?2SklAx?$CFc?4CL2?$AA@ DB 'Monsters\SkelA'
	DB	'xe\SklAx%c.CL2', 00H			; `string'
_DATA	ENDS
;	COMDAT ??_C@_0BP@IJNN@Monsters?2SkelAxe?2SklAx?$CFc?$CFi?4WAV?$AA@
_DATA	SEGMENT
??_C@_0BP@IJNN@Monsters?2SkelAxe?2SklAx?$CFc?$CFi?4WAV?$AA@ DB 'Monsters\'
	DB	'SkelAxe\SklAx%c%i.WAV', 00H			; `string'
_DATA	ENDS
;	COMDAT ??_C@_0BL@LDMJ@Monsters?2SkelAxe?2White?4TRN?$AA@
_DATA	SEGMENT
??_C@_0BL@LDMJ@Monsters?2SkelAxe?2White?4TRN?$AA@ DB 'Monsters\SkelAxe\Wh'
	DB	'ite.TRN', 00H				; `string'
_DATA	ENDS
;	COMDAT ??_C@_08KFBC@Skeleton?$AA@
_DATA	SEGMENT
??_C@_08KFBC@Skeleton?$AA@ DB 'Skeleton', 00H		; `string'
_DATA	ENDS
;	COMDAT ??_C@_0BL@PJBC@Monsters?2SkelAxe?2Skelt?4TRN?$AA@
_DATA	SEGMENT
??_C@_0BL@PJBC@Monsters?2SkelAxe?2Skelt?4TRN?$AA@ DB 'Monsters\SkelAxe\Sk'
	DB	'elt.TRN', 00H				; `string'
_DATA	ENDS
;	COMDAT ??_C@_0L@FLJI@Corpse?5Axe?$AA@
_DATA	SEGMENT
??_C@_0L@FLJI@Corpse?5Axe?$AA@ DB 'Corpse Axe', 00H	; `string'
_DATA	ENDS
;	COMDAT ??_C@_0N@OPIP@Burning?5Dead?$AA@
_DATA	SEGMENT
??_C@_0N@OPIP@Burning?5Dead?$AA@ DB 'Burning Dead', 00H	; `string'
_DATA	ENDS
;	COMDAT ??_C@_0BL@HLKD@Monsters?2SkelAxe?2Black?4TRN?$AA@
_DATA	SEGMENT
??_C@_0BL@HLKD@Monsters?2SkelAxe?2Black?4TRN?$AA@ DB 'Monsters\SkelAxe\Bl'
	DB	'ack.TRN', 00H				; `string'
_DATA	ENDS
;	COMDAT ??_C@_06KKNE@Horror?$AA@
_DATA	SEGMENT
??_C@_06KKNE@Horror?$AA@ DB 'Horror', 00H		; `string'
_DATA	ENDS
;	COMDAT ??_C@_0BN@DAFP@Monsters?2FalSword?2Fall?$CFc?4CL2?$AA@
_DATA	SEGMENT
??_C@_0BN@DAFP@Monsters?2FalSword?2Fall?$CFc?4CL2?$AA@ DB 'Monsters\FalSw'
	DB	'ord\Fall%c.CL2', 00H			; `string'
_DATA	ENDS
;	COMDAT ??_C@_0BP@LKDH@Monsters?2FalSword?2Fall?$CFc?$CFi?4WAV?$AA@
_DATA	SEGMENT
??_C@_0BP@LKDH@Monsters?2FalSword?2Fall?$CFc?$CFi?4WAV?$AA@ DB 'Monsters\'
	DB	'FalSword\Fall%c%i.WAV', 00H			; `string'
_DATA	ENDS
;	COMDAT ??_C@_0BO@KANN@Monsters?2FalSword?2FallenT?4TRN?$AA@
_DATA	SEGMENT
??_C@_0BO@KANN@Monsters?2FalSword?2FallenT?4TRN?$AA@ DB 'Monsters\FalSwor'
	DB	'd\FallenT.TRN', 00H				; `string'
_DATA	ENDS
;	COMDAT ??_C@_0BL@JPEE@Monsters?2FalSword?2Dark?4TRN?$AA@
_DATA	SEGMENT
??_C@_0BL@JPEE@Monsters?2FalSword?2Dark?4TRN?$AA@ DB 'Monsters\FalSword\D'
	DB	'ark.TRN', 00H				; `string'
_DATA	ENDS
;	COMDAT ??_C@_0BL@OGFI@Monsters?2FalSword?2Blue?4TRN?$AA@
_DATA	SEGMENT
??_C@_0BL@OGFI@Monsters?2FalSword?2Blue?4TRN?$AA@ DB 'Monsters\FalSword\B'
	DB	'lue.TRN', 00H				; `string'
_DATA	ENDS
;	COMDAT ??_C@_0BJ@BBLM@Monsters?2Scav?2Scav?$CFc?4CL2?$AA@
_DATA	SEGMENT
??_C@_0BJ@BBLM@Monsters?2Scav?2Scav?$CFc?4CL2?$AA@ DB 'Monsters\Scav\Scav'
	DB	'%c.CL2', 00H				; `string'
_DATA	ENDS
;	COMDAT ??_C@_0BL@FEJI@Monsters?2Scav?2Scav?$CFc?$CFi?4WAV?$AA@
_DATA	SEGMENT
??_C@_0BL@FEJI@Monsters?2Scav?2Scav?$CFc?$CFi?4WAV?$AA@ DB 'Monsters\Scav'
	DB	'\Scav%c%i.WAV', 00H				; `string'
_DATA	ENDS
;	COMDAT ??_C@_09ODLB@Scavenger?$AA@
_DATA	SEGMENT
??_C@_09ODLB@Scavenger?$AA@ DB 'Scavenger', 00H		; `string'
_DATA	ENDS
;	COMDAT ??_C@_0BJ@BABM@Monsters?2Scav?2ScavBr?4TRN?$AA@
_DATA	SEGMENT
??_C@_0BJ@BABM@Monsters?2Scav?2ScavBr?4TRN?$AA@ DB 'Monsters\Scav\ScavBr.'
	DB	'TRN', 00H					; `string'
_DATA	ENDS
;	COMDAT ??_C@_0N@GMAL@Plague?5Eater?$AA@
_DATA	SEGMENT
??_C@_0N@GMAL@Plague?5Eater?$AA@ DB 'Plague Eater', 00H	; `string'
_DATA	ENDS
;	COMDAT ??_C@_0BJ@HCLD@Monsters?2Scav?2ScavBe?4TRN?$AA@
_DATA	SEGMENT
??_C@_0BJ@HCLD@Monsters?2Scav?2ScavBe?4TRN?$AA@ DB 'Monsters\Scav\ScavBe.'
	DB	'TRN', 00H					; `string'
_DATA	ENDS
;	COMDAT ??_C@_0N@PNNC@Shadow?5Beast?$AA@
_DATA	SEGMENT
??_C@_0N@PNNC@Shadow?5Beast?$AA@ DB 'Shadow Beast', 00H	; `string'
_DATA	ENDS
;	COMDAT ??_C@_0BI@HIBO@Monsters?2Scav?2ScavW?4TRN?$AA@
_DATA	SEGMENT
??_C@_0BI@HIBO@Monsters?2Scav?2ScavW?4TRN?$AA@ DB 'Monsters\Scav\ScavW.TR'
	DB	'N', 00H					; `string'
_DATA	ENDS
;	COMDAT ??_C@_0M@NJCA@Bone?5Gasher?$AA@
_DATA	SEGMENT
??_C@_0M@NJCA@Bone?5Gasher?$AA@ DB 'Bone Gasher', 00H	; `string'
_DATA	ENDS
;	COMDAT ??_C@_0BN@FDDL@Monsters?2SkelBow?2SklBw?$CFc?4CL2?$AA@
_DATA	SEGMENT
??_C@_0BN@FDDL@Monsters?2SkelBow?2SklBw?$CFc?4CL2?$AA@ DB 'Monsters\SkelB'
	DB	'ow\SklBw%c.CL2', 00H			; `string'
_DATA	ENDS
;	COMDAT ??_C@_0BP@OGC@Monsters?2SkelBow?2SklBw?$CFc?$CFi?4WAV?$AA@
_DATA	SEGMENT
??_C@_0BP@OGC@Monsters?2SkelBow?2SklBw?$CFc?$CFi?4WAV?$AA@ DB 'Monsters\S'
	DB	'kelBow\SklBw%c%i.WAV', 00H			; `string'
_DATA	ENDS
;	COMDAT ??_C@_0BL@OCKB@Monsters?2SkelBow?2White?4TRN?$AA@
_DATA	SEGMENT
??_C@_0BL@OCKB@Monsters?2SkelBow?2White?4TRN?$AA@ DB 'Monsters\SkelBow\Wh'
	DB	'ite.TRN', 00H				; `string'
_DATA	ENDS
;	COMDAT ??_C@_0BL@KIHK@Monsters?2SkelBow?2Skelt?4TRN?$AA@
_DATA	SEGMENT
??_C@_0BL@KIHK@Monsters?2SkelBow?2Skelt?4TRN?$AA@ DB 'Monsters\SkelBow\Sk'
	DB	'elt.TRN', 00H				; `string'
_DATA	ENDS
;	COMDAT ??_C@_0L@FKAB@Corpse?5Bow?$AA@
_DATA	SEGMENT
??_C@_0L@FKAB@Corpse?5Bow?$AA@ DB 'Corpse Bow', 00H	; `string'
_DATA	ENDS
;	COMDAT ??_C@_0BL@CKML@Monsters?2SkelBow?2Black?4TRN?$AA@
_DATA	SEGMENT
??_C@_0BL@CKML@Monsters?2SkelBow?2Black?4TRN?$AA@ DB 'Monsters\SkelBow\Bl'
	DB	'ack.TRN', 00H				; `string'
_DATA	ENDS
;	COMDAT ??_C@_0BM@LPCM@Monsters?2SkelSd?2SklSr?$CFc?4CL2?$AA@
_DATA	SEGMENT
??_C@_0BM@LPCM@Monsters?2SkelSd?2SklSr?$CFc?4CL2?$AA@ DB 'Monsters\SkelSd'
	DB	'\SklSr%c.CL2', 00H				; `string'
_DATA	ENDS
;	COMDAT ??_C@_0BO@JGHO@Monsters?2SkelSd?2SklSr?$CFc?$CFi?4WAV?$AA@
_DATA	SEGMENT
??_C@_0BO@JGHO@Monsters?2SkelSd?2SklSr?$CFc?$CFi?4WAV?$AA@ DB 'Monsters\S'
	DB	'kelSd\SklSr%c%i.WAV', 00H			; `string'
_DATA	ENDS
;	COMDAT ??_C@_0BK@FEKE@Monsters?2SkelSd?2White?4TRN?$AA@
_DATA	SEGMENT
??_C@_0BK@FEKE@Monsters?2SkelSd?2White?4TRN?$AA@ DB 'Monsters\SkelSd\Whit'
	DB	'e.TRN', 00H					; `string'
_DATA	ENDS
;	COMDAT ??_C@_0BB@OJGC@Skeleton?5Captain?$AA@
_DATA	SEGMENT
??_C@_0BB@OJGC@Skeleton?5Captain?$AA@ DB 'Skeleton Captain', 00H ; `string'
_DATA	ENDS
;	COMDAT ??_C@_0BK@BOHP@Monsters?2SkelSd?2Skelt?4TRN?$AA@
_DATA	SEGMENT
??_C@_0BK@BOHP@Monsters?2SkelSd?2Skelt?4TRN?$AA@ DB 'Monsters\SkelSd\Skel'
	DB	't.TRN', 00H					; `string'
_DATA	ENDS
;	COMDAT ??_C@_0P@ONID@Corpse?5Captain?$AA@
_DATA	SEGMENT
??_C@_0P@ONID@Corpse?5Captain?$AA@ DB 'Corpse Captain', 00H ; `string'
_DATA	ENDS
;	COMDAT ??_C@_0BF@LNCI@Burning?5Dead?5Captain?$AA@
_DATA	SEGMENT
??_C@_0BF@LNCI@Burning?5Dead?5Captain?$AA@ DB 'Burning Dead Captain', 00H ; `string'
_DATA	ENDS
;	COMDAT ??_C@_0BK@JMMO@Monsters?2SkelSd?2Black?4TRN?$AA@
_DATA	SEGMENT
??_C@_0BK@JMMO@Monsters?2SkelSd?2Black?4TRN?$AA@ DB 'Monsters\SkelSd\Blac'
	DB	'k.TRN', 00H					; `string'
_DATA	ENDS
;	COMDAT ??_C@_0P@MKB@Horror?5Captain?$AA@
_DATA	SEGMENT
??_C@_0P@MKB@Horror?5Captain?$AA@ DB 'Horror Captain', 00H ; `string'
_DATA	ENDS
;	COMDAT ??_C@_0BN@EHND@Monsters?2TSneak?2TSneak?$CFc?4CL2?$AA@
_DATA	SEGMENT
??_C@_0BN@EHND@Monsters?2TSneak?2TSneak?$CFc?4CL2?$AA@ DB 'Monsters\TSnea'
	DB	'k\TSneak%c.CL2', 00H			; `string'
_DATA	ENDS
;	COMDAT ??_C@_0BP@FIIK@Monsters?2TSneak?2Sneakl?$CFc?$CFi?4WAV?$AA@
_DATA	SEGMENT
??_C@_0BP@FIIK@Monsters?2TSneak?2Sneakl?$CFc?$CFi?4WAV?$AA@ DB 'Monsters\'
	DB	'TSneak\Sneakl%c%i.WAV', 00H			; `string'
_DATA	ENDS
;	COMDAT ??_C@_0P@KBCM@Invisible?5Lord?$AA@
_DATA	SEGMENT
??_C@_0P@KBCM@Invisible?5Lord?$AA@ DB 'Invisible Lord', 00H ; `string'
_DATA	ENDS
;	COMDAT ??_C@_0BL@OIAO@Monsters?2Sneak?2Sneak?$CFc?4CL2?$AA@
_DATA	SEGMENT
??_C@_0BL@OIAO@Monsters?2Sneak?2Sneak?$CFc?4CL2?$AA@ DB 'Monsters\Sneak\S'
	DB	'neak%c.CL2', 00H				; `string'
_DATA	ENDS
;	COMDAT ??_C@_0BN@IEAE@Monsters?2Sneak?2Sneak?$CFc?$CFi?4WAV?$AA@
_DATA	SEGMENT
??_C@_0BN@IEAE@Monsters?2Sneak?2Sneak?$CFc?$CFi?4WAV?$AA@ DB 'Monsters\Sn'
	DB	'eak\Sneak%c%i.WAV', 00H			; `string'
_DATA	ENDS
;	COMDAT ??_C@_06OCEO@Hidden?$AA@
_DATA	SEGMENT
??_C@_06OCEO@Hidden?$AA@ DB 'Hidden', 00H		; `string'
_DATA	ENDS
;	COMDAT ??_C@_0BL@FIHM@Monsters?2Sneak?2Sneakv2?4TRN?$AA@
_DATA	SEGMENT
??_C@_0BL@FIHM@Monsters?2Sneak?2Sneakv2?4TRN?$AA@ DB 'Monsters\Sneak\Snea'
	DB	'kv2.TRN', 00H				; `string'
_DATA	ENDS
;	COMDAT ??_C@_07JKLP@Stalker?$AA@
_DATA	SEGMENT
??_C@_07JKLP@Stalker?$AA@ DB 'Stalker', 00H		; `string'
_DATA	ENDS
;	COMDAT ??_C@_0BL@PIFJ@Monsters?2Sneak?2Sneakv3?4TRN?$AA@
_DATA	SEGMENT
??_C@_0BL@PIFJ@Monsters?2Sneak?2Sneakv3?4TRN?$AA@ DB 'Monsters\Sneak\Snea'
	DB	'kv3.TRN', 00H				; `string'
_DATA	ENDS
;	COMDAT ??_C@_06ELBO@Unseen?$AA@
_DATA	SEGMENT
??_C@_06ELBO@Unseen?$AA@ DB 'Unseen', 00H		; `string'
_DATA	ENDS
;	COMDAT ??_C@_0BL@LIBD@Monsters?2Sneak?2Sneakv1?4TRN?$AA@
_DATA	SEGMENT
??_C@_0BL@LIBD@Monsters?2Sneak?2Sneakv1?4TRN?$AA@ DB 'Monsters\Sneak\Snea'
	DB	'kv1.TRN', 00H				; `string'
_DATA	ENDS
;	COMDAT ??_C@_0BA@LANI@Illusion?5Weaver?$AA@
_DATA	SEGMENT
??_C@_0BA@LANI@Illusion?5Weaver?$AA@ DB 'Illusion Weaver', 00H ; `string'
_DATA	ENDS
;	COMDAT ??_C@_0BO@FGPM@Monsters?2GoatLord?2GoatL?$CFc?4CL2?$AA@
_DATA	SEGMENT
??_C@_0BO@FGPM@Monsters?2GoatLord?2GoatL?$CFc?4CL2?$AA@ DB 'Monsters\Goat'
	DB	'Lord\GoatL%c.CL2', 00H			; `string'
_DATA	ENDS
;	COMDAT ??_C@_0CA@ECCN@Monsters?2GoatLord?2Goatl?$CFc?$CFi?4WAV?$AA@
_DATA	SEGMENT
??_C@_0CA@ECCN@Monsters?2GoatLord?2Goatl?$CFc?$CFi?4WAV?$AA@ DB 'Monsters'
	DB	'\GoatLord\Goatl%c%i.WAV', 00H		; `string'
_DATA	ENDS
;	COMDAT ??_C@_0M@BAIA@Lord?5Sayter?$AA@
_DATA	SEGMENT
??_C@_0M@BAIA@Lord?5Sayter?$AA@ DB 'Lord Sayter', 00H	; `string'
_DATA	ENDS
;	COMDAT ??_C@_0BN@OGDO@Monsters?2GoatMace?2Goat?$CFc?4CL2?$AA@
_DATA	SEGMENT
??_C@_0BN@OGDO@Monsters?2GoatMace?2Goat?$CFc?4CL2?$AA@ DB 'Monsters\GoatM'
	DB	'ace\Goat%c.CL2', 00H			; `string'
_DATA	ENDS
;	COMDAT ??_C@_0BP@CPIM@Monsters?2GoatMace?2Goat?$CFc?$CFi?4WAV?$AA@
_DATA	SEGMENT
??_C@_0BP@CPIM@Monsters?2GoatMace?2Goat?$CFc?$CFi?4WAV?$AA@ DB 'Monsters\'
	DB	'GoatMace\Goat%c%i.WAV', 00H			; `string'
_DATA	ENDS
;	COMDAT ??_C@_0L@PPFJ@Flesh?5Clan?$AA@
_DATA	SEGMENT
??_C@_0L@PPFJ@Flesh?5Clan?$AA@ DB 'Flesh Clan', 00H	; `string'
_DATA	ENDS
;	COMDAT ??_C@_0BM@DGOA@Monsters?2GoatMace?2Beige?4TRN?$AA@
_DATA	SEGMENT
??_C@_0BM@DGOA@Monsters?2GoatMace?2Beige?4TRN?$AA@ DB 'Monsters\GoatMace\'
	DB	'Beige.TRN', 00H				; `string'
_DATA	ENDS
;	COMDAT ??_C@_0L@DDEJ@Stone?5Clan?$AA@
_DATA	SEGMENT
??_C@_0L@DDEJ@Stone?5Clan?$AA@ DB 'Stone Clan', 00H	; `string'
_DATA	ENDS
;	COMDAT ??_C@_0BK@IMBO@Monsters?2GoatMace?2Red?4TRN?$AA@
_DATA	SEGMENT
??_C@_0BK@IMBO@Monsters?2GoatMace?2Red?4TRN?$AA@ DB 'Monsters\GoatMace\Re'
	DB	'd.TRN', 00H					; `string'
_DATA	ENDS
;	COMDAT ??_C@_09NBOI@Fire?5Clan?$AA@
_DATA	SEGMENT
??_C@_09NBOI@Fire?5Clan?$AA@ DB 'Fire Clan', 00H	; `string'
_DATA	ENDS
;	COMDAT ??_C@_0BL@CPGA@Monsters?2GoatMace?2Gray?4TRN?$AA@
_DATA	SEGMENT
??_C@_0BL@CPGA@Monsters?2GoatMace?2Gray?4TRN?$AA@ DB 'Monsters\GoatMace\G'
	DB	'ray.TRN', 00H				; `string'
_DATA	ENDS
;	COMDAT ??_C@_0L@JFLE@Night?5Clan?$AA@
_DATA	SEGMENT
??_C@_0L@JFLE@Night?5Clan?$AA@ DB 'Night Clan', 00H	; `string'
_DATA	ENDS
;	COMDAT ??_C@_0BH@KIOP@Monsters?2Bat?2Bat?$CFc?4CL2?$AA@
_DATA	SEGMENT
??_C@_0BH@KIOP@Monsters?2Bat?2Bat?$CFc?4CL2?$AA@ DB 'Monsters\Bat\Bat%c.C'
	DB	'L2', 00H					; `string'
_DATA	ENDS
;	COMDAT ??_C@_0BJ@JLKA@Monsters?2Bat?2Bat?$CFc?$CFi?4WAV?$AA@
_DATA	SEGMENT
??_C@_0BJ@JLKA@Monsters?2Bat?2Bat?$CFc?$CFi?4WAV?$AA@ DB 'Monsters\Bat\Ba'
	DB	't%c%i.WAV', 00H				; `string'
_DATA	ENDS
;	COMDAT ??_C@_0BF@FLIN@Monsters?2Bat?2red?4trn?$AA@
_DATA	SEGMENT
??_C@_0BF@FLIN@Monsters?2Bat?2red?4trn?$AA@ DB 'Monsters\Bat\red.trn', 00H ; `string'
_DATA	ENDS
;	COMDAT ??_C@_05FJN@Fiend?$AA@
_DATA	SEGMENT
??_C@_05FJN@Fiend?$AA@ DB 'Fiend', 00H			; `string'
_DATA	ENDS
;	COMDAT ??_C@_05OMKA@Blink?$AA@
_DATA	SEGMENT
??_C@_05OMKA@Blink?$AA@ DB 'Blink', 00H			; `string'
_DATA	ENDS
;	COMDAT ??_C@_0BG@BDJF@Monsters?2Bat?2grey?4trn?$AA@
_DATA	SEGMENT
??_C@_0BG@BDJF@Monsters?2Bat?2grey?4trn?$AA@ DB 'Monsters\Bat\grey.trn', 00H ; `string'
_DATA	ENDS
;	COMDAT ??_C@_05MJLP@Gloom?$AA@
_DATA	SEGMENT
??_C@_05MJLP@Gloom?$AA@ DB 'Gloom', 00H			; `string'
_DATA	ENDS
;	COMDAT ??_C@_0BI@NFPN@Monsters?2Bat?2orange?4trn?$AA@
_DATA	SEGMENT
??_C@_0BI@NFPN@Monsters?2Bat?2orange?4trn?$AA@ DB 'Monsters\Bat\orange.tr'
	DB	'n', 00H					; `string'
_DATA	ENDS
;	COMDAT ??_C@_08NKDG@Familiar?$AA@
_DATA	SEGMENT
??_C@_08NKDG@Familiar?$AA@ DB 'Familiar', 00H		; `string'
_DATA	ENDS
;	COMDAT ??_C@_0BN@KDEJ@Monsters?2GoatBow?2GoatB?$CFc?4CL2?$AA@
_DATA	SEGMENT
??_C@_0BN@KDEJ@Monsters?2GoatBow?2GoatB?$CFc?4CL2?$AA@ DB 'Monsters\GoatB'
	DB	'ow\GoatB%c.CL2', 00H			; `string'
_DATA	ENDS
;	COMDAT ??_C@_0BP@DOBM@Monsters?2GoatBow?2GoatB?$CFc?$CFi?4WAV?$AA@
_DATA	SEGMENT
??_C@_0BP@DOBM@Monsters?2GoatBow?2GoatB?$CFc?$CFi?4WAV?$AA@ DB 'Monsters\'
	DB	'GoatBow\GoatB%c%i.WAV', 00H			; `string'
_DATA	ENDS
;	COMDAT ??_C@_0BL@NIME@Monsters?2GoatBow?2Beige?4TRN?$AA@
_DATA	SEGMENT
??_C@_0BL@NIME@Monsters?2GoatBow?2Beige?4TRN?$AA@ DB 'Monsters\GoatBow\Be'
	DB	'ige.TRN', 00H				; `string'
_DATA	ENDS
;	COMDAT ??_C@_0BJ@NLCC@Monsters?2GoatBow?2Red?4TRN?$AA@
_DATA	SEGMENT
??_C@_0BJ@NLCC@Monsters?2GoatBow?2Red?4TRN?$AA@ DB 'Monsters\GoatBow\Red.'
	DB	'TRN', 00H					; `string'
_DATA	ENDS
;	COMDAT ??_C@_0BK@LDH@Monsters?2GoatBow?2Gray?4TRN?$AA@
_DATA	SEGMENT
??_C@_0BK@LDH@Monsters?2GoatBow?2Gray?4TRN?$AA@ DB 'Monsters\GoatBow\Gray'
	DB	'.TRN', 00H					; `string'
_DATA	ENDS
;	COMDAT ??_C@_0BJ@CGEO@Monsters?2Acid?2Acid?$CFc?4CL2?$AA@
_DATA	SEGMENT
??_C@_0BJ@CGEO@Monsters?2Acid?2Acid?$CFc?4CL2?$AA@ DB 'Monsters\Acid\Acid'
	DB	'%c.CL2', 00H				; `string'
_DATA	ENDS
;	COMDAT ??_C@_0BL@HFAM@Monsters?2Acid?2Acid?$CFc?$CFi?4WAV?$AA@
_DATA	SEGMENT
??_C@_0BL@HFAM@Monsters?2Acid?2Acid?$CFc?$CFi?4WAV?$AA@ DB 'Monsters\Acid'
	DB	'\Acid%c%i.WAV', 00H				; `string'
_DATA	ENDS
;	COMDAT ??_C@_0L@NECC@Acid?5Beast?$AA@
_DATA	SEGMENT
??_C@_0L@NECC@Acid?5Beast?$AA@ DB 'Acid Beast', 00H	; `string'
_DATA	ENDS
;	COMDAT ??_C@_0BK@MMPI@Monsters?2Acid?2AcidBlk?4TRN?$AA@
_DATA	SEGMENT
??_C@_0BK@MMPI@Monsters?2Acid?2AcidBlk?4TRN?$AA@ DB 'Monsters\Acid\AcidBl'
	DB	'k.TRN', 00H					; `string'
_DATA	ENDS
;	COMDAT ??_C@_0P@NPHN@Poison?5Spitter?$AA@
_DATA	SEGMENT
??_C@_0P@NPHN@Poison?5Spitter?$AA@ DB 'Poison Spitter', 00H ; `string'
_DATA	ENDS
;	COMDAT ??_C@_0BI@KIAF@Monsters?2Acid?2AcidB?4TRN?$AA@
_DATA	SEGMENT
??_C@_0BI@KIAF@Monsters?2Acid?2AcidB?4TRN?$AA@ DB 'Monsters\Acid\AcidB.TR'
	DB	'N', 00H					; `string'
_DATA	ENDS
;	COMDAT ??_C@_09GJHH@Pit?5Beast?$AA@
_DATA	SEGMENT
??_C@_09GJHH@Pit?5Beast?$AA@ DB 'Pit Beast', 00H	; `string'
_DATA	ENDS
;	COMDAT ??_C@_0BI@KKFA@Monsters?2Acid?2AcidR?4TRN?$AA@
_DATA	SEGMENT
??_C@_0BI@KKFA@Monsters?2Acid?2AcidR?4TRN?$AA@ DB 'Monsters\Acid\AcidR.TR'
	DB	'N', 00H					; `string'
_DATA	ENDS
;	COMDAT ??_C@_08KCMP@Lava?5Maw?$AA@
_DATA	SEGMENT
??_C@_08KCMP@Lava?5Maw?$AA@ DB 'Lava Maw', 00H		; `string'
_DATA	ENDS
;	COMDAT ??_C@_0BL@OAFB@Monsters?2SKing?2SKing?$CFc?4CL2?$AA@
_DATA	SEGMENT
??_C@_0BL@OAFB@Monsters?2SKing?2SKing?$CFc?4CL2?$AA@ DB 'Monsters\SKing\S'
	DB	'King%c.CL2', 00H				; `string'
_DATA	ENDS
;	COMDAT ??_C@_0BN@KOJK@Monsters?2SKing?2SKing?$CFc?$CFi?4WAV?$AA@
_DATA	SEGMENT
??_C@_0BN@KOJK@Monsters?2SKing?2SKing?$CFc?$CFi?4WAV?$AA@ DB 'Monsters\SK'
	DB	'ing\SKing%c%i.WAV', 00H			; `string'
_DATA	ENDS
;	COMDAT ??_C@_0O@COOI@Skeleton?5King?$AA@
_DATA	SEGMENT
??_C@_0O@COOI@Skeleton?5King?$AA@ DB 'Skeleton King', 00H ; `string'
_DATA	ENDS
;	COMDAT ??_C@_0BJ@IFKI@Monsters?2FatC?2FatC?$CFc?4CL2?$AA@
_DATA	SEGMENT
??_C@_0BJ@IFKI@Monsters?2FatC?2FatC?$CFc?4CL2?$AA@ DB 'Monsters\FatC\FatC'
	DB	'%c.CL2', 00H				; `string'
_DATA	ENDS
;	COMDAT ??_C@_0BL@IGFL@Monsters?2FatC?2FatC?$CFc?$CFi?4WAV?$AA@
_DATA	SEGMENT
??_C@_0BL@IGFL@Monsters?2FatC?2FatC?$CFc?$CFi?4WAV?$AA@ DB 'Monsters\FatC'
	DB	'\FatC%c%i.WAV', 00H				; `string'
_DATA	ENDS
;	COMDAT ??_C@_0M@OGO@The?5Butcher?$AA@
_DATA	SEGMENT
??_C@_0M@OGO@The?5Butcher?$AA@ DB 'The Butcher', 00H	; `string'
_DATA	ENDS
;	COMDAT ??_C@_0BH@OEHI@Monsters?2Fat?2Fat?$CFc?4CL2?$AA@
_DATA	SEGMENT
??_C@_0BH@OEHI@Monsters?2Fat?2Fat?$CFc?4CL2?$AA@ DB 'Monsters\Fat\Fat%c.C'
	DB	'L2', 00H					; `string'
_DATA	ENDS
;	COMDAT ??_C@_0BJ@DLBO@Monsters?2Fat?2Fat?$CFc?$CFi?4WAV?$AA@
_DATA	SEGMENT
??_C@_0BJ@DLBO@Monsters?2Fat?2Fat?$CFc?$CFi?4WAV?$AA@ DB 'Monsters\Fat\Fa'
	DB	't%c%i.WAV', 00H				; `string'
_DATA	ENDS
;	COMDAT ??_C@_08FGOM@Overlord?$AA@
_DATA	SEGMENT
??_C@_08FGOM@Overlord?$AA@ DB 'Overlord', 00H		; `string'
_DATA	ENDS
;	COMDAT ??_C@_0BG@KPHM@Monsters?2Fat?2Blue?4TRN?$AA@
_DATA	SEGMENT
??_C@_0BG@KPHM@Monsters?2Fat?2Blue?4TRN?$AA@ DB 'Monsters\Fat\Blue.TRN', 00H ; `string'
_DATA	ENDS
;	COMDAT ??_C@_07BNOE@Mud?5Man?$AA@
_DATA	SEGMENT
??_C@_07BNOE@Mud?5Man?$AA@ DB 'Mud Man', 00H		; `string'
_DATA	ENDS
;	COMDAT ??_C@_0BG@JOFI@Monsters?2Fat?2FatB?4TRN?$AA@
_DATA	SEGMENT
??_C@_0BG@JOFI@Monsters?2Fat?2FatB?4TRN?$AA@ DB 'Monsters\Fat\FatB.TRN', 00H ; `string'
_DATA	ENDS
;	COMDAT ??_C@_0L@PHFJ@Toad?5Demon?$AA@
_DATA	SEGMENT
??_C@_0L@PHFJ@Toad?5Demon?$AA@ DB 'Toad Demon', 00H	; `string'
_DATA	ENDS
;	COMDAT ??_C@_0BG@BOMN@Monsters?2Fat?2FatF?4TRN?$AA@
_DATA	SEGMENT
??_C@_0BG@BOMN@Monsters?2Fat?2FatF?4TRN?$AA@ DB 'Monsters\Fat\FatF.TRN', 00H ; `string'
_DATA	ENDS
;	COMDAT ??_C@_0L@ELFK@Flayed?5One?$AA@
_DATA	SEGMENT
??_C@_0L@ELFK@Flayed?5One?$AA@ DB 'Flayed One', 00H	; `string'
_DATA	ENDS
;	COMDAT ??_C@_0BJ@OKOD@Monsters?2Worm?2Worm?$CFc?4CL2?$AA@
_DATA	SEGMENT
??_C@_0BJ@OKOD@Monsters?2Worm?2Worm?$CFc?4CL2?$AA@ DB 'Monsters\Worm\Worm'
	DB	'%c.CL2', 00H				; `string'
_DATA	ENDS
;	COMDAT ??_C@_04EEPE@Wyrm?$AA@
_DATA	SEGMENT
??_C@_04EEPE@Wyrm?$AA@ DB 'Wyrm', 00H			; `string'
_DATA	ENDS
;	COMDAT ??_C@_09HKKP@Cave?5Slug?$AA@
_DATA	SEGMENT
??_C@_09HKKP@Cave?5Slug?$AA@ DB 'Cave Slug', 00H	; `string'
_DATA	ENDS
;	COMDAT ??_C@_0L@KJLC@Devil?5Wyrm?$AA@
_DATA	SEGMENT
??_C@_0L@KJLC@Devil?5Wyrm?$AA@ DB 'Devil Wyrm', 00H	; `string'
_DATA	ENDS
;	COMDAT ??_C@_08DOKM@Devourer?$AA@
_DATA	SEGMENT
??_C@_08DOKM@Devourer?$AA@ DB 'Devourer', 00H		; `string'
_DATA	ENDS
;	COMDAT ??_C@_0BL@GJJN@Monsters?2Magma?2Magma?$CFc?4CL2?$AA@
_DATA	SEGMENT
??_C@_0BL@GJJN@Monsters?2Magma?2Magma?$CFc?4CL2?$AA@ DB 'Monsters\Magma\M'
	DB	'agma%c.CL2', 00H				; `string'
_DATA	ENDS
;	COMDAT ??_C@_0BN@LADC@Monsters?2Magma?2Magma?$CFc?$CFi?4WAV?$AA@
_DATA	SEGMENT
??_C@_0BN@LADC@Monsters?2Magma?2Magma?$CFc?$CFi?4WAV?$AA@ DB 'Monsters\Ma'
	DB	'gma\Magma%c%i.WAV', 00H			; `string'
_DATA	ENDS
;	COMDAT ??_C@_0M@BDIN@Magma?5Demon?$AA@
_DATA	SEGMENT
??_C@_0M@BDIN@Magma?5Demon?$AA@ DB 'Magma Demon', 00H	; `string'
_DATA	ENDS
;	COMDAT ??_C@_0BK@PAJG@Monsters?2Magma?2Yellow?4TRN?$AA@
_DATA	SEGMENT
??_C@_0BK@PAJG@Monsters?2Magma?2Yellow?4TRN?$AA@ DB 'Monsters\Magma\Yello'
	DB	'w.TRN', 00H					; `string'
_DATA	ENDS
;	COMDAT ??_C@_0M@BAA@Blood?5Stone?$AA@
_DATA	SEGMENT
??_C@_0M@BAA@Blood?5Stone?$AA@ DB 'Blood Stone', 00H	; `string'
_DATA	ENDS
;	COMDAT ??_C@_0BI@HBBI@Monsters?2Magma?2Blue?4TRN?$AA@
_DATA	SEGMENT
??_C@_0BI@HBBI@Monsters?2Magma?2Blue?4TRN?$AA@ DB 'Monsters\Magma\Blue.TR'
	DB	'N', 00H					; `string'
_DATA	ENDS
;	COMDAT ??_C@_0L@IKKA@Hell?5Stone?$AA@
_DATA	SEGMENT
??_C@_0L@IKKA@Hell?5Stone?$AA@ DB 'Hell Stone', 00H	; `string'
_DATA	ENDS
;	COMDAT ??_C@_0BJ@KPPL@Monsters?2Magma?2Wierd?4TRN?$AA@
_DATA	SEGMENT
??_C@_0BJ@KPPL@Monsters?2Magma?2Wierd?4TRN?$AA@ DB 'Monsters\Magma\Wierd.'
	DB	'TRN', 00H					; `string'
_DATA	ENDS
;	COMDAT ??_C@_09JMEO@Lava?5Lord?$AA@
_DATA	SEGMENT
??_C@_09JMEO@Lava?5Lord?$AA@ DB 'Lava Lord', 00H	; `string'
_DATA	ENDS
;	COMDAT ??_C@_0BL@DDCB@Monsters?2Rhino?2Rhino?$CFc?4CL2?$AA@
_DATA	SEGMENT
??_C@_0BL@DDCB@Monsters?2Rhino?2Rhino?$CFc?4CL2?$AA@ DB 'Monsters\Rhino\R'
	DB	'hino%c.CL2', 00H				; `string'
_DATA	ENDS
;	COMDAT ??_C@_0BN@INFH@Monsters?2Rhino?2Rhino?$CFc?$CFi?4WAV?$AA@
_DATA	SEGMENT
??_C@_0BN@INFH@Monsters?2Rhino?2Rhino?$CFc?$CFi?4WAV?$AA@ DB 'Monsters\Rh'
	DB	'ino\Rhino%c%i.WAV', 00H			; `string'
_DATA	ENDS
;	COMDAT ??_C@_0N@OLEB@Horned?5Demon?$AA@
_DATA	SEGMENT
??_C@_0N@OLEB@Horned?5Demon?$AA@ DB 'Horned Demon', 00H	; `string'
_DATA	ENDS
;	COMDAT ??_C@_0BK@MPLB@Monsters?2Rhino?2Orange?4TRN?$AA@
_DATA	SEGMENT
??_C@_0BK@MPLB@Monsters?2Rhino?2Orange?4TRN?$AA@ DB 'Monsters\Rhino\Orang'
	DB	'e.TRN', 00H					; `string'
_DATA	ENDS
;	COMDAT ??_C@_0L@EIAJ@Mud?5Runner?$AA@
_DATA	SEGMENT
??_C@_0L@EIAJ@Mud?5Runner?$AA@ DB 'Mud Runner', 00H	; `string'
_DATA	ENDS
;	COMDAT ??_C@_0BI@KPBF@Monsters?2Rhino?2Blue?4TRN?$AA@
_DATA	SEGMENT
??_C@_0BI@KPBF@Monsters?2Rhino?2Blue?4TRN?$AA@ DB 'Monsters\Rhino\Blue.TR'
	DB	'N', 00H					; `string'
_DATA	ENDS
;	COMDAT ??_C@_0O@HAFD@Frost?5Charger?$AA@
_DATA	SEGMENT
??_C@_0O@HAFD@Frost?5Charger?$AA@ DB 'Frost Charger', 00H ; `string'
_DATA	ENDS
;	COMDAT ??_C@_0BK@MHDK@Monsters?2Rhino?2RhinoB?4TRN?$AA@
_DATA	SEGMENT
??_C@_0BK@MHDK@Monsters?2Rhino?2RhinoB?4TRN?$AA@ DB 'Monsters\Rhino\Rhino'
	DB	'B.TRN', 00H					; `string'
_DATA	ENDS
;	COMDAT ??_C@_0O@FPB@Obsidian?5Lord?$AA@
_DATA	SEGMENT
??_C@_0O@FPB@Obsidian?5Lord?$AA@ DB 'Obsidian Lord', 00H ; `string'
_DATA	ENDS
;	COMDAT ??_C@_0BO@PCKO@Monsters?2Demskel?2Demskl?$CFc?4CL2?$AA@
_DATA	SEGMENT
??_C@_0BO@PCKO@Monsters?2Demskel?2Demskl?$CFc?4CL2?$AA@ DB 'Monsters\Dems'
	DB	'kel\Demskl%c.CL2', 00H			; `string'
_DATA	ENDS
;	COMDAT ??_C@_0BL@MEBK@Monsters?2Thin?2Thin?$CFc?$CFi?4WAV?$AA@
_DATA	SEGMENT
??_C@_0BL@MEBK@Monsters?2Thin?2Thin?$CFc?$CFi?4WAV?$AA@ DB 'Monsters\Thin'
	DB	'\Thin%c%i.WAV', 00H				; `string'
_DATA	ENDS
;	COMDAT ??_C@_0BJ@LDDE@Monsters?2Thin?2Thinv3?4TRN?$AA@
_DATA	SEGMENT
??_C@_0BJ@LDDE@Monsters?2Thin?2Thinv3?4TRN?$AA@ DB 'Monsters\Thin\Thinv3.'
	DB	'TRN', 00H					; `string'
_DATA	ENDS
;	COMDAT ??_C@_0L@LMNI@Bone?5Demon?$AA@
_DATA	SEGMENT
??_C@_0L@LMNI@Bone?5Demon?$AA@ DB 'Bone Demon', 00H	; `string'
_DATA	ENDS
;	COMDAT ??_C@_0BJ@KDGD@Monsters?2Thin?2Thin?$CFc?4CL2?$AA@
_DATA	SEGMENT
??_C@_0BJ@KDGD@Monsters?2Thin?2Thin?$CFc?4CL2?$AA@ DB 'Monsters\Thin\Thin'
	DB	'%c.CL2', 00H				; `string'
_DATA	ENDS
;	COMDAT ??_C@_09JDGN@Red?5Death?$AA@
_DATA	SEGMENT
??_C@_09JDGN@Red?5Death?$AA@ DB 'Red Death', 00H	; `string'
_DATA	ENDS
;	COMDAT ??_C@_0M@EOOB@Litch?5Demon?$AA@
_DATA	SEGMENT
??_C@_0M@EOOB@Litch?5Demon?$AA@ DB 'Litch Demon', 00H	; `string'
_DATA	ENDS
;	COMDAT ??_C@_0O@HMDJ@Undead?5Balrog?$AA@
_DATA	SEGMENT
??_C@_0O@HMDJ@Undead?5Balrog?$AA@ DB 'Undead Balrog', 00H ; `string'
_DATA	ENDS
;	COMDAT ??_C@_0BN@JOPB@Monsters?2Fireman?2FireM?$CFc?4CL2?$AA@
_DATA	SEGMENT
??_C@_0BN@JOPB@Monsters?2Fireman?2FireM?$CFc?4CL2?$AA@ DB 'Monsters\Firem'
	DB	'an\FireM%c.CL2', 00H			; `string'
_DATA	ENDS
;	COMDAT ??_C@_0M@LACM@Incinerator?$AA@
_DATA	SEGMENT
??_C@_0M@LACM@Incinerator?$AA@ DB 'Incinerator', 00H	; `string'
_DATA	ENDS
;	COMDAT ??_C@_0L@LNJN@Flame?5Lord?$AA@
_DATA	SEGMENT
??_C@_0L@LNJN@Flame?5Lord?$AA@ DB 'Flame Lord', 00H	; `string'
_DATA	ENDS
;	COMDAT ??_C@_09BBKL@Doom?5Fire?$AA@
_DATA	SEGMENT
??_C@_09BBKL@Doom?5Fire?$AA@ DB 'Doom Fire', 00H	; `string'
_DATA	ENDS
;	COMDAT ??_C@_0M@DMNI@Hell?5Burner?$AA@
_DATA	SEGMENT
??_C@_0M@DMNI@Hell?5Burner?$AA@ DB 'Hell Burner', 00H	; `string'
_DATA	ENDS
;	COMDAT ??_C@_09IKEH@Red?5Storm?$AA@
_DATA	SEGMENT
??_C@_09IKEH@Red?5Storm?$AA@ DB 'Red Storm', 00H	; `string'
_DATA	ENDS
;	COMDAT ??_C@_0M@ELEK@Storm?5Rider?$AA@
_DATA	SEGMENT
??_C@_0M@ELEK@Storm?5Rider?$AA@ DB 'Storm Rider', 00H	; `string'
_DATA	ENDS
;	COMDAT ??_C@_0BJ@BDBB@Monsters?2Thin?2Thinv2?4TRN?$AA@
_DATA	SEGMENT
??_C@_0BJ@BDBB@Monsters?2Thin?2Thinv2?4TRN?$AA@ DB 'Monsters\Thin\Thinv2.'
	DB	'TRN', 00H					; `string'
_DATA	ENDS
;	COMDAT ??_C@_0L@MPDM@Storm?5Lord?$AA@
_DATA	SEGMENT
??_C@_0L@MPDM@Storm?5Lord?$AA@ DB 'Storm Lord', 00H	; `string'
_DATA	ENDS
;	COMDAT ??_C@_0BJ@PDHO@Monsters?2Thin?2Thinv1?4TRN?$AA@
_DATA	SEGMENT
??_C@_0BJ@PDHO@Monsters?2Thin?2Thinv1?4TRN?$AA@ DB 'Monsters\Thin\Thinv1.'
	DB	'TRN', 00H					; `string'
_DATA	ENDS
;	COMDAT ??_C@_09GKHB@Maelstorm?$AA@
_DATA	SEGMENT
??_C@_09GKHB@Maelstorm?$AA@ DB 'Maelstorm', 00H		; `string'
_DATA	ENDS
;	COMDAT ??_C@_0BN@PDMB@Monsters?2BigFall?2Fallg?$CFc?4CL2?$AA@
_DATA	SEGMENT
??_C@_0BN@PDMB@Monsters?2BigFall?2Fallg?$CFc?4CL2?$AA@ DB 'Monsters\BigFa'
	DB	'll\Fallg%c.CL2', 00H			; `string'
_DATA	ENDS
;	COMDAT ??_C@_0BO@COGP@Monsters?2BigFall?2Bfal?$CFc?$CFi?4WAV?$AA@
_DATA	SEGMENT
??_C@_0BO@COGP@Monsters?2BigFall?2Bfal?$CFc?$CFi?4WAV?$AA@ DB 'Monsters\B'
	DB	'igFall\Bfal%c%i.WAV', 00H			; `string'
_DATA	ENDS
;	COMDAT ??_C@_0BA@FGGD@Devil?5Kin?5Brute?$AA@
_DATA	SEGMENT
??_C@_0BA@FGGD@Devil?5Kin?5Brute?$AA@ DB 'Devil Kin Brute', 00H ; `string'
_DATA	ENDS
;	COMDAT ??_C@_0BO@DCJK@Monsters?2Gargoyle?2Gargo?$CFc?4CL2?$AA@
_DATA	SEGMENT
??_C@_0BO@DCJK@Monsters?2Gargoyle?2Gargo?$CFc?4CL2?$AA@ DB 'Monsters\Garg'
	DB	'oyle\Gargo%c.CL2', 00H			; `string'
_DATA	ENDS
;	COMDAT ??_C@_0CA@OJJF@Monsters?2Gargoyle?2Gargo?$CFc?$CFi?4WAV?$AA@
_DATA	SEGMENT
??_C@_0CA@OJJF@Monsters?2Gargoyle?2Gargo?$CFc?$CFi?4WAV?$AA@ DB 'Monsters'
	DB	'\Gargoyle\Gargo%c%i.WAV', 00H		; `string'
_DATA	ENDS
;	COMDAT ??_C@_0N@CHBP@Winged?9Demon?$AA@
_DATA	SEGMENT
??_C@_0N@CHBP@Winged?9Demon?$AA@ DB 'Winged-Demon', 00H	; `string'
_DATA	ENDS
;	COMDAT ??_C@_0BL@GLPH@Monsters?2Gargoyle?2GarE?4TRN?$AA@
_DATA	SEGMENT
??_C@_0BL@GLPH@Monsters?2Gargoyle?2GarE?4TRN?$AA@ DB 'Monsters\Gargoyle\G'
	DB	'arE.TRN', 00H				; `string'
_DATA	ENDS
;	COMDAT ??_C@_08HND@Gargoyle?$AA@
_DATA	SEGMENT
??_C@_08HND@Gargoyle?$AA@ DB 'Gargoyle', 00H		; `string'
_DATA	ENDS
;	COMDAT ??_C@_0BN@KACC@Monsters?2Gargoyle?2GargBr?4TRN?$AA@
_DATA	SEGMENT
??_C@_0BN@KACC@Monsters?2Gargoyle?2GargBr?4TRN?$AA@ DB 'Monsters\Gargoyle'
	DB	'\GargBr.TRN', 00H				; `string'
_DATA	ENDS
;	COMDAT ??_C@_0L@JKAG@Blood?5Claw?$AA@
_DATA	SEGMENT
??_C@_0L@JKAG@Blood?5Claw?$AA@ DB 'Blood Claw', 00H	; `string'
_DATA	ENDS
;	COMDAT ??_C@_0BM@GEJG@Monsters?2Gargoyle?2GargB?4TRN?$AA@
_DATA	SEGMENT
??_C@_0BM@GEJG@Monsters?2Gargoyle?2GargB?4TRN?$AA@ DB 'Monsters\Gargoyle\'
	DB	'GargB.TRN', 00H				; `string'
_DATA	ENDS
;	COMDAT ??_C@_0L@CJIN@Death?5Wing?$AA@
_DATA	SEGMENT
??_C@_0L@CJIN@Death?5Wing?$AA@ DB 'Death Wing', 00H	; `string'
_DATA	ENDS
;	COMDAT ??_C@_0BJ@OHJC@Monsters?2Mega?2Mega?$CFc?4CL2?$AA@
_DATA	SEGMENT
??_C@_0BJ@OHJC@Monsters?2Mega?2Mega?$CFc?4CL2?$AA@ DB 'Monsters\Mega\Mega'
	DB	'%c.CL2', 00H				; `string'
_DATA	ENDS
;	COMDAT ??_C@_0BL@EJPE@Monsters?2Mega?2Mega?$CFc?$CFi?4WAV?$AA@
_DATA	SEGMENT
??_C@_0BL@EJPE@Monsters?2Mega?2Mega?$CFc?$CFi?4WAV?$AA@ DB 'Monsters\Mega'
	DB	'\Mega%c%i.WAV', 00H				; `string'
_DATA	ENDS
;	COMDAT ??_C@_06MHAA@Slayer?$AA@
_DATA	SEGMENT
??_C@_06MHAA@Slayer?$AA@ DB 'Slayer', 00H		; `string'
_DATA	ENDS
;	COMDAT ??_C@_0BI@KHJI@Monsters?2Mega?2Guard?4TRN?$AA@
_DATA	SEGMENT
??_C@_0BI@KHJI@Monsters?2Mega?2Guard?4TRN?$AA@ DB 'Monsters\Mega\Guard.TR'
	DB	'N', 00H					; `string'
_DATA	ENDS
;	COMDAT ??_C@_08KEIB@Guardian?$AA@
_DATA	SEGMENT
??_C@_08KEIB@Guardian?$AA@ DB 'Guardian', 00H		; `string'
_DATA	ENDS
;	COMDAT ??_C@_0BI@DEEB@Monsters?2Mega?2Vtexl?4TRN?$AA@
_DATA	SEGMENT
??_C@_0BI@DEEB@Monsters?2Mega?2Vtexl?4TRN?$AA@ DB 'Monsters\Mega\Vtexl.TR'
	DB	'N', 00H					; `string'
_DATA	ENDS
;	COMDAT ??_C@_0M@NBKI@Vortex?5Lord?$AA@
_DATA	SEGMENT
??_C@_0M@NBKI@Vortex?5Lord?$AA@ DB 'Vortex Lord', 00H	; `string'
_DATA	ENDS
;	COMDAT ??_C@_0BH@BNN@Monsters?2Mega?2Balr?4TRN?$AA@
_DATA	SEGMENT
??_C@_0BH@BNN@Monsters?2Mega?2Balr?4TRN?$AA@ DB 'Monsters\Mega\Balr.TRN', 00H ; `string'
_DATA	ENDS
;	COMDAT ??_C@_06OEIG@Balrog?$AA@
_DATA	SEGMENT
??_C@_06OEIG@Balrog?$AA@ DB 'Balrog', 00H		; `string'
_DATA	ENDS
;	COMDAT ??_C@_0BL@IHHM@Monsters?2Snake?2Snake?$CFc?4CL2?$AA@
_DATA	SEGMENT
??_C@_0BL@IHHM@Monsters?2Snake?2Snake?$CFc?4CL2?$AA@ DB 'Monsters\Snake\S'
	DB	'nake%c.CL2', 00H				; `string'
_DATA	ENDS
;	COMDAT ??_C@_0BN@NHII@Monsters?2Snake?2Snake?$CFc?$CFi?4WAV?$AA@
_DATA	SEGMENT
??_C@_0BN@NHII@Monsters?2Snake?2Snake?$CFc?$CFi?4WAV?$AA@ DB 'Monsters\Sn'
	DB	'ake\Snake%c%i.WAV', 00H			; `string'
_DATA	ENDS
;	COMDAT ??_C@_0L@PGLH@Cave?5Viper?$AA@
_DATA	SEGMENT
??_C@_0L@PGLH@Cave?5Viper?$AA@ DB 'Cave Viper', 00H	; `string'
_DATA	ENDS
;	COMDAT ??_C@_0BJ@LCBA@Monsters?2Snake?2SnakR?4TRN?$AA@
_DATA	SEGMENT
??_C@_0BJ@LCBA@Monsters?2Snake?2SnakR?4TRN?$AA@ DB 'Monsters\Snake\SnakR.'
	DB	'TRN', 00H					; `string'
_DATA	ENDS
;	COMDAT ??_C@_0L@GLJN@Fire?5Drake?$AA@
_DATA	SEGMENT
??_C@_0L@GLJN@Fire?5Drake?$AA@ DB 'Fire Drake', 00H	; `string'
_DATA	ENDS
;	COMDAT ??_C@_0BJ@JEFP@Monsters?2Snake?2Snakg?4TRN?$AA@
_DATA	SEGMENT
??_C@_0BJ@JEFP@Monsters?2Snake?2Snakg?4TRN?$AA@ DB 'Monsters\Snake\Snakg.'
	DB	'TRN', 00H					; `string'
_DATA	ENDS
;	COMDAT ??_C@_0L@CLBK@Gold?5Viper?$AA@
_DATA	SEGMENT
??_C@_0L@CLBK@Gold?5Viper?$AA@ DB 'Gold Viper', 00H	; `string'
_DATA	ENDS
;	COMDAT ??_C@_0BJ@LEOP@Monsters?2Snake?2Snakb?4TRN?$AA@
_DATA	SEGMENT
??_C@_0BJ@LEOP@Monsters?2Snake?2Snakb?4TRN?$AA@ DB 'Monsters\Snake\Snakb.'
	DB	'TRN', 00H					; `string'
_DATA	ENDS
;	COMDAT ??_C@_0M@FIHH@Azure?5Drake?$AA@
_DATA	SEGMENT
??_C@_0M@FIHH@Azure?5Drake?$AA@ DB 'Azure Drake', 00H	; `string'
_DATA	ENDS
;	COMDAT ??_C@_0BL@JDBP@Monsters?2Black?2Black?$CFc?4CL2?$AA@
_DATA	SEGMENT
??_C@_0BL@JDBP@Monsters?2Black?2Black?$CFc?4CL2?$AA@ DB 'Monsters\Black\B'
	DB	'lack%c.CL2', 00H				; `string'
_DATA	ENDS
;	COMDAT ??_C@_0BN@KHJ@Monsters?2Black?2Black?$CFc?$CFi?4WAV?$AA@
_DATA	SEGMENT
??_C@_0BN@KHJ@Monsters?2Black?2Black?$CFc?$CFi?4WAV?$AA@ DB 'Monsters\Bla'
	DB	'ck\Black%c%i.WAV', 00H			; `string'
_DATA	ENDS
;	COMDAT ??_C@_0N@PDGD@Black?5Knight?$AA@
_DATA	SEGMENT
??_C@_0N@PDGD@Black?5Knight?$AA@ DB 'Black Knight', 00H	; `string'
_DATA	ENDS
;	COMDAT ??_C@_0BM@GOHA@Monsters?2Black?2BlkKntRT?4TRN?$AA@
_DATA	SEGMENT
??_C@_0BM@GOHA@Monsters?2Black?2BlkKntRT?4TRN?$AA@ DB 'Monsters\Black\Blk'
	DB	'KntRT.TRN', 00H				; `string'
_DATA	ENDS
;	COMDAT ??_C@_0L@FPBM@Doom?5Guard?$AA@
_DATA	SEGMENT
??_C@_0L@FPBM@Doom?5Guard?$AA@ DB 'Doom Guard', 00H	; `string'
_DATA	ENDS
;	COMDAT ??_C@_0BM@DEHC@Monsters?2Black?2BlkKntBT?4TRN?$AA@
_DATA	SEGMENT
??_C@_0BM@DEHC@Monsters?2Black?2BlkKntBT?4TRN?$AA@ DB 'Monsters\Black\Blk'
	DB	'KntBT.TRN', 00H				; `string'
_DATA	ENDS
;	COMDAT ??_C@_0L@KLAH@Steel?5Lord?$AA@
_DATA	SEGMENT
??_C@_0L@KLAH@Steel?5Lord?$AA@ DB 'Steel Lord', 00H	; `string'
_DATA	ENDS
;	COMDAT ??_C@_0BM@JCKI@Monsters?2Black?2BlkKntBe?4TRN?$AA@
_DATA	SEGMENT
??_C@_0BM@JCKI@Monsters?2Black?2BlkKntBe?4TRN?$AA@ DB 'Monsters\Black\Blk'
	DB	'KntBe.TRN', 00H				; `string'
_DATA	ENDS
;	COMDAT ??_C@_0N@PCA@Blood?5Knight?$AA@
_DATA	SEGMENT
??_C@_0N@PCA@Blood?5Knight?$AA@ DB 'Blood Knight', 00H	; `string'
_DATA	ENDS
;	COMDAT ??_C@_0BL@CDKL@Monsters?2Unrav?2Unrav?$CFc?4CL2?$AA@
_DATA	SEGMENT
??_C@_0BL@CDKL@Monsters?2Unrav?2Unrav?$CFc?4CL2?$AA@ DB 'Monsters\Unrav\U'
	DB	'nrav%c.CL2', 00H				; `string'
_DATA	ENDS
;	COMDAT ??_C@_09KOLF@Unraveler?$AA@
_DATA	SEGMENT
??_C@_09KOLF@Unraveler?$AA@ DB 'Unraveler', 00H		; `string'
_DATA	ENDS
;	COMDAT ??_C@_0L@GDBP@Hollow?5One?$AA@
_DATA	SEGMENT
??_C@_0L@GDBP@Hollow?5One?$AA@ DB 'Hollow One', 00H	; `string'
_DATA	ENDS
;	COMDAT ??_C@_0M@FDGH@Pain?5Master?$AA@
_DATA	SEGMENT
??_C@_0M@FDGH@Pain?5Master?$AA@ DB 'Pain Master', 00H	; `string'
_DATA	ENDS
;	COMDAT ??_C@_0P@NDCP@Reality?5Weaver?$AA@
_DATA	SEGMENT
??_C@_0P@NDCP@Reality?5Weaver?$AA@ DB 'Reality Weaver', 00H ; `string'
_DATA	ENDS
;	COMDAT ??_C@_0BJ@DPMO@Monsters?2Succ?2Scbs?$CFc?4CL2?$AA@
_DATA	SEGMENT
??_C@_0BJ@DPMO@Monsters?2Succ?2Scbs?$CFc?4CL2?$AA@ DB 'Monsters\Succ\Scbs'
	DB	'%c.CL2', 00H				; `string'
_DATA	ENDS
;	COMDAT ??_C@_0BL@HGFB@Monsters?2Succ?2Scbs?$CFc?$CFi?4WAV?$AA@
_DATA	SEGMENT
??_C@_0BL@HGFB@Monsters?2Succ?2Scbs?$CFc?$CFi?4WAV?$AA@ DB 'Monsters\Succ'
	DB	'\Scbs%c%i.WAV', 00H				; `string'
_DATA	ENDS
;	COMDAT ??_C@_08FEBP@Succubus?$AA@
_DATA	SEGMENT
??_C@_08FEBP@Succubus?$AA@ DB 'Succubus', 00H		; `string'
_DATA	ENDS
;	COMDAT ??_C@_0BI@GKHN@Monsters?2Succ?2Succb?4TRN?$AA@
_DATA	SEGMENT
??_C@_0BI@GKHN@Monsters?2Succ?2Succb?4TRN?$AA@ DB 'Monsters\Succ\Succb.TR'
	DB	'N', 00H					; `string'
_DATA	ENDS
;	COMDAT ??_C@_0L@FPIO@Snow?5Witch?$AA@
_DATA	SEGMENT
??_C@_0L@FPIO@Snow?5Witch?$AA@ DB 'Snow Witch', 00H	; `string'
_DATA	ENDS
;	COMDAT ??_C@_0BJ@PIJO@Monsters?2Succ?2Succrw?4TRN?$AA@
_DATA	SEGMENT
??_C@_0BJ@PIJO@Monsters?2Succ?2Succrw?4TRN?$AA@ DB 'Monsters\Succ\Succrw.'
	DB	'TRN', 00H					; `string'
_DATA	ENDS
;	COMDAT ??_C@_0L@BHM@Hell?5Spawn?$AA@
_DATA	SEGMENT
??_C@_0L@BHM@Hell?5Spawn?$AA@ DB 'Hell Spawn', 00H	; `string'
_DATA	ENDS
;	COMDAT ??_C@_0BJ@KCJM@Monsters?2Succ?2Succbw?4TRN?$AA@
_DATA	SEGMENT
??_C@_0BJ@KCJM@Monsters?2Succ?2Succbw?4TRN?$AA@ DB 'Monsters\Succ\Succbw.'
	DB	'TRN', 00H					; `string'
_DATA	ENDS
;	COMDAT ??_C@_0M@GKNH@Soul?5Burner?$AA@
_DATA	SEGMENT
??_C@_0M@GKNH@Soul?5Burner?$AA@ DB 'Soul Burner', 00H	; `string'
_DATA	ENDS
;	COMDAT ??_C@_0BJ@GCAL@Monsters?2Mage?2Mage?$CFc?4CL2?$AA@
_DATA	SEGMENT
??_C@_0BJ@GCAL@Monsters?2Mage?2Mage?$CFc?4CL2?$AA@ DB 'Monsters\Mage\Mage'
	DB	'%c.CL2', 00H				; `string'
_DATA	ENDS
;	COMDAT ??_C@_0BL@OMKE@Monsters?2Mage?2Mage?$CFc?$CFi?4WAV?$AA@
_DATA	SEGMENT
??_C@_0BL@OMKE@Monsters?2Mage?2Mage?$CFc?$CFi?4WAV?$AA@ DB 'Monsters\Mage'
	DB	'\Mage%c%i.WAV', 00H				; `string'
_DATA	ENDS
;	COMDAT ??_C@_09HLJB@Counselor?$AA@
_DATA	SEGMENT
??_C@_09HLJB@Counselor?$AA@ DB 'Counselor', 00H		; `string'
_DATA	ENDS
;	COMDAT ??_C@_0BJ@IEPO@Monsters?2Mage?2Cnselg?4TRN?$AA@
_DATA	SEGMENT
??_C@_0BJ@IEPO@Monsters?2Mage?2Cnselg?4TRN?$AA@ DB 'Monsters\Mage\Cnselg.'
	DB	'TRN', 00H					; `string'
_DATA	ENDS
;	COMDAT ??_C@_0L@IHLC@Magistrate?$AA@
_DATA	SEGMENT
??_C@_0L@IHLC@Magistrate?$AA@ DB 'Magistrate', 00H	; `string'
_DATA	ENDS
;	COMDAT ??_C@_0BK@IAEI@Monsters?2Mage?2Cnselgd?4TRN?$AA@
_DATA	SEGMENT
??_C@_0BK@IAEI@Monsters?2Mage?2Cnselgd?4TRN?$AA@ DB 'Monsters\Mage\Cnselg'
	DB	'd.TRN', 00H					; `string'
_DATA	ENDS
;	COMDAT ??_C@_08EOGH@Cabalist?$AA@
_DATA	SEGMENT
??_C@_08EOGH@Cabalist?$AA@ DB 'Cabalist', 00H		; `string'
_DATA	ENDS
;	COMDAT ??_C@_0BK@CCLI@Monsters?2Mage?2Cnselbk?4TRN?$AA@
_DATA	SEGMENT
??_C@_0BK@CCLI@Monsters?2Mage?2Cnselbk?4TRN?$AA@ DB 'Monsters\Mage\Cnselb'
	DB	'k.TRN', 00H					; `string'
_DATA	ENDS
;	COMDAT ??_C@_08KFKH@Advocate?$AA@
_DATA	SEGMENT
??_C@_08KFKH@Advocate?$AA@ DB 'Advocate', 00H		; `string'
_DATA	ENDS
;	COMDAT ??_C@_0BL@HABD@Monsters?2Golem?2Golem?$CFc?4CL2?$AA@
_DATA	SEGMENT
??_C@_0BL@HABD@Monsters?2Golem?2Golem?$CFc?4CL2?$AA@ DB 'Monsters\Golem\G'
	DB	'olem%c.CL2', 00H				; `string'
_DATA	ENDS
;	COMDAT ??_C@_0BM@PJFI@Monsters?2Golem?2Golm?$CFc?$CFi?4WAV?$AA@
_DATA	SEGMENT
??_C@_0BM@PJFI@Monsters?2Golem?2Golm?$CFc?$CFi?4WAV?$AA@ DB 'Monsters\Gol'
	DB	'em\Golm%c%i.WAV', 00H			; `string'
_DATA	ENDS
;	COMDAT ??_C@_05MIHD@Golem?$AA@
_DATA	SEGMENT
??_C@_05MIHD@Golem?$AA@ DB 'Golem', 00H			; `string'
_DATA	ENDS
;	COMDAT ??_C@_0BN@LMBN@Monsters?2Diablo?2Diablo?$CFc?4CL2?$AA@
_DATA	SEGMENT
??_C@_0BN@LMBN@Monsters?2Diablo?2Diablo?$CFc?4CL2?$AA@ DB 'Monsters\Diabl'
	DB	'o\Diablo%c.CL2', 00H			; `string'
_DATA	ENDS
;	COMDAT ??_C@_0BP@FGDO@Monsters?2Diablo?2Diablo?$CFc?$CFi?4WAV?$AA@
_DATA	SEGMENT
??_C@_0BP@FGDO@Monsters?2Diablo?2Diablo?$CFc?$CFi?4WAV?$AA@ DB 'Monsters\'
	DB	'Diablo\Diablo%c%i.WAV', 00H			; `string'
_DATA	ENDS
;	COMDAT ??_C@_0O@FIFM@The?5Dark?5Lord?$AA@
_DATA	SEGMENT
??_C@_0O@FIFM@The?5Dark?5Lord?$AA@ DB 'The Dark Lord', 00H ; `string'
_DATA	ENDS
;	COMDAT ??_C@_0BO@BEOI@Monsters?2DarkMage?2Dmage?$CFc?4CL2?$AA@
_DATA	SEGMENT
??_C@_0BO@BEOI@Monsters?2DarkMage?2Dmage?$CFc?4CL2?$AA@ DB 'Monsters\Dark'
	DB	'Mage\Dmage%c.CL2', 00H			; `string'
_DATA	ENDS
;	COMDAT ??_C@_0BP@HJAJ@Monsters?2DarkMage?2Dmag?$CFc?$CFi?4WAV?$AA@
_DATA	SEGMENT
??_C@_0BP@HJAJ@Monsters?2DarkMage?2Dmag?$CFc?$CFi?4WAV?$AA@ DB 'Monsters\'
	DB	'DarkMage\Dmag%c%i.WAV', 00H			; `string'
_DATA	ENDS
;	COMDAT ??_C@_0BI@JDKB@The?5Arch?9Litch?5Malignus?$AA@
_DATA	SEGMENT
??_C@_0BI@JDKB@The?5Arch?9Litch?5Malignus?$AA@ DB 'The Arch-Litch Malignu'
	DB	's', 00H					; `string'
_DATA	ENDS
_DATA	SEGMENT
_monsterdata DD	080H
	DD	031fH
	DD	FLAT:??_C@_0BN@IMIC@Monsters?2Zombie?2Zombie?$CFc?4CL2?$AA@
	DD	00H
	DD	FLAT:??_C@_0BP@IHKO@Monsters?2Zombie?2Zombie?$CFc?$CFi?4WAV?$AA@
	DD	00H
	DD	00H
	DD	00H
	DD	0bH
	DD	018H
	DD	0cH
	DD	06H
	DD	010H
	DD	00H
	DD	04H
	DD	00H
	DD	00H
	DD	00H
	DD	00H
	DD	00H
	DD	FLAT:??_C@_06PEJJ@Zombie?$AA@
	DB	01H
	DB	03H
	DB	01H
	ORG $+1
	DD	04H
	DD	07H
	DB	00H
	ORG $+3
	DD	00H
	DB	00H
	DB	0aH
	DB	08H
	DB	02H
	DB	05H
	DB	00H
	DB	00H
	DB	00H
	DB	00H
	DB	05H
	DB	00H
	ORG $+1
	DW	048H
	DW	048H
	DW	00H
	DB	03H
	ORG $+1
	DW	036H
	ORG $+2
	DD	080H
	DD	031fH
	DD	FLAT:??_C@_0BN@IMIC@Monsters?2Zombie?2Zombie?$CFc?4CL2?$AA@
	DD	00H
	DD	FLAT:??_C@_0BP@IHKO@Monsters?2Zombie?2Zombie?$CFc?$CFi?4WAV?$AA@
	DD	00H
	DD	01H
	DD	FLAT:??_C@_0BM@OMHC@Monsters?2Zombie?2Bluered?4TRN?$AA@
	DD	0bH
	DD	018H
	DD	0cH
	DD	06H
	DD	010H
	DD	00H
	DD	04H
	DD	00H
	DD	00H
	DD	00H
	DD	00H
	DD	00H
	DD	FLAT:??_C@_05EMI@Ghoul?$AA@
	DB	02H
	DB	04H
	DB	02H
	ORG $+1
	DD	07H
	DD	0bH
	DB	00H
	ORG $+3
	DD	00H
	DB	01H
	DB	0aH
	DB	08H
	DB	03H
	DB	0aH
	DB	00H
	DB	00H
	DB	00H
	DB	00H
	DB	0aH
	DB	00H
	ORG $+1
	DW	048H
	DW	048H
	DW	00H
	DB	03H
	ORG $+1
	DW	03aH
	ORG $+2
	DD	080H
	DD	031fH
	DD	FLAT:??_C@_0BN@IMIC@Monsters?2Zombie?2Zombie?$CFc?4CL2?$AA@
	DD	00H
	DD	FLAT:??_C@_0BP@IHKO@Monsters?2Zombie?2Zombie?$CFc?$CFi?4WAV?$AA@
	DD	00H
	DD	01H
	DD	FLAT:??_C@_0BJ@PMIC@Monsters?2Zombie?2Grey?4TRN?$AA@
	DD	0bH
	DD	018H
	DD	0cH
	DD	06H
	DD	010H
	DD	00H
	DD	04H
	DD	00H
	DD	00H
	DD	00H
	DD	00H
	DD	00H
	DD	FLAT:??_C@_0BA@CBFH@Rotting?5Carcass?$AA@
	DB	02H
	DB	06H
	DB	04H
	ORG $+1
	DD	0fH
	DD	019H
	DB	00H
	ORG $+3
	DD	00H
	DB	02H
	DB	019H
	DB	08H
	DB	05H
	DB	0fH
	DB	00H
	DB	00H
	DB	00H
	DB	00H
	DB	0fH
	DB	00H
	ORG $+1
	DW	048H
	DW	04aH
	DW	00H
	DB	03H
	ORG $+1
	DW	088H
	ORG $+2
	DD	080H
	DD	031fH
	DD	FLAT:??_C@_0BN@IMIC@Monsters?2Zombie?2Zombie?$CFc?4CL2?$AA@
	DD	00H
	DD	FLAT:??_C@_0BP@IHKO@Monsters?2Zombie?2Zombie?$CFc?$CFi?4WAV?$AA@
	DD	00H
	DD	01H
	DD	FLAT:??_C@_0BL@NLEA@Monsters?2Zombie?2Yellow?4TRN?$AA@
	DD	0bH
	DD	018H
	DD	0cH
	DD	06H
	DD	010H
	DD	00H
	DD	04H
	DD	00H
	DD	00H
	DD	00H
	DD	00H
	DD	00H
	DD	FLAT:??_C@_0M@IKLP@Black?5Death?$AA@
	DB	04H
	DB	08H
	DB	06H
	ORG $+1
	DD	019H
	DD	028H
	DB	00H
	ORG $+3
	DD	00H
	DB	03H
	DB	01eH
	DB	08H
	DB	06H
	DB	016H
	DB	00H
	DB	00H
	DB	00H
	DB	00H
	DB	014H
	DB	00H
	ORG $+1
	DW	048H
	DW	04cH
	DW	00H
	DB	03H
	ORG $+1
	DW	0f0H
	ORG $+2
	DD	080H
	DD	021fH
	DD	FLAT:??_C@_0BO@OOMI@Monsters?2FalSpear?2Phall?$CFc?4CL2?$AA@
	DD	01H
	DD	FLAT:??_C@_0CA@LICE@Monsters?2FalSpear?2Phall?$CFc?$CFi?4WAV?$AA@
	DD	01H
	DD	01H
	DD	FLAT:??_C@_0BO@MBIF@Monsters?2FalSpear?2FallenT?4TRN?$AA@
	DD	0bH
	DD	0bH
	DD	0dH
	DD	0bH
	DD	012H
	DD	0dH
	DD	03H
	DD	00H
	DD	00H
	DD	00H
	DD	00H
	DD	00H
	DD	FLAT:??_C@_0L@IHGK@Fallen?5One?$AA@
	DB	01H
	DB	03H
	DB	01H
	ORG $+1
	DD	01H
	DD	04H
	DB	08H
	ORG $+3
	DD	00H
	DB	00H
	DB	0fH
	DB	07H
	DB	01H
	DB	03H
	DB	00H
	DB	05H
	DB	00H
	DB	00H
	DB	00H
	DB	02H
	ORG $+1
	DW	00H
	DW	00H
	DW	00H
	DB	03H
	ORG $+1
	DW	02eH
	ORG $+2
	DD	080H
	DD	021fH
	DD	FLAT:??_C@_0BO@OOMI@Monsters?2FalSpear?2Phall?$CFc?4CL2?$AA@
	DD	01H
	DD	FLAT:??_C@_0CA@LICE@Monsters?2FalSpear?2Phall?$CFc?$CFi?4WAV?$AA@
	DD	01H
	DD	01H
	DD	FLAT:??_C@_0BL@NGAB@Monsters?2FalSpear?2Dark?4TRN?$AA@
	DD	0bH
	DD	0bH
	DD	0dH
	DD	0bH
	DD	012H
	DD	0dH
	DD	03H
	DD	00H
	DD	00H
	DD	00H
	DD	00H
	DD	00H
	DD	FLAT:??_C@_06KIJL@Carver?$AA@
	DB	02H
	DB	05H
	DB	03H
	ORG $+1
	DD	04H
	DD	08H
	DB	08H
	ORG $+3
	DD	00H
	DB	02H
	DB	014H
	DB	07H
	DB	02H
	DB	05H
	DB	00H
	DB	05H
	DB	00H
	DB	00H
	DB	05H
	DB	02H
	ORG $+1
	DW	00H
	DW	00H
	DW	00H
	DB	03H
	ORG $+1
	DW	050H
	ORG $+2
	DD	080H
	DD	021fH
	DD	FLAT:??_C@_0BO@OOMI@Monsters?2FalSpear?2Phall?$CFc?4CL2?$AA@
	DD	01H
	DD	FLAT:??_C@_0CA@LICE@Monsters?2FalSpear?2Phall?$CFc?$CFi?4WAV?$AA@
	DD	01H
	DD	00H
	DD	00H
	DD	0bH
	DD	0bH
	DD	0dH
	DD	0bH
	DD	012H
	DD	0dH
	DD	03H
	DD	00H
	DD	00H
	DD	00H
	DD	00H
	DD	00H
	DD	FLAT:??_C@_09CFFL@Devil?5Kin?$AA@
	DB	03H
	DB	07H
	DB	05H
	ORG $+1
	DD	0cH
	DD	018H
	DB	08H
	ORG $+3
	DD	00H
	DB	02H
	DB	019H
	DB	07H
	DB	03H
	DB	07H
	DB	00H
	DB	05H
	DB	00H
	DB	00H
	DB	0aH
	DB	02H
	ORG $+1
	DW	00H
	DW	02H
	DW	00H
	DB	03H
	ORG $+1
	DW	09bH
	ORG $+2
	DD	080H
	DD	021fH
	DD	FLAT:??_C@_0BO@OOMI@Monsters?2FalSpear?2Phall?$CFc?4CL2?$AA@
	DD	01H
	DD	FLAT:??_C@_0CA@LICE@Monsters?2FalSpear?2Phall?$CFc?$CFi?4WAV?$AA@
	DD	01H
	DD	01H
	DD	FLAT:??_C@_0BL@KPBN@Monsters?2FalSpear?2Blue?4TRN?$AA@
	DD	0bH
	DD	0bH
	DD	0dH
	DD	0bH
	DD	012H
	DD	0dH
	DD	03H
	DD	00H
	DD	00H
	DD	00H
	DD	00H
	DD	00H
	DD	FLAT:??_C@_08HICJ@Dark?5One?$AA@
	DB	05H
	DB	09H
	DB	07H
	ORG $+1
	DD	014H
	DD	024H
	DB	08H
	ORG $+3
	DD	00H
	DB	03H
	DB	01eH
	DB	07H
	DB	04H
	DB	08H
	DB	00H
	DB	05H
	DB	00H
	DB	00H
	DB	0fH
	DB	02H
	ORG $+1
	DW	040H
	DW	044H
	DW	00H
	DB	03H
	ORG $+1
	DW	0ffH
	ORG $+2
	DD	080H
	DD	0229H
	DD	FLAT:??_C@_0BN@KBEI@Monsters?2SkelAxe?2SklAx?$CFc?4CL2?$AA@
	DD	01H
	DD	FLAT:??_C@_0BP@IJNN@Monsters?2SkelAxe?2SklAx?$CFc?$CFi?4WAV?$AA@
	DD	00H
	DD	01H
	DD	FLAT:??_C@_0BL@LDMJ@Monsters?2SkelAxe?2White?4TRN?$AA@
	DD	0cH
	DD	08H
	DD	0dH
	DD	06H
	DD	011H
	DD	010H
	DD	05H
	DD	00H
	DD	00H
	DD	00H
	DD	00H
	DD	00H
	DD	FLAT:??_C@_08KFBC@Skeleton?$AA@
	DB	01H
	DB	03H
	DB	01H
	ORG $+1
	DD	02H
	DD	04H
	DB	02H
	ORG $+3
	DD	00H
	DB	00H
	DB	014H
	DB	08H
	DB	01H
	DB	04H
	DB	00H
	DB	00H
	DB	00H
	DB	00H
	DB	00H
	DB	00H
	ORG $+1
	DW	048H
	DW	048H
	DW	00H
	DB	03H
	ORG $+1
	DW	040H
	ORG $+2
	DD	080H
	DD	0229H
	DD	FLAT:??_C@_0BN@KBEI@Monsters?2SkelAxe?2SklAx?$CFc?4CL2?$AA@
	DD	01H
	DD	FLAT:??_C@_0BP@IJNN@Monsters?2SkelAxe?2SklAx?$CFc?$CFi?4WAV?$AA@
	DD	00H
	DD	01H
	DD	FLAT:??_C@_0BL@PJBC@Monsters?2SkelAxe?2Skelt?4TRN?$AA@
	DD	0cH
	DD	08H
	DD	0dH
	DD	06H
	DD	011H
	DD	010H
	DD	04H
	DD	00H
	DD	00H
	DD	00H
	DD	00H
	DD	00H
	DD	FLAT:??_C@_0L@FLJI@Corpse?5Axe?$AA@
	DB	02H
	DB	05H
	DB	02H
	ORG $+1
	DD	04H
	DD	07H
	DB	02H
	ORG $+3
	DD	00H
	DB	01H
	DB	019H
	DB	08H
	DB	03H
	DB	05H
	DB	00H
	DB	00H
	DB	00H
	DB	00H
	DB	00H
	DB	00H
	ORG $+1
	DW	048H
	DW	048H
	DW	00H
	DB	03H
	ORG $+1
	DW	044H
	ORG $+2
	DD	080H
	DD	0229H
	DD	FLAT:??_C@_0BN@KBEI@Monsters?2SkelAxe?2SklAx?$CFc?4CL2?$AA@
	DD	01H
	DD	FLAT:??_C@_0BP@IJNN@Monsters?2SkelAxe?2SklAx?$CFc?$CFi?4WAV?$AA@
	DD	00H
	DD	00H
	DD	00H
	DD	0cH
	DD	08H
	DD	0dH
	DD	06H
	DD	011H
	DD	010H
	DD	02H
	DD	00H
	DD	00H
	DD	00H
	DD	00H
	DD	00H
	DD	FLAT:??_C@_0N@OPIP@Burning?5Dead?$AA@
	DB	02H
	DB	06H
	DB	04H
	ORG $+1
	DD	08H
	DD	0cH
	DB	02H
	ORG $+3
	DD	00H
	DB	02H
	DB	01eH
	DB	08H
	DB	03H
	DB	07H
	DB	00H
	DB	00H
	DB	00H
	DB	00H
	DB	05H
	DB	00H
	ORG $+1
	DW	04aH
	DW	058H
	DW	00H
	DB	03H
	ORG $+1
	DW	09aH
	ORG $+2
	DD	080H
	DD	0229H
	DD	FLAT:??_C@_0BN@KBEI@Monsters?2SkelAxe?2SklAx?$CFc?4CL2?$AA@
	DD	01H
	DD	FLAT:??_C@_0BP@IJNN@Monsters?2SkelAxe?2SklAx?$CFc?$CFi?4WAV?$AA@
	DD	00H
	DD	01H
	DD	FLAT:??_C@_0BL@HLKD@Monsters?2SkelAxe?2Black?4TRN?$AA@
	DD	0cH
	DD	08H
	DD	0dH
	DD	06H
	DD	011H
	DD	010H
	DD	03H
	DD	00H
	DD	00H
	DD	00H
	DD	00H
	DD	00H
	DD	FLAT:??_C@_06KKNE@Horror?$AA@
	DB	04H
	DB	08H
	DB	06H
	ORG $+1
	DD	0cH
	DD	014H
	DB	02H
	ORG $+3
	DD	00H
	DB	03H
	DB	023H
	DB	08H
	DB	04H
	DB	09H
	DB	00H
	DB	00H
	DB	00H
	DB	00H
	DB	0fH
	DB	00H
	ORG $+1
	DW	04cH
	DW	04cH
	DW	00H
	DB	03H
	ORG $+1
	DW	0108H
	ORG $+2
	DD	080H
	DD	026fH
	DD	FLAT:??_C@_0BN@DAFP@Monsters?2FalSword?2Fall?$CFc?4CL2?$AA@
	DD	01H
	DD	FLAT:??_C@_0BP@LKDH@Monsters?2FalSword?2Fall?$CFc?$CFi?4WAV?$AA@
	DD	01H
	DD	01H
	DD	FLAT:??_C@_0BO@KANN@Monsters?2FalSword?2FallenT?4TRN?$AA@
	DD	0cH
	DD	0cH
	DD	0dH
	DD	0bH
	DD	0eH
	DD	0fH
	DD	03H
	DD	00H
	DD	00H
	DD	00H
	DD	00H
	DD	00H
	DD	FLAT:??_C@_0L@IHGK@Fallen?5One?$AA@
	DB	01H
	DB	03H
	DB	01H
	ORG $+1
	DD	02H
	DD	05H
	DB	08H
	ORG $+3
	DD	00H
	DB	00H
	DB	0fH
	DB	08H
	DB	01H
	DB	04H
	DB	00H
	DB	05H
	DB	00H
	DB	00H
	DB	0aH
	DB	02H
	ORG $+1
	DW	00H
	DW	00H
	DW	00H
	DB	03H
	ORG $+1
	DW	034H
	ORG $+2
	DD	080H
	DD	026fH
	DD	FLAT:??_C@_0BN@DAFP@Monsters?2FalSword?2Fall?$CFc?4CL2?$AA@
	DD	01H
	DD	FLAT:??_C@_0BP@LKDH@Monsters?2FalSword?2Fall?$CFc?$CFi?4WAV?$AA@
	DD	01H
	DD	01H
	DD	FLAT:??_C@_0BL@JPEE@Monsters?2FalSword?2Dark?4TRN?$AA@
	DD	0cH
	DD	0cH
	DD	0dH
	DD	0bH
	DD	0eH
	DD	0fH
	DD	03H
	DD	00H
	DD	00H
	DD	00H
	DD	00H
	DD	00H
	DD	FLAT:??_C@_06KIJL@Carver?$AA@
	DB	02H
	DB	05H
	DB	03H
	ORG $+1
	DD	05H
	DD	09H
	DB	08H
	ORG $+3
	DD	00H
	DB	01H
	DB	014H
	DB	08H
	DB	02H
	DB	07H
	DB	00H
	DB	05H
	DB	00H
	DB	00H
	DB	0fH
	DB	02H
	ORG $+1
	DW	00H
	DW	00H
	DW	00H
	DB	03H
	ORG $+1
	DW	05aH
	ORG $+2
	DD	080H
	DD	026fH
	DD	FLAT:??_C@_0BN@DAFP@Monsters?2FalSword?2Fall?$CFc?4CL2?$AA@
	DD	01H
	DD	FLAT:??_C@_0BP@LKDH@Monsters?2FalSword?2Fall?$CFc?$CFi?4WAV?$AA@
	DD	01H
	DD	00H
	DD	00H
	DD	0cH
	DD	0cH
	DD	0dH
	DD	0bH
	DD	0eH
	DD	0fH
	DD	03H
	DD	00H
	DD	00H
	DD	00H
	DD	00H
	DD	00H
	DD	FLAT:??_C@_09CFFL@Devil?5Kin?$AA@
	DB	03H
	DB	07H
	DB	05H
	ORG $+1
	DD	010H
	DD	018H
	DB	08H
	ORG $+3
	DD	00H
	DB	02H
	DB	019H
	DB	08H
	DB	04H
	DB	0aH
	DB	00H
	DB	05H
	DB	00H
	DB	00H
	DB	014H
	DB	02H
	ORG $+1
	DW	00H
	DW	02H
	DW	00H
	DB	03H
	ORG $+1
	DW	0b4H
	ORG $+2
	DD	080H
	DD	026fH
	DD	FLAT:??_C@_0BN@DAFP@Monsters?2FalSword?2Fall?$CFc?4CL2?$AA@
	DD	01H
	DD	FLAT:??_C@_0BP@LKDH@Monsters?2FalSword?2Fall?$CFc?$CFi?4WAV?$AA@
	DD	01H
	DD	01H
	DD	FLAT:??_C@_0BL@OGFI@Monsters?2FalSword?2Blue?4TRN?$AA@
	DD	0cH
	DD	0cH
	DD	0dH
	DD	0bH
	DD	0eH
	DD	0fH
	DD	03H
	DD	00H
	DD	00H
	DD	00H
	DD	00H
	DD	00H
	DD	FLAT:??_C@_08HICJ@Dark?5One?$AA@
	DB	05H
	DB	09H
	DB	07H
	ORG $+1
	DD	018H
	DD	024H
	DB	08H
	ORG $+3
	DD	00H
	DB	03H
	DB	01eH
	DB	08H
	DB	04H
	DB	0cH
	DB	00H
	DB	05H
	DB	00H
	DB	00H
	DB	019H
	DB	02H
	ORG $+1
	DW	040H
	DW	044H
	DW	00H
	DB	03H
	ORG $+1
	DW	0118H
	ORG $+2
	DD	080H
	DD	019aH
	DD	FLAT:??_C@_0BJ@BBLM@Monsters?2Scav?2Scav?$CFc?4CL2?$AA@
	DD	01H
	DD	FLAT:??_C@_0BL@FEJI@Monsters?2Scav?2Scav?$CFc?$CFi?4WAV?$AA@
	DD	00H
	DD	00H
	DD	00H
	DD	0cH
	DD	08H
	DD	0cH
	DD	06H
	DD	014H
	DD	0bH
	DD	02H
	DD	00H
	DD	00H
	DD	00H
	DD	00H
	DD	00H
	DD	FLAT:??_C@_09ODLB@Scavenger?$AA@
	DB	01H
	DB	04H
	DB	02H
	ORG $+1
	DD	03H
	DD	06H
	DB	04H
	ORG $+3
	DD	00H
	DB	00H
	DB	014H
	DB	07H
	DB	01H
	DB	05H
	DB	00H
	DB	00H
	DB	00H
	DB	00H
	DB	0aH
	DB	02H
	ORG $+1
	DW	00H
	DW	02H
	DW	00H
	DB	03H
	ORG $+1
	DW	050H
	ORG $+2
	DD	080H
	DD	019aH
	DD	FLAT:??_C@_0BJ@BBLM@Monsters?2Scav?2Scav?$CFc?4CL2?$AA@
	DD	01H
	DD	FLAT:??_C@_0BL@FEJI@Monsters?2Scav?2Scav?$CFc?$CFi?4WAV?$AA@
	DD	00H
	DD	01H
	DD	FLAT:??_C@_0BJ@BABM@Monsters?2Scav?2ScavBr?4TRN?$AA@
	DD	0cH
	DD	08H
	DD	0cH
	DD	06H
	DD	014H
	DD	0bH
	DD	02H
	DD	00H
	DD	00H
	DD	00H
	DD	00H
	DD	00H
	DD	FLAT:??_C@_0N@GMAL@Plague?5Eater?$AA@
	DB	03H
	DB	06H
	DB	04H
	ORG $+1
	DD	0cH
	DD	018H
	DB	04H
	ORG $+3
	DD	00H
	DB	01H
	DB	01eH
	DB	07H
	DB	01H
	DB	08H
	DB	00H
	DB	00H
	DB	00H
	DB	00H
	DB	014H
	DB	02H
	ORG $+1
	DW	00H
	DW	04H
	DW	00H
	DB	03H
	ORG $+1
	DW	0bcH
	ORG $+2
	DD	080H
	DD	019aH
	DD	FLAT:??_C@_0BJ@BBLM@Monsters?2Scav?2Scav?$CFc?4CL2?$AA@
	DD	01H
	DD	FLAT:??_C@_0BL@FEJI@Monsters?2Scav?2Scav?$CFc?$CFi?4WAV?$AA@
	DD	00H
	DD	01H
	DD	FLAT:??_C@_0BJ@HCLD@Monsters?2Scav?2ScavBe?4TRN?$AA@
	DD	0cH
	DD	08H
	DD	0cH
	DD	06H
	DD	014H
	DD	0bH
	DD	02H
	DD	00H
	DD	00H
	DD	00H
	DD	00H
	DD	00H
	DD	FLAT:??_C@_0N@PNNC@Shadow?5Beast?$AA@
	DB	04H
	DB	08H
	DB	06H
	ORG $+1
	DD	018H
	DD	024H
	DB	04H
	ORG $+3
	DD	00H
	DB	02H
	DB	023H
	DB	07H
	DB	03H
	DB	0cH
	DB	00H
	DB	00H
	DB	00H
	DB	00H
	DB	019H
	DB	02H
	ORG $+1
	DW	040H
	DW	042H
	DW	00H
	DB	03H
	ORG $+1
	DW	0177H
	ORG $+2
	DD	080H
	DD	019aH
	DD	FLAT:??_C@_0BJ@BBLM@Monsters?2Scav?2Scav?$CFc?4CL2?$AA@
	DD	01H
	DD	FLAT:??_C@_0BL@FEJI@Monsters?2Scav?2Scav?$CFc?$CFi?4WAV?$AA@
	DD	00H
	DD	01H
	DD	FLAT:??_C@_0BI@HIBO@Monsters?2Scav?2ScavW?4TRN?$AA@
	DD	0cH
	DD	08H
	DD	0cH
	DD	06H
	DD	014H
	DD	0bH
	DD	02H
	DD	00H
	DD	00H
	DD	00H
	DD	00H
	DD	00H
	DD	FLAT:??_C@_0M@NJCA@Bone?5Gasher?$AA@
	DB	06H
	DB	0aH
	DB	08H
	ORG $+1
	DD	01cH
	DD	028H
	DB	04H
	ORG $+3
	DD	00H
	DB	03H
	DB	023H
	DB	07H
	DB	05H
	DB	0fH
	DB	00H
	DB	00H
	DB	00H
	DB	00H
	DB	01eH
	DB	02H
	ORG $+1
	DW	041H
	DW	044H
	DW	00H
	DB	03H
	ORG $+1
	DW	0228H
	ORG $+2
	DD	080H
	DD	0237H
	DD	FLAT:??_C@_0BN@FDDL@Monsters?2SkelBow?2SklBw?$CFc?4CL2?$AA@
	DD	01H
	DD	FLAT:??_C@_0BP@OGC@Monsters?2SkelBow?2SklBw?$CFc?$CFi?4WAV?$AA@
	DD	00H
	DD	01H
	DD	FLAT:??_C@_0BL@OCKB@Monsters?2SkelBow?2White?4TRN?$AA@
	DD	09H
	DD	08H
	DD	010H
	DD	05H
	DD	010H
	DD	010H
	DD	04H
	DD	00H
	DD	00H
	DD	00H
	DD	00H
	DD	00H
	DD	FLAT:??_C@_08KFBC@Skeleton?$AA@
	DB	02H
	DB	05H
	DB	03H
	ORG $+1
	DD	02H
	DD	04H
	DB	03H
	ORG $+3
	DD	00H
	DB	00H
	DB	0fH
	DB	0cH
	DB	01H
	DB	02H
	DB	00H
	DB	00H
	DB	00H
	DB	00H
	DB	00H
	DB	00H
	ORG $+1
	DW	048H
	DW	048H
	DW	00H
	DB	03H
	ORG $+1
	DW	06eH
	ORG $+2
	DD	080H
	DD	0237H
	DD	FLAT:??_C@_0BN@FDDL@Monsters?2SkelBow?2SklBw?$CFc?4CL2?$AA@
	DD	01H
	DD	FLAT:??_C@_0BP@OGC@Monsters?2SkelBow?2SklBw?$CFc?$CFi?4WAV?$AA@
	DD	00H
	DD	01H
	DD	FLAT:??_C@_0BL@KIHK@Monsters?2SkelBow?2Skelt?4TRN?$AA@
	DD	09H
	DD	08H
	DD	010H
	DD	05H
	DD	010H
	DD	010H
	DD	04H
	DD	00H
	DD	00H
	DD	00H
	DD	00H
	DD	00H
	DD	FLAT:??_C@_0L@FKAB@Corpse?5Bow?$AA@
	DB	03H
	DB	07H
	DB	05H
	ORG $+1
	DD	08H
	DD	010H
	DB	03H
	ORG $+3
	DD	00H
	DB	01H
	DB	019H
	DB	0cH
	DB	01H
	DB	04H
	DB	00H
	DB	00H
	DB	00H
	DB	00H
	DB	00H
	DB	00H
	ORG $+1
	DW	048H
	DW	048H
	DW	00H
	DB	03H
	ORG $+1
	DW	0d2H
	ORG $+2
	DD	080H
	DD	0237H
	DD	FLAT:??_C@_0BN@FDDL@Monsters?2SkelBow?2SklBw?$CFc?4CL2?$AA@
	DD	01H
	DD	FLAT:??_C@_0BP@OGC@Monsters?2SkelBow?2SklBw?$CFc?$CFi?4WAV?$AA@
	DD	00H
	DD	00H
	DD	00H
	DD	09H
	DD	08H
	DD	010H
	DD	05H
	DD	010H
	DD	010H
	DD	02H
	DD	00H
	DD	00H
	DD	00H
	DD	00H
	DD	00H
	DD	FLAT:??_C@_0N@OPIP@Burning?5Dead?$AA@
	DB	05H
	DB	09H
	DB	07H
	ORG $+1
	DD	0aH
	DD	018H
	DB	03H
	ORG $+3
	DD	00H
	DB	02H
	DB	01eH
	DB	0cH
	DB	01H
	DB	06H
	DB	00H
	DB	00H
	DB	00H
	DB	00H
	DB	05H
	DB	00H
	ORG $+1
	DW	04aH
	DW	058H
	DW	00H
	DB	03H
	ORG $+1
	DW	016cH
	ORG $+2
	DD	080H
	DD	0237H
	DD	FLAT:??_C@_0BN@FDDL@Monsters?2SkelBow?2SklBw?$CFc?4CL2?$AA@
	DD	01H
	DD	FLAT:??_C@_0BP@OGC@Monsters?2SkelBow?2SklBw?$CFc?$CFi?4WAV?$AA@
	DD	00H
	DD	01H
	DD	FLAT:??_C@_0BL@CKML@Monsters?2SkelBow?2Black?4TRN?$AA@
	DD	09H
	DD	08H
	DD	010H
	DD	05H
	DD	010H
	DD	010H
	DD	03H
	DD	00H
	DD	00H
	DD	00H
	DD	00H
	DD	00H
	DD	FLAT:??_C@_06KKNE@Horror?$AA@
	DB	07H
	DB	0bH
	DB	09H
	ORG $+1
	DD	0fH
	DD	02dH
	DB	03H
	ORG $+3
	DD	00H
	DB	03H
	DB	023H
	DB	0cH
	DB	02H
	DB	09H
	DB	00H
	DB	00H
	DB	00H
	DB	00H
	DB	0fH
	DB	00H
	ORG $+1
	DW	04cH
	DW	04cH
	DW	00H
	DB	03H
	ORG $+1
	DW	0252H
	ORG $+2
	DD	080H
	DD	023fH
	DD	FLAT:??_C@_0BM@LPCM@Monsters?2SkelSd?2SklSr?$CFc?4CL2?$AA@
	DD	01H
	DD	FLAT:??_C@_0BO@JGHO@Monsters?2SkelSd?2SklSr?$CFc?$CFi?4WAV?$AA@
	DD	01H
	DD	01H
	DD	FLAT:??_C@_0BK@FEKE@Monsters?2SkelSd?2White?4TRN?$AA@
	DD	0dH
	DD	08H
	DD	0cH
	DD	07H
	DD	0fH
	DD	010H
	DD	04H
	DD	00H
	DD	00H
	DD	00H
	DD	00H
	DD	00H
	DD	FLAT:??_C@_0BB@OJGC@Skeleton?5Captain?$AA@
	DB	01H
	DB	04H
	DB	02H
	ORG $+1
	DD	03H
	DD	06H
	DB	02H
	ORG $+3
	DD	00H
	DB	00H
	DB	014H
	DB	08H
	DB	02H
	DB	07H
	DB	00H
	DB	00H
	DB	00H
	DB	00H
	DB	0aH
	DB	00H
	ORG $+1
	DW	048H
	DW	048H
	DW	00H
	DB	03H
	ORG $+1
	DW	05aH
	ORG $+2
	DD	080H
	DD	023fH
	DD	FLAT:??_C@_0BM@LPCM@Monsters?2SkelSd?2SklSr?$CFc?4CL2?$AA@
	DD	01H
	DD	FLAT:??_C@_0BO@JGHO@Monsters?2SkelSd?2SklSr?$CFc?$CFi?4WAV?$AA@
	DD	00H
	DD	01H
	DD	FLAT:??_C@_0BK@BOHP@Monsters?2SkelSd?2Skelt?4TRN?$AA@
	DD	0dH
	DD	08H
	DD	0cH
	DD	07H
	DD	0fH
	DD	010H
	DD	04H
	DD	00H
	DD	00H
	DD	00H
	DD	00H
	DD	00H
	DD	FLAT:??_C@_0P@ONID@Corpse?5Captain?$AA@
	DB	02H
	DB	06H
	DB	04H
	ORG $+1
	DD	0cH
	DD	014H
	DB	02H
	ORG $+3
	DD	00H
	DB	01H
	DB	01eH
	DB	08H
	DB	03H
	DB	09H
	DB	00H
	DB	00H
	DB	00H
	DB	00H
	DB	05H
	DB	00H
	ORG $+1
	DW	048H
	DW	048H
	DW	00H
	DB	03H
	ORG $+1
	DW	0c8H
	ORG $+2
	DD	080H
	DD	023fH
	DD	FLAT:??_C@_0BM@LPCM@Monsters?2SkelSd?2SklSr?$CFc?4CL2?$AA@
	DD	01H
	DD	FLAT:??_C@_0BO@JGHO@Monsters?2SkelSd?2SklSr?$CFc?$CFi?4WAV?$AA@
	DD	00H
	DD	00H
	DD	00H
	DD	0dH
	DD	08H
	DD	0cH
	DD	07H
	DD	0fH
	DD	010H
	DD	04H
	DD	00H
	DD	00H
	DD	00H
	DD	00H
	DD	00H
	DD	FLAT:??_C@_0BF@LNCI@Burning?5Dead?5Captain?$AA@
	DB	04H
	DB	08H
	DB	06H
	ORG $+1
	DD	010H
	DD	01eH
	DB	02H
	ORG $+3
	DD	00H
	DB	02H
	DB	023H
	DB	08H
	DB	04H
	DB	0aH
	DB	00H
	DB	00H
	DB	00H
	DB	00H
	DB	0fH
	DB	00H
	ORG $+1
	DW	04aH
	DW	058H
	DW	00H
	DB	03H
	ORG $+1
	DW	0189H
	ORG $+2
	DD	080H
	DD	023fH
	DD	FLAT:??_C@_0BM@LPCM@Monsters?2SkelSd?2SklSr?$CFc?4CL2?$AA@
	DD	01H
	DD	FLAT:??_C@_0BO@JGHO@Monsters?2SkelSd?2SklSr?$CFc?$CFi?4WAV?$AA@
	DD	00H
	DD	01H
	DD	FLAT:??_C@_0BK@JMMO@Monsters?2SkelSd?2Black?4TRN?$AA@
	DD	0dH
	DD	08H
	DD	0cH
	DD	07H
	DD	0fH
	DD	010H
	DD	04H
	DD	00H
	DD	00H
	DD	00H
	DD	00H
	DD	00H
	DD	FLAT:??_C@_0P@MKB@Horror?5Captain?$AA@
	DB	06H
	DB	0aH
	DB	08H
	ORG $+1
	DD	023H
	DD	032H
	DB	02H
	ORG $+3
	DD	0100H
	DB	03H
	DB	028H
	DB	08H
	DB	05H
	DB	0eH
	DB	00H
	DB	00H
	DB	00H
	DB	00H
	DB	01eH
	DB	00H
	ORG $+1
	DW	04cH
	DW	04cH
	DW	00H
	DB	03H
	ORG $+1
	DW	025cH
	ORG $+2
	DD	080H
	DD	07d0H
	DD	FLAT:??_C@_0BN@EHND@Monsters?2TSneak?2TSneak?$CFc?4CL2?$AA@
	DD	00H
	DD	FLAT:??_C@_0BP@FIIK@Monsters?2TSneak?2Sneakl?$CFc?$CFi?4WAV?$AA@
	DD	00H
	DD	00H
	DD	00H
	DD	0dH
	DD	0dH
	DD	0fH
	DD	0bH
	DD	010H
	DD	00H
	DD	02H
	DD	00H
	DD	00H
	DD	00H
	DD	00H
	DD	00H
	DD	FLAT:??_C@_0P@KBCM@Invisible?5Lord?$AA@
	DB	0eH
	DB	0eH
	DB	0eH
	ORG $+1
	DD	0116H
	DD	0116H
	DB	02H
	ORG $+3
	DD	0100H
	DB	03H
	DB	041H
	DB	08H
	DB	010H
	DB	01eH
	DB	00H
	DB	00H
	DB	00H
	DB	00H
	DB	03cH
	DB	01H
	ORG $+1
	DW	047H
	DW	047H
	DW	00H
	DB	03H
	ORG $+1
	DW	07d0H
	ORG $+2
	DD	080H
	DD	03e0H
	DD	FLAT:??_C@_0BL@OIAO@Monsters?2Sneak?2Sneak?$CFc?4CL2?$AA@
	DD	01H
	DD	FLAT:??_C@_0BN@IEAE@Monsters?2Sneak?2Sneak?$CFc?$CFi?4WAV?$AA@
	DD	00H
	DD	00H
	DD	00H
	DD	010H
	DD	08H
	DD	0cH
	DD	08H
	DD	018H
	DD	0fH
	DD	02H
	DD	00H
	DD	00H
	DD	00H
	DD	00H
	DD	00H
	DD	FLAT:??_C@_06OCEO@Hidden?$AA@
	DB	03H
	DB	08H
	DB	05H
	ORG $+1
	DD	08H
	DD	018H
	DB	0fH
	ORG $+3
	DD	01H
	DB	00H
	DB	023H
	DB	08H
	DB	03H
	DB	06H
	DB	00H
	DB	00H
	DB	00H
	DB	00H
	DB	019H
	DB	01H
	ORG $+1
	DW	00H
	DW	040H
	DW	00H
	DB	03H
	ORG $+1
	DW	0116H
	ORG $+2
	DD	080H
	DD	03e0H
	DD	FLAT:??_C@_0BL@OIAO@Monsters?2Sneak?2Sneak?$CFc?4CL2?$AA@
	DD	01H
	DD	FLAT:??_C@_0BN@IEAE@Monsters?2Sneak?2Sneak?$CFc?$CFi?4WAV?$AA@
	DD	00H
	DD	01H
	DD	FLAT:??_C@_0BL@FIHM@Monsters?2Sneak?2Sneakv2?4TRN?$AA@
	DD	010H
	DD	08H
	DD	0cH
	DD	08H
	DD	018H
	DD	0fH
	DD	02H
	DD	00H
	DD	00H
	DD	00H
	DD	00H
	DD	00H
	DD	FLAT:??_C@_07JKLP@Stalker?$AA@
	DB	08H
	DB	0cH
	DB	09H
	ORG $+1
	DD	01eH
	DD	02dH
	DB	0fH
	ORG $+3
	DD	0101H
	DB	01H
	DB	028H
	DB	08H
	DB	08H
	DB	010H
	DB	00H
	DB	00H
	DB	00H
	DB	00H
	DB	01eH
	DB	01H
	ORG $+1
	DW	00H
	DW	040H
	DW	00H
	DB	03H
	ORG $+1
	DW	0276H
	ORG $+2
	DD	080H
	DD	03e0H
	DD	FLAT:??_C@_0BL@OIAO@Monsters?2Sneak?2Sneak?$CFc?4CL2?$AA@
	DD	01H
	DD	FLAT:??_C@_0BN@IEAE@Monsters?2Sneak?2Sneak?$CFc?$CFi?4WAV?$AA@
	DD	00H
	DD	01H
	DD	FLAT:??_C@_0BL@PIFJ@Monsters?2Sneak?2Sneakv3?4TRN?$AA@
	DD	010H
	DD	08H
	DD	0cH
	DD	08H
	DD	018H
	DD	0fH
	DD	02H
	DD	00H
	DD	00H
	DD	00H
	DD	00H
	DD	00H
	DD	FLAT:??_C@_06ELBO@Unseen?$AA@
	DB	0aH
	DB	0eH
	DB	0bH
	ORG $+1
	DD	023H
	DD	032H
	DB	0fH
	ORG $+3
	DD	0101H
	DB	02H
	DB	02dH
	DB	08H
	DB	0cH
	DB	014H
	DB	00H
	DB	00H
	DB	00H
	DB	00H
	DB	01eH
	DB	01H
	ORG $+1
	DW	041H
	DW	048H
	DW	00H
	DB	03H
	ORG $+1
	DW	03a7H
	ORG $+2
	DD	080H
	DD	03e0H
	DD	FLAT:??_C@_0BL@OIAO@Monsters?2Sneak?2Sneak?$CFc?4CL2?$AA@
	DD	01H
	DD	FLAT:??_C@_0BN@IEAE@Monsters?2Sneak?2Sneak?$CFc?$CFi?4WAV?$AA@
	DD	00H
	DD	01H
	DD	FLAT:??_C@_0BL@LIBD@Monsters?2Sneak?2Sneakv1?4TRN?$AA@
	DD	010H
	DD	08H
	DD	0cH
	DD	08H
	DD	018H
	DD	0fH
	DD	02H
	DD	00H
	DD	00H
	DD	00H
	DD	00H
	DD	00H
	DD	FLAT:??_C@_0BA@LANI@Illusion?5Weaver?$AA@
	DB	0eH
	DB	012H
	DB	0dH
	ORG $+1
	DD	028H
	DD	03cH
	DB	0fH
	ORG $+3
	DD	0101H
	DB	03H
	DB	03cH
	DB	08H
	DB	010H
	DB	018H
	DB	00H
	DB	00H
	DB	00H
	DB	00H
	DB	01eH
	DB	01H
	ORG $+1
	DW	03H
	DW	04aH
	DW	00H
	DB	03H
	ORG $+1
	DW	05dcH
	ORG $+2
	DD	0a0H
	DD	07d0H
	DD	FLAT:??_C@_0BO@FGPM@Monsters?2GoatLord?2GoatL?$CFc?4CL2?$AA@
	DD	00H
	DD	FLAT:??_C@_0CA@ECCN@Monsters?2GoatLord?2Goatl?$CFc?$CFi?4WAV?$AA@
	DD	00H
	DD	00H
	DD	00H
	DD	0dH
	DD	0dH
	DD	0eH
	DD	09H
	DD	010H
	DD	00H
	DD	02H
	DD	00H
	DD	00H
	DD	00H
	DD	00H
	DD	00H
	DD	FLAT:??_C@_0M@BAIA@Lord?5Sayter?$AA@
	DB	0dH
	DB	0dH
	DB	0cH
	ORG $+1
	DD	015fH
	DD	015fH
	DB	02H
	ORG $+3
	DD	0100H
	DB	03H
	DB	050H
	DB	08H
	DB	0eH
	DB	018H
	DB	00H
	DB	00H
	DB	00H
	DB	00H
	DB	03cH
	DB	01H
	ORG $+1
	DW	043H
	DW	043H
	DW	00H
	DB	03H
	ORG $+1
	DW	05dcH
	ORG $+2
	DD	080H
	DD	0406H
	DD	FLAT:??_C@_0BN@OGDO@Monsters?2GoatMace?2Goat?$CFc?4CL2?$AA@
	DD	01H
	DD	FLAT:??_C@_0BP@CPIM@Monsters?2GoatMace?2Goat?$CFc?$CFi?4WAV?$AA@
	DD	00H
	DD	00H
	DD	00H
	DD	0cH
	DD	08H
	DD	0cH
	DD	06H
	DD	014H
	DD	0cH
	DD	02H
	DD	00H
	DD	00H
	DD	00H
	DD	01H
	DD	00H
	DD	FLAT:??_C@_0L@PPFJ@Flesh?5Clan?$AA@
	DB	06H
	DB	0aH
	DB	08H
	ORG $+1
	DD	01eH
	DD	02dH
	DB	06H
	ORG $+3
	DD	0300H
	DB	00H
	DB	032H
	DB	08H
	DB	04H
	DB	0aH
	DB	00H
	DB	00H
	DB	00H
	DB	00H
	DB	028H
	DB	01H
	ORG $+1
	DW	00H
	DW	00H
	DW	00H
	DB	03H
	ORG $+1
	DW	01ccH
	ORG $+2
	DD	080H
	DD	0406H
	DD	FLAT:??_C@_0BN@OGDO@Monsters?2GoatMace?2Goat?$CFc?4CL2?$AA@
	DD	01H
	DD	FLAT:??_C@_0BP@CPIM@Monsters?2GoatMace?2Goat?$CFc?$CFi?4WAV?$AA@
	DD	00H
	DD	01H
	DD	FLAT:??_C@_0BM@DGOA@Monsters?2GoatMace?2Beige?4TRN?$AA@
	DD	0cH
	DD	08H
	DD	0cH
	DD	06H
	DD	014H
	DD	0cH
	DD	02H
	DD	00H
	DD	00H
	DD	00H
	DD	01H
	DD	00H
	DD	FLAT:??_C@_0L@DDEJ@Stone?5Clan?$AA@
	DB	08H
	DB	0cH
	DB	0aH
	ORG $+1
	DD	028H
	DD	037H
	DB	06H
	ORG $+3
	DD	0300H
	DB	01H
	DB	03cH
	DB	08H
	DB	06H
	DB	0cH
	DB	00H
	DB	00H
	DB	00H
	DB	00H
	DB	028H
	DB	01H
	ORG $+1
	DW	041H
	DW	048H
	DW	00H
	DB	03H
	ORG $+1
	DW	02adH
	ORG $+2
	DD	080H
	DD	0406H
	DD	FLAT:??_C@_0BN@OGDO@Monsters?2GoatMace?2Goat?$CFc?4CL2?$AA@
	DD	01H
	DD	FLAT:??_C@_0BP@CPIM@Monsters?2GoatMace?2Goat?$CFc?$CFi?4WAV?$AA@
	DD	00H
	DD	01H
	DD	FLAT:??_C@_0BK@IMBO@Monsters?2GoatMace?2Red?4TRN?$AA@
	DD	0cH
	DD	08H
	DD	0cH
	DD	06H
	DD	014H
	DD	0cH
	DD	02H
	DD	00H
	DD	00H
	DD	00H
	DD	01H
	DD	00H
	DD	FLAT:??_C@_09NBOI@Fire?5Clan?$AA@
	DB	0aH
	DB	0eH
	DB	0cH
	ORG $+1
	DD	032H
	DD	041H
	DB	06H
	ORG $+3
	DD	0300H
	DB	02H
	DB	046H
	DB	08H
	DB	08H
	DB	010H
	DB	00H
	DB	00H
	DB	00H
	DB	00H
	DB	02dH
	DB	01H
	ORG $+1
	DW	02H
	DW	010H
	DW	00H
	DB	03H
	ORG $+1
	DW	038aH
	ORG $+2
	DD	080H
	DD	0406H
	DD	FLAT:??_C@_0BN@OGDO@Monsters?2GoatMace?2Goat?$CFc?4CL2?$AA@
	DD	01H
	DD	FLAT:??_C@_0BP@CPIM@Monsters?2GoatMace?2Goat?$CFc?$CFi?4WAV?$AA@
	DD	00H
	DD	01H
	DD	FLAT:??_C@_0BL@CPGA@Monsters?2GoatMace?2Gray?4TRN?$AA@
	DD	0cH
	DD	08H
	DD	0cH
	DD	06H
	DD	014H
	DD	0cH
	DD	02H
	DD	00H
	DD	00H
	DD	00H
	DD	01H
	DD	00H
	DD	FLAT:??_C@_0L@JFLE@Night?5Clan?$AA@
	DB	0cH
	DB	010H
	DB	0eH
	ORG $+1
	DD	037H
	DD	046H
	DB	06H
	ORG $+3
	DD	0300H
	DB	03H
	DB	050H
	DB	08H
	DB	0aH
	DB	014H
	DB	0fH
	DB	00H
	DB	01eH
	DB	01eH
	DB	032H
	DB	01H
	ORG $+1
	DW	041H
	DW	048H
	DW	00H
	DB	03H
	ORG $+1
	DW	04a6H
	ORG $+2
	DD	060H
	DD	016cH
	DD	FLAT:??_C@_0BH@KIOP@Monsters?2Bat?2Bat?$CFc?4CL2?$AA@
	DD	00H
	DD	FLAT:??_C@_0BJ@JLKA@Monsters?2Bat?2Bat?$CFc?$CFi?4WAV?$AA@
	DD	00H
	DD	01H
	DD	FLAT:??_C@_0BF@FLIN@Monsters?2Bat?2red?4trn?$AA@
	DD	09H
	DD	0dH
	DD	0aH
	DD	09H
	DD	0dH
	DD	00H
	DD	00H
	DD	00H
	DD	00H
	DD	00H
	DD	00H
	DD	00H
	DD	FLAT:??_C@_05FJN@Fiend?$AA@
	DB	02H
	DB	05H
	DB	03H
	ORG $+1
	DD	03H
	DD	06H
	DB	0bH
	ORG $+3
	DD	00H
	DB	00H
	DB	023H
	DB	05H
	DB	01H
	DB	06H
	DB	00H
	DB	00H
	DB	00H
	DB	00H
	DB	00H
	DB	02H
	ORG $+1
	DW	00H
	DW	00H
	DW	04000H
	DB	06H
	ORG $+1
	DW	066H
	ORG $+2
	DD	060H
	DD	016cH
	DD	FLAT:??_C@_0BH@KIOP@Monsters?2Bat?2Bat?$CFc?4CL2?$AA@
	DD	00H
	DD	FLAT:??_C@_0BJ@JLKA@Monsters?2Bat?2Bat?$CFc?$CFi?4WAV?$AA@
	DD	00H
	DD	00H
	DD	00H
	DD	09H
	DD	0dH
	DD	0aH
	DD	09H
	DD	0dH
	DD	00H
	DD	00H
	DD	00H
	DD	00H
	DD	00H
	DD	00H
	DD	00H
	DD	FLAT:??_C@_05OMKA@Blink?$AA@
	DB	05H
	DB	09H
	DB	07H
	ORG $+1
	DD	0cH
	DD	01cH
	DB	0bH
	ORG $+3
	DD	00H
	DB	01H
	DB	02dH
	DB	05H
	DB	01H
	DB	08H
	DB	00H
	DB	00H
	DB	00H
	DB	00H
	DB	0fH
	DB	02H
	ORG $+1
	DW	00H
	DW	00H
	DW	04000H
	DB	06H
	ORG $+1
	DW	0154H
	ORG $+2
	DD	060H
	DD	016cH
	DD	FLAT:??_C@_0BH@KIOP@Monsters?2Bat?2Bat?$CFc?4CL2?$AA@
	DD	00H
	DD	FLAT:??_C@_0BJ@JLKA@Monsters?2Bat?2Bat?$CFc?$CFi?4WAV?$AA@
	DD	00H
	DD	01H
	DD	FLAT:??_C@_0BG@BDJF@Monsters?2Bat?2grey?4trn?$AA@
	DD	09H
	DD	0dH
	DD	0aH
	DD	09H
	DD	0dH
	DD	00H
	DD	00H
	DD	00H
	DD	00H
	DD	00H
	DD	00H
	DD	00H
	DD	FLAT:??_C@_05MJLP@Gloom?$AA@
	DB	07H
	DB	0bH
	DB	09H
	ORG $+1
	DD	01cH
	DD	024H
	DB	0bH
	ORG $+3
	DD	0100H
	DB	02H
	DB	046H
	DB	05H
	DB	04H
	DB	0cH
	DB	00H
	DB	00H
	DB	00H
	DB	00H
	DB	023H
	DB	02H
	ORG $+1
	DW	01H
	DW	041H
	DW	04000H
	DB	06H
	ORG $+1
	DW	01fdH
	ORG $+2
	DD	060H
	DD	016cH
	DD	FLAT:??_C@_0BH@KIOP@Monsters?2Bat?2Bat?$CFc?4CL2?$AA@
	DD	00H
	DD	FLAT:??_C@_0BJ@JLKA@Monsters?2Bat?2Bat?$CFc?$CFi?4WAV?$AA@
	DD	00H
	DD	01H
	DD	FLAT:??_C@_0BI@NFPN@Monsters?2Bat?2orange?4trn?$AA@
	DD	09H
	DD	0dH
	DD	0aH
	DD	09H
	DD	0dH
	DD	00H
	DD	00H
	DD	00H
	DD	00H
	DD	00H
	DD	00H
	DD	00H
	DD	FLAT:??_C@_08NKDG@Familiar?$AA@
	DB	0bH
	DB	0fH
	DB	0dH
	ORG $+1
	DD	014H
	DD	023H
	DB	0bH
	ORG $+3
	DD	0100H
	DB	03H
	DB	032H
	DB	05H
	DB	04H
	DB	010H
	DB	00H
	DB	00H
	DB	00H
	DB	00H
	DB	023H
	DB	01H
	ORG $+1
	DW	021H
	DW	061H
	DW	04000H
	DB	06H
	ORG $+1
	DW	01c0H
	ORG $+2
	DD	080H
	DD	0410H
	DD	FLAT:??_C@_0BN@KDEJ@Monsters?2GoatBow?2GoatB?$CFc?4CL2?$AA@
	DD	00H
	DD	FLAT:??_C@_0BP@DOBM@Monsters?2GoatBow?2GoatB?$CFc?$CFi?4WAV?$AA@
	DD	00H
	DD	00H
	DD	00H
	DD	0cH
	DD	08H
	DD	010H
	DD	06H
	DD	014H
	DD	00H
	DD	03H
	DD	00H
	DD	00H
	DD	00H
	DD	00H
	DD	00H
	DD	FLAT:??_C@_0L@PPFJ@Flesh?5Clan?$AA@
	DB	06H
	DB	0aH
	DB	08H
	ORG $+1
	DD	014H
	DD	023H
	DB	07H
	ORG $+3
	DD	0200H
	DB	00H
	DB	023H
	DB	0dH
	DB	01H
	DB	07H
	DB	00H
	DB	00H
	DB	00H
	DB	00H
	DB	023H
	DB	01H
	ORG $+1
	DW	00H
	DW	00H
	DW	00H
	DB	03H
	ORG $+1
	DW	01c0H
	ORG $+2
	DD	080H
	DD	0410H
	DD	FLAT:??_C@_0BN@KDEJ@Monsters?2GoatBow?2GoatB?$CFc?4CL2?$AA@
	DD	00H
	DD	FLAT:??_C@_0BP@DOBM@Monsters?2GoatBow?2GoatB?$CFc?$CFi?4WAV?$AA@
	DD	00H
	DD	01H
	DD	FLAT:??_C@_0BL@NIME@Monsters?2GoatBow?2Beige?4TRN?$AA@
	DD	0cH
	DD	08H
	DD	010H
	DD	06H
	DD	014H
	DD	00H
	DD	03H
	DD	00H
	DD	00H
	DD	00H
	DD	00H
	DD	00H
	DD	FLAT:??_C@_0L@DDEJ@Stone?5Clan?$AA@
	DB	08H
	DB	0cH
	DB	0aH
	ORG $+1
	DD	01eH
	DD	028H
	DB	07H
	ORG $+3
	DD	0200H
	DB	01H
	DB	028H
	DB	0dH
	DB	02H
	DB	09H
	DB	00H
	DB	00H
	DB	00H
	DB	00H
	DB	023H
	DB	01H
	ORG $+1
	DW	041H
	DW	048H
	DW	00H
	DB	03H
	ORG $+1
	DW	0285H
	ORG $+2
	DD	080H
	DD	0410H
	DD	FLAT:??_C@_0BN@KDEJ@Monsters?2GoatBow?2GoatB?$CFc?4CL2?$AA@
	DD	00H
	DD	FLAT:??_C@_0BP@DOBM@Monsters?2GoatBow?2GoatB?$CFc?$CFi?4WAV?$AA@
	DD	00H
	DD	01H
	DD	FLAT:??_C@_0BJ@NLCC@Monsters?2GoatBow?2Red?4TRN?$AA@
	DD	0cH
	DD	08H
	DD	010H
	DD	06H
	DD	014H
	DD	00H
	DD	03H
	DD	00H
	DD	00H
	DD	00H
	DD	00H
	DD	00H
	DD	FLAT:??_C@_09NBOI@Fire?5Clan?$AA@
	DB	0aH
	DB	0eH
	DB	0cH
	ORG $+1
	DD	028H
	DD	032H
	DB	07H
	ORG $+3
	DD	0300H
	DB	02H
	DB	02dH
	DB	0dH
	DB	03H
	DB	0bH
	DB	00H
	DB	00H
	DB	00H
	DB	00H
	DB	023H
	DB	01H
	ORG $+1
	DW	02H
	DW	010H
	DW	00H
	DB	03H
	ORG $+1
	DW	0336H
	ORG $+2
	DD	080H
	DD	0410H
	DD	FLAT:??_C@_0BN@KDEJ@Monsters?2GoatBow?2GoatB?$CFc?4CL2?$AA@
	DD	00H
	DD	FLAT:??_C@_0BP@DOBM@Monsters?2GoatBow?2GoatB?$CFc?$CFi?4WAV?$AA@
	DD	00H
	DD	01H
	DD	FLAT:??_C@_0BK@LDH@Monsters?2GoatBow?2Gray?4TRN?$AA@
	DD	0cH
	DD	08H
	DD	010H
	DD	06H
	DD	014H
	DD	00H
	DD	03H
	DD	00H
	DD	00H
	DD	00H
	DD	00H
	DD	00H
	DD	FLAT:??_C@_0L@JFLE@Night?5Clan?$AA@
	DB	0cH
	DB	010H
	DB	0eH
	ORG $+1
	DD	032H
	DD	041H
	DB	07H
	ORG $+3
	DD	0300H
	DB	03H
	DB	032H
	DB	0dH
	DB	04H
	DB	0dH
	DB	0fH
	DB	00H
	DB	00H
	DB	00H
	DB	028H
	DB	01H
	ORG $+1
	DW	041H
	DW	048H
	DW	00H
	DB	03H
	ORG $+1
	DW	0444H
	ORG $+2
	DD	080H
	DD	02ccH
	DD	FLAT:??_C@_0BJ@CGEO@Monsters?2Acid?2Acid?$CFc?4CL2?$AA@
	DD	01H
	DD	FLAT:??_C@_0BL@HFAM@Monsters?2Acid?2Acid?$CFc?$CFi?4WAV?$AA@
	DD	01H
	DD	00H
	DD	00H
	DD	0dH
	DD	08H
	DD	0cH
	DD	08H
	DD	010H
	DD	0cH
	DD	00H
	DD	00H
	DD	00H
	DD	00H
	DD	00H
	DD	00H
	DD	FLAT:??_C@_0L@NECC@Acid?5Beast?$AA@
	DB	0aH
	DB	0eH
	DB	0bH
	ORG $+1
	DD	028H
	DD	042H
	DB	013H
	ORG $+3
	DD	00H
	DB	00H
	DB	028H
	DB	08H
	DB	04H
	DB	0cH
	DB	019H
	DB	08H
	DB	00H
	DB	00H
	DB	01eH
	DB	02H
	ORG $+1
	DW	080H
	DW	088H
	DW	00H
	DB	03H
	ORG $+1
	DW	034eH
	ORG $+2
	DD	080H
	DD	02ccH
	DD	FLAT:??_C@_0BJ@CGEO@Monsters?2Acid?2Acid?$CFc?4CL2?$AA@
	DD	01H
	DD	FLAT:??_C@_0BL@HFAM@Monsters?2Acid?2Acid?$CFc?$CFi?4WAV?$AA@
	DD	01H
	DD	01H
	DD	FLAT:??_C@_0BK@MMPI@Monsters?2Acid?2AcidBlk?4TRN?$AA@
	DD	0dH
	DD	08H
	DD	0cH
	DD	08H
	DD	010H
	DD	0cH
	DD	00H
	DD	00H
	DD	00H
	DD	00H
	DD	00H
	DD	00H
	DD	FLAT:??_C@_0P@NPHN@Poison?5Spitter?$AA@
	DB	0eH
	DB	012H
	DB	0fH
	ORG $+1
	DD	03cH
	DD	055H
	DB	013H
	ORG $+3
	DD	00H
	DB	01H
	DB	02dH
	DB	08H
	DB	04H
	DB	010H
	DB	019H
	DB	08H
	DB	00H
	DB	00H
	DB	01eH
	DB	02H
	ORG $+1
	DW	080H
	DW	088H
	DW	00H
	DB	03H
	ORG $+1
	DW	04e0H
	ORG $+2
	DD	080H
	DD	02ccH
	DD	FLAT:??_C@_0BJ@CGEO@Monsters?2Acid?2Acid?$CFc?4CL2?$AA@
	DD	01H
	DD	FLAT:??_C@_0BL@HFAM@Monsters?2Acid?2Acid?$CFc?$CFi?4WAV?$AA@
	DD	01H
	DD	01H
	DD	FLAT:??_C@_0BI@KIAF@Monsters?2Acid?2AcidB?4TRN?$AA@
	DD	0dH
	DD	08H
	DD	0cH
	DD	08H
	DD	010H
	DD	0cH
	DD	00H
	DD	00H
	DD	00H
	DD	00H
	DD	00H
	DD	00H
	DD	FLAT:??_C@_09GJHH@Pit?5Beast?$AA@
	DB	012H
	DB	016H
	DB	015H
	ORG $+1
	DD	050H
	DD	06eH
	DB	013H
	ORG $+3
	DD	00H
	DB	02H
	DB	037H
	DB	08H
	DB	08H
	DB	012H
	DB	023H
	DB	08H
	DB	00H
	DB	00H
	DB	023H
	DB	02H
	ORG $+1
	DW	081H
	DW	08cH
	DW	00H
	DB	03H
	ORG $+1
	DW	080cH
	ORG $+2
	DD	080H
	DD	02ccH
	DD	FLAT:??_C@_0BJ@CGEO@Monsters?2Acid?2Acid?$CFc?4CL2?$AA@
	DD	01H
	DD	FLAT:??_C@_0BL@HFAM@Monsters?2Acid?2Acid?$CFc?$CFi?4WAV?$AA@
	DD	01H
	DD	01H
	DD	FLAT:??_C@_0BI@KKFA@Monsters?2Acid?2AcidR?4TRN?$AA@
	DD	0dH
	DD	08H
	DD	0cH
	DD	08H
	DD	010H
	DD	0cH
	DD	00H
	DD	00H
	DD	00H
	DD	00H
	DD	00H
	DD	00H
	DD	FLAT:??_C@_08KCMP@Lava?5Maw?$AA@
	DB	016H
	DB	01bH
	DB	019H
	ORG $+1
	DD	064H
	DD	096H
	DB	013H
	ORG $+3
	DD	00H
	DB	03H
	DB	041H
	DB	08H
	DB	0aH
	DB	014H
	DB	028H
	DB	08H
	DB	00H
	DB	00H
	DB	023H
	DB	02H
	ORG $+1
	DW	091H
	DW	098H
	DW	00H
	DB	03H
	ORG $+1
	DW	0b7cH
	ORG $+2
	DD	0a0H
	DD	03f2H
	DD	FLAT:??_C@_0BL@OAFB@Monsters?2SKing?2SKing?$CFc?4CL2?$AA@
	DD	01H
	DD	FLAT:??_C@_0BN@KOJK@Monsters?2SKing?2SKing?$CFc?$CFi?4WAV?$AA@
	DD	01H
	DD	01H
	DD	FLAT:??_C@_0BL@LDMJ@Monsters?2SkelAxe?2White?4TRN?$AA@
	DD	08H
	DD	06H
	DD	010H
	DD	06H
	DD	010H
	DD	06H
	DD	02H
	DD	00H
	DD	00H
	DD	00H
	DD	00H
	DD	02H
	DD	FLAT:??_C@_0O@COOI@Skeleton?5King?$AA@
	DB	06H
	DB	06H
	DB	09H
	ORG $+1
	DD	08cH
	DD	08cH
	DB	0aH
	ORG $+3
	DD	0300H
	DB	03H
	DB	03cH
	DB	08H
	DB	06H
	DB	010H
	DB	00H
	DB	00H
	DB	00H
	DB	00H
	DB	046H
	DB	00H
	ORG $+1
	DW	04eH
	DW	078H
	DW	08001H
	DB	07H
	ORG $+1
	DW	023aH
	ORG $+2
	DD	080H
	DD	03d4H
	DD	FLAT:??_C@_0BJ@IFKI@Monsters?2FatC?2FatC?$CFc?4CL2?$AA@
	DD	00H
	DD	FLAT:??_C@_0BL@IGFL@Monsters?2FatC?2FatC?$CFc?$CFi?4WAV?$AA@
	DD	00H
	DD	00H
	DD	00H
	DD	0aH
	DD	08H
	DD	0cH
	DD	06H
	DD	010H
	DD	00H
	DD	01H
	DD	00H
	DD	00H
	DD	00H
	DD	00H
	DD	00H
	DD	FLAT:??_C@_0M@OGO@The?5Butcher?$AA@
	DB	00H
	DB	00H
	DB	01H
	ORG $+1
	DD	0140H
	DD	0140H
	DB	0dH
	ORG $+3
	DD	00H
	DB	03H
	DB	032H
	DB	08H
	DB	06H
	DB	0cH
	DB	00H
	DB	00H
	DB	00H
	DB	00H
	DB	032H
	DB	01H
	ORG $+1
	DW	06H
	DW	031H
	DW	08000H
	DB	03H
	ORG $+1
	DW	02c6H
	ORG $+2
	DD	080H
	DD	046aH
	DD	FLAT:??_C@_0BH@OEHI@Monsters?2Fat?2Fat?$CFc?4CL2?$AA@
	DD	01H
	DD	FLAT:??_C@_0BJ@DLBO@Monsters?2Fat?2Fat?$CFc?$CFi?4WAV?$AA@
	DD	00H
	DD	00H
	DD	00H
	DD	08H
	DD	0aH
	DD	0fH
	DD	06H
	DD	010H
	DD	0aH
	DD	04H
	DD	00H
	DD	00H
	DD	00H
	DD	00H
	DD	00H
	DD	FLAT:??_C@_08FGOM@Overlord?$AA@
	DB	08H
	DB	0cH
	DB	0aH
	ORG $+1
	DD	03cH
	DD	050H
	DB	01H
	ORG $+3
	DD	00H
	DB	00H
	DB	037H
	DB	08H
	DB	06H
	DB	0cH
	DB	00H
	DB	00H
	DB	00H
	DB	00H
	DB	037H
	DB	01H
	ORG $+1
	DW	00H
	DW	02H
	DW	00H
	DB	03H
	ORG $+1
	DW	027bH
	ORG $+2
	DD	080H
	DD	046aH
	DD	FLAT:??_C@_0BH@OEHI@Monsters?2Fat?2Fat?$CFc?4CL2?$AA@
	DD	01H
	DD	FLAT:??_C@_0BJ@DLBO@Monsters?2Fat?2Fat?$CFc?$CFi?4WAV?$AA@
	DD	00H
	DD	01H
	DD	FLAT:??_C@_0BG@KPHM@Monsters?2Fat?2Blue?4TRN?$AA@
	DD	08H
	DD	0aH
	DD	0fH
	DD	06H
	DD	010H
	DD	0aH
	DD	04H
	DD	00H
	DD	00H
	DD	00H
	DD	00H
	DD	00H
	DD	FLAT:??_C@_07BNOE@Mud?5Man?$AA@
	DB	0dH
	DB	011H
	DB	0eH
	ORG $+1
	DD	064H
	DD	07dH
	DB	01H
	ORG $+3
	DD	0100H
	DB	01H
	DB	03cH
	DB	08H
	DB	08H
	DB	010H
	DB	00H
	DB	00H
	DB	00H
	DB	00H
	DB	03cH
	DB	01H
	ORG $+1
	DW	00H
	DW	020H
	DW	00H
	DB	03H
	ORG $+1
	DW	048dH
	ORG $+2
	DD	080H
	DD	046aH
	DD	FLAT:??_C@_0BH@OEHI@Monsters?2Fat?2Fat?$CFc?4CL2?$AA@
	DD	01H
	DD	FLAT:??_C@_0BJ@DLBO@Monsters?2Fat?2Fat?$CFc?$CFi?4WAV?$AA@
	DD	00H
	DD	01H
	DD	FLAT:??_C@_0BG@JOFI@Monsters?2Fat?2FatB?4TRN?$AA@
	DD	08H
	DD	0aH
	DD	0fH
	DD	06H
	DD	010H
	DD	0aH
	DD	04H
	DD	00H
	DD	00H
	DD	00H
	DD	00H
	DD	00H
	DD	FLAT:??_C@_0L@PHFJ@Toad?5Demon?$AA@
	DB	0fH
	DB	013H
	DB	010H
	ORG $+1
	DD	087H
	DD	0a0H
	DB	01H
	ORG $+3
	DD	0100H
	DB	02H
	DB	046H
	DB	08H
	DB	08H
	DB	010H
	DB	028H
	DB	00H
	DB	08H
	DB	014H
	DB	041H
	DB	01H
	ORG $+1
	DW	08H
	DW	0cH
	DW	00H
	DB	03H
	ORG $+1
	DW	0564H
	ORG $+2
	DD	080H
	DD	046aH
	DD	FLAT:??_C@_0BH@OEHI@Monsters?2Fat?2Fat?$CFc?4CL2?$AA@
	DD	01H
	DD	FLAT:??_C@_0BJ@DLBO@Monsters?2Fat?2Fat?$CFc?$CFi?4WAV?$AA@
	DD	00H
	DD	01H
	DD	FLAT:??_C@_0BG@BOMN@Monsters?2Fat?2FatF?4TRN?$AA@
	DD	08H
	DD	0aH
	DD	0fH
	DD	06H
	DD	010H
	DD	0aH
	DD	04H
	DD	00H
	DD	00H
	DD	00H
	DD	00H
	DD	00H
	DD	FLAT:??_C@_0L@ELFK@Flayed?5One?$AA@
	DB	013H
	DB	017H
	DB	014H
	ORG $+1
	DD	0a0H
	DD	0c8H
	DB	01H
	ORG $+3
	DD	0100H
	DB	03H
	DB	055H
	DB	08H
	DB	0aH
	DB	014H
	DB	00H
	DB	00H
	DB	00H
	DB	00H
	DB	046H
	DB	01H
	ORG $+1
	DW	011H
	DW	018H
	DW	00H
	DB	03H
	ORG $+1
	DW	080aH
	ORG $+2
	DD	0a0H
	DD	0974H
	DD	FLAT:??_C@_0BJ@OKOD@Monsters?2Worm?2Worm?$CFc?4CL2?$AA@
	DD	00H
	DD	FLAT:??_C@_0BJ@DLBO@Monsters?2Fat?2Fat?$CFc?$CFi?4WAV?$AA@
	DD	00H
	DD	00H
	DD	00H
	DD	0dH
	DD	0dH
	DD	0dH
	DD	0bH
	DD	013H
	DD	00H
	DD	00H
	DD	00H
	DD	00H
	DD	00H
	DD	00H
	DD	00H
	DD	FLAT:??_C@_04EEPE@Wyrm?$AA@
	DB	09H
	DB	0dH
	DB	0bH
	ORG $+1
	DD	03cH
	DD	05aH
	DB	02H
	ORG $+3
	DD	00H
	DB	00H
	DB	028H
	DB	08H
	DB	04H
	DB	0aH
	DB	00H
	DB	00H
	DB	00H
	DB	00H
	DB	019H
	DB	02H
	ORG $+1
	DW	01H
	DW	01H
	DW	00H
	DB	03H
	ORG $+1
	DW	0294H
	ORG $+2
	DD	0a0H
	DD	0974H
	DD	FLAT:??_C@_0BJ@OKOD@Monsters?2Worm?2Worm?$CFc?4CL2?$AA@
	DD	00H
	DD	FLAT:??_C@_0BJ@DLBO@Monsters?2Fat?2Fat?$CFc?$CFi?4WAV?$AA@
	DD	00H
	DD	00H
	DD	00H
	DD	0dH
	DD	0dH
	DD	0dH
	DD	0bH
	DD	013H
	DD	00H
	DD	00H
	DD	00H
	DD	00H
	DD	00H
	DD	00H
	DD	00H
	DD	FLAT:??_C@_09HKKP@Cave?5Slug?$AA@
	DB	0bH
	DB	0fH
	DB	0dH
	ORG $+1
	DD	04bH
	DD	06eH
	DB	02H
	ORG $+3
	DD	00H
	DB	01H
	DB	032H
	DB	08H
	DB	06H
	DB	0dH
	DB	00H
	DB	00H
	DB	00H
	DB	00H
	DB	01eH
	DB	02H
	ORG $+1
	DW	01H
	DW	01H
	DW	00H
	DB	03H
	ORG $+1
	DW	03e2H
	ORG $+2
	DD	0a0H
	DD	0974H
	DD	FLAT:??_C@_0BJ@OKOD@Monsters?2Worm?2Worm?$CFc?4CL2?$AA@
	DD	00H
	DD	FLAT:??_C@_0BJ@DLBO@Monsters?2Fat?2Fat?$CFc?$CFi?4WAV?$AA@
	DD	00H
	DD	00H
	DD	00H
	DD	0dH
	DD	0dH
	DD	0dH
	DD	0bH
	DD	013H
	DD	00H
	DD	00H
	DD	00H
	DD	00H
	DD	00H
	DD	00H
	DD	00H
	DD	FLAT:??_C@_0L@KJLC@Devil?5Wyrm?$AA@
	DB	0dH
	DB	011H
	DB	0fH
	ORG $+1
	DD	064H
	DD	08cH
	DB	02H
	ORG $+3
	DD	00H
	DB	02H
	DB	037H
	DB	08H
	DB	08H
	DB	010H
	DB	00H
	DB	00H
	DB	00H
	DB	00H
	DB	01eH
	DB	02H
	ORG $+1
	DW	03H
	DW	03H
	DW	00H
	DB	03H
	ORG $+1
	DW	0528H
	ORG $+2
	DD	0a0H
	DD	0974H
	DD	FLAT:??_C@_0BJ@OKOD@Monsters?2Worm?2Worm?$CFc?4CL2?$AA@
	DD	00H
	DD	FLAT:??_C@_0BJ@DLBO@Monsters?2Fat?2Fat?$CFc?$CFi?4WAV?$AA@
	DD	00H
	DD	00H
	DD	00H
	DD	0dH
	DD	0dH
	DD	0dH
	DD	0bH
	DD	013H
	DD	00H
	DD	00H
	DD	00H
	DD	00H
	DD	00H
	DD	00H
	DD	00H
	DD	FLAT:??_C@_08DOKM@Devourer?$AA@
	DB	0fH
	DB	013H
	DB	011H
	ORG $+1
	DD	07dH
	DD	0c8H
	DB	02H
	ORG $+3
	DD	00H
	DB	03H
	DB	03cH
	DB	08H
	DB	0aH
	DB	014H
	DB	00H
	DB	00H
	DB	00H
	DB	00H
	DB	023H
	DB	02H
	ORG $+1
	DW	043H
	DW	043H
	DW	00H
	DB	03H
	ORG $+1
	DW	0723H
	ORG $+2
	DD	080H
	DD	0690H
	DD	FLAT:??_C@_0BL@GJJN@Monsters?2Magma?2Magma?$CFc?4CL2?$AA@
	DD	01H
	DD	FLAT:??_C@_0BN@LADC@Monsters?2Magma?2Magma?$CFc?$CFi?4WAV?$AA@
	DD	01H
	DD	00H
	DD	00H
	DD	08H
	DD	0aH
	DD	0eH
	DD	07H
	DD	012H
	DD	012H
	DD	02H
	DD	00H
	DD	00H
	DD	00H
	DD	01H
	DD	00H
	DD	FLAT:??_C@_0M@BDIN@Magma?5Demon?$AA@
	DB	0eH
	DB	011H
	DB	0dH
	ORG $+1
	DD	032H
	DD	046H
	DB	09H
	ORG $+3
	DD	0300H
	DB	00H
	DB	02dH
	DB	04H
	DB	02H
	DB	0aH
	DB	032H
	DB	0dH
	DB	00H
	DB	00H
	DB	02dH
	DB	01H
	ORG $+1
	DW	0aH
	DW	018H
	DW	00H
	DB	07H
	ORG $+1
	DW	0434H
	ORG $+2
	DD	080H
	DD	0690H
	DD	FLAT:??_C@_0BL@GJJN@Monsters?2Magma?2Magma?$CFc?4CL2?$AA@
	DD	01H
	DD	FLAT:??_C@_0BN@LADC@Monsters?2Magma?2Magma?$CFc?$CFi?4WAV?$AA@
	DD	01H
	DD	01H
	DD	FLAT:??_C@_0BK@PAJG@Monsters?2Magma?2Yellow?4TRN?$AA@
	DD	08H
	DD	0aH
	DD	0eH
	DD	07H
	DD	012H
	DD	012H
	DD	02H
	DD	00H
	DD	00H
	DD	00H
	DD	01H
	DD	00H
	DD	FLAT:??_C@_0M@BAA@Blood?5Stone?$AA@
	DB	0fH
	DB	013H
	DB	0eH
	ORG $+1
	DD	037H
	DD	04bH
	DB	09H
	ORG $+3
	DD	0300H
	DB	01H
	DB	032H
	DB	04H
	DB	02H
	DB	0cH
	DB	032H
	DB	0eH
	DB	00H
	DB	00H
	DB	02dH
	DB	01H
	ORG $+1
	DW	018H
	DW	018H
	DW	00H
	DB	07H
	ORG $+1
	DW	051dH
	ORG $+2
	DD	080H
	DD	0690H
	DD	FLAT:??_C@_0BL@GJJN@Monsters?2Magma?2Magma?$CFc?4CL2?$AA@
	DD	01H
	DD	FLAT:??_C@_0BN@LADC@Monsters?2Magma?2Magma?$CFc?$CFi?4WAV?$AA@
	DD	01H
	DD	01H
	DD	FLAT:??_C@_0BI@HBBI@Monsters?2Magma?2Blue?4TRN?$AA@
	DD	08H
	DD	0aH
	DD	0eH
	DD	07H
	DD	012H
	DD	012H
	DD	02H
	DD	00H
	DD	00H
	DD	00H
	DD	01H
	DD	00H
	DD	FLAT:??_C@_0L@IKKA@Hell?5Stone?$AA@
	DB	010H
	DB	014H
	DB	010H
	ORG $+1
	DD	03cH
	DD	050H
	DB	09H
	ORG $+3
	DD	0300H
	DB	02H
	DB	03cH
	DB	04H
	DB	02H
	DB	014H
	DB	03cH
	DB	0eH
	DB	00H
	DB	00H
	DB	032H
	DB	01H
	ORG $+1
	DW	018H
	DW	018H
	DW	00H
	DB	07H
	ORG $+1
	DW	0690H
	ORG $+2
	DD	080H
	DD	0690H
	DD	FLAT:??_C@_0BL@GJJN@Monsters?2Magma?2Magma?$CFc?4CL2?$AA@
	DD	01H
	DD	FLAT:??_C@_0BN@LADC@Monsters?2Magma?2Magma?$CFc?$CFi?4WAV?$AA@
	DD	01H
	DD	01H
	DD	FLAT:??_C@_0BJ@KPPL@Monsters?2Magma?2Wierd?4TRN?$AA@
	DD	08H
	DD	0aH
	DD	0eH
	DD	07H
	DD	012H
	DD	012H
	DD	02H
	DD	00H
	DD	00H
	DD	00H
	DD	01H
	DD	00H
	DD	FLAT:??_C@_09JMEO@Lava?5Lord?$AA@
	DB	011H
	DB	015H
	DB	012H
	ORG $+1
	DD	046H
	DD	055H
	DB	09H
	ORG $+3
	DD	0300H
	DB	03H
	DB	04bH
	DB	04H
	DB	04H
	DB	018H
	DB	03cH
	DB	0eH
	DB	00H
	DB	00H
	DB	03cH
	DB	01H
	ORG $+1
	DW	018H
	DW	018H
	DW	00H
	DB	07H
	ORG $+1
	DW	084cH
	ORG $+2
	DD	0a0H
	DD	065eH
	DD	FLAT:??_C@_0BL@DDCB@Monsters?2Rhino?2Rhino?$CFc?4CL2?$AA@
	DD	01H
	DD	FLAT:??_C@_0BN@INFH@Monsters?2Rhino?2Rhino?$CFc?$CFi?4WAV?$AA@
	DD	01H
	DD	00H
	DD	00H
	DD	08H
	DD	08H
	DD	0eH
	DD	06H
	DD	010H
	DD	06H
	DD	02H
	DD	00H
	DD	00H
	DD	00H
	DD	00H
	DD	00H
	DD	FLAT:??_C@_0N@OLEB@Horned?5Demon?$AA@
	DB	0cH
	DB	010H
	DB	0dH
	ORG $+1
	DD	028H
	DD	050H
	DB	05H
	ORG $+3
	DD	0300H
	DB	00H
	DB	03cH
	DB	07H
	DB	02H
	DB	010H
	DB	064H
	DB	00H
	DB	05H
	DB	020H
	DB	028H
	DB	02H
	ORG $+1
	DW	00H
	DW	02H
	DW	00H
	DB	07H
	ORG $+1
	DW	0494H
	ORG $+2
	DD	0a0H
	DD	065eH
	DD	FLAT:??_C@_0BL@DDCB@Monsters?2Rhino?2Rhino?$CFc?4CL2?$AA@
	DD	01H
	DD	FLAT:??_C@_0BN@INFH@Monsters?2Rhino?2Rhino?$CFc?$CFi?4WAV?$AA@
	DD	01H
	DD	01H
	DD	FLAT:??_C@_0BK@MPLB@Monsters?2Rhino?2Orange?4TRN?$AA@
	DD	08H
	DD	08H
	DD	0eH
	DD	06H
	DD	010H
	DD	06H
	DD	02H
	DD	00H
	DD	00H
	DD	00H
	DD	00H
	DD	00H
	DD	FLAT:??_C@_0L@EIAJ@Mud?5Runner?$AA@
	DB	0eH
	DB	012H
	DB	0fH
	ORG $+1
	DD	032H
	DD	05aH
	DB	05H
	ORG $+3
	DD	0300H
	DB	01H
	DB	046H
	DB	07H
	DB	06H
	DB	012H
	DB	064H
	DB	00H
	DB	0cH
	DB	024H
	DB	02dH
	DB	02H
	ORG $+1
	DW	00H
	DW	02H
	DW	00H
	DB	07H
	ORG $+1
	DW	057cH
	ORG $+2
	DD	0a0H
	DD	065eH
	DD	FLAT:??_C@_0BL@DDCB@Monsters?2Rhino?2Rhino?$CFc?4CL2?$AA@
	DD	01H
	DD	FLAT:??_C@_0BN@INFH@Monsters?2Rhino?2Rhino?$CFc?$CFi?4WAV?$AA@
	DD	01H
	DD	01H
	DD	FLAT:??_C@_0BI@KPBF@Monsters?2Rhino?2Blue?4TRN?$AA@
	DD	08H
	DD	08H
	DD	0eH
	DD	06H
	DD	010H
	DD	06H
	DD	02H
	DD	00H
	DD	00H
	DD	00H
	DD	00H
	DD	00H
	DD	FLAT:??_C@_0O@HAFD@Frost?5Charger?$AA@
	DB	010H
	DB	014H
	DB	011H
	ORG $+1
	DD	03cH
	DD	064H
	DB	05H
	ORG $+3
	DD	0300H
	DB	02H
	DB	050H
	DB	07H
	DB	08H
	DB	014H
	DB	064H
	DB	00H
	DB	014H
	DB	028H
	DB	032H
	DB	02H
	ORG $+1
	DW	0cH
	DW	0cH
	DW	00H
	DB	07H
	ORG $+1
	DW	06b8H
	ORG $+2
	DD	0a0H
	DD	065eH
	DD	FLAT:??_C@_0BL@DDCB@Monsters?2Rhino?2Rhino?$CFc?4CL2?$AA@
	DD	01H
	DD	FLAT:??_C@_0BN@INFH@Monsters?2Rhino?2Rhino?$CFc?$CFi?4WAV?$AA@
	DD	01H
	DD	01H
	DD	FLAT:??_C@_0BK@MHDK@Monsters?2Rhino?2RhinoB?4TRN?$AA@
	DD	08H
	DD	08H
	DD	0eH
	DD	06H
	DD	010H
	DD	06H
	DD	02H
	DD	00H
	DD	00H
	DD	00H
	DD	00H
	DD	00H
	DD	FLAT:??_C@_0O@FPB@Obsidian?5Lord?$AA@
	DB	012H
	DB	016H
	DB	013H
	ORG $+1
	DD	046H
	DD	06eH
	DB	05H
	ORG $+3
	DD	0300H
	DB	03H
	DB	05aH
	DB	07H
	DB	0aH
	DB	016H
	DB	064H
	DB	00H
	DB	014H
	DB	032H
	DB	037H
	DB	02H
	ORG $+1
	DW	0cH
	DW	038H
	DW	00H
	DB	07H
	ORG $+1
	DW	0711H
	ORG $+2
	DD	080H
	DD	06ccH
	DD	FLAT:??_C@_0BO@PCKO@Monsters?2Demskel?2Demskl?$CFc?4CL2?$AA@
	DD	01H
	DD	FLAT:??_C@_0BL@MEBK@Monsters?2Thin?2Thin?$CFc?$CFi?4WAV?$AA@
	DD	01H
	DD	00H
	DD	FLAT:??_C@_0BJ@LDDE@Monsters?2Thin?2Thinv3?4TRN?$AA@
	DD	0aH
	DD	08H
	DD	014H
	DD	06H
	DD	018H
	DD	010H
	DD	03H
	DD	00H
	DD	00H
	DD	00H
	DD	00H
	DD	00H
	DD	FLAT:??_C@_0L@LMNI@Bone?5Demon?$AA@
	DB	0aH
	DB	0eH
	DB	0cH
	ORG $+1
	DD	046H
	DD	046H
	DB	010H
	ORG $+3
	DD	00H
	DB	00H
	DB	03cH
	DB	08H
	DB	06H
	DB	0eH
	DB	0cH
	DB	00H
	DB	00H
	DB	00H
	DB	032H
	DB	01H
	ORG $+1
	DW	048H
	DW	048H
	DW	00H
	DB	07H
	ORG $+1
	DW	0540H
	ORG $+2
	DD	0a0H
	DD	06ccH
	DD	FLAT:??_C@_0BJ@KDGD@Monsters?2Thin?2Thin?$CFc?4CL2?$AA@
	DD	01H
	DD	FLAT:??_C@_0BL@MEBK@Monsters?2Thin?2Thin?$CFc?$CFi?4WAV?$AA@
	DD	01H
	DD	01H
	DD	FLAT:??_C@_0BJ@LDDE@Monsters?2Thin?2Thinv3?4TRN?$AA@
	DD	08H
	DD	08H
	DD	012H
	DD	04H
	DD	011H
	DD	0eH
	DD	03H
	DD	00H
	DD	00H
	DD	00H
	DD	00H
	DD	00H
	DD	FLAT:??_C@_09JDGN@Red?5Death?$AA@
	DB	0eH
	DB	012H
	DB	010H
	ORG $+1
	DD	060H
	DD	060H
	DB	010H
	ORG $+3
	DD	00H
	DB	01H
	DB	04bH
	DB	05H
	DB	0aH
	DB	014H
	DB	00H
	DB	00H
	DB	00H
	DB	00H
	DB	03cH
	DB	01H
	ORG $+1
	DW	018H
	DW	018H
	DW	00H
	DB	07H
	ORG $+1
	DW	0878H
	ORG $+2
	DD	0a0H
	DD	06ccH
	DD	FLAT:??_C@_0BJ@KDGD@Monsters?2Thin?2Thin?$CFc?4CL2?$AA@
	DD	01H
	DD	FLAT:??_C@_0BL@MEBK@Monsters?2Thin?2Thin?$CFc?$CFi?4WAV?$AA@
	DD	01H
	DD	01H
	DD	FLAT:??_C@_0BJ@LDDE@Monsters?2Thin?2Thinv3?4TRN?$AA@
	DD	08H
	DD	08H
	DD	012H
	DD	04H
	DD	011H
	DD	0eH
	DD	03H
	DD	00H
	DD	00H
	DD	00H
	DD	00H
	DD	00H
	DD	FLAT:??_C@_0M@EOOB@Litch?5Demon?$AA@
	DB	010H
	DB	014H
	DB	012H
	ORG $+1
	DD	06eH
	DD	06eH
	DB	010H
	ORG $+3
	DD	00H
	DB	02H
	DB	050H
	DB	05H
	DB	0aH
	DB	018H
	DB	00H
	DB	00H
	DB	00H
	DB	00H
	DB	02dH
	DB	01H
	ORG $+1
	DW	068H
	DW	068H
	DW	00H
	DB	07H
	ORG $+1
	DW	0ab0H
	ORG $+2
	DD	0a0H
	DD	06ccH
	DD	FLAT:??_C@_0BJ@KDGD@Monsters?2Thin?2Thin?$CFc?4CL2?$AA@
	DD	01H
	DD	FLAT:??_C@_0BL@MEBK@Monsters?2Thin?2Thin?$CFc?$CFi?4WAV?$AA@
	DD	01H
	DD	01H
	DD	FLAT:??_C@_0BJ@LDDE@Monsters?2Thin?2Thinv3?4TRN?$AA@
	DD	08H
	DD	08H
	DD	012H
	DD	04H
	DD	011H
	DD	0eH
	DD	03H
	DD	00H
	DD	00H
	DD	00H
	DD	00H
	DD	00H
	DD	FLAT:??_C@_0O@HMDJ@Undead?5Balrog?$AA@
	DB	014H
	DB	018H
	DB	016H
	ORG $+1
	DD	082H
	DD	082H
	DB	010H
	ORG $+3
	DD	00H
	DB	03H
	DB	055H
	DB	05H
	DB	0cH
	DB	01eH
	DB	00H
	DB	00H
	DB	00H
	DB	00H
	DB	041H
	DB	01H
	ORG $+1
	DW	04eH
	DW	04eH
	DW	00H
	DB	07H
	ORG $+1
	DW	0df7H
	ORG $+2
	DD	080H
	DD	05b4H
	DD	FLAT:??_C@_0BN@JOPB@Monsters?2Fireman?2FireM?$CFc?4CL2?$AA@
	DD	01H
	DD	FLAT:??_C@_0BL@HFAM@Monsters?2Acid?2Acid?$CFc?$CFi?4WAV?$AA@
	DD	00H
	DD	00H
	DD	00H
	DD	0eH
	DD	013H
	DD	014H
	DD	08H
	DD	0eH
	DD	017H
	DD	00H
	DD	00H
	DD	00H
	DD	00H
	DD	00H
	DD	00H
	DD	FLAT:??_C@_0M@LACM@Incinerator?$AA@
	DB	0eH
	DB	012H
	DB	010H
	ORG $+1
	DD	01eH
	DD	02dH
	DB	011H
	ORG $+3
	DD	00H
	DB	00H
	DB	04bH
	DB	08H
	DB	08H
	DB	010H
	DB	00H
	DB	00H
	DB	00H
	DB	00H
	DB	019H
	DB	01H
	ORG $+1
	DW	018H
	DW	018H
	DW	00H
	DB	03H
	ORG $+1
	DW	0760H
	ORG $+2
	DD	080H
	DD	05b4H
	DD	FLAT:??_C@_0BN@JOPB@Monsters?2Fireman?2FireM?$CFc?4CL2?$AA@
	DD	01H
	DD	FLAT:??_C@_0BL@HFAM@Monsters?2Acid?2Acid?$CFc?$CFi?4WAV?$AA@
	DD	00H
	DD	00H
	DD	00H
	DD	0eH
	DD	013H
	DD	014H
	DD	08H
	DD	0eH
	DD	017H
	DD	00H
	DD	00H
	DD	00H
	DD	00H
	DD	00H
	DD	00H
	DD	FLAT:??_C@_0L@LNJN@Flame?5Lord?$AA@
	DB	010H
	DB	014H
	DB	012H
	ORG $+1
	DD	028H
	DD	037H
	DB	011H
	ORG $+3
	DD	00H
	DB	01H
	DB	04bH
	DB	08H
	DB	0aH
	DB	014H
	DB	00H
	DB	00H
	DB	00H
	DB	00H
	DB	019H
	DB	01H
	ORG $+1
	DW	018H
	DW	018H
	DW	00H
	DB	03H
	ORG $+1
	DW	08caH
	ORG $+2
	DD	080H
	DD	05b4H
	DD	FLAT:??_C@_0BN@JOPB@Monsters?2Fireman?2FireM?$CFc?4CL2?$AA@
	DD	01H
	DD	FLAT:??_C@_0BL@HFAM@Monsters?2Acid?2Acid?$CFc?$CFi?4WAV?$AA@
	DD	00H
	DD	00H
	DD	00H
	DD	0eH
	DD	013H
	DD	014H
	DD	08H
	DD	0eH
	DD	017H
	DD	00H
	DD	00H
	DD	00H
	DD	00H
	DD	00H
	DD	00H
	DD	FLAT:??_C@_09BBKL@Doom?5Fire?$AA@
	DB	012H
	DB	016H
	DB	014H
	ORG $+1
	DD	032H
	DD	041H
	DB	011H
	ORG $+3
	DD	00H
	DB	02H
	DB	050H
	DB	08H
	DB	0cH
	DB	018H
	DB	00H
	DB	00H
	DB	00H
	DB	00H
	DB	01eH
	DB	01H
	ORG $+1
	DW	01cH
	DW	01cH
	DW	00H
	DB	03H
	ORG $+1
	DW	0ab4H
	ORG $+2
	DD	080H
	DD	05b4H
	DD	FLAT:??_C@_0BN@JOPB@Monsters?2Fireman?2FireM?$CFc?4CL2?$AA@
	DD	01H
	DD	FLAT:??_C@_0BL@HFAM@Monsters?2Acid?2Acid?$CFc?$CFi?4WAV?$AA@
	DD	00H
	DD	00H
	DD	00H
	DD	0eH
	DD	013H
	DD	014H
	DD	08H
	DD	0eH
	DD	017H
	DD	00H
	DD	00H
	DD	00H
	DD	00H
	DD	00H
	DD	00H
	DD	FLAT:??_C@_0M@DMNI@Hell?5Burner?$AA@
	DB	014H
	DB	018H
	DB	016H
	ORG $+1
	DD	03cH
	DD	050H
	DB	011H
	ORG $+3
	DD	00H
	DB	03H
	DB	055H
	DB	08H
	DB	0fH
	DB	01eH
	DB	00H
	DB	00H
	DB	00H
	DB	00H
	DB	01eH
	DB	01H
	ORG $+1
	DW	01cH
	DW	01cH
	DW	00H
	DB	03H
	ORG $+1
	DW	0d1bH
	ORG $+2
	DD	0a0H
	DD	06ccH
	DD	FLAT:??_C@_0BJ@KDGD@Monsters?2Thin?2Thin?$CFc?4CL2?$AA@
	DD	01H
	DD	FLAT:??_C@_0BL@MEBK@Monsters?2Thin?2Thin?$CFc?$CFi?4WAV?$AA@
	DD	01H
	DD	01H
	DD	FLAT:??_C@_0BJ@LDDE@Monsters?2Thin?2Thinv3?4TRN?$AA@
	DD	08H
	DD	08H
	DD	012H
	DD	04H
	DD	011H
	DD	0eH
	DD	03H
	DD	00H
	DD	00H
	DD	00H
	DD	00H
	DD	00H
	DD	FLAT:??_C@_09IKEH@Red?5Storm?$AA@
	DB	011H
	DB	015H
	DB	012H
	ORG $+1
	DD	037H
	DD	06eH
	DB	010H
	ORG $+3
	DD	0300H
	DB	00H
	DB	050H
	DB	05H
	DB	08H
	DB	012H
	DB	04bH
	DB	08H
	DB	04H
	DB	010H
	DB	01eH
	DB	01H
	ORG $+1
	DW	0cH
	DW	028H
	DW	00H
	DB	07H
	ORG $+1
	DW	0870H
	ORG $+2
	DD	0a0H
	DD	06ccH
	DD	FLAT:??_C@_0BJ@KDGD@Monsters?2Thin?2Thin?$CFc?4CL2?$AA@
	DD	01H
	DD	FLAT:??_C@_0BL@MEBK@Monsters?2Thin?2Thin?$CFc?$CFi?4WAV?$AA@
	DD	01H
	DD	00H
	DD	00H
	DD	08H
	DD	08H
	DD	012H
	DD	04H
	DD	011H
	DD	0eH
	DD	03H
	DD	00H
	DD	00H
	DD	00H
	DD	00H
	DD	00H
	DD	FLAT:??_C@_0M@ELEK@Storm?5Rider?$AA@
	DB	013H
	DB	017H
	DB	014H
	ORG $+1
	DD	03cH
	DD	078H
	DB	010H
	ORG $+3
	DD	0300H
	DB	01H
	DB	050H
	DB	05H
	DB	08H
	DB	012H
	DB	050H
	DB	08H
	DB	04H
	DB	010H
	DB	01eH
	DB	01H
	ORG $+1
	DW	021H
	DW	028H
	DW	00H
	DB	07H
	ORG $+1
	DW	0957H
	ORG $+2
	DD	0a0H
	DD	06ccH
	DD	FLAT:??_C@_0BJ@KDGD@Monsters?2Thin?2Thin?$CFc?4CL2?$AA@
	DD	01H
	DD	FLAT:??_C@_0BL@MEBK@Monsters?2Thin?2Thin?$CFc?$CFi?4WAV?$AA@
	DD	01H
	DD	01H
	DD	FLAT:??_C@_0BJ@BDBB@Monsters?2Thin?2Thinv2?4TRN?$AA@
	DD	08H
	DD	08H
	DD	012H
	DD	04H
	DD	011H
	DD	0eH
	DD	03H
	DD	00H
	DD	00H
	DD	00H
	DD	00H
	DD	00H
	DD	FLAT:??_C@_0L@MPDM@Storm?5Lord?$AA@
	DB	015H
	DB	019H
	DB	016H
	ORG $+1
	DD	04bH
	DD	087H
	DB	010H
	ORG $+3
	DD	0300H
	DB	02H
	DB	055H
	DB	05H
	DB	0cH
	DB	018H
	DB	04bH
	DB	08H
	DB	04H
	DB	010H
	DB	023H
	DB	01H
	ORG $+1
	DW	021H
	DW	028H
	DW	00H
	DB	07H
	ORG $+1
	DW	0ad7H
	ORG $+2
	DD	0a0H
	DD	06ccH
	DD	FLAT:??_C@_0BJ@KDGD@Monsters?2Thin?2Thin?$CFc?4CL2?$AA@
	DD	01H
	DD	FLAT:??_C@_0BL@MEBK@Monsters?2Thin?2Thin?$CFc?$CFi?4WAV?$AA@
	DD	01H
	DD	01H
	DD	FLAT:??_C@_0BJ@PDHO@Monsters?2Thin?2Thinv1?4TRN?$AA@
	DD	08H
	DD	08H
	DD	012H
	DD	04H
	DD	011H
	DD	0eH
	DD	03H
	DD	00H
	DD	00H
	DD	00H
	DD	00H
	DD	00H
	DD	FLAT:??_C@_09GKHB@Maelstorm?$AA@
	DB	017H
	DB	01bH
	DB	018H
	ORG $+1
	DD	05aH
	DD	096H
	DB	010H
	ORG $+3
	DD	0300H
	DB	03H
	DB	05aH
	DB	05H
	DB	0cH
	DB	01cH
	DB	04bH
	DB	08H
	DB	04H
	DB	010H
	DB	028H
	DB	01H
	ORG $+1
	DW	061H
	DW	068H
	DW	00H
	DB	07H
	ORG $+1
	DW	0c69H
	ORG $+2
	DD	080H
	DD	0672H
	DD	FLAT:??_C@_0BN@PDMB@Monsters?2BigFall?2Fallg?$CFc?4CL2?$AA@
	DD	01H
	DD	FLAT:??_C@_0BO@COGP@Monsters?2BigFall?2Bfal?$CFc?$CFi?4WAV?$AA@
	DD	00H
	DD	00H
	DD	00H
	DD	0aH
	DD	08H
	DD	0bH
	DD	08H
	DD	011H
	DD	00H
	DD	00H
	DD	00H
	DD	00H
	DD	00H
	DD	02H
	DD	02H
	DD	FLAT:??_C@_0BA@FGGD@Devil?5Kin?5Brute?$AA@
	DB	014H
	DB	014H
	DB	018H
	ORG $+1
	DD	0a0H
	DD	0dcH
	DB	02H
	ORG $+3
	DD	0300H
	DB	03H
	DB	064H
	DB	06H
	DB	012H
	DB	018H
	DB	00H
	DB	00H
	DB	00H
	DB	00H
	DB	04bH
	DB	02H
	ORG $+1
	DW	00H
	DW	00H
	DW	00H
	DB	06H
	ORG $+1
	DW	07d0H
	ORG $+2
	DD	0a0H
	DD	0672H
	DD	FLAT:??_C@_0BO@DCJK@Monsters?2Gargoyle?2Gargo?$CFc?4CL2?$AA@
	DD	01H
	DD	FLAT:??_C@_0CA@OJJF@Monsters?2Gargoyle?2Gargo?$CFc?$CFi?4WAV?$AA@
	DD	00H
	DD	00H
	DD	00H
	DD	0eH
	DD	0eH
	DD	0eH
	DD	0aH
	DD	012H
	DD	0eH
	DD	00H
	DD	00H
	DD	00H
	DD	00H
	DD	00H
	DD	02H
	DD	FLAT:??_C@_0N@CHBP@Winged?9Demon?$AA@
	DB	08H
	DB	0cH
	DB	09H
	ORG $+1
	DD	02dH
	DD	03cH
	DB	0cH
	ORG $+3
	DD	0200H
	DB	00H
	DB	032H
	DB	07H
	DB	0aH
	DB	010H
	DB	00H
	DB	00H
	DB	00H
	DB	00H
	DB	02dH
	DB	01H
	ORG $+1
	DW	04aH
	DW	058H
	DW	00H
	DB	06H
	ORG $+1
	DW	0296H
	ORG $+2
	DD	0a0H
	DD	0672H
	DD	FLAT:??_C@_0BO@DCJK@Monsters?2Gargoyle?2Gargo?$CFc?4CL2?$AA@
	DD	01H
	DD	FLAT:??_C@_0CA@OJJF@Monsters?2Gargoyle?2Gargo?$CFc?$CFi?4WAV?$AA@
	DD	00H
	DD	01H
	DD	FLAT:??_C@_0BL@GLPH@Monsters?2Gargoyle?2GarE?4TRN?$AA@
	DD	0eH
	DD	0eH
	DD	0eH
	DD	0aH
	DD	012H
	DD	0eH
	DD	00H
	DD	00H
	DD	00H
	DD	00H
	DD	00H
	DD	02H
	DD	FLAT:??_C@_08HND@Gargoyle?$AA@
	DB	0cH
	DB	010H
	DB	0dH
	ORG $+1
	DD	03cH
	DD	05aH
	DB	0cH
	ORG $+3
	DD	0200H
	DB	01H
	DB	041H
	DB	07H
	DB	0aH
	DB	010H
	DB	00H
	DB	00H
	DB	00H
	DB	00H
	DB	02dH
	DB	01H
	ORG $+1
	DW	04cH
	DW	068H
	DW	00H
	DB	06H
	ORG $+1
	DW	04b5H
	ORG $+2
	DD	0a0H
	DD	0672H
	DD	FLAT:??_C@_0BO@DCJK@Monsters?2Gargoyle?2Gargo?$CFc?4CL2?$AA@
	DD	01H
	DD	FLAT:??_C@_0CA@OJJF@Monsters?2Gargoyle?2Gargo?$CFc?$CFi?4WAV?$AA@
	DD	00H
	DD	01H
	DD	FLAT:??_C@_0BN@KACC@Monsters?2Gargoyle?2GargBr?4TRN?$AA@
	DD	0eH
	DD	0eH
	DD	0eH
	DD	0aH
	DD	012H
	DD	0eH
	DD	00H
	DD	00H
	DD	00H
	DD	00H
	DD	00H
	DD	00H
	DD	FLAT:??_C@_0L@JKAG@Blood?5Claw?$AA@
	DB	010H
	DB	014H
	DB	013H
	ORG $+1
	DD	04bH
	DD	07dH
	DB	0cH
	ORG $+3
	DD	0200H
	DB	02H
	DB	050H
	DB	07H
	DB	0eH
	DB	016H
	DB	00H
	DB	00H
	DB	00H
	DB	00H
	DB	032H
	DB	01H
	ORG $+1
	DW	058H
	DW	05cH
	DW	00H
	DB	06H
	ORG $+1
	DW	0751H
	ORG $+2
	DD	0a0H
	DD	0672H
	DD	FLAT:??_C@_0BO@DCJK@Monsters?2Gargoyle?2Gargo?$CFc?4CL2?$AA@
	DD	01H
	DD	FLAT:??_C@_0CA@OJJF@Monsters?2Gargoyle?2Gargo?$CFc?$CFi?4WAV?$AA@
	DD	00H
	DD	01H
	DD	FLAT:??_C@_0BM@GEJG@Monsters?2Gargoyle?2GargB?4TRN?$AA@
	DD	0eH
	DD	0eH
	DD	0eH
	DD	0aH
	DD	012H
	DD	0eH
	DD	00H
	DD	00H
	DD	00H
	DD	00H
	DD	00H
	DD	00H
	DD	FLAT:??_C@_0L@CJIN@Death?5Wing?$AA@
	DB	012H
	DB	016H
	DB	017H
	ORG $+1
	DD	05aH
	DD	096H
	DB	0cH
	ORG $+3
	DD	0200H
	DB	03H
	DB	05fH
	DB	07H
	DB	010H
	DB	01cH
	DB	00H
	DB	00H
	DB	00H
	DB	00H
	DB	03cH
	DB	01H
	ORG $+1
	DW	068H
	DW	06aH
	DW	00H
	DB	06H
	ORG $+1
	DW	08e6H
	ORG $+2
	DD	0a0H
	DD	08acH
	DD	FLAT:??_C@_0BJ@OHJC@Monsters?2Mega?2Mega?$CFc?4CL2?$AA@
	DD	01H
	DD	FLAT:??_C@_0BL@EJPE@Monsters?2Mega?2Mega?$CFc?$CFi?4WAV?$AA@
	DD	01H
	DD	00H
	DD	00H
	DD	06H
	DD	07H
	DD	0eH
	DD	01H
	DD	018H
	DD	05H
	DD	03H
	DD	00H
	DD	00H
	DD	00H
	DD	02H
	DD	00H
	DD	FLAT:??_C@_06MHAA@Slayer?$AA@
	DB	013H
	DB	017H
	DB	014H
	ORG $+1
	DD	078H
	DD	08cH
	DB	01aH
	ORG $+3
	DD	0300H
	DB	00H
	DB	064H
	DB	08H
	DB	0cH
	DB	014H
	DB	00H
	DB	03H
	DB	00H
	DB	00H
	DB	03cH
	DB	01H
	ORG $+1
	DW	011H
	DW	011H
	DW	00H
	DB	07H
	ORG $+1
	DW	08fcH
	ORG $+2
	DD	0a0H
	DD	08acH
	DD	FLAT:??_C@_0BJ@OHJC@Monsters?2Mega?2Mega?$CFc?4CL2?$AA@
	DD	01H
	DD	FLAT:??_C@_0BL@EJPE@Monsters?2Mega?2Mega?$CFc?$CFi?4WAV?$AA@
	DD	01H
	DD	01H
	DD	FLAT:??_C@_0BI@KHJI@Monsters?2Mega?2Guard?4TRN?$AA@
	DD	06H
	DD	07H
	DD	0eH
	DD	01H
	DD	018H
	DD	05H
	DD	03H
	DD	00H
	DD	00H
	DD	00H
	DD	02H
	DD	00H
	DD	FLAT:??_C@_08KEIB@Guardian?$AA@
	DB	015H
	DB	019H
	DB	016H
	ORG $+1
	DD	08cH
	DD	0a0H
	DB	01aH
	ORG $+3
	DD	0300H
	DB	01H
	DB	06eH
	DB	08H
	DB	0eH
	DB	016H
	DB	00H
	DB	03H
	DB	00H
	DB	00H
	DB	041H
	DB	01H
	ORG $+1
	DW	011H
	DW	011H
	DW	00H
	DB	07H
	ORG $+1
	DW	0a9aH
	ORG $+2
	DD	0a0H
	DD	08acH
	DD	FLAT:??_C@_0BJ@OHJC@Monsters?2Mega?2Mega?$CFc?4CL2?$AA@
	DD	01H
	DD	FLAT:??_C@_0BL@EJPE@Monsters?2Mega?2Mega?$CFc?$CFi?4WAV?$AA@
	DD	01H
	DD	01H
	DD	FLAT:??_C@_0BI@DEEB@Monsters?2Mega?2Vtexl?4TRN?$AA@
	DD	06H
	DD	07H
	DD	0eH
	DD	01H
	DD	018H
	DD	05H
	DD	03H
	DD	00H
	DD	00H
	DD	00H
	DD	02H
	DD	00H
	DD	FLAT:??_C@_0M@NBKI@Vortex?5Lord?$AA@
	DB	017H
	DB	01aH
	DB	018H
	ORG $+1
	DD	0a0H
	DD	0b4H
	DB	01aH
	ORG $+3
	DD	0300H
	DB	02H
	DB	078H
	DB	08H
	DB	012H
	DB	018H
	DB	00H
	DB	03H
	DB	00H
	DB	00H
	DB	046H
	DB	01H
	ORG $+1
	DW	051H
	DW	055H
	DW	00H
	DB	07H
	ORG $+1
	DW	0cb4H
	ORG $+2
	DD	0a0H
	DD	08acH
	DD	FLAT:??_C@_0BJ@OHJC@Monsters?2Mega?2Mega?$CFc?4CL2?$AA@
	DD	01H
	DD	FLAT:??_C@_0BL@EJPE@Monsters?2Mega?2Mega?$CFc?$CFi?4WAV?$AA@
	DD	01H
	DD	01H
	DD	FLAT:??_C@_0BH@BNN@Monsters?2Mega?2Balr?4TRN?$AA@
	DD	06H
	DD	07H
	DD	0eH
	DD	01H
	DD	018H
	DD	05H
	DD	03H
	DD	00H
	DD	00H
	DD	00H
	DD	02H
	DD	00H
	DD	FLAT:??_C@_06OEIG@Balrog?$AA@
	DB	019H
	DB	01dH
	DB	01aH
	ORG $+1
	DD	0b4H
	DD	0c8H
	DB	01aH
	ORG $+3
	DD	0300H
	DB	03H
	DB	082H
	DB	08H
	DB	016H
	DB	01eH
	DB	00H
	DB	03H
	DB	00H
	DB	00H
	DB	04bH
	DB	01H
	ORG $+1
	DW	051H
	DW	055H
	DW	00H
	DB	07H
	ORG $+1
	DW	0e3bH
	ORG $+2
	DD	0a0H
	DD	04f6H
	DD	FLAT:??_C@_0BL@IHHM@Monsters?2Snake?2Snake?$CFc?4CL2?$AA@
	DD	00H
	DD	FLAT:??_C@_0BN@NHII@Monsters?2Snake?2Snake?$CFc?$CFi?4WAV?$AA@
	DD	00H
	DD	00H
	DD	00H
	DD	0cH
	DD	0bH
	DD	0dH
	DD	05H
	DD	012H
	DD	00H
	DD	02H
	DD	00H
	DD	00H
	DD	00H
	DD	01H
	DD	00H
	DD	FLAT:??_C@_0L@PGLH@Cave?5Viper?$AA@
	DB	014H
	DB	018H
	DB	015H
	ORG $+1
	DD	064H
	DD	096H
	DB	018H
	ORG $+3
	DD	0100H
	DB	00H
	DB	05aH
	DB	08H
	DB	08H
	DB	014H
	DB	00H
	DB	00H
	DB	00H
	DB	00H
	DB	03cH
	DB	01H
	ORG $+1
	DW	08H
	DW	08H
	DW	00H
	DB	07H
	ORG $+1
	DW	0aa5H
	ORG $+2
	DD	0a0H
	DD	04f6H
	DD	FLAT:??_C@_0BL@IHHM@Monsters?2Snake?2Snake?$CFc?4CL2?$AA@
	DD	00H
	DD	FLAT:??_C@_0BN@NHII@Monsters?2Snake?2Snake?$CFc?$CFi?4WAV?$AA@
	DD	00H
	DD	01H
	DD	FLAT:??_C@_0BJ@LCBA@Monsters?2Snake?2SnakR?4TRN?$AA@
	DD	0cH
	DD	0bH
	DD	0dH
	DD	05H
	DD	012H
	DD	00H
	DD	02H
	DD	00H
	DD	00H
	DD	00H
	DD	01H
	DD	00H
	DD	FLAT:??_C@_0L@GLJN@Fire?5Drake?$AA@
	DB	016H
	DB	01aH
	DB	017H
	ORG $+1
	DD	078H
	DD	0aaH
	DB	018H
	ORG $+3
	DD	0100H
	DB	01H
	DB	069H
	DB	08H
	DB	0cH
	DB	018H
	DB	00H
	DB	00H
	DB	00H
	DB	00H
	DB	041H
	DB	01H
	ORG $+1
	DW	0aH
	DW	018H
	DW	00H
	DB	07H
	ORG $+1
	DW	0c43H
	ORG $+2
	DD	0a0H
	DD	04f6H
	DD	FLAT:??_C@_0BL@IHHM@Monsters?2Snake?2Snake?$CFc?4CL2?$AA@
	DD	00H
	DD	FLAT:??_C@_0BN@NHII@Monsters?2Snake?2Snake?$CFc?$CFi?4WAV?$AA@
	DD	00H
	DD	01H
	DD	FLAT:??_C@_0BJ@JEFP@Monsters?2Snake?2Snakg?4TRN?$AA@
	DD	0cH
	DD	0bH
	DD	0dH
	DD	05H
	DD	012H
	DD	00H
	DD	02H
	DD	00H
	DD	00H
	DD	00H
	DD	01H
	DD	00H
	DD	FLAT:??_C@_0L@CLBK@Gold?5Viper?$AA@
	DB	018H
	DB	01bH
	DB	019H
	ORG $+1
	DD	08cH
	DD	0b4H
	DB	018H
	ORG $+3
	DD	0100H
	DB	02H
	DB	078H
	DB	08H
	DB	0fH
	DB	01aH
	DB	00H
	DB	00H
	DB	00H
	DB	00H
	DB	046H
	DB	01H
	ORG $+1
	DW	0cH
	DW	0cH
	DW	00H
	DB	07H
	ORG $+1
	DW	0dd4H
	ORG $+2
	DD	0a0H
	DD	04f6H
	DD	FLAT:??_C@_0BL@IHHM@Monsters?2Snake?2Snake?$CFc?4CL2?$AA@
	DD	00H
	DD	FLAT:??_C@_0BN@NHII@Monsters?2Snake?2Snake?$CFc?$CFi?4WAV?$AA@
	DD	00H
	DD	01H
	DD	FLAT:??_C@_0BJ@LEOP@Monsters?2Snake?2Snakb?4TRN?$AA@
	DD	0cH
	DD	0bH
	DD	0dH
	DD	05H
	DD	012H
	DD	00H
	DD	02H
	DD	00H
	DD	00H
	DD	00H
	DD	01H
	DD	00H
	DD	FLAT:??_C@_0M@FIHH@Azure?5Drake?$AA@
	DB	01cH
	DB	01eH
	DB	01bH
	ORG $+1
	DD	0a0H
	DD	0c8H
	DB	018H
	ORG $+3
	DD	0100H
	DB	03H
	DB	082H
	DB	08H
	DB	012H
	DB	01eH
	DB	00H
	DB	00H
	DB	00H
	DB	00H
	DB	04bH
	DB	01H
	ORG $+1
	DW	06H
	DW	02aH
	DW	00H
	DB	07H
	ORG $+1
	DW	0ecfH
	ORG $+2
	DD	0a0H
	DD	0848H
	DD	FLAT:??_C@_0BL@JDBP@Monsters?2Black?2Black?$CFc?4CL2?$AA@
	DD	00H
	DD	FLAT:??_C@_0BN@KHJ@Monsters?2Black?2Black?$CFc?$CFi?4WAV?$AA@
	DD	00H
	DD	00H
	DD	00H
	DD	08H
	DD	08H
	DD	010H
	DD	04H
	DD	018H
	DD	00H
	DD	02H
	DD	00H
	DD	00H
	DD	00H
	DD	00H
	DD	00H
	DD	FLAT:??_C@_0N@PDGD@Black?5Knight?$AA@
	DB	017H
	DB	01bH
	DB	018H
	ORG $+1
	DD	096H
	DD	096H
	DB	02H
	ORG $+3
	DD	0100H
	DB	00H
	DB	06eH
	DB	08H
	DB	0fH
	DB	014H
	DB	00H
	DB	00H
	DB	00H
	DB	00H
	DB	04bH
	DB	01H
	ORG $+1
	DW	045H
	DW	061H
	DW	00H
	DB	07H
	ORG $+1
	DW	0d20H
	ORG $+2
	DD	0a0H
	DD	0848H
	DD	FLAT:??_C@_0BL@JDBP@Monsters?2Black?2Black?$CFc?4CL2?$AA@
	DD	00H
	DD	FLAT:??_C@_0BN@KHJ@Monsters?2Black?2Black?$CFc?$CFi?4WAV?$AA@
	DD	00H
	DD	01H
	DD	FLAT:??_C@_0BM@GOHA@Monsters?2Black?2BlkKntRT?4TRN?$AA@
	DD	08H
	DD	08H
	DD	010H
	DD	04H
	DD	018H
	DD	00H
	DD	02H
	DD	00H
	DD	00H
	DD	00H
	DD	00H
	DD	00H
	DD	FLAT:??_C@_0L@FPBM@Doom?5Guard?$AA@
	DB	019H
	DB	01dH
	DB	01aH
	ORG $+1
	DD	0a5H
	DD	0a5H
	DB	02H
	ORG $+3
	DD	0100H
	DB	00H
	DB	082H
	DB	08H
	DB	012H
	DB	019H
	DB	00H
	DB	00H
	DB	00H
	DB	00H
	DB	04bH
	DB	01H
	ORG $+1
	DW	043H
	DW	051H
	DW	00H
	DB	07H
	ORG $+1
	DW	0e42H
	ORG $+2
	DD	0a0H
	DD	0848H
	DD	FLAT:??_C@_0BL@JDBP@Monsters?2Black?2Black?$CFc?4CL2?$AA@
	DD	00H
	DD	FLAT:??_C@_0BN@KHJ@Monsters?2Black?2Black?$CFc?$CFi?4WAV?$AA@
	DD	00H
	DD	01H
	DD	FLAT:??_C@_0BM@DEHC@Monsters?2Black?2BlkKntBT?4TRN?$AA@
	DD	08H
	DD	08H
	DD	010H
	DD	04H
	DD	018H
	DD	00H
	DD	02H
	DD	00H
	DD	00H
	DD	00H
	DD	00H
	DD	00H
	DD	FLAT:??_C@_0L@KLAH@Steel?5Lord?$AA@
	DB	01bH
	DB	01eH
	DB	01cH
	ORG $+1
	DD	0b4H
	DD	0b4H
	DB	02H
	ORG $+3
	DD	0100H
	DB	01H
	DB	078H
	DB	08H
	DB	014H
	DB	01eH
	DB	00H
	DB	00H
	DB	00H
	DB	00H
	DB	050H
	DB	01H
	ORG $+1
	DW	055H
	DW	05cH
	DW	00H
	DB	07H
	ORG $+1
	DW	0109cH
	ORG $+2
	DD	0a0H
	DD	0848H
	DD	FLAT:??_C@_0BL@JDBP@Monsters?2Black?2Black?$CFc?4CL2?$AA@
	DD	00H
	DD	FLAT:??_C@_0BN@KHJ@Monsters?2Black?2Black?$CFc?$CFi?4WAV?$AA@
	DD	00H
	DD	01H
	DD	FLAT:??_C@_0BM@JCKI@Monsters?2Black?2BlkKntBe?4TRN?$AA@
	DD	08H
	DD	08H
	DD	010H
	DD	04H
	DD	018H
	DD	00H
	DD	02H
	DD	00H
	DD	00H
	DD	00H
	DD	00H
	DD	00H
	DD	FLAT:??_C@_0N@PCA@Blood?5Knight?$AA@
	DB	018H
	DB	01aH
	DB	01eH
	ORG $+1
	DD	0c8H
	DD	0c8H
	DB	02H
	ORG $+3
	DD	0100H
	DB	01H
	DB	082H
	DB	08H
	DB	019H
	DB	023H
	DB	00H
	DB	00H
	DB	00H
	DB	00H
	DB	055H
	DB	01H
	ORG $+1
	DW	06aH
	DW	06aH
	DW	00H
	DB	07H
	ORG $+1
	DW	0140aH
	ORG $+2
	DD	060H
	DD	01e4H
	DD	FLAT:??_C@_0BL@CDKL@Monsters?2Unrav?2Unrav?$CFc?4CL2?$AA@
	DD	00H
	DD	FLAT:??_C@_0BL@HFAM@Monsters?2Acid?2Acid?$CFc?$CFi?4WAV?$AA@
	DD	00H
	DD	00H
	DD	00H
	DD	0aH
	DD	0aH
	DD	0cH
	DD	05H
	DD	010H
	DD	00H
	DD	00H
	DD	00H
	DD	00H
	DD	00H
	DD	00H
	DD	00H
	DD	FLAT:??_C@_09KOLF@Unraveler?$AA@
	DB	01aH
	DB	01cH
	DB	019H
	ORG $+1
	DD	046H
	DD	096H
	DB	02H
	ORG $+3
	DD	00H
	DB	00H
	DB	04bH
	DB	07H
	DB	0aH
	DB	014H
	DB	00H
	DB	00H
	DB	00H
	DB	00H
	DB	046H
	DB	00H
	ORG $+1
	DW	06aH
	DW	06aH
	DW	00H
	DB	03H
	ORG $+1
	DW	0ee4H
	ORG $+2
	DD	060H
	DD	01e4H
	DD	FLAT:??_C@_0BL@CDKL@Monsters?2Unrav?2Unrav?$CFc?4CL2?$AA@
	DD	00H
	DD	FLAT:??_C@_0BL@HFAM@Monsters?2Acid?2Acid?$CFc?$CFi?4WAV?$AA@
	DD	00H
	DD	00H
	DD	00H
	DD	0aH
	DD	0aH
	DD	0cH
	DD	05H
	DD	010H
	DD	00H
	DD	00H
	DD	00H
	DD	00H
	DD	00H
	DD	00H
	DD	00H
	DD	FLAT:??_C@_0L@GDBP@Hollow?5One?$AA@
	DB	01cH
	DB	01eH
	DB	01bH
	ORG $+1
	DD	087H
	DD	0f0H
	DB	02H
	ORG $+3
	DD	00H
	DB	01H
	DB	04bH
	DB	07H
	DB	0cH
	DB	018H
	DB	00H
	DB	00H
	DB	00H
	DB	00H
	DB	04bH
	DB	00H
	ORG $+1
	DW	05cH
	DW	05cH
	DW	00H
	DB	03H
	ORG $+1
	DW	01116H
	ORG $+2
	DD	060H
	DD	01e4H
	DD	FLAT:??_C@_0BL@CDKL@Monsters?2Unrav?2Unrav?$CFc?4CL2?$AA@
	DD	00H
	DD	FLAT:??_C@_0BL@HFAM@Monsters?2Acid?2Acid?$CFc?$CFi?4WAV?$AA@
	DD	00H
	DD	00H
	DD	00H
	DD	0aH
	DD	0aH
	DD	0cH
	DD	05H
	DD	010H
	DD	00H
	DD	00H
	DD	00H
	DD	00H
	DD	00H
	DD	00H
	DD	00H
	DD	FLAT:??_C@_0M@FDGH@Pain?5Master?$AA@
	DB	01bH
	DB	01eH
	DB	01dH
	ORG $+1
	DD	06eH
	DD	0c8H
	DB	02H
	ORG $+3
	DD	00H
	DB	02H
	DB	050H
	DB	07H
	DB	010H
	DB	01eH
	DB	00H
	DB	00H
	DB	00H
	DB	00H
	DB	050H
	DB	00H
	ORG $+1
	DW	05cH
	DW	05cH
	DW	00H
	DB	03H
	ORG $+1
	DW	0141bH
	ORG $+2
	DD	060H
	DD	01e4H
	DD	FLAT:??_C@_0BL@CDKL@Monsters?2Unrav?2Unrav?$CFc?4CL2?$AA@
	DD	00H
	DD	FLAT:??_C@_0BL@HFAM@Monsters?2Acid?2Acid?$CFc?$CFi?4WAV?$AA@
	DD	00H
	DD	00H
	DD	00H
	DD	0aH
	DD	0aH
	DD	0cH
	DD	05H
	DD	010H
	DD	00H
	DD	00H
	DD	00H
	DD	00H
	DD	00H
	DD	00H
	DD	00H
	DD	FLAT:??_C@_0P@NDCP@Reality?5Weaver?$AA@
	DB	01cH
	DB	01eH
	DB	01eH
	ORG $+1
	DD	087H
	DD	0f0H
	DB	02H
	ORG $+3
	DD	00H
	DB	03H
	DB	055H
	DB	07H
	DB	014H
	DB	023H
	DB	00H
	DB	00H
	DB	00H
	DB	00H
	DB	055H
	DB	00H
	ORG $+1
	DW	071H
	DW	071H
	DW	00H
	DB	03H
	ORG $+1
	DW	01725H
	ORG $+2
	DD	080H
	DD	03d4H
	DD	FLAT:??_C@_0BJ@DPMO@Monsters?2Succ?2Scbs?$CFc?4CL2?$AA@
	DD	00H
	DD	FLAT:??_C@_0BL@HGFB@Monsters?2Succ?2Scbs?$CFc?$CFi?4WAV?$AA@
	DD	00H
	DD	00H
	DD	00H
	DD	0eH
	DD	08H
	DD	010H
	DD	07H
	DD	018H
	DD	00H
	DD	00H
	DD	00H
	DD	00H
	DD	00H
	DD	00H
	DD	00H
	DD	FLAT:??_C@_08FEBP@Succubus?$AA@
	DB	016H
	DB	01aH
	DB	018H
	ORG $+1
	DD	078H
	DD	096H
	DB	0eH
	ORG $+3
	DD	0200H
	DB	00H
	DB	064H
	DB	0aH
	DB	01H
	DB	014H
	DB	00H
	DB	00H
	DB	00H
	DB	00H
	DB	03cH
	DB	01H
	ORG $+1
	DW	01H
	DW	0aH
	DW	00H
	DB	03H
	ORG $+1
	DW	0e70H
	ORG $+2
	DD	080H
	DD	03d4H
	DD	FLAT:??_C@_0BJ@DPMO@Monsters?2Succ?2Scbs?$CFc?4CL2?$AA@
	DD	00H
	DD	FLAT:??_C@_0BL@HGFB@Monsters?2Succ?2Scbs?$CFc?$CFi?4WAV?$AA@
	DD	00H
	DD	01H
	DD	FLAT:??_C@_0BI@GKHN@Monsters?2Succ?2Succb?4TRN?$AA@
	DD	0eH
	DD	08H
	DD	010H
	DD	07H
	DD	018H
	DD	00H
	DD	00H
	DD	00H
	DD	00H
	DD	00H
	DD	00H
	DD	00H
	DD	FLAT:??_C@_0L@FPIO@Snow?5Witch?$AA@
	DB	019H
	DB	01cH
	DB	01aH
	ORG $+1
	DD	087H
	DD	0afH
	DB	0eH
	ORG $+3
	DD	0200H
	DB	01H
	DB	06eH
	DB	0aH
	DB	01H
	DB	018H
	DB	00H
	DB	00H
	DB	00H
	DB	00H
	DB	041H
	DB	01H
	ORG $+1
	DW	044H
	DW	04cH
	DW	00H
	DB	03H
	ORG $+1
	DW	0ff4H
	ORG $+2
	DD	080H
	DD	03d4H
	DD	FLAT:??_C@_0BJ@DPMO@Monsters?2Succ?2Scbs?$CFc?4CL2?$AA@
	DD	00H
	DD	FLAT:??_C@_0BL@HGFB@Monsters?2Succ?2Scbs?$CFc?$CFi?4WAV?$AA@
	DD	00H
	DD	01H
	DD	FLAT:??_C@_0BJ@PIJO@Monsters?2Succ?2Succrw?4TRN?$AA@
	DD	0eH
	DD	08H
	DD	010H
	DD	07H
	DD	018H
	DD	00H
	DD	00H
	DD	00H
	DD	00H
	DD	00H
	DD	00H
	DD	00H
	DD	FLAT:??_C@_0L@BHM@Hell?5Spawn?$AA@
	DB	01bH
	DB	01eH
	DB	01cH
	ORG $+1
	DD	096H
	DD	0c8H
	DB	0eH
	ORG $+3
	DD	0300H
	DB	02H
	DB	073H
	DB	0aH
	DB	01H
	DB	01eH
	DB	00H
	DB	00H
	DB	00H
	DB	00H
	DB	04bH
	DB	01H
	ORG $+1
	DW	021H
	DW	01cH
	DW	00H
	DB	03H
	ORG $+1
	DW	01180H
	ORG $+2
	DD	080H
	DD	03d4H
	DD	FLAT:??_C@_0BJ@DPMO@Monsters?2Succ?2Scbs?$CFc?4CL2?$AA@
	DD	00H
	DD	FLAT:??_C@_0BL@HGFB@Monsters?2Succ?2Scbs?$CFc?$CFi?4WAV?$AA@
	DD	00H
	DD	01H
	DD	FLAT:??_C@_0BJ@KCJM@Monsters?2Succ?2Succbw?4TRN?$AA@
	DD	0eH
	DD	08H
	DD	010H
	DD	07H
	DD	018H
	DD	00H
	DD	00H
	DD	00H
	DD	00H
	DD	00H
	DD	00H
	DD	00H
	DD	FLAT:??_C@_0M@GKNH@Soul?5Burner?$AA@
	DB	01cH
	DB	01eH
	DB	01eH
	ORG $+1
	DD	08cH
	DD	0e1H
	DB	0eH
	ORG $+3
	DD	0300H
	DB	03H
	DB	078H
	DB	0aH
	DB	01H
	DB	023H
	DB	00H
	DB	00H
	DB	00H
	DB	00H
	DB	055H
	DB	01H
	ORG $+1
	DW	015H
	DW	038H
	DW	00H
	DB	03H
	ORG $+1
	DW	01224H
	ORG $+2
	DD	080H
	DD	07d0H
	DD	FLAT:??_C@_0BJ@GCAL@Monsters?2Mage?2Mage?$CFc?4CL2?$AA@
	DD	01H
	DD	FLAT:??_C@_0BL@OMKE@Monsters?2Mage?2Mage?$CFc?$CFi?4WAV?$AA@
	DD	00H
	DD	00H
	DD	00H
	DD	0cH
	DD	01H
	DD	014H
	DD	08H
	DD	01cH
	DD	014H
	DD	00H
	DD	00H
	DD	00H
	DD	00H
	DD	00H
	DD	00H
	DD	FLAT:??_C@_09HLJB@Counselor?$AA@
	DB	018H
	DB	01aH
	DB	019H
	ORG $+1
	DD	046H
	DD	046H
	DB	019H
	ORG $+3
	DD	0200H
	DB	00H
	DB	05aH
	DB	08H
	DB	08H
	DB	014H
	DB	00H
	DB	00H
	DB	00H
	DB	00H
	DB	00H
	DB	01H
	ORG $+1
	DW	07H
	DW	07H
	DW	00H
	DB	07H
	ORG $+1
	DW	0fe6H
	ORG $+2
	DD	080H
	DD	07d0H
	DD	FLAT:??_C@_0BJ@GCAL@Monsters?2Mage?2Mage?$CFc?4CL2?$AA@
	DD	01H
	DD	FLAT:??_C@_0BL@OMKE@Monsters?2Mage?2Mage?$CFc?$CFi?4WAV?$AA@
	DD	00H
	DD	01H
	DD	FLAT:??_C@_0BJ@IEPO@Monsters?2Mage?2Cnselg?4TRN?$AA@
	DD	0cH
	DD	01H
	DD	014H
	DD	08H
	DD	01cH
	DD	014H
	DD	00H
	DD	00H
	DD	00H
	DD	00H
	DD	00H
	DD	00H
	DD	FLAT:??_C@_0L@IHLC@Magistrate?$AA@
	DB	01aH
	DB	01cH
	DB	01bH
	ORG $+1
	DD	055H
	DD	055H
	DB	019H
	ORG $+3
	DD	0200H
	DB	01H
	DB	064H
	DB	08H
	DB	0aH
	DB	018H
	DB	00H
	DB	00H
	DB	00H
	DB	00H
	DB	00H
	DB	01H
	ORG $+1
	DW	055H
	DW	05cH
	DW	00H
	DB	07H
	ORG $+1
	DW	0117eH
	ORG $+2
	DD	080H
	DD	07d0H
	DD	FLAT:??_C@_0BJ@GCAL@Monsters?2Mage?2Mage?$CFc?4CL2?$AA@
	DD	01H
	DD	FLAT:??_C@_0BL@OMKE@Monsters?2Mage?2Mage?$CFc?$CFi?4WAV?$AA@
	DD	00H
	DD	01H
	DD	FLAT:??_C@_0BK@IAEI@Monsters?2Mage?2Cnselgd?4TRN?$AA@
	DD	0cH
	DD	01H
	DD	014H
	DD	08H
	DD	01cH
	DD	014H
	DD	00H
	DD	00H
	DD	00H
	DD	00H
	DD	00H
	DD	00H
	DD	FLAT:??_C@_08EOGH@Cabalist?$AA@
	DB	01cH
	DB	01eH
	DB	01dH
	ORG $+1
	DD	078H
	DD	078H
	DB	019H
	ORG $+3
	DD	0200H
	DB	02H
	DB	06eH
	DB	08H
	DB	0eH
	DB	01eH
	DB	00H
	DB	00H
	DB	00H
	DB	00H
	DB	00H
	DB	01H
	ORG $+1
	DW	063H
	DW	06aH
	DW	00H
	DB	07H
	ORG $+1
	DW	01341H
	ORG $+2
	DD	080H
	DD	07d0H
	DD	FLAT:??_C@_0BJ@GCAL@Monsters?2Mage?2Mage?$CFc?4CL2?$AA@
	DD	01H
	DD	FLAT:??_C@_0BL@OMKE@Monsters?2Mage?2Mage?$CFc?$CFi?4WAV?$AA@
	DD	00H
	DD	01H
	DD	FLAT:??_C@_0BK@CCLI@Monsters?2Mage?2Cnselbk?4TRN?$AA@
	DD	0cH
	DD	01H
	DD	014H
	DD	08H
	DD	01cH
	DD	014H
	DD	00H
	DD	00H
	DD	00H
	DD	00H
	DD	00H
	DD	00H
	DD	FLAT:??_C@_08KFKH@Advocate?$AA@
	DB	01eH
	DB	01eH
	DB	01eH
	ORG $+1
	DD	091H
	DD	091H
	DB	019H
	ORG $+3
	DD	0200H
	DB	03H
	DB	078H
	DB	08H
	DB	0fH
	DB	019H
	DB	00H
	DB	00H
	DB	00H
	DB	00H
	DB	00H
	DB	01H
	ORG $+1
	DW	06aH
	DW	078H
	DW	00H
	DB	07H
	ORG $+1
	DW	01368H
	ORG $+2
	DD	060H
	DD	0182H
	DD	FLAT:??_C@_0BL@HABD@Monsters?2Golem?2Golem?$CFc?4CL2?$AA@
	DD	01H
	DD	FLAT:??_C@_0BM@PJFI@Monsters?2Golem?2Golm?$CFc?$CFi?4WAV?$AA@
	DD	00H
	DD	00H
	DD	00H
	DD	00H
	DD	010H
	DD	0cH
	DD	00H
	DD	0cH
	DD	014H
	DD	00H
	DD	00H
	DD	00H
	DD	00H
	DD	00H
	DD	00H
	DD	FLAT:??_C@_05MIHD@Golem?$AA@
	DB	00H
	DB	00H
	DB	0cH
	ORG $+1
	DD	01H
	DD	01H
	DB	015H
	ORG $+3
	DD	0200H
	DB	00H
	DB	00H
	DB	07H
	DB	01H
	DB	01H
	DB	00H
	DB	00H
	DB	00H
	DB	00H
	DB	01H
	DB	01H
	ORG $+1
	DW	00H
	DW	00H
	DW	00H
	DB	00H
	ORG $+1
	DW	00H
	ORG $+2
	DD	0a0H
	DD	07d0H
	DD	FLAT:??_C@_0BN@LMBN@Monsters?2Diablo?2Diablo?$CFc?4CL2?$AA@
	DD	01H
	DD	FLAT:??_C@_0BP@FGDO@Monsters?2Diablo?2Diablo?$CFc?$CFi?4WAV?$AA@
	DD	01H
	DD	00H
	DD	00H
	DD	010H
	DD	06H
	DD	010H
	DD	06H
	DD	010H
	DD	010H
	DD	00H
	DD	00H
	DD	00H
	DD	00H
	DD	00H
	DD	00H
	DD	FLAT:??_C@_0O@FIFM@The?5Dark?5Lord?$AA@
	DB	032H
	DB	032H
	DB	01eH
	ORG $+1
	DD	0682H
	DD	0682H
	DB	01bH
	ORG $+3
	DD	0380H
	DB	03H
	DB	0dcH
	DB	04H
	DB	01eH
	DB	03cH
	DB	00H
	DB	0bH
	DB	00H
	DB	00H
	DB	046H
	DB	01H
	ORG $+1
	DW	04eH
	DW	04eH
	DW	00H
	DB	07H
	ORG $+1
	DW	07bb2H
	ORG $+2
	DD	080H
	DD	0424H
	DD	FLAT:??_C@_0BO@BEOI@Monsters?2DarkMage?2Dmage?$CFc?4CL2?$AA@
	DD	01H
	DD	FLAT:??_C@_0BP@HJAJ@Monsters?2DarkMage?2Dmag?$CFc?$CFi?4WAV?$AA@
	DD	00H
	DD	00H
	DD	00H
	DD	06H
	DD	01H
	DD	015H
	DD	06H
	DD	017H
	DD	012H
	DD	00H
	DD	00H
	DD	00H
	DD	00H
	DD	00H
	DD	00H
	DD	FLAT:??_C@_0BI@JDKB@The?5Arch?9Litch?5Malignus?$AA@
	DB	01eH
	DB	01eH
	DB	01eH
	ORG $+1
	DD	0a0H
	DD	0a0H
	DB	019H
	ORG $+3
	DD	0200H
	DB	03H
	DB	078H
	DB	08H
	DB	014H
	DB	028H
	DB	00H
	DB	00H
	DB	00H
	DB	00H
	DB	046H
	DB	01H
	ORG $+1
	DW	047H
	DW	078H
	DW	00H
	DB	07H
	ORG $+1
	DW	01368H
	ORG $+2
_MonstConvTbl DB 00H
	DB	01H
	DB	02H
	DB	03H
	DB	04H
	DB	05H
	DB	06H
	DB	07H
	DB	08H
	DB	09H
	DB	0aH
	DB	0bH
	DB	0cH
	DB	0dH
	DB	0eH
	DB	0fH
	DB	010H
	DB	011H
	DB	012H
	DB	013H
	DB	014H
	DB	015H
	DB	016H
	DB	017H
	DB	018H
	DB	019H
	DB	01aH
	DB	01bH
	DB	01dH
	DB	01eH
	DB	01fH
	DB	020H
	DB	022H
	DB	023H
	DB	024H
	DB	025H
	DB	026H
	DB	028H
	DB	027H
	DB	029H
	DB	02aH
	DB	02bH
	DB	02cH
	DB	02dH
	DB	02eH
	DB	02fH
	DB	030H
	DB	031H
	DB	032H
	DB	034H
	DB	035H
	DB	036H
	DB	037H
	DB	038H
	DB	039H
	DB	03bH
	DB	03aH
	DB	03cH
	DB	03dH
	DB	03eH
	DB	03fH
	DB	040H
	DB	041H
	DB	042H
	DB	043H
	DB	044H
	DB	045H
	DB	046H
	DB	047H
	DB	00H
	DB	00H
	DB	00H
	DB	00H
	DB	048H
	DB	049H
	DB	04aH
	DB	04bH
	DB	00H
	DB	00H
	DB	00H
	DB	00H
	DB	04dH
	DB	04cH
	DB	04eH
	DB	04fH
	DB	051H
	DB	052H
	DB	053H
	DB	054H
	DB	055H
	DB	056H
	DB	057H
	DB	058H
	DB	059H
	DB	05aH
	DB	05cH
	DB	05bH
	DB	05dH
	DB	05eH
	DB	05fH
	DB	060H
	DB	061H
	DB	062H
	DB	063H
	DB	064H
	DB	065H
	DB	066H
	DB	067H
	DB	068H
	DB	069H
	DB	06aH
	DB	06bH
	DB	06cH
	DB	00H
	DB	06eH
	DB	00H
	DB	06dH
	DB	00H
	DB	00H
	DB	00H
	DB	00H
	DB	00H
	DB	00H
	DB	00H
	DB	00H
	DB	00H
	DB	050H
	DB	06fH
_MonstAvailTbl DB 01H
	DB	01H
	DB	01H
	DB	01H
	DB	01H
	DB	01H
	DB	01H
	DB	01H
	DB	01H
	DB	01H
	DB	01H
	DB	01H
	DB	01H
	DB	01H
	DB	01H
	DB	01H
	DB	01H
	DB	01H
	DB	01H
	DB	01H
	DB	01H
	DB	01H
	DB	01H
	DB	01H
	DB	01H
	DB	01H
	DB	01H
	DB	01H
	DB	00H
	DB	02H
	DB	02H
	DB	02H
	DB	02H
	DB	00H
	DB	02H
	DB	02H
	DB	02H
	DB	02H
	DB	01H
	DB	01H
	DB	01H
	DB	01H
	DB	02H
	DB	02H
	DB	02H
	DB	02H
	DB	02H
	DB	02H
	DB	02H
	DB	02H
	DB	00H
	DB	00H
	DB	02H
	DB	02H
	DB	02H
	DB	02H
	DB	00H
	DB	00H
	DB	00H
	DB	00H
	DB	02H
	DB	02H
	DB	02H
	DB	02H
	DB	02H
	DB	02H
	DB	02H
	DB	02H
	DB	00H
	DB	00H
	DB	00H
	DB	00H
	DB	00H
	DB	00H
	DB	00H
	DB	00H
	DB	02H
	DB	02H
	DB	02H
	DB	02H
	DB	00H
	DB	02H
	DB	02H
	DB	02H
	DB	02H
	DB	02H
	DB	02H
	DB	02H
	DB	02H
	DB	02H
	DB	02H
	DB	02H
	DB	02H
	DB	02H
	DB	02H
	DB	02H
	DB	02H
	DB	00H
	DB	00H
	DB	00H
	DB	00H
	DB	02H
	DB	02H
	DB	02H
	DB	02H
	DB	02H
	DB	02H
	DB	02H
	DB	02H
	DB	00H
	DB	00H
	DB	00H
_DATA	ENDS
;	COMDAT ??_C@_0BB@NNOM@Gharbad?5the?5Weak?$AA@
_DATA	SEGMENT
??_C@_0BB@NNOM@Gharbad?5the?5Weak?$AA@ DB 'Gharbad the Weak', 00H ; `string'
_DATA	ENDS
;	COMDAT ??_C@_04EMDL@BSDB?$AA@
_DATA	SEGMENT
??_C@_04EMDL@BSDB?$AA@ DB 'BSDB', 00H			; `string'
_DATA	ENDS
;	COMDAT ??_C@_05MCCE@GENRL?$AA@
_DATA	SEGMENT
??_C@_05MCCE@GENRL?$AA@ DB 'GENRL', 00H			; `string'
_DATA	ENDS
;	COMDAT ??_C@_0N@KGIJ@Zhar?5the?5Mad?$AA@
_DATA	SEGMENT
??_C@_0N@KGIJ@Zhar?5the?5Mad?$AA@ DB 'Zhar the Mad', 00H ; `string'
_DATA	ENDS
;	COMDAT ??_C@_07MFB@GENERAL?$AA@
_DATA	SEGMENT
??_C@_07MFB@GENERAL?$AA@ DB 'GENERAL', 00H		; `string'
_DATA	ENDS
;	COMDAT ??_C@_09MNJA@Snotspill?$AA@
_DATA	SEGMENT
??_C@_09MNJA@Snotspill?$AA@ DB 'Snotspill', 00H		; `string'
_DATA	ENDS
;	COMDAT ??_C@_03LJKM@BNG?$AA@
_DATA	SEGMENT
??_C@_03LJKM@BNG?$AA@ DB 'BNG', 00H			; `string'
_DATA	ENDS
;	COMDAT ??_C@_0BE@EMLM@Arch?9Bishop?5Lazarus?$AA@
_DATA	SEGMENT
??_C@_0BE@EMLM@Arch?9Bishop?5Lazarus?$AA@ DB 'Arch-Bishop Lazarus', 00H ; `string'
_DATA	ENDS
;	COMDAT ??_C@_07FILF@Red?5Vex?$AA@
_DATA	SEGMENT
??_C@_07FILF@Red?5Vex?$AA@ DB 'Red Vex', 00H		; `string'
_DATA	ENDS
;	COMDAT ??_C@_04NHCL@REDV?$AA@
_DATA	SEGMENT
??_C@_04NHCL@REDV?$AA@ DB 'REDV', 00H			; `string'
_DATA	ENDS
;	COMDAT ??_C@_09NNFD@BlackJade?$AA@
_DATA	SEGMENT
??_C@_09NNFD@BlackJade?$AA@ DB 'BlackJade', 00H		; `string'
_DATA	ENDS
;	COMDAT ??_C@_05HMFP@BLKJD?$AA@
_DATA	SEGMENT
??_C@_05HMFP@BLKJD?$AA@ DB 'BLKJD', 00H			; `string'
_DATA	ENDS
;	COMDAT ??_C@_09GCKJ@Lachdanan?$AA@
_DATA	SEGMENT
??_C@_09GCKJ@Lachdanan?$AA@ DB 'Lachdanan', 00H		; `string'
_DATA	ENDS
;	COMDAT ??_C@_04CAGH@BHKA?$AA@
_DATA	SEGMENT
??_C@_04CAGH@BHKA?$AA@ DB 'BHKA', 00H			; `string'
_DATA	ENDS
;	COMDAT ??_C@_0BB@IIOM@Warlord?5of?5Blood?$AA@
_DATA	SEGMENT
??_C@_0BB@IIOM@Warlord?5of?5Blood?$AA@ DB 'Warlord of Blood', 00H ; `string'
_DATA	ENDS
;	COMDAT ??_C@_0BB@DLIH@Bonehead?5Keenaxe?$AA@
_DATA	SEGMENT
??_C@_0BB@DLIH@Bonehead?5Keenaxe?$AA@ DB 'Bonehead Keenaxe', 00H ; `string'
_DATA	ENDS
;	COMDAT ??_C@_0BG@CLDJ@Bladeskin?5the?5Slasher?$AA@
_DATA	SEGMENT
??_C@_0BG@CLDJ@Bladeskin?5the?5Slasher?$AA@ DB 'Bladeskin the Slasher', 00H ; `string'
_DATA	ENDS
;	COMDAT ??_C@_04CFHF@BSTS?$AA@
_DATA	SEGMENT
??_C@_04CFHF@BSTS?$AA@ DB 'BSTS', 00H			; `string'
_DATA	ENDS
;	COMDAT ??_C@_07NGEG@Soulpus?$AA@
_DATA	SEGMENT
??_C@_07NGEG@Soulpus?$AA@ DB 'Soulpus', 00H		; `string'
_DATA	ENDS
;	COMDAT ??_C@_0BE@BDNK@Pukerat?5the?5Unclean?$AA@
_DATA	SEGMENT
??_C@_0BE@BDNK@Pukerat?5the?5Unclean?$AA@ DB 'Pukerat the Unclean', 00H ; `string'
_DATA	ENDS
;	COMDAT ??_C@_03DCBN@PTU?$AA@
_DATA	SEGMENT
??_C@_03DCBN@PTU?$AA@ DB 'PTU', 00H			; `string'
_DATA	ENDS
;	COMDAT ??_C@_0L@BJO@Boneripper?$AA@
_DATA	SEGMENT
??_C@_0L@BJO@Boneripper?$AA@ DB 'Boneripper', 00H	; `string'
_DATA	ENDS
;	COMDAT ??_C@_02NOGO@BR?$AA@
_DATA	SEGMENT
??_C@_02NOGO@BR?$AA@ DB 'BR', 00H			; `string'
_DATA	ENDS
;	COMDAT ??_C@_0BE@FPNL@Rotfeast?5the?5Hungry?$AA@
_DATA	SEGMENT
??_C@_0BE@FPNL@Rotfeast?5the?5Hungry?$AA@ DB 'Rotfeast the Hungry', 00H ; `string'
_DATA	ENDS
;	COMDAT ??_C@_03PEDI@ETH?$AA@
_DATA	SEGMENT
??_C@_03PEDI@ETH?$AA@ DB 'ETH', 00H			; `string'
_DATA	ENDS
;	COMDAT ??_C@_0BD@GBKJ@Gutshank?5the?5Quick?$AA@
_DATA	SEGMENT
??_C@_0BD@GBKJ@Gutshank?5the?5Quick?$AA@ DB 'Gutshank the Quick', 00H ; `string'
_DATA	ENDS
;	COMDAT ??_C@_03HEK@GTQ?$AA@
_DATA	SEGMENT
??_C@_03HEK@GTQ?$AA@ DB 'GTQ', 00H			; `string'
_DATA	ENDS
;	COMDAT ??_C@_0BG@IPBC@Brokenhead?5Bangshield?$AA@
_DATA	SEGMENT
??_C@_0BG@IPBC@Brokenhead?5Bangshield?$AA@ DB 'Brokenhead Bangshield', 00H ; `string'
_DATA	ENDS
;	COMDAT ??_C@_04HPMH@BHBS?$AA@
_DATA	SEGMENT
??_C@_04HPMH@BHBS?$AA@ DB 'BHBS', 00H			; `string'
_DATA	ENDS
;	COMDAT ??_C@_05DEJF@Bongo?$AA@
_DATA	SEGMENT
??_C@_05DEJF@Bongo?$AA@ DB 'Bongo', 00H			; `string'
_DATA	ENDS
;	COMDAT ??_C@_0L@EMBE@Rotcarnage?$AA@
_DATA	SEGMENT
??_C@_0L@EMBE@Rotcarnage?$AA@ DB 'Rotcarnage', 00H	; `string'
_DATA	ENDS
;	COMDAT ??_C@_04NLMC@RCRN?$AA@
_DATA	SEGMENT
??_C@_04NLMC@RCRN?$AA@ DB 'RCRN', 00H			; `string'
_DATA	ENDS
;	COMDAT ??_C@_0L@CBPB@Shadowbite?$AA@
_DATA	SEGMENT
??_C@_0L@CBPB@Shadowbite?$AA@ DB 'Shadowbite', 00H	; `string'
_DATA	ENDS
;	COMDAT ??_C@_04FKFB@SHBT?$AA@
_DATA	SEGMENT
??_C@_04FKFB@SHBT?$AA@ DB 'SHBT', 00H			; `string'
_DATA	ENDS
;	COMDAT ??_C@_07FKDP@Deadeye?$AA@
_DATA	SEGMENT
??_C@_07FKDP@Deadeye?$AA@ DB 'Deadeye', 00H		; `string'
_DATA	ENDS
;	COMDAT ??_C@_02FFAE@DE?$AA@
_DATA	SEGMENT
??_C@_02FFAE@DE?$AA@ DB 'DE', 00H			; `string'
_DATA	ENDS
;	COMDAT ??_C@_0BA@GMMP@Madeye?5the?5Dead?$AA@
_DATA	SEGMENT
??_C@_0BA@GMMP@Madeye?5the?5Dead?$AA@ DB 'Madeye the Dead', 00H ; `string'
_DATA	ENDS
;	COMDAT ??_C@_03JKGJ@MTD?$AA@
_DATA	SEGMENT
??_C@_03JKGJ@MTD?$AA@ DB 'MTD', 00H			; `string'
_DATA	ENDS
;	COMDAT ??_C@_0P@MKEC@El?5Chupacabras?$AA@
_DATA	SEGMENT
??_C@_0P@MKEC@El?5Chupacabras?$AA@ DB 'El Chupacabras', 00H ; `string'
_DATA	ENDS
;	COMDAT ??_C@_09CNLO@Skullfire?$AA@
_DATA	SEGMENT
??_C@_09CNLO@Skullfire?$AA@ DB 'Skullfire', 00H		; `string'
_DATA	ENDS
;	COMDAT ??_C@_04JLC@SKFR?$AA@
_DATA	SEGMENT
??_C@_04JLC@SKFR?$AA@ DB 'SKFR', 00H			; `string'
_DATA	ENDS
;	COMDAT ??_C@_09MLHL@Warpskull?$AA@
_DATA	SEGMENT
??_C@_09MLHL@Warpskull?$AA@ DB 'Warpskull', 00H		; `string'
_DATA	ENDS
;	COMDAT ??_C@_04KCIG@TSPO?$AA@
_DATA	SEGMENT
??_C@_04KCIG@TSPO?$AA@ DB 'TSPO', 00H			; `string'
_DATA	ENDS
;	COMDAT ??_C@_0L@EGAH@Goretongue?$AA@
_DATA	SEGMENT
??_C@_0L@EGAH@Goretongue?$AA@ DB 'Goretongue', 00H	; `string'
_DATA	ENDS
;	COMDAT ??_C@_03KOKP@PMR?$AA@
_DATA	SEGMENT
??_C@_03KOKP@PMR?$AA@ DB 'PMR', 00H			; `string'
_DATA	ENDS
;	COMDAT ??_C@_0N@FKIP@Pulsecrawler?$AA@
_DATA	SEGMENT
??_C@_0N@FKIP@Pulsecrawler?$AA@ DB 'Pulsecrawler', 00H	; `string'
_DATA	ENDS
;	COMDAT ??_C@_0L@INCO@Moonbender?$AA@
_DATA	SEGMENT
??_C@_0L@INCO@Moonbender?$AA@ DB 'Moonbender', 00H	; `string'
_DATA	ENDS
;	COMDAT ??_C@_0L@DKGL@Wrathraven?$AA@
_DATA	SEGMENT
??_C@_0L@DKGL@Wrathraven?$AA@ DB 'Wrathraven', 00H	; `string'
_DATA	ENDS
;	COMDAT ??_C@_0L@PPGN@Spineeater?$AA@
_DATA	SEGMENT
??_C@_0L@PPGN@Spineeater?$AA@ DB 'Spineeater', 00H	; `string'
_DATA	ENDS
;	COMDAT ??_C@_0BF@KAKP@Blackash?5the?5Burning?$AA@
_DATA	SEGMENT
??_C@_0BF@KAKP@Blackash?5the?5Burning?$AA@ DB 'Blackash the Burning', 00H ; `string'
_DATA	ENDS
;	COMDAT ??_C@_06PLDN@BASHTB?$AA@
_DATA	SEGMENT
??_C@_06PLDN@BASHTB?$AA@ DB 'BASHTB', 00H		; `string'
_DATA	ENDS
;	COMDAT ??_C@_0L@FLBL@Shadowcrow?$AA@
_DATA	SEGMENT
??_C@_0L@FLBL@Shadowcrow?$AA@ DB 'Shadowcrow', 00H	; `string'
_DATA	ENDS
;	COMDAT ??_C@_0BF@GMIP@Blightstone?5the?5Weak?$AA@
_DATA	SEGMENT
??_C@_0BF@GMIP@Blightstone?5the?5Weak?$AA@ DB 'Blightstone the Weak', 00H ; `string'
_DATA	ENDS
;	COMDAT ??_C@_0BJ@JMDI@Bilefroth?5the?5Pit?5Master?$AA@
_DATA	SEGMENT
??_C@_0BJ@JMDI@Bilefroth?5the?5Pit?5Master?$AA@ DB 'Bilefroth the Pit Mas'
	DB	'ter', 00H					; `string'
_DATA	ENDS
;	COMDAT ??_C@_04OBOK@BFTP?$AA@
_DATA	SEGMENT
??_C@_04OBOK@BFTP?$AA@ DB 'BFTP', 00H			; `string'
_DATA	ENDS
;	COMDAT ??_C@_0BC@CEPB@Bloodskin?5Darkbow?$AA@
_DATA	SEGMENT
??_C@_0BC@CEPB@Bloodskin?5Darkbow?$AA@ DB 'Bloodskin Darkbow', 00H ; `string'
_DATA	ENDS
;	COMDAT ??_C@_08PDKI@Foulwing?$AA@
_DATA	SEGMENT
??_C@_08PDKI@Foulwing?$AA@ DB 'Foulwing', 00H		; `string'
_DATA	ENDS
;	COMDAT ??_C@_02OB@DB?$AA@
_DATA	SEGMENT
??_C@_02OB@DB?$AA@ DB 'DB', 00H				; `string'
_DATA	ENDS
;	COMDAT ??_C@_0O@JFPG@Shadowdrinker?$AA@
_DATA	SEGMENT
??_C@_0O@JFPG@Shadowdrinker?$AA@ DB 'Shadowdrinker', 00H ; `string'
_DATA	ENDS
;	COMDAT ??_C@_04NCNM@SHDR?$AA@
_DATA	SEGMENT
??_C@_04NCNM@SHDR?$AA@ DB 'SHDR', 00H			; `string'
_DATA	ENDS
;	COMDAT ??_C@_0M@PIAB@Hazeshifter?$AA@
_DATA	SEGMENT
??_C@_0M@PIAB@Hazeshifter?$AA@ DB 'Hazeshifter', 00H	; `string'
_DATA	ENDS
;	COMDAT ??_C@_09HCNK@Deathspit?$AA@
_DATA	SEGMENT
??_C@_09HCNK@Deathspit?$AA@ DB 'Deathspit', 00H		; `string'
_DATA	ENDS
;	COMDAT ??_C@_04HEPK@BFDS?$AA@
_DATA	SEGMENT
??_C@_04HEPK@BFDS?$AA@ DB 'BFDS', 00H			; `string'
_DATA	ENDS
;	COMDAT ??_C@_0M@HAMG@Bloodgutter?$AA@
_DATA	SEGMENT
??_C@_0M@HAMG@Bloodgutter?$AA@ DB 'Bloodgutter', 00H	; `string'
_DATA	ENDS
;	COMDAT ??_C@_04PJDO@BGBL?$AA@
_DATA	SEGMENT
??_C@_04PJDO@BGBL?$AA@ DB 'BGBL', 00H			; `string'
_DATA	ENDS
;	COMDAT ??_C@_0BF@KJCD@Deathshade?5Fleshmaul?$AA@
_DATA	SEGMENT
??_C@_0BF@KJCD@Deathshade?5Fleshmaul?$AA@ DB 'Deathshade Fleshmaul', 00H ; `string'
_DATA	ENDS
;	COMDAT ??_C@_04LPNP@DSFM?$AA@
_DATA	SEGMENT
??_C@_04LPNP@DSFM?$AA@ DB 'DSFM', 00H			; `string'
_DATA	ENDS
;	COMDAT ??_C@_0BC@MEDF@Warmaggot?5the?5Mad?$AA@
_DATA	SEGMENT
??_C@_0BC@MEDF@Warmaggot?5the?5Mad?$AA@ DB 'Warmaggot the Mad', 00H ; `string'
_DATA	ENDS
;	COMDAT ??_C@_0BF@MNGJ@Glasskull?5the?5Jagged?$AA@
_DATA	SEGMENT
??_C@_0BF@MNGJ@Glasskull?5the?5Jagged?$AA@ DB 'Glasskull the Jagged', 00H ; `string'
_DATA	ENDS
;	COMDAT ??_C@_0L@IDEF@Blightfire?$AA@
_DATA	SEGMENT
??_C@_0L@IDEF@Blightfire?$AA@ DB 'Blightfire', 00H	; `string'
_DATA	ENDS
;	COMDAT ??_C@_03DOGO@BLF?$AA@
_DATA	SEGMENT
??_C@_03DOGO@BLF?$AA@ DB 'BLF', 00H			; `string'
_DATA	ENDS
;	COMDAT ??_C@_0BD@CGJC@Nightwing?5the?5Cold?$AA@
_DATA	SEGMENT
??_C@_0BD@CGJC@Nightwing?5the?5Cold?$AA@ DB 'Nightwing the Cold', 00H ; `string'
_DATA	ENDS
;	COMDAT ??_C@_09MEMP@Gorestone?$AA@
_DATA	SEGMENT
??_C@_09MEMP@Gorestone?$AA@ DB 'Gorestone', 00H		; `string'
_DATA	ENDS
;	COMDAT ??_C@_0BF@HNAH@Bronzefist?5Firestone?$AA@
_DATA	SEGMENT
??_C@_0BF@HNAH@Bronzefist?5Firestone?$AA@ DB 'Bronzefist Firestone', 00H ; `string'
_DATA	ENDS
;	COMDAT ??_C@_0BF@HHDN@Wrathfire?5the?5Doomed?$AA@
_DATA	SEGMENT
??_C@_0BF@HHDN@Wrathfire?5the?5Doomed?$AA@ DB 'Wrathfire the Doomed', 00H ; `string'
_DATA	ENDS
;	COMDAT ??_C@_04HPN@WFTD?$AA@
_DATA	SEGMENT
??_C@_04HPN@WFTD?$AA@ DB 'WFTD', 00H			; `string'
_DATA	ENDS
;	COMDAT ??_C@_0BD@IJFE@Firewound?5the?5Grim?$AA@
_DATA	SEGMENT
??_C@_0BD@IJFE@Firewound?5the?5Grim?$AA@ DB 'Firewound the Grim', 00H ; `string'
_DATA	ENDS
;	COMDAT ??_C@_0N@IEFH@Baron?5Sludge?$AA@
_DATA	SEGMENT
??_C@_0N@IEFH@Baron?5Sludge?$AA@ DB 'Baron Sludge', 00H	; `string'
_DATA	ENDS
;	COMDAT ??_C@_03CLMH@BSM?$AA@
_DATA	SEGMENT
??_C@_03CLMH@BSM?$AA@ DB 'BSM', 00H			; `string'
_DATA	ENDS
;	COMDAT ??_C@_0BF@EOEA@Blighthorn?5Steelmace?$AA@
_DATA	SEGMENT
??_C@_0BF@EOEA@Blighthorn?5Steelmace?$AA@ DB 'Blighthorn Steelmace', 00H ; `string'
_DATA	ENDS
;	COMDAT ??_C@_04BHO@BHSM?$AA@
_DATA	SEGMENT
??_C@_04BHO@BHSM?$AA@ DB 'BHSM', 00H			; `string'
_DATA	ENDS
;	COMDAT ??_C@_0M@MCHO@Chaoshowler?$AA@
_DATA	SEGMENT
??_C@_0M@MCHO@Chaoshowler?$AA@ DB 'Chaoshowler', 00H	; `string'
_DATA	ENDS
;	COMDAT ??_C@_0BF@OELM@Doomgrin?5the?5Rotting?$AA@
_DATA	SEGMENT
??_C@_0BF@OELM@Doomgrin?5the?5Rotting?$AA@ DB 'Doomgrin the Rotting', 00H ; `string'
_DATA	ENDS
;	COMDAT ??_C@_09HKNB@Madburner?$AA@
_DATA	SEGMENT
??_C@_09HKNB@Madburner?$AA@ DB 'Madburner', 00H		; `string'
_DATA	ENDS
;	COMDAT ??_C@_0BC@MKAI@Bonesaw?5the?5Litch?$AA@
_DATA	SEGMENT
??_C@_0BC@MKAI@Bonesaw?5the?5Litch?$AA@ DB 'Bonesaw the Litch', 00H ; `string'
_DATA	ENDS
;	COMDAT ??_C@_0L@GPAF@Breakspine?$AA@
_DATA	SEGMENT
??_C@_0L@GPAF@Breakspine?$AA@ DB 'Breakspine', 00H	; `string'
_DATA	ENDS
;	COMDAT ??_C@_0BF@OIDE@Devilskull?5Sharpbone?$AA@
_DATA	SEGMENT
??_C@_0BF@OIDE@Devilskull?5Sharpbone?$AA@ DB 'Devilskull Sharpbone', 00H ; `string'
_DATA	ENDS
;	COMDAT ??_C@_0M@MABJ@Brokenstorm?$AA@
_DATA	SEGMENT
??_C@_0M@MABJ@Brokenstorm?$AA@ DB 'Brokenstorm', 00H	; `string'
_DATA	ENDS
;	COMDAT ??_C@_09HMHK@Stormbane?$AA@
_DATA	SEGMENT
??_C@_09HMHK@Stormbane?$AA@ DB 'Stormbane', 00H		; `string'
_DATA	ENDS
;	COMDAT ??_C@_09PHOF@Oozedrool?$AA@
_DATA	SEGMENT
??_C@_09PHOF@Oozedrool?$AA@ DB 'Oozedrool', 00H		; `string'
_DATA	ENDS
;	COMDAT ??_C@_0BI@NKPB@Goldblight?5of?5the?5Flame?$AA@
_DATA	SEGMENT
??_C@_0BI@NKPB@Goldblight?5of?5the?5Flame?$AA@ DB 'Goldblight of the Flam'
	DB	'e', 00H					; `string'
_DATA	ENDS
;	COMDAT ??_C@_0L@BDH@Blackstorm?$AA@
_DATA	SEGMENT
??_C@_0L@BDH@Blackstorm?$AA@ DB 'Blackstorm', 00H	; `string'
_DATA	ENDS
;	COMDAT ??_C@_0M@EPEK@Plaguewrath?$AA@
_DATA	SEGMENT
??_C@_0M@EPEK@Plaguewrath?$AA@ DB 'Plaguewrath', 00H	; `string'
_DATA	ENDS
;	COMDAT ??_C@_0L@BAIF@The?5Flayer?$AA@
_DATA	SEGMENT
??_C@_0L@BAIF@The?5Flayer?$AA@ DB 'The Flayer', 00H	; `string'
_DATA	ENDS
;	COMDAT ??_C@_08BDKD@Bluehorn?$AA@
_DATA	SEGMENT
??_C@_08BDKD@Bluehorn?$AA@ DB 'Bluehorn', 00H		; `string'
_DATA	ENDS
;	COMDAT ??_C@_0BD@IICF@Warpfire?5Hellspawn?$AA@
_DATA	SEGMENT
??_C@_0BD@IICF@Warpfire?5Hellspawn?$AA@ DB 'Warpfire Hellspawn', 00H ; `string'
_DATA	ENDS
;	COMDAT ??_C@_09MHOF@Fangspeir?$AA@
_DATA	SEGMENT
??_C@_09MHOF@Fangspeir?$AA@ DB 'Fangspeir', 00H		; `string'
_DATA	ENDS
;	COMDAT ??_C@_0M@OBB@Festerskull?$AA@
_DATA	SEGMENT
??_C@_0M@OBB@Festerskull?$AA@ DB 'Festerskull', 00H	; `string'
_DATA	ENDS
;	COMDAT ??_C@_0BD@JNOM@Lionskull?5the?5Bent?$AA@
_DATA	SEGMENT
??_C@_0BD@JNOM@Lionskull?5the?5Bent?$AA@ DB 'Lionskull the Bent', 00H ; `string'
_DATA	ENDS
;	COMDAT ??_C@_0M@OABD@Blacktongue?$AA@
_DATA	SEGMENT
??_C@_0M@OABD@Blacktongue?$AA@ DB 'Blacktongue', 00H	; `string'
_DATA	ENDS
;	COMDAT ??_C@_09CAAA@Viletouch?$AA@
_DATA	SEGMENT
??_C@_09CAAA@Viletouch?$AA@ DB 'Viletouch', 00H		; `string'
_DATA	ENDS
;	COMDAT ??_C@_0L@INON@Viperflame?$AA@
_DATA	SEGMENT
??_C@_0L@INON@Viperflame?$AA@ DB 'Viperflame', 00H	; `string'
_DATA	ENDS
;	COMDAT ??_C@_08GGMB@Fangskin?$AA@
_DATA	SEGMENT
??_C@_08GGMB@Fangskin?$AA@ DB 'Fangskin', 00H		; `string'
_DATA	ENDS
;	COMDAT ??_C@_0BF@JIIF@Witchfire?5the?5Unholy?$AA@
_DATA	SEGMENT
??_C@_0BF@JIIF@Witchfire?5the?5Unholy?$AA@ DB 'Witchfire the Unholy', 00H ; `string'
_DATA	ENDS
;	COMDAT ??_C@_0L@JDFP@Blackskull?$AA@
_DATA	SEGMENT
??_C@_0L@JDFP@Blackskull?$AA@ DB 'Blackskull', 00H	; `string'
_DATA	ENDS
;	COMDAT ??_C@_09NMNJ@Soulslash?$AA@
_DATA	SEGMENT
??_C@_09NMNJ@Soulslash?$AA@ DB 'Soulslash', 00H		; `string'
_DATA	ENDS
;	COMDAT ??_C@_09GJHH@Windspawn?$AA@
_DATA	SEGMENT
??_C@_09GJHH@Windspawn?$AA@ DB 'Windspawn', 00H		; `string'
_DATA	ENDS
;	COMDAT ??_C@_0BA@PNEB@Lord?5of?5the?5Pit?$AA@
_DATA	SEGMENT
??_C@_0BA@PNEB@Lord?5of?5the?5Pit?$AA@ DB 'Lord of the Pit', 00H ; `string'
_DATA	ENDS
;	COMDAT ??_C@_0L@PNLE@Rustweaver?$AA@
_DATA	SEGMENT
??_C@_0L@PNLE@Rustweaver?$AA@ DB 'Rustweaver', 00H	; `string'
_DATA	ENDS
;	COMDAT ??_C@_0BF@GJGM@Howlingire?5the?5Shade?$AA@
_DATA	SEGMENT
??_C@_0BF@GJGM@Howlingire?5the?5Shade?$AA@ DB 'Howlingire the Shade', 00H ; `string'
_DATA	ENDS
;	COMDAT ??_C@_09BFFD@Doomcloud?$AA@
_DATA	SEGMENT
??_C@_09BFFD@Doomcloud?$AA@ DB 'Doomcloud', 00H		; `string'
_DATA	ENDS
;	COMDAT ??_C@_0BD@OGMN@Bloodmoon?5Soulfire?$AA@
_DATA	SEGMENT
??_C@_0BD@OGMN@Bloodmoon?5Soulfire?$AA@ DB 'Bloodmoon Soulfire', 00H ; `string'
_DATA	ENDS
;	COMDAT ??_C@_09MOEP@Witchmoon?$AA@
_DATA	SEGMENT
??_C@_09MOEP@Witchmoon?$AA@ DB 'Witchmoon', 00H		; `string'
_DATA	ENDS
;	COMDAT ??_C@_09HKIB@Gorefeast?$AA@
_DATA	SEGMENT
??_C@_09HKIB@Gorefeast?$AA@ DB 'Gorefeast', 00H		; `string'
_DATA	ENDS
;	COMDAT ??_C@_0BD@OFLB@Graywar?5the?5Slayer?$AA@
_DATA	SEGMENT
??_C@_0BD@OFLB@Graywar?5the?5Slayer?$AA@ DB 'Graywar the Slayer', 00H ; `string'
_DATA	ENDS
;	COMDAT ??_C@_0L@DAKO@Dreadjudge?$AA@
_DATA	SEGMENT
??_C@_0L@DAKO@Dreadjudge?$AA@ DB 'Dreadjudge', 00H	; `string'
_DATA	ENDS
;	COMDAT ??_C@_0BC@OODD@Stareye?5the?5Witch?$AA@
_DATA	SEGMENT
??_C@_0BC@OODD@Stareye?5the?5Witch?$AA@ DB 'Stareye the Witch', 00H ; `string'
_DATA	ENDS
;	COMDAT ??_C@_0BG@LMMA@Steelskull?5the?5Hunter?$AA@
_DATA	SEGMENT
??_C@_0BG@LMMA@Steelskull?5the?5Hunter?$AA@ DB 'Steelskull the Hunter', 00H ; `string'
_DATA	ENDS
;	COMDAT ??_C@_0L@EMNF@Sir?5Gorash?$AA@
_DATA	SEGMENT
??_C@_0L@EMNF@Sir?5Gorash?$AA@ DB 'Sir Gorash', 00H	; `string'
_DATA	ENDS
;	COMDAT ??_C@_0L@FLBK@The?5Vizier?$AA@
_DATA	SEGMENT
??_C@_0L@FLBK@The?5Vizier?$AA@ DB 'The Vizier', 00H	; `string'
_DATA	ENDS
;	COMDAT ??_C@_07CLCG@Zamphir?$AA@
_DATA	SEGMENT
??_C@_07CLCG@Zamphir?$AA@ DB 'Zamphir', 00H		; `string'
_DATA	ENDS
;	COMDAT ??_C@_09MAFH@Bloodlust?$AA@
_DATA	SEGMENT
??_C@_09MAFH@Bloodlust?$AA@ DB 'Bloodlust', 00H		; `string'
_DATA	ENDS
;	COMDAT ??_C@_08NEOF@Webwidow?$AA@
_DATA	SEGMENT
??_C@_08NEOF@Webwidow?$AA@ DB 'Webwidow', 00H		; `string'
_DATA	ENDS
;	COMDAT ??_C@_0M@PHMK@Fleshdancer?$AA@
_DATA	SEGMENT
??_C@_0M@PHMK@Fleshdancer?$AA@ DB 'Fleshdancer', 00H	; `string'
_DATA	ENDS
;	COMDAT ??_C@_09BJLB@Grimspike?$AA@
_DATA	SEGMENT
??_C@_09BJLB@Grimspike?$AA@ DB 'Grimspike', 00H		; `string'
_DATA	ENDS
;	COMDAT ??_C@_08OEBD@Doomlock?$AA@
_DATA	SEGMENT
??_C@_08OEBD@Doomlock?$AA@ DB 'Doomlock', 00H		; `string'
_DATA	ENDS
_DATA	SEGMENT
_UniqMonst DB	022H
	ORG $+3
	DD	FLAT:??_C@_0BB@NNOM@Gharbad?5the?5Weak?$AA@
	DD	FLAT:??_C@_04EMDL@BSDB?$AA@
	DB	04H
	ORG $+1
	DW	078H
	DB	012H
	DB	03H
	DB	08H
	DB	010H
	DW	060H
	DW	00H
	DB	00H
	DB	00H
	ORG $+2
	DD	090H
	DB	032H
	ORG $+3
	DD	FLAT:??_C@_0O@COOI@Skeleton?5King?$AA@
	DD	FLAT:??_C@_05MCCE@GENRL?$AA@
	DB	00H
	ORG $+1
	DW	0f0H
	DB	0aH
	DB	03H
	DB	06H
	DB	010H
	DW	04eH
	DW	01H
	DB	00H
	DB	00H
	ORG $+2
	DD	00H
	DB	069H
	ORG $+3
	DD	FLAT:??_C@_0N@KGIJ@Zhar?5the?5Mad?$AA@
	DD	FLAT:??_C@_07MFB@GENERAL?$AA@
	DB	08H
	ORG $+1
	DW	0168H
	DB	016H
	DB	03H
	DB	010H
	DB	028H
	DW	0eH
	DW	00H
	DB	00H
	DB	00H
	ORG $+2
	DD	094H
	DB	07H
	ORG $+3
	DD	FLAT:??_C@_09MNJA@Snotspill?$AA@
	DD	FLAT:??_C@_03LJKM@BNG?$AA@
	DB	04H
	ORG $+1
	DW	0dcH
	DB	017H
	DB	03H
	DB	0aH
	DB	012H
	DW	04H
	DW	00H
	DB	00H
	DB	00H
	ORG $+2
	DD	014H
	DB	06cH
	ORG $+3
	DD	FLAT:??_C@_0BE@EMLM@Arch?9Bishop?5Lazarus?$AA@
	DD	FLAT:??_C@_07MFB@GENERAL?$AA@
	DB	00H
	ORG $+1
	DW	0258H
	DB	01cH
	DB	03H
	DB	01eH
	DB	032H
	DW	04eH
	DW	00H
	DB	00H
	DB	00H
	ORG $+2
	DD	023H
	DB	067H
	ORG $+3
	DD	FLAT:??_C@_07FILF@Red?5Vex?$AA@
	DD	FLAT:??_C@_04NHCL@REDV?$AA@
	DB	00H
	ORG $+1
	DW	0190H
	DB	01dH
	DB	03H
	DB	01eH
	DB	032H
	DW	04aH
	DW	00H
	DB	00H
	DB	00H
	ORG $+2
	DD	023H
	DB	067H
	ORG $+3
	DD	FLAT:??_C@_09NNFD@BlackJade?$AA@
	DD	FLAT:??_C@_05HMFP@BLKJD?$AA@
	DB	00H
	ORG $+1
	DW	0190H
	DB	01dH
	DB	03H
	DB	01eH
	DB	032H
	DW	04cH
	DW	00H
	DB	00H
	DB	00H
	ORG $+2
	DD	023H
	DB	060H
	ORG $+3
	DD	FLAT:??_C@_09GCKJ@Lachdanan?$AA@
	DD	FLAT:??_C@_04CAGH@BHKA?$AA@
	DB	0eH
	ORG $+1
	DW	01f4H
	DB	01eH
	DB	03H
	DB	00H
	DB	00H
	DW	00H
	DW	00H
	DB	00H
	DB	00H
	ORG $+2
	DD	051H
	DB	05fH
	ORG $+3
	DD	FLAT:??_C@_0BB@IIOM@Warlord?5of?5Blood?$AA@
	DD	FLAT:??_C@_07MFB@GENERAL?$AA@
	DB	0dH
	ORG $+1
	DW	0352H
	DB	01fH
	DB	03H
	DB	023H
	DB	032H
	DW	078H
	DW	00H
	DB	00H
	DB	00H
	ORG $+2
	DD	06eH
	DB	033H
	ORG $+3
	DD	FLAT:??_C@_0M@OGO@The?5Butcher?$AA@
	DD	FLAT:??_C@_05MCCE@GENRL?$AA@
	DB	00H
	ORG $+1
	DW	0dcH
	DB	0dH
	DB	03H
	DB	06H
	DB	0cH
	DW	046H
	DW	00H
	DB	00H
	DB	00H
	ORG $+2
	DD	00H
	DB	09H
	ORG $+3
	DD	FLAT:??_C@_0BB@DLIH@Bonehead?5Keenaxe?$AA@
	DD	FLAT:??_C@_04CAGH@BHKA?$AA@
	DB	02H
	ORG $+1
	DW	05bH
	DB	02H
	DB	02H
	DB	04H
	DB	0aH
	DW	048H
	DW	07H
	DB	064H
	DB	00H
	ORG $+2
	DD	00H
	DB	0cH
	ORG $+3
	DD	FLAT:??_C@_0BG@CLDJ@Bladeskin?5the?5Slasher?$AA@
	DD	FLAT:??_C@_04CFHF@BSTS?$AA@
	DB	02H
	ORG $+1
	DW	033H
	DB	08H
	DB	00H
	DB	06H
	DB	012H
	DW	02H
	DW	0bH
	DB	02dH
	DB	00H
	ORG $+2
	DD	00H
	DB	00H
	ORG $+3
	DD	FLAT:??_C@_07NGEG@Soulpus?$AA@
	DD	FLAT:??_C@_07MFB@GENERAL?$AA@
	DB	02H
	ORG $+1
	DW	085H
	DB	00H
	DB	00H
	DB	04H
	DB	08H
	DW	06H
	DW	00H
	DB	00H
	DB	00H
	ORG $+2
	DD	00H
	DB	04H
	ORG $+3
	DD	FLAT:??_C@_0BE@BDNK@Pukerat?5the?5Unclean?$AA@
	DD	FLAT:??_C@_03DCBN@PTU?$AA@
	DB	02H
	ORG $+1
	DW	04dH
	DB	08H
	DB	03H
	DB	01H
	DB	05H
	DW	02H
	DW	00H
	DB	00H
	DB	00H
	ORG $+2
	DD	00H
	DB	08H
	ORG $+3
	DD	FLAT:??_C@_0L@BJO@Boneripper?$AA@
	DD	FLAT:??_C@_02NOGO@BR?$AA@
	DB	02H
	ORG $+1
	DW	036H
	DB	0bH
	DB	00H
	DB	06H
	DB	0fH
	DW	058H
	DW	03H
	DB	00H
	DB	00H
	ORG $+2
	DD	00H
	DB	00H
	ORG $+3
	DD	FLAT:??_C@_0BE@FPNL@Rotfeast?5the?5Hungry?$AA@
	DD	FLAT:??_C@_03PEDI@ETH?$AA@
	DB	02H
	ORG $+1
	DW	055H
	DB	02H
	DB	03H
	DB	04H
	DB	0cH
	DW	048H
	DW	03H
	DB	00H
	DB	00H
	ORG $+2
	DD	00H
	DB	0dH
	ORG $+3
	DD	FLAT:??_C@_0BD@GBKJ@Gutshank?5the?5Quick?$AA@
	DD	FLAT:??_C@_03HEK@GTQ?$AA@
	DB	03H
	ORG $+1
	DW	042H
	DB	0bH
	DB	02H
	DB	06H
	DB	010H
	DW	02H
	DW	03H
	DB	00H
	DB	00H
	ORG $+2
	DD	00H
	DB	019H
	ORG $+3
	DD	FLAT:??_C@_0BG@IPBC@Brokenhead?5Bangshield?$AA@
	DD	FLAT:??_C@_04HPMH@BHBS?$AA@
	DB	03H
	ORG $+1
	DW	06cH
	DB	02H
	DB	03H
	DB	0cH
	DB	014H
	DW	04cH
	DW	03H
	DB	00H
	DB	00H
	ORG $+2
	DD	00H
	DB	06H
	ORG $+3
	DD	FLAT:??_C@_05DEJF@Bongo?$AA@
	DD	FLAT:??_C@_03LJKM@BNG?$AA@
	DB	03H
	ORG $+1
	DW	0b2H
	DB	08H
	DB	03H
	DB	09H
	DB	015H
	DW	00H
	DW	03H
	DB	00H
	DB	00H
	ORG $+2
	DD	00H
	DB	01H
	ORG $+3
	DD	FLAT:??_C@_0L@EMBE@Rotcarnage?$AA@
	DD	FLAT:??_C@_04NLMC@RCRN?$AA@
	DB	03H
	ORG $+1
	DW	066H
	DB	00H
	DB	03H
	DB	09H
	DB	018H
	DW	04cH
	DW	0bH
	DB	02dH
	DB	00H
	ORG $+2
	DD	00H
	DB	010H
	ORG $+3
	DD	FLAT:??_C@_0L@CBPB@Shadowbite?$AA@
	DD	FLAT:??_C@_04FKFB@SHBT?$AA@
	DB	02H
	ORG $+1
	DW	03cH
	DB	02H
	DB	03H
	DB	03H
	DB	014H
	DW	010H
	DW	03H
	DB	00H
	DB	00H
	ORG $+2
	DD	00H
	DB	014H
	ORG $+3
	DD	FLAT:??_C@_07FKDP@Deadeye?$AA@
	DD	FLAT:??_C@_02FFAE@DE?$AA@
	DB	02H
	ORG $+1
	DW	031H
	DB	07H
	DB	00H
	DB	06H
	DB	09H
	DW	04aH
	DW	00H
	DB	00H
	DB	00H
	ORG $+2
	DD	00H
	DB	0aH
	ORG $+3
	DD	FLAT:??_C@_0BA@GMMP@Madeye?5the?5Dead?$AA@
	DD	FLAT:??_C@_03JKGJ@MTD?$AA@
	DB	04H
	ORG $+1
	DW	04bH
	DB	0bH
	DB	00H
	DB	09H
	DB	015H
	DW	018H
	DW	0bH
	DB	01eH
	DB	00H
	ORG $+2
	DD	00H
	DB	011H
	ORG $+3
	DD	FLAT:??_C@_0P@MKEC@El?5Chupacabras?$AA@
	DD	FLAT:??_C@_07MFB@GENERAL?$AA@
	DB	03H
	ORG $+1
	DW	078H
	DB	06H
	DB	00H
	DB	0aH
	DB	012H
	DW	02H
	DW	03H
	DB	01eH
	DB	00H
	ORG $+2
	DD	00H
	DB	015H
	ORG $+3
	DD	FLAT:??_C@_09CNLO@Skullfire?$AA@
	DD	FLAT:??_C@_04JLC@SKFR?$AA@
	DB	03H
	ORG $+1
	DW	07dH
	DB	07H
	DB	01H
	DB	06H
	DB	0aH
	DW	010H
	DW	00H
	DB	064H
	DB	00H
	ORG $+2
	DD	00H
	DB	01dH
	ORG $+3
	DD	FLAT:??_C@_09MLHL@Warpskull?$AA@
	DD	FLAT:??_C@_04KCIG@TSPO?$AA@
	DB	03H
	ORG $+1
	DW	075H
	DB	0fH
	DB	02H
	DB	06H
	DB	012H
	DW	06H
	DW	03H
	DB	00H
	DB	00H
	ORG $+2
	DD	00H
	DB	02H
	ORG $+3
	DD	FLAT:??_C@_0L@EGAH@Goretongue?$AA@
	DD	FLAT:??_C@_03KOKP@PMR?$AA@
	DB	03H
	ORG $+1
	DW	09cH
	DB	02H
	DB	01H
	DB	0fH
	DB	01eH
	DW	048H
	DW	00H
	DB	00H
	DB	00H
	ORG $+2
	DD	00H
	DB	012H
	ORG $+3
	DD	FLAT:??_C@_0N@FKIP@Pulsecrawler?$AA@
	DD	FLAT:??_C@_04CAGH@BHKA?$AA@
	DB	04H
	ORG $+1
	DW	096H
	DB	04H
	DB	00H
	DB	010H
	DB	014H
	DW	014H
	DW	0bH
	DB	02dH
	DB	00H
	ORG $+2
	DD	00H
	DB	027H
	ORG $+3
	DD	FLAT:??_C@_0L@INCO@Moonbender?$AA@
	DD	FLAT:??_C@_07MFB@GENERAL?$AA@
	DB	04H
	ORG $+1
	DW	087H
	DB	0bH
	DB	00H
	DB	09H
	DB	01bH
	DW	010H
	DW	03H
	DB	00H
	DB	00H
	ORG $+2
	DD	00H
	DB	027H
	ORG $+3
	DD	FLAT:??_C@_0L@DKGL@Wrathraven?$AA@
	DD	FLAT:??_C@_07MFB@GENERAL?$AA@
	DB	05H
	ORG $+1
	DW	087H
	DB	0bH
	DB	02H
	DB	09H
	DB	016H
	DW	010H
	DW	03H
	DB	00H
	DB	00H
	ORG $+2
	DD	00H
	DB	013H
	ORG $+3
	DD	FLAT:??_C@_0L@PPGN@Spineeater?$AA@
	DD	FLAT:??_C@_07MFB@GENERAL?$AA@
	DB	04H
	ORG $+1
	DW	0b4H
	DB	04H
	DB	01H
	DB	012H
	DB	019H
	DW	060H
	DW	03H
	DB	00H
	DB	00H
	ORG $+2
	DD	00H
	DB	016H
	ORG $+3
	DD	FLAT:??_C@_0BF@KAKP@Blackash?5the?5Burning?$AA@
	DD	FLAT:??_C@_06PLDN@BASHTB?$AA@
	DB	04H
	ORG $+1
	DW	078H
	DB	07H
	DB	00H
	DB	06H
	DB	010H
	DW	018H
	DW	03H
	DB	00H
	DB	00H
	ORG $+2
	DD	00H
	DB	0fH
	ORG $+3
	DD	FLAT:??_C@_0L@FLBL@Shadowcrow?$AA@
	DD	FLAT:??_C@_07MFB@GENERAL?$AA@
	DB	05H
	ORG $+1
	DW	010eH
	DB	0fH
	DB	02H
	DB	0cH
	DB	019H
	DW	00H
	DW	03H
	DB	00H
	DB	00H
	ORG $+2
	DD	00H
	DB	021H
	ORG $+3
	DD	FLAT:??_C@_0BF@GMIP@Blightstone?5the?5Weak?$AA@
	DD	FLAT:??_C@_04CAGH@BHKA?$AA@
	DB	04H
	ORG $+1
	DW	0168H
	DB	02H
	DB	00H
	DB	04H
	DB	0cH
	DW	0cH
	DW	07H
	DB	046H
	DB	00H
	ORG $+2
	DD	00H
	DB	034H
	ORG $+3
	DD	FLAT:??_C@_0BJ@JMDI@Bilefroth?5the?5Pit?5Master?$AA@
	DD	FLAT:??_C@_04OBOK@BFTP?$AA@
	DB	06H
	ORG $+1
	DW	0d2H
	DB	0bH
	DB	01H
	DB	010H
	DB	017H
	DW	01cH
	DW	03H
	DB	00H
	DB	00H
	ORG $+2
	DD	00H
	DB	02aH
	ORG $+3
	DD	FLAT:??_C@_0BC@CEPB@Bloodskin?5Darkbow?$AA@
	DD	FLAT:??_C@_04EMDL@BSDB?$AA@
	DB	05H
	ORG $+1
	DW	0cfH
	DB	07H
	DB	00H
	DB	03H
	DB	010H
	DW	06H
	DW	0bH
	DB	037H
	DB	00H
	ORG $+2
	DD	00H
	DB	028H
	ORG $+3
	DD	FLAT:??_C@_08PDKI@Foulwing?$AA@
	DD	FLAT:??_C@_02OB@DB?$AA@
	DB	05H
	ORG $+1
	DW	0f6H
	DB	05H
	DB	03H
	DB	0cH
	DB	01cH
	DW	02H
	DW	03H
	DB	00H
	DB	00H
	ORG $+2
	DD	00H
	DB	01bH
	ORG $+3
	DD	FLAT:??_C@_0O@JFPG@Shadowdrinker?$AA@
	DD	FLAT:??_C@_04NCNM@SHDR?$AA@
	DB	05H
	ORG $+1
	DW	012cH
	DB	0fH
	DB	01H
	DB	012H
	DB	01aH
	DW	04eH
	DW	08H
	DB	02dH
	DB	00H
	ORG $+2
	DD	00H
	DB	01fH
	ORG $+3
	DD	FLAT:??_C@_0M@PIAB@Hazeshifter?$AA@
	DD	FLAT:??_C@_04CAGH@BHKA?$AA@
	DB	05H
	ORG $+1
	DW	011dH
	DB	0fH
	DB	03H
	DB	012H
	DB	01eH
	DW	060H
	DW	03H
	DB	00H
	DB	00H
	ORG $+2
	DD	00H
	DB	02eH
	ORG $+3
	DD	FLAT:??_C@_09HCNK@Deathspit?$AA@
	DD	FLAT:??_C@_04HEPK@BFDS?$AA@
	DB	06H
	ORG $+1
	DW	012fH
	DB	014H
	DB	00H
	DB	0cH
	DB	020H
	DW	06H
	DW	03H
	DB	00H
	DB	00H
	ORG $+2
	DD	00H
	DB	024H
	ORG $+3
	DD	FLAT:??_C@_0M@HAMG@Bloodgutter?$AA@
	DD	FLAT:??_C@_04PJDO@BGBL?$AA@
	DB	06H
	ORG $+1
	DW	013bH
	DB	0bH
	DB	01H
	DB	018H
	DB	022H
	DW	010H
	DW	03H
	DB	00H
	DB	00H
	ORG $+2
	DD	00H
	DB	023H
	ORG $+3
	DD	FLAT:??_C@_0BF@KJCD@Deathshade?5Fleshmaul?$AA@
	DD	FLAT:??_C@_04LPNP@DSFM?$AA@
	DB	06H
	ORG $+1
	DW	0114H
	DB	05H
	DB	00H
	DB	0cH
	DB	018H
	DW	0aH
	DW	08H
	DB	041H
	DB	00H
	ORG $+2
	DD	00H
	DB	038H
	ORG $+3
	DD	FLAT:??_C@_0BC@MEDF@Warmaggot?5the?5Mad?$AA@
	DD	FLAT:??_C@_07MFB@GENERAL?$AA@
	DB	06H
	ORG $+1
	DW	0f6H
	DB	0bH
	DB	03H
	DB	0fH
	DB	01eH
	DW	04H
	DW	03H
	DB	00H
	DB	00H
	ORG $+2
	DD	00H
	DB	04cH
	ORG $+3
	DD	FLAT:??_C@_0BF@MNGJ@Glasskull?5the?5Jagged?$AA@
	DD	FLAT:??_C@_04CAGH@BHKA?$AA@
	DB	07H
	ORG $+1
	DW	0162H
	DB	010H
	DB	00H
	DB	012H
	DB	01eH
	DW	058H
	DW	03H
	DB	00H
	DB	00H
	ORG $+2
	DD	00H
	DB	02cH
	ORG $+3
	DD	FLAT:??_C@_0L@IDEF@Blightfire?$AA@
	DD	FLAT:??_C@_03DOGO@BLF?$AA@
	DB	07H
	ORG $+1
	DW	0141H
	DB	0eH
	DB	02H
	DB	0dH
	DB	015H
	DW	010H
	DW	03H
	DB	00H
	DB	00H
	ORG $+2
	DD	00H
	DB	052H
	ORG $+3
	DD	FLAT:??_C@_0BD@CGJC@Nightwing?5the?5Cold?$AA@
	DD	FLAT:??_C@_07MFB@GENERAL?$AA@
	DB	07H
	ORG $+1
	DW	0156H
	DB	0bH
	DB	01H
	DB	012H
	DB	01aH
	DW	04cH
	DW	03H
	DB	00H
	DB	00H
	ORG $+2
	DD	00H
	DB	02dH
	ORG $+3
	DD	FLAT:??_C@_09MEMP@Gorestone?$AA@
	DD	FLAT:??_C@_07MFB@GENERAL?$AA@
	DB	07H
	ORG $+1
	DW	012fH
	DB	07H
	DB	01H
	DB	0fH
	DB	01cH
	DW	044H
	DW	07H
	DB	046H
	DB	00H
	ORG $+2
	DD	00H
	DB	03eH
	ORG $+3
	DD	FLAT:??_C@_0BF@HNAH@Bronzefist?5Firestone?$AA@
	DD	FLAT:??_C@_07MFB@GENERAL?$AA@
	DB	08H
	ORG $+1
	DW	0168H
	DB	09H
	DB	00H
	DB	01eH
	DB	024H
	DW	0aH
	DW	03H
	DB	00H
	DB	00H
	ORG $+2
	DD	00H
	DB	048H
	ORG $+3
	DD	FLAT:??_C@_0BF@HHDN@Wrathfire?5the?5Doomed?$AA@
	DD	FLAT:??_C@_04HPN@WFTD?$AA@
	DB	08H
	ORG $+1
	DW	010eH
	DB	02H
	DB	02H
	DB	014H
	DB	01eH
	DW	0eH
	DW	03H
	DB	00H
	DB	00H
	ORG $+2
	DD	00H
	DB	03cH
	ORG $+3
	DD	FLAT:??_C@_0BD@IJFE@Firewound?5the?5Grim?$AA@
	DD	FLAT:??_C@_04CAGH@BHKA?$AA@
	DB	08H
	ORG $+1
	DW	012fH
	DB	09H
	DB	00H
	DB	012H
	DB	016H
	DW	0aH
	DW	03H
	DB	00H
	DB	00H
	ORG $+2
	DD	00H
	DB	035H
	ORG $+3
	DD	FLAT:??_C@_0N@IEFH@Baron?5Sludge?$AA@
	DD	FLAT:??_C@_03CLMH@BSM?$AA@
	DB	08H
	ORG $+1
	DW	013bH
	DB	0fH
	DB	03H
	DB	019H
	DB	022H
	DW	04eH
	DW	0bH
	DB	04bH
	DB	00H
	ORG $+2
	DD	00H
	DB	025H
	ORG $+3
	DD	FLAT:??_C@_0BF@EOEA@Blighthorn?5Steelmace?$AA@
	DD	FLAT:??_C@_04BHO@BHSM?$AA@
	DB	07H
	ORG $+1
	DW	0faH
	DB	05H
	DB	00H
	DB	014H
	DB	01cH
	DW	04H
	DW	0bH
	DB	02dH
	DB	00H
	ORG $+2
	DD	00H
	DB	02fH
	ORG $+3
	DD	FLAT:??_C@_0M@MCHO@Chaoshowler?$AA@
	DD	FLAT:??_C@_07MFB@GENERAL?$AA@
	DB	08H
	ORG $+1
	DW	0f0H
	DB	014H
	DB	00H
	DB	0cH
	DB	014H
	DW	00H
	DW	03H
	DB	00H
	DB	00H
	ORG $+2
	DD	00H
	DB	045H
	ORG $+3
	DD	FLAT:??_C@_0BF@OELM@Doomgrin?5the?5Rotting?$AA@
	DD	FLAT:??_C@_07MFB@GENERAL?$AA@
	DB	08H
	ORG $+1
	DW	0195H
	DB	010H
	DB	03H
	DB	019H
	DB	032H
	DW	04eH
	DW	03H
	DB	00H
	DB	00H
	ORG $+2
	DD	00H
	DB	049H
	ORG $+3
	DD	FLAT:??_C@_09HKNB@Madburner?$AA@
	DD	FLAT:??_C@_07MFB@GENERAL?$AA@
	DB	09H
	ORG $+1
	DW	010eH
	DB	010H
	DB	00H
	DB	014H
	DB	028H
	DW	038H
	DW	03H
	DB	00H
	DB	00H
	ORG $+2
	DD	00H
	DB	046H
	ORG $+3
	DD	FLAT:??_C@_0BC@MKAI@Bonesaw?5the?5Litch?$AA@
	DD	FLAT:??_C@_07MFB@GENERAL?$AA@
	DB	09H
	ORG $+1
	DW	01efH
	DB	010H
	DB	02H
	DB	01eH
	DB	037H
	DW	04eH
	DW	03H
	DB	00H
	DB	00H
	ORG $+2
	DD	00H
	DB	041H
	ORG $+3
	DD	FLAT:??_C@_0L@GPAF@Breakspine?$AA@
	DD	FLAT:??_C@_07MFB@GENERAL?$AA@
	DB	09H
	ORG $+1
	DW	015fH
	DB	05H
	DB	00H
	DB	019H
	DB	022H
	DW	02H
	DW	03H
	DB	00H
	DB	00H
	ORG $+2
	DD	00H
	DB	045H
	ORG $+3
	DD	FLAT:??_C@_0BF@OIDE@Devilskull?5Sharpbone?$AA@
	DD	FLAT:??_C@_07MFB@GENERAL?$AA@
	DB	09H
	ORG $+1
	DW	01bcH
	DB	010H
	DB	01H
	DB	019H
	DB	028H
	DW	010H
	DW	03H
	DB	00H
	DB	00H
	ORG $+2
	DD	00H
	DB	04cH
	ORG $+3
	DD	FLAT:??_C@_0M@MABJ@Brokenstorm?$AA@
	DD	FLAT:??_C@_07MFB@GENERAL?$AA@
	DB	09H
	ORG $+1
	DW	019bH
	DB	010H
	DB	02H
	DB	019H
	DB	024H
	DW	020H
	DW	03H
	DB	00H
	DB	00H
	ORG $+2
	DD	00H
	DB	04dH
	ORG $+3
	DD	FLAT:??_C@_09HMHK@Stormbane?$AA@
	DD	FLAT:??_C@_07MFB@GENERAL?$AA@
	DB	09H
	ORG $+1
	DW	022bH
	DB	010H
	DB	03H
	DB	01eH
	DB	01eH
	DW	020H
	DW	03H
	DB	00H
	DB	00H
	ORG $+2
	DD	00H
	DB	036H
	ORG $+3
	DD	FLAT:??_C@_09PHOF@Oozedrool?$AA@
	DD	FLAT:??_C@_07MFB@GENERAL?$AA@
	DB	09H
	ORG $+1
	DW	01e3H
	DB	01H
	DB	03H
	DB	019H
	DB	01eH
	DW	04H
	DW	03H
	DB	00H
	DB	00H
	ORG $+2
	DD	00H
	DB	053H
	ORG $+3
	DD	FLAT:??_C@_0BI@NKPB@Goldblight?5of?5the?5Flame?$AA@
	DD	FLAT:??_C@_07MFB@GENERAL?$AA@
	DB	0aH
	ORG $+1
	DW	0195H
	DB	0cH
	DB	00H
	DB	0fH
	DB	023H
	DW	018H
	DW	0bH
	DB	050H
	DB	00H
	ORG $+2
	DD	00H
	DB	043H
	ORG $+3
	DD	FLAT:??_C@_0L@BDH@Blackstorm?$AA@
	DD	FLAT:??_C@_07MFB@GENERAL?$AA@
	DB	0aH
	ORG $+1
	DW	020dH
	DB	05H
	DB	03H
	DB	014H
	DB	028H
	DW	028H
	DW	0bH
	DB	05aH
	DB	00H
	ORG $+2
	DD	00H
	DB	02fH
	ORG $+3
	DD	FLAT:??_C@_0M@EPEK@Plaguewrath?$AA@
	DD	FLAT:??_C@_07MFB@GENERAL?$AA@
	DB	0aH
	ORG $+1
	DW	01c2H
	DB	014H
	DB	02H
	DB	014H
	DB	01eH
	DW	04aH
	DW	03H
	DB	00H
	DB	00H
	ORG $+2
	DD	00H
	DB	04dH
	ORG $+3
	DD	FLAT:??_C@_0L@BAIF@The?5Flayer?$AA@
	DD	FLAT:??_C@_07MFB@GENERAL?$AA@
	DB	0aH
	ORG $+1
	DW	01f5H
	DB	010H
	DB	01H
	DB	014H
	DB	023H
	DW	063H
	DW	03H
	DB	00H
	DB	00H
	ORG $+2
	DD	00H
	DB	042H
	ORG $+3
	DD	FLAT:??_C@_08BDKD@Bluehorn?$AA@
	DD	FLAT:??_C@_07MFB@GENERAL?$AA@
	DB	0bH
	ORG $+1
	DW	01ddH
	DB	05H
	DB	01H
	DB	019H
	DB	01eH
	DW	0aH
	DW	0bH
	DB	05aH
	DB	00H
	ORG $+2
	DD	00H
	DB	04bH
	ORG $+3
	DD	FLAT:??_C@_0BD@IICF@Warpfire?5Hellspawn?$AA@
	DD	FLAT:??_C@_07MFB@GENERAL?$AA@
	DB	0bH
	ORG $+1
	DW	020dH
	DB	011H
	DB	03H
	DB	0aH
	DB	028H
	DW	011H
	DW	03H
	DB	00H
	DB	00H
	ORG $+2
	DD	00H
	DB	059H
	ORG $+3
	DD	FLAT:??_C@_09MHOF@Fangspeir?$AA@
	DD	FLAT:??_C@_07MFB@GENERAL?$AA@
	DB	0bH
	ORG $+1
	DW	01bcH
	DB	02H
	DB	01H
	DB	0fH
	DB	020H
	DW	050H
	DW	03H
	DB	00H
	DB	00H
	ORG $+2
	DD	00H
	DB	047H
	ORG $+3
	DD	FLAT:??_C@_0M@OBB@Festerskull?$AA@
	DD	FLAT:??_C@_07MFB@GENERAL?$AA@
	DB	0bH
	ORG $+1
	DW	0258H
	DB	010H
	DB	02H
	DB	0fH
	DB	01eH
	DW	048H
	DW	03H
	DB	00H
	DB	00H
	ORG $+2
	DD	00H
	DB	05dH
	ORG $+3
	DD	FLAT:??_C@_0BD@JNOM@Lionskull?5the?5Bent?$AA@
	DD	FLAT:??_C@_07MFB@GENERAL?$AA@
	DB	0cH
	ORG $+1
	DW	020dH
	DB	02H
	DB	02H
	DB	019H
	DB	019H
	DW	078H
	DW	03H
	DB	00H
	DB	00H
	ORG $+2
	DD	00H
	DB	069H
	ORG $+3
	DD	FLAT:??_C@_0M@OABD@Blacktongue?$AA@
	DD	FLAT:??_C@_07MFB@GENERAL?$AA@
	DB	0cH
	ORG $+1
	DW	0168H
	DB	019H
	DB	03H
	DB	0fH
	DB	01eH
	DW	042H
	DW	03H
	DB	00H
	DB	00H
	ORG $+2
	DD	00H
	DB	054H
	ORG $+3
	DD	FLAT:??_C@_09CAAA@Viletouch?$AA@
	DD	FLAT:??_C@_07MFB@GENERAL?$AA@
	DB	0cH
	ORG $+1
	DW	020dH
	DB	0cH
	DB	03H
	DB	014H
	DB	028H
	DW	060H
	DW	03H
	DB	00H
	DB	00H
	ORG $+2
	DD	00H
	DB	05aH
	ORG $+3
	DD	FLAT:??_C@_0L@INON@Viperflame?$AA@
	DD	FLAT:??_C@_07MFB@GENERAL?$AA@
	DB	0cH
	ORG $+1
	DW	023aH
	DB	02H
	DB	01H
	DB	019H
	DB	023H
	DW	014H
	DW	03H
	DB	00H
	DB	00H
	ORG $+2
	DD	00H
	DB	05bH
	ORG $+3
	DD	FLAT:??_C@_08GGMB@Fangskin?$AA@
	DD	FLAT:??_C@_04CAGH@BHKA?$AA@
	DB	0eH
	ORG $+1
	DW	02a9H
	DB	02H
	DB	02H
	DB	0fH
	DB	032H
	DW	0cH
	DW	03H
	DB	00H
	DB	00H
	ORG $+2
	DD	00H
	DB	065H
	ORG $+3
	DD	FLAT:??_C@_0BF@JIIF@Witchfire?5the?5Unholy?$AA@
	DD	FLAT:??_C@_07MFB@GENERAL?$AA@
	DB	0cH
	ORG $+1
	DW	01bcH
	DB	0eH
	DB	03H
	DB	0aH
	DB	014H
	DW	01cH
	DW	03H
	DB	00H
	DB	00H
	ORG $+2
	DD	00H
	DB	058H
	ORG $+3
	DD	FLAT:??_C@_0L@JDFP@Blackskull?$AA@
	DD	FLAT:??_C@_04CAGH@BHKA?$AA@
	DB	0dH
	ORG $+1
	DW	02eeH
	DB	02H
	DB	03H
	DB	019H
	DB	028H
	DW	0cH
	DW	03H
	DB	00H
	DB	00H
	ORG $+2
	DD	00H
	DB	061H
	ORG $+3
	DD	FLAT:??_C@_09NMNJ@Soulslash?$AA@
	DD	FLAT:??_C@_07MFB@GENERAL?$AA@
	DB	0cH
	ORG $+1
	DW	01c2H
	DB	02H
	DB	00H
	DB	019H
	DB	019H
	DW	048H
	DW	03H
	DB	00H
	DB	00H
	ORG $+2
	DD	00H
	DB	057H
	ORG $+3
	DD	FLAT:??_C@_09GJHH@Windspawn?$AA@
	DD	FLAT:??_C@_07MFB@GENERAL?$AA@
	DB	0cH
	ORG $+1
	DW	02c7H
	DB	02H
	DB	01H
	DB	023H
	DB	028H
	DW	018H
	DW	03H
	DB	00H
	DB	00H
	ORG $+2
	DD	00H
	DB	05cH
	ORG $+3
	DD	FLAT:??_C@_0BA@PNEB@Lord?5of?5the?5Pit?$AA@
	DD	FLAT:??_C@_07MFB@GENERAL?$AA@
	DB	0dH
	ORG $+1
	DW	02faH
	DB	02H
	DB	02H
	DB	019H
	DB	02aH
	DW	042H
	DW	03H
	DB	00H
	DB	00H
	ORG $+2
	DD	00H
	DB	05eH
	ORG $+3
	DD	FLAT:??_C@_0L@PNLE@Rustweaver?$AA@
	DD	FLAT:??_C@_07MFB@GENERAL?$AA@
	DB	0dH
	ORG $+1
	DW	0190H
	DB	02H
	DB	03H
	DB	01H
	DB	03cH
	DW	078H
	DW	00H
	DB	00H
	DB	00H
	ORG $+2
	DD	00H
	DB	062H
	ORG $+3
	DD	FLAT:??_C@_0BF@GJGM@Howlingire?5the?5Shade?$AA@
	DD	FLAT:??_C@_07MFB@GENERAL?$AA@
	DB	0dH
	ORG $+1
	DW	01c2H
	DB	02H
	DB	02H
	DB	028H
	DB	04bH
	DW	06H
	DW	03H
	DB	00H
	DB	00H
	ORG $+2
	DD	00H
	DB	04fH
	ORG $+3
	DD	FLAT:??_C@_09BFFD@Doomcloud?$AA@
	DD	FLAT:??_C@_07MFB@GENERAL?$AA@
	DB	0dH
	ORG $+1
	DW	0264H
	DB	010H
	DB	01H
	DB	01H
	DB	03cH
	DW	022H
	DW	00H
	DB	00H
	DB	00H
	ORG $+2
	DD	00H
	DB	063H
	ORG $+3
	DD	FLAT:??_C@_0BD@OGMN@Bloodmoon?5Soulfire?$AA@
	DD	FLAT:??_C@_07MFB@GENERAL?$AA@
	DB	0dH
	ORG $+1
	DW	02acH
	DB	02H
	DB	01H
	DB	0fH
	DB	028H
	DW	0eH
	DW	03H
	DB	00H
	DB	00H
	ORG $+2
	DD	00H
	DB	066H
	ORG $+3
	DD	FLAT:??_C@_09MOEP@Witchmoon?$AA@
	DD	FLAT:??_C@_07MFB@GENERAL?$AA@
	DB	0dH
	ORG $+1
	DW	0136H
	DB	0eH
	DB	03H
	DB	01eH
	DB	028H
	DW	04H
	DW	00H
	DB	00H
	DB	00H
	ORG $+2
	DD	00H
	DB	057H
	ORG $+3
	DD	FLAT:??_C@_09HKIB@Gorefeast?$AA@
	DD	FLAT:??_C@_07MFB@GENERAL?$AA@
	DB	0dH
	ORG $+1
	DW	0303H
	DB	02H
	DB	03H
	DB	014H
	DB	037H
	DW	042H
	DW	00H
	DB	00H
	DB	00H
	ORG $+2
	DD	00H
	DB	05eH
	ORG $+3
	DD	FLAT:??_C@_0BD@OFLB@Graywar?5the?5Slayer?$AA@
	DD	FLAT:??_C@_07MFB@GENERAL?$AA@
	DB	0eH
	ORG $+1
	DW	02a0H
	DB	02H
	DB	01H
	DB	01eH
	DB	032H
	DW	044H
	DW	00H
	DB	00H
	DB	00H
	ORG $+2
	DD	00H
	DB	06aH
	ORG $+3
	DD	FLAT:??_C@_0L@DAKO@Dreadjudge?$AA@
	DD	FLAT:??_C@_07MFB@GENERAL?$AA@
	DB	0eH
	ORG $+1
	DW	021cH
	DB	019H
	DB	01H
	DB	01eH
	DB	028H
	DW	0eH
	DW	03H
	DB	00H
	DB	00H
	ORG $+2
	DD	00H
	DB	067H
	ORG $+3
	DD	FLAT:??_C@_0BC@OODD@Stareye?5the?5Witch?$AA@
	DD	FLAT:??_C@_07MFB@GENERAL?$AA@
	DB	0eH
	ORG $+1
	DW	02d6H
	DB	0eH
	DB	02H
	DB	01eH
	DB	032H
	DW	010H
	DW	00H
	DB	00H
	DB	00H
	ORG $+2
	DD	00H
	DB	05fH
	ORG $+3
	DD	FLAT:??_C@_0BG@LMMA@Steelskull?5the?5Hunter?$AA@
	DD	FLAT:??_C@_07MFB@GENERAL?$AA@
	DB	0eH
	ORG $+1
	DW	033fH
	DB	02H
	DB	03H
	DB	028H
	DB	032H
	DW	044H
	DW	00H
	DB	00H
	DB	00H
	ORG $+2
	DD	00H
	DB	060H
	ORG $+3
	DD	FLAT:??_C@_0L@EMNF@Sir?5Gorash?$AA@
	DD	FLAT:??_C@_07MFB@GENERAL?$AA@
	DB	010H
	ORG $+1
	DW	041aH
	DB	02H
	DB	01H
	DB	014H
	DB	03cH
	DW	040H
	DW	00H
	DB	00H
	DB	00H
	ORG $+2
	DD	00H
	DB	06bH
	ORG $+3
	DD	FLAT:??_C@_0L@FLBK@The?5Vizier?$AA@
	DD	FLAT:??_C@_07MFB@GENERAL?$AA@
	DB	0fH
	ORG $+1
	DW	0352H
	DB	019H
	DB	02H
	DB	019H
	DB	028H
	DW	010H
	DW	03H
	DB	00H
	DB	00H
	ORG $+2
	DD	00H
	DB	064H
	ORG $+3
	DD	FLAT:??_C@_07CLCG@Zamphir?$AA@
	DD	FLAT:??_C@_07MFB@GENERAL?$AA@
	DB	0fH
	ORG $+1
	DW	037bH
	DB	02H
	DB	02H
	DB	01eH
	DB	032H
	DW	04eH
	DW	03H
	DB	00H
	DB	00H
	ORG $+2
	DD	00H
	DB	067H
	ORG $+3
	DD	FLAT:??_C@_09MAFH@Bloodlust?$AA@
	DD	FLAT:??_C@_07MFB@GENERAL?$AA@
	DB	0fH
	ORG $+1
	DW	0339H
	DB	0eH
	DB	01H
	DB	014H
	DB	037H
	DW	068H
	DW	00H
	DB	00H
	DB	00H
	ORG $+2
	DD	00H
	DB	067H
	ORG $+3
	DD	FLAT:??_C@_08NEOF@Webwidow?$AA@
	DD	FLAT:??_C@_07MFB@GENERAL?$AA@
	DB	010H
	ORG $+1
	DW	0306H
	DB	0eH
	DB	01H
	DB	014H
	DB	032H
	DW	058H
	DW	00H
	DB	00H
	DB	00H
	ORG $+2
	DD	00H
	DB	068H
	ORG $+3
	DD	FLAT:??_C@_0M@PHMK@Fleshdancer?$AA@
	DD	FLAT:??_C@_07MFB@GENERAL?$AA@
	DB	010H
	ORG $+1
	DW	03e7H
	DB	0eH
	DB	03H
	DB	01eH
	DB	032H
	DW	04aH
	DW	00H
	DB	00H
	DB	00H
	ORG $+2
	DD	00H
	DB	043H
	ORG $+3
	DD	FLAT:??_C@_09BJLB@Grimspike?$AA@
	DD	FLAT:??_C@_07MFB@GENERAL?$AA@
	DB	013H
	ORG $+1
	DW	0216H
	DB	0fH
	DB	01H
	DB	019H
	DB	028H
	DW	04aH
	DW	03H
	DB	00H
	DB	00H
	ORG $+2
	DD	00H
	DB	04eH
	ORG $+3
	DD	FLAT:??_C@_08OEBD@Doomlock?$AA@
	DD	FLAT:??_C@_07MFB@GENERAL?$AA@
	DB	01cH
	ORG $+1
	DW	0216H
	DB	0fH
	DB	01H
	DB	023H
	DB	037H
	DW	04eH
	DW	03H
	DB	00H
	DB	00H
	ORG $+2
	DD	00H
	DB	0ffH
	ORG $+3
	DD	00H
	DD	00H
	DB	00H
	ORG $+1
	DW	00H
	DB	00H
	DB	00H
	DB	00H
	DB	00H
	DW	00H
	DW	00H
	DB	00H
	DB	00H
	ORG $+2
	DD	00H
_MWVel	DD	0100H
	DD	0200H
	DD	0400H
	DD	080H
	DD	0100H
	DD	0200H
	DD	055H
	DD	0aaH
	DD	0155H
	DD	040H
	DD	080H
	DD	0100H
	DD	033H
	DD	066H
	DD	0ccH
	DD	02aH
	DD	055H
	DD	0aaH
	DD	024H
	DD	049H
	DD	092H
	DD	020H
	DD	040H
	DD	080H
	DD	01cH
	DD	038H
	DD	071H
	DD	01aH
	DD	033H
	DD	066H
	DD	017H
	DD	02eH
	DD	05dH
	DD	015H
	DD	02aH
	DD	055H
	DD	013H
	DD	027H
	DD	04eH
	DD	012H
	DD	024H
	DD	049H
	DD	011H
	DD	022H
	DD	044H
	DD	010H
	DD	020H
	DD	040H
	DD	0fH
	DD	01eH
	DD	03cH
	DD	0eH
	DD	01cH
	DD	039H
	DD	0dH
	DD	01aH
	DD	036H
	DD	0cH
	DD	019H
	DD	033H
	DD	0cH
	DD	018H
	DD	030H
	DD	0bH
	DD	017H
	DD	02eH
	DD	0bH
	DD	016H
	DD	02cH
	DD	0aH
	DD	015H
	DD	02aH
_animletter DB	'nwahds', 00H
	ORG $+1
_left	DD	07H
	DD	00H
	DD	01H
	DD	02H
	DD	03H
	DD	04H
	DD	05H
	DD	06H
_right	DD	01H
	DD	02H
	DD	03H
	DD	04H
	DD	05H
	DD	06H
	DD	07H
	DD	00H
_opposite DD	04H
	DD	05H
	DD	06H
	DD	07H
	DD	00H
	DD	01H
	DD	02H
	DD	03H
_offset_x DD	01H
	DD	00H
	DD	0ffffffffH
	DD	0ffffffffH
	DD	0ffffffffH
	DD	00H
	DD	01H
	DD	01H
_offset_y DD	01H
	DD	01H
	DD	01H
	DD	00H
	DD	0ffffffffH
	DD	0ffffffffH
	DD	0ffffffffH
	DD	00H
_rnd5	DD	05H
	DD	0aH
	DD	0fH
	DD	014H
_rnd10	DD	0aH
	DD	0fH
	DD	014H
	DD	01eH
_rnd20	DD	014H
	DD	01eH
	DD	028H
	DD	032H
_rnd60	DD	03cH
	DD	046H
	DD	050H
	DD	05aH
_AiProc	DD	FLAT:@MAI_Zombie@4
	DD	FLAT:@MAI_Fat@4
	DD	FLAT:@MAI_SkelSd@4
	DD	FLAT:@MAI_SkelBow@4
	DD	FLAT:@MAI_Scav@4
	DD	FLAT:@MAI_Rhino@4
	DD	FLAT:@MAI_GoatMc@4
	DD	FLAT:@MAI_GoatBow@4
	DD	FLAT:@MAI_Fallen@4
	DD	FLAT:@MAI_Magma@4
	DD	FLAT:@MAI_SkelKing@4
	DD	FLAT:@MAI_Bat@4
	DD	FLAT:@MAI_Garg@4
	DD	FLAT:@MAI_Cleaver@4
	DD	FLAT:@MAI_Succ@4
	DD	FLAT:@MAI_Sneak@4
	DD	FLAT:@MAI_Storm@4
	DD	FLAT:@MAI_Fireman@4
	DD	FLAT:@MAI_Garbud@4
	DD	FLAT:@MAI_Acid@4
	DD	FLAT:@MAI_AcidUniq@4
	DD	FLAT:@MAI_Golum@4
	DD	FLAT:@MAI_Zhar@4
	DD	FLAT:@MAI_SnotSpil@4
	DD	FLAT:@MAI_Snake@4
	DD	FLAT:@MAI_Counselor@4
	DD	FLAT:@MAI_Mega@4
	DD	FLAT:@MAI_Diablo@4
	DD	FLAT:@MAI_Lazurus@4
	DD	FLAT:@MAI_Lazhelp@4
	DD	FLAT:@MAI_Lachdanan@4
	DD	FLAT:@MAI_Warlord@4
_DATA	ENDS
PUBLIC	@InitMonsterTRN@8
EXTRN	@Cl2ApplyTrans@12:NEAR
; Function compile flags: /Ogsy
;	COMDAT @InitMonsterTRN@8
_TEXT	SEGMENT
_n$ = -4
@InitMonsterTRN@8 PROC NEAR				; COMDAT
; _monst$ = ecx
; _special$ = edx
; File Source/monster.cpp
; Line 351
	push	ecx
	push	ecx
	push	ebp
	push	esi
	mov	esi, ecx
; Line 355
	mov	ecx, 256				; 00000100H
	imul	esi, 328				; 00000148H
	mov	eax, DWORD PTR _Monsters[esi+324]
$L85395:
; Line 357
	cmp	BYTE PTR [eax], 255			; 000000ffH
	jne	SHORT $L85398
; Line 358
	and	BYTE PTR [eax], 0
$L85398:
; Line 360
	inc	eax
	dec	ecx
	jne	SHORT $L85395
; Line 363
	xor	eax, eax
	test	edx, edx
	setne	al
	add	eax, 5
; Line 364
	xor	ebp, ebp
	test	eax, eax
	mov	DWORD PTR _n$[esp+16], eax
	jle	SHORT $L85401
	push	ebx
	push	edi
$L85399:
; Line 365
	cmp	ebp, 1
	jne	SHORT $L85403
	mov	al, BYTE PTR _Monsters[esi]
	cmp	al, 105					; 00000069H
	jb	SHORT $L85403
	cmp	al, 108					; 0000006cH
	jbe	SHORT $L85400
$L85403:
	mov	eax, ebp
; Line 366
	mov	DWORD PTR -8+[esp+24], 8
	imul	eax, 44					; 0000002cH
	lea	edi, DWORD PTR [eax+esi]
	lea	ebx, DWORD PTR _Monsters[edi+8]
$L85404:
; Line 370
	push	DWORD PTR _Monsters[edi+40]
	mov	edx, DWORD PTR _Monsters[esi+324]
	mov	ecx, DWORD PTR [ebx]
	call	@Cl2ApplyTrans@12
	add	ebx, 4
	dec	DWORD PTR -8+[esp+24]
	jne	SHORT $L85404
$L85400:
; Line 364
	inc	ebp
	cmp	ebp, DWORD PTR _n$[esp+24]
	jl	SHORT $L85399
	pop	edi
	pop	ebx
$L85401:
	pop	esi
	pop	ebp
; Line 374
	pop	ecx
	pop	ecx
	ret	0
@InitMonsterTRN@8 ENDP
_TEXT	ENDS
PUBLIC	_InitLevelMonsters
PUBLIC	_ClrAllMonsters
; Function compile flags: /Ogsy
;	COMDAT _InitLevelMonsters
_TEXT	SEGMENT
_InitLevelMonsters PROC NEAR				; COMDAT
; Line 377
	push	ebx
; Line 380
	xor	ebx, ebx
	mov	DWORD PTR _nummtypes, ebx
; Line 381
	mov	DWORD PTR _monstimgtot, ebx
; Line 382
	mov	DWORD PTR _MissileFileFlag, ebx
	mov	eax, OFFSET FLAT:_Monsters+1
$L85409:
; Line 385
	mov	BYTE PTR [eax], bl
	add	eax, 328				; 00000148H
	cmp	eax, OFFSET FLAT:_Monsters+5249
	jl	SHORT $L85409
; Line 388
	call	_ClrAllMonsters
; Line 390
	mov	ecx, 200				; 000000c8H
	mov	DWORD PTR _nummonsters, ebx
	mov	DWORD PTR _totalmonsters, ecx
; Line 392
	xor	eax, eax
$L85412:
; Line 393
	mov	DWORD PTR _monstactive[eax*4], eax
	inc	eax
	cmp	eax, ecx
	jl	SHORT $L85412
; Line 396
	mov	DWORD PTR _uniquetrans, ebx
	pop	ebx
; Line 397
	ret	0
_InitLevelMonsters ENDP
_TEXT	ENDS
PUBLIC	@AddMonsterType@8
PUBLIC	@InitMonsterGFX@4
EXTRN	@InitMonsterSND@4:NEAR
; Function compile flags: /Ogsy
;	COMDAT @AddMonsterType@8
_TEXT	SEGMENT
@AddMonsterType@8 PROC NEAR				; COMDAT
; _type$ = ecx
; _placeflag$ = edx
; Line 400
	push	ebx
	mov	ebx, edx
; Line 404
	mov	edx, DWORD PTR _nummtypes
	push	esi
	xor	eax, eax
	xor	esi, esi
	test	edx, edx
	push	edi
	jle	SHORT $L85424
; Line 401
	mov	edi, OFFSET FLAT:_Monsters
$L85422:
; Line 404
	test	eax, eax
	jne	SHORT $L85424
; Line 405
	movzx	eax, BYTE PTR [edi]
	sub	eax, ecx
	neg	eax
	sbb	eax, eax
	add	edi, 328				; 00000148H
	inc	eax
	inc	esi
	cmp	esi, edx
	jl	SHORT $L85422
$L85424:
; Line 408
	dec	esi
; Line 410
	test	eax, eax
	jne	SHORT $L85425
; Line 411
	mov	esi, edx
; Line 412
	inc	edx
; Line 413
	mov	eax, esi
	mov	DWORD PTR _nummtypes, edx
	imul	eax, 328				; 00000148H
	mov	BYTE PTR _Monsters[eax], cl
; Line 414
	shl	ecx, 7
	mov	eax, DWORD PTR _monsterdata[ecx+4]
; Line 415
	mov	ecx, esi
	add	DWORD PTR _monstimgtot, eax
	call	@InitMonsterGFX@4
; Line 416
	mov	ecx, esi
	call	@InitMonsterSND@4
$L85425:
; Line 419
	mov	eax, esi
	pop	edi
	imul	eax, 328				; 00000148H
	lea	eax, DWORD PTR _Monsters[eax+1]
	or	BYTE PTR [eax], bl
; Line 420
	mov	eax, esi
	pop	esi
	pop	ebx
; Line 421
	ret	0
@AddMonsterType@8 ENDP
_TEXT	ENDS
PUBLIC	@IsSkel@4
PUBLIC	_GetLevelMTypes
EXTRN	_setlvlnum:BYTE
EXTRN	_setlevel:BYTE
EXTRN	_quests:BYTE
EXTRN	_DebugMonsters:BYTE
EXTRN	_monstdebug:DWORD
EXTRN	_debugmonsttypes:DWORD
EXTRN	@QuestStatus@4:NEAR
EXTRN	_gbMaxPlayers:BYTE
EXTRN	@random@8:NEAR
EXTRN	_currlevel:BYTE
; Function compile flags: /Ogsy
;	COMDAT _GetLevelMTypes
_TEXT	SEGMENT
_i$ = -4
_typelist$ = -804
_skeltypes$ = -452
_nt$ = -4
_GetLevelMTypes PROC NEAR				; COMDAT
; Line 424
	push	ebp
	mov	ebp, esp
	sub	esp, 804				; 00000324H
	push	ebx
	push	esi
	push	edi
; Line 440
	push	2
	pop	esi
	push	109					; 0000006dH
	mov	edx, esi
	pop	ecx
	call	@AddMonsterType@8
; Line 441
	cmp	BYTE PTR _currlevel, 16			; 00000010H
	jne	SHORT $L85435
; Line 442
	xor	edx, edx
	push	108					; 0000006cH
	inc	edx
	pop	ecx
	call	@AddMonsterType@8
; Line 443
	xor	edx, edx
	push	96					; 00000060H
	inc	edx
	pop	ecx
	call	@AddMonsterType@8
; Line 444
	mov	edx, esi
	push	110					; 0000006eH
; Line 445
	jmp	$L89512
$L85435:
; Line 448
	cmp	BYTE PTR _setlevel, 0
	jne	$L85436
; Line 449
	push	6
	pop	ecx
	call	@QuestStatus@4
	test	eax, eax
	je	SHORT $L85437
; Line 450
	push	51					; 00000033H
	mov	edx, esi
	pop	ecx
	call	@AddMonsterType@8
$L85437:
; Line 451
	mov	ecx, esi
	call	@QuestStatus@4
	push	4
	test	eax, eax
	pop	esi
	je	SHORT $L85438
; Line 452
	movsx	ecx, BYTE PTR _UniqMonst
	mov	edx, esi
	call	@AddMonsterType@8
$L85438:
; Line 453
	push	3
	pop	ecx
	call	@QuestStatus@4
	test	eax, eax
	je	SHORT $L85439
; Line 454
	movsx	ecx, BYTE PTR _UniqMonst+64
	mov	edx, esi
	call	@AddMonsterType@8
$L85439:
; Line 455
	push	7
	pop	ecx
	call	@QuestStatus@4
	test	eax, eax
	je	SHORT $L85440
; Line 456
	movsx	ecx, BYTE PTR _UniqMonst+96
	mov	edx, esi
	call	@AddMonsterType@8
$L85440:
; Line 457
	mov	ecx, esi
	call	@QuestStatus@4
	test	eax, eax
	je	SHORT $L85441
; Line 458
	movsx	ecx, BYTE PTR _UniqMonst+224
	mov	edx, esi
	call	@AddMonsterType@8
$L85441:
; Line 459
	push	11					; 0000000bH
	pop	ecx
	call	@QuestStatus@4
	test	eax, eax
	je	SHORT $L85442
; Line 460
	movsx	ecx, BYTE PTR _UniqMonst+256
	mov	edx, esi
	call	@AddMonsterType@8
$L85442:
; Line 462
	cmp	BYTE PTR _gbMaxPlayers, 1
	je	$L85443
	mov	al, BYTE PTR _currlevel
	cmp	al, BYTE PTR _quests+288
	jne	$L85443
; Line 464
	push	50					; 00000032H
	mov	edx, esi
	pop	ecx
	call	@AddMonsterType@8
; Line 466
	and	DWORD PTR _nt$[ebp], 0
; Line 467
	push	8
	pop	edi
	mov	esi, OFFSET FLAT:_monsterdata+1109
$L85444:
; Line 468
	mov	ecx, edi
	call	@IsSkel@4
	test	eax, eax
	je	SHORT $L85445
; Line 472
	movsx	eax, BYTE PTR [esi-1]
	imul	eax, 15					; 0000000fH
	push	30					; 0000001eH
	cdq
	pop	ebx
	idiv	ebx
; Line 519
	movzx	ecx, BYTE PTR _currlevel
	inc	eax
	cmp	ecx, eax
	jl	SHORT $L85445
	movsx	eax, BYTE PTR [esi]
	imul	eax, 15					; 0000000fH
	cdq
	idiv	ebx
	inc	eax
	cmp	ecx, eax
	jg	SHORT $L85445
; Line 473
	test	BYTE PTR _MonstAvailTbl[edi], 3
	je	SHORT $L85445
; Line 474
	mov	eax, DWORD PTR _nt$[ebp]
	inc	DWORD PTR _nt$[ebp]
	mov	DWORD PTR _skeltypes$[ebp+eax*4], edi
$L85445:
	add	esi, 128				; 00000080H
	inc	edi
	cmp	esi, OFFSET FLAT:_monsterdata+3541
	jle	SHORT $L85444
; Line 479
	mov	edx, DWORD PTR _nt$[ebp]
	mov	cl, 88					; 00000058H
	call	@random@8
	mov	ecx, DWORD PTR _skeltypes$[ebp+eax*4]
	xor	edx, edx
	inc	edx
	call	@AddMonsterType@8
$L85443:
; Line 483
	movzx	esi, BYTE PTR _currlevel
	xor	edi, edi
	mov	ecx, OFFSET FLAT:_monsterdata+85
	mov	DWORD PTR _i$[ebp], edi
$L85450:
; Line 487
	movsx	eax, BYTE PTR [ecx-1]
	imul	eax, 15					; 0000000fH
	push	30					; 0000001eH
	cdq
	pop	ebx
	idiv	ebx
	inc	eax
	cmp	esi, eax
	jl	SHORT $L85451
	movsx	eax, BYTE PTR [ecx]
	imul	eax, 15					; 0000000fH
	cdq
	idiv	ebx
	inc	eax
	cmp	esi, eax
	jg	SHORT $L85451
; Line 488
	mov	eax, DWORD PTR _i$[ebp]
	test	BYTE PTR _MonstAvailTbl[eax], 3
	je	SHORT $L85451
; Line 489
	mov	DWORD PTR _typelist$[ebp+edi*4], eax
	inc	edi
$L85451:
	inc	DWORD PTR _i$[ebp]
	add	ecx, 128				; 00000080H
	cmp	ecx, OFFSET FLAT:_monsterdata+14293
	jl	SHORT $L85450
; Line 494
	cmp	DWORD PTR _monstdebug, 0
	je	SHORT $L89503
; Line 495
	xor	esi, esi
	cmp	DWORD PTR _debugmonsttypes, esi
	jle	$L85469
$L85456:
; Line 496
	mov	ecx, DWORD PTR _DebugMonsters[esi*4]
	xor	edx, edx
	inc	edx
	call	@AddMonsterType@8
	inc	esi
	cmp	esi, DWORD PTR _debugmonsttypes
	jl	SHORT $L85456
; Line 497
	jmp	$L85469
$L89503:
; Line 499
	test	edi, edi
	jle	$L85469
	mov	ebx, 4000				; 00000fa0H
$L85461:
	cmp	DWORD PTR _nummtypes, 16		; 00000010H
	jge	SHORT $L85469
	mov	eax, DWORD PTR _monstimgtot
	cmp	eax, ebx
	jge	SHORT $L85469
; Line 500
	xor	ecx, ecx
	test	edi, edi
	jle	SHORT $L89513
	mov	edx, ebx
	sub	edx, eax
$L85464:
	lea	eax, DWORD PTR _typelist$[ebp+ecx*4]
; Line 501
	mov	esi, DWORD PTR [eax]
	shl	esi, 7
	cmp	DWORD PTR _monsterdata[esi+4], edx
	jle	SHORT $L85466
; Line 502
	mov	esi, DWORD PTR _typelist$[ebp+edi*4-4]
	dec	edi
	mov	DWORD PTR [eax], esi
; Line 503
	jmp	SHORT $L89508
$L85466:
; Line 506
	inc	ecx
$L89508:
; Line 500
	cmp	ecx, edi
	jl	SHORT $L85464
; Line 509
	test	edi, edi
$L89513:
	je	SHORT $L85467
; Line 510
	mov	edx, edi
	mov	cl, 88					; 00000058H
	call	@random@8
; Line 511
	lea	esi, DWORD PTR _typelist$[ebp+eax*4]
	xor	edx, edx
	inc	edx
	mov	ecx, DWORD PTR [esi]
	call	@AddMonsterType@8
; Line 512
	mov	eax, DWORD PTR _typelist$[ebp+edi*4-4]
	dec	edi
	mov	DWORD PTR [esi], eax
$L85467:
; Line 499
	test	edi, edi
	jg	SHORT $L85461
; Line 517
	jmp	SHORT $L85469
$L85436:
; Line 518
	cmp	BYTE PTR _setlvlnum, 1
	jne	SHORT $L85469
; Line 519
	push	4
	pop	edx
	push	50					; 00000032H
$L89512:
	pop	ecx
	call	@AddMonsterType@8
$L85469:
	pop	edi
	pop	esi
	pop	ebx
; Line 522
	leave
	ret	0
_GetLevelMTypes ENDP
_TEXT	ENDS
EXTRN	_sprintf:NEAR
EXTRN	@LoadMissileGFX@4:NEAR
EXTRN	@mem_free_dbg@4:NEAR
EXTRN	@LoadFileInMem@8:NEAR
; Function compile flags: /Ogsy
;	COMDAT @InitMonsterGFX@4
_TEXT	SEGMENT
_monst$ = -20
_mtype$ = -4
_anim$ = -12
_i$ = -8
_strBuff$ = -276
@InitMonsterGFX@4 PROC NEAR				; COMDAT
; _monst$ = ecx
; Line 525
	push	ebp
	mov	ebp, esp
	sub	esp, 276				; 00000114H
	push	ebx
	push	esi
	mov	esi, ecx
; Line 533
	and	DWORD PTR _anim$[ebp], 0
	mov	DWORD PTR _monst$[ebp], esi
	imul	esi, 328				; 00000148H
	movzx	ebx, BYTE PTR _Monsters[esi]
	mov	DWORD PTR _mtype$[ebp], ebx
	push	edi
	shl	ebx, 7
	lea	edi, DWORD PTR _Monsters[esi+8]
	lea	eax, DWORD PTR _monsterdata[ebx+32]
	mov	DWORD PTR -8+[ebp], edi
	mov	DWORD PTR -16+[ebp], eax
$L85480:
; Line 534
	mov	ecx, DWORD PTR _anim$[ebp]
	mov	cl, BYTE PTR _animletter[ecx]
	cmp	cl, 115					; 00000073H
	jne	SHORT $L85484
	cmp	DWORD PTR _monsterdata[ebx+12], 0
	je	SHORT $L85490
