; Listing generated by Microsoft (R) Optimizing Compiler Version 12.00.9044.0 

	TITLE	Source/setmaps.cpp
	.386P
include listing.inc
if @Version gt 510
.model FLAT
else
_TEXT	SEGMENT PARA USE32 PUBLIC 'CODE'
_TEXT	ENDS
_DATA	SEGMENT DWORD USE32 PUBLIC 'DATA'
_DATA	ENDS
CONST	SEGMENT DWORD USE32 PUBLIC 'CONST'
CONST	ENDS
_BSS	SEGMENT DWORD USE32 PUBLIC 'BSS'
_BSS	ENDS
$$SYMBOLS	SEGMENT BYTE USE32 'DEBSYM'
$$SYMBOLS	ENDS
$$TYPES	SEGMENT BYTE USE32 'DEBTYP'
$$TYPES	ENDS
_TLS	SEGMENT DWORD USE32 PUBLIC 'TLS'
_TLS	ENDS
;	COMDAT ??_C@_00A@?$AA@
_DATA	SEGMENT DWORD USE32 PUBLIC 'DATA'
_DATA	ENDS
;	COMDAT ??_C@_0BF@CICD@Skeleton?5King?8s?5Lair?$AA@
_DATA	SEGMENT DWORD USE32 PUBLIC 'DATA'
_DATA	ENDS
;	COMDAT ??_C@_0N@OEMI@Bone?5Chamber?$AA@
_DATA	SEGMENT DWORD USE32 PUBLIC 'DATA'
_DATA	ENDS
;	COMDAT ??_C@_04CBNC@Maze?$AA@
_DATA	SEGMENT DWORD USE32 PUBLIC 'DATA'
_DATA	ENDS
;	COMDAT ??_C@_0BG@DINJ@Poisoned?5Water?5Supply?$AA@
_DATA	SEGMENT DWORD USE32 PUBLIC 'DATA'
_DATA	ENDS
;	COMDAT ??_C@_0BJ@JJ@Archbishop?5Lazarus?8?5Lair?$AA@
_DATA	SEGMENT DWORD USE32 PUBLIC 'DATA'
_DATA	ENDS
;	COMDAT ??_C@_0CN@JJIE@ObjIndex?3?5Active?5object?5not?5foun@
_DATA	SEGMENT DWORD USE32 PUBLIC 'DATA'
_DATA	ENDS
;	COMDAT ??_C@_0BK@DMJF@Levels?2L1Data?2SklKng1?4DUN?$AA@
_DATA	SEGMENT DWORD USE32 PUBLIC 'DATA'
_DATA	ENDS
;	COMDAT ??_C@_0BK@NMPK@Levels?2L1Data?2SklKng2?4DUN?$AA@
_DATA	SEGMENT DWORD USE32 PUBLIC 'DATA'
_DATA	ENDS
;	COMDAT ??_C@_0BH@EIAF@Levels?2L1Data?2L1_2?4pal?$AA@
_DATA	SEGMENT DWORD USE32 PUBLIC 'DATA'
_DATA	ENDS
;	COMDAT ??_C@_0BL@GCOO@Levels?2L2Data?2Bonecha2?4DUN?$AA@
_DATA	SEGMENT DWORD USE32 PUBLIC 'DATA'
_DATA	ENDS
;	COMDAT ??_C@_0BL@ICIB@Levels?2L2Data?2Bonecha1?4DUN?$AA@
_DATA	SEGMENT DWORD USE32 PUBLIC 'DATA'
_DATA	ENDS
;	COMDAT ??_C@_0BH@NLEI@Levels?2L2Data?2L2_2?4pal?$AA@
_DATA	SEGMENT DWORD USE32 PUBLIC 'DATA'
_DATA	ENDS
;	COMDAT ??_C@_0BL@FCBD@Levels?2L1Data?2Lv1MazeA?4DUN?$AA@
_DATA	SEGMENT DWORD USE32 PUBLIC 'DATA'
_DATA	ENDS
;	COMDAT ??_C@_0BL@LCHM@Levels?2L1Data?2Lv1MazeB?4DUN?$AA@
_DATA	SEGMENT DWORD USE32 PUBLIC 'DATA'
_DATA	ENDS
;	COMDAT ??_C@_0BH@CIPP@Levels?2L1Data?2L1_5?4pal?$AA@
_DATA	SEGMENT DWORD USE32 PUBLIC 'DATA'
_DATA	ENDS
;	COMDAT ??_C@_0BL@GKNE@Levels?2L3Data?2Foulwatr?4DUN?$AA@
_DATA	SEGMENT DWORD USE32 PUBLIC 'DATA'
_DATA	ENDS
;	COMDAT ??_C@_0BK@GALI@Levels?2L3Data?2L3pfoul?4pal?$AA@
_DATA	SEGMENT DWORD USE32 PUBLIC 'DATA'
_DATA	ENDS
;	COMDAT ??_C@_0BI@GGND@Levels?2L1Data?2Vile1?4DUN?$AA@
_DATA	SEGMENT DWORD USE32 PUBLIC 'DATA'
_DATA	ENDS
;	COMDAT ??_C@_0BI@IGLM@Levels?2L1Data?2Vile2?4DUN?$AA@
_DATA	SEGMENT DWORD USE32 PUBLIC 'DATA'
_DATA	ENDS
CRT$XCU	SEGMENT DWORD USE32 PUBLIC ''
CRT$XCU	ENDS
;	COMDAT @ObjIndex@8
_TEXT	SEGMENT PARA USE32 PUBLIC 'CODE'
_TEXT	ENDS
;	COMDAT _AddSKingObjs
_TEXT	SEGMENT PARA USE32 PUBLIC 'CODE'
_TEXT	ENDS
;	COMDAT _AddSChamObjs
_TEXT	SEGMENT PARA USE32 PUBLIC 'CODE'
_TEXT	ENDS
;	COMDAT _AddVileObjs
_TEXT	SEGMENT PARA USE32 PUBLIC 'CODE'
_TEXT	ENDS
;	COMDAT @DRLG_SetMapTrans@4
_TEXT	SEGMENT PARA USE32 PUBLIC 'CODE'
_TEXT	ENDS
;	COMDAT _LoadSetMap
_TEXT	SEGMENT PARA USE32 PUBLIC 'CODE'
_TEXT	ENDS
FLAT	GROUP _DATA, CONST, _BSS, CRT$XCU
	ASSUME	CS: FLAT, DS: FLAT, SS: FLAT
endif

INCLUDELIB LIBCMT
INCLUDELIB OLDNAMES

PUBLIC	??_C@_00A@?$AA@					; `string'
PUBLIC	??_C@_0BF@CICD@Skeleton?5King?8s?5Lair?$AA@	; `string'
PUBLIC	??_C@_0N@OEMI@Bone?5Chamber?$AA@		; `string'
PUBLIC	??_C@_04CBNC@Maze?$AA@				; `string'
PUBLIC	??_C@_0BG@DINJ@Poisoned?5Water?5Supply?$AA@	; `string'
PUBLIC	??_C@_0BJ@JJ@Archbishop?5Lazarus?8?5Lair?$AA@	; `string'
PUBLIC	_SkelKingTrans1
PUBLIC	_SkelKingTrans2
PUBLIC	_SkelKingTrans3
PUBLIC	_SkelKingTrans4
PUBLIC	_SkelChamTrans1
PUBLIC	_SkelChamTrans2
PUBLIC	_SkelChamTrans3
PUBLIC	_quest_level_names
;	COMDAT ??_C@_00A@?$AA@
_BSS	SEGMENT
??_C@_00A@?$AA@ DB 01H DUP (?)				; `string'
_BSS	ENDS
_DATA	SEGMENT
_SkelKingTrans1 DB 013H
	DB	02fH
	DB	01aH
	DB	037H
	DB	01aH
	DB	031H
	DB	01eH
	DB	035H
_SkelKingTrans2 DB 021H
	DB	013H
	DB	02fH
	DB	01dH
	DB	025H
	DB	01dH
	DB	02bH
	DB	027H
_SkelKingTrans3 DB 01bH
	DB	035H
	DB	023H
	DB	03dH
	DB	01bH
	DB	023H
	DB	022H
	DB	02aH
	DB	02dH
	DB	023H
	DB	035H
	DB	02bH
	DB	02dH
	DB	035H
	DB	035H
	DB	03dH
	DB	01fH
	DB	027H
	DB	031H
	DB	039H
_SkelKingTrans4 DB 031H
	DB	02dH
	DB	03aH
	DB	033H
	DB	039H
	DB	01fH
	DB	03eH
	DB	025H
	DB	03fH
	DB	01fH
	DB	045H
	DB	028H
	DB	03bH
	DB	029H
	DB	049H
	DB	037H
	DB	03fH
	DB	037H
	DB	045H
	DB	041H
	DB	049H
	DB	02dH
	DB	04eH
	DB	033H
	DB	04fH
	DB	02bH
	DB	059H
	DB	035H
_SkelChamTrans1 DB 02bH
	DB	013H
	DB	032H
	DB	01aH
	DB	033H
	DB	013H
	DB	03bH
	DB	01aH
	DB	023H
	DB	01bH
	DB	02aH
	DB	022H
	DB	02bH
	DB	01bH
	DB	031H
	DB	022H
	DB	032H
	DB	01bH
	DB	03bH
	DB	022H
_SkelChamTrans2 DB 013H
	DB	01fH
	DB	022H
	DB	02fH
	DB	022H
	DB	023H
	DB	02aH
	DB	02aH
_SkelChamTrans3 DB 02bH
	DB	023H
	DB	032H
	DB	02aH
	DB	033H
	DB	023H
	DB	03eH
	DB	02aH
	DB	03fH
	DB	01fH
	DB	042H
	DB	02eH
	DB	043H
	DB	01fH
	DB	04eH
	DB	022H
	DB	043H
	DB	023H
	DB	04eH
	DB	02aH
	DB	043H
	DB	02bH
	DB	04eH
	DB	02eH
	DB	023H
	DB	02bH
	DB	02aH
	DB	033H
	DB	02bH
	DB	02bH
	DB	031H
	DB	033H
	DB	032H
	DB	02bH
	DB	03bH
	DB	033H
_DATA	ENDS
;	COMDAT ??_C@_0BF@CICD@Skeleton?5King?8s?5Lair?$AA@
_DATA	SEGMENT
??_C@_0BF@CICD@Skeleton?5King?8s?5Lair?$AA@ DB 'Skeleton King''s Lair', 00H ; `string'
_DATA	ENDS
;	COMDAT ??_C@_0N@OEMI@Bone?5Chamber?$AA@
_DATA	SEGMENT
??_C@_0N@OEMI@Bone?5Chamber?$AA@ DB 'Bone Chamber', 00H	; `string'
_DATA	ENDS
;	COMDAT ??_C@_04CBNC@Maze?$AA@
_DATA	SEGMENT
??_C@_04CBNC@Maze?$AA@ DB 'Maze', 00H			; `string'
_DATA	ENDS
;	COMDAT ??_C@_0BG@DINJ@Poisoned?5Water?5Supply?$AA@
_DATA	SEGMENT
??_C@_0BG@DINJ@Poisoned?5Water?5Supply?$AA@ DB 'Poisoned Water Supply', 00H ; `string'
_DATA	ENDS
;	COMDAT ??_C@_0BJ@JJ@Archbishop?5Lazarus?8?5Lair?$AA@
_DATA	SEGMENT
??_C@_0BJ@JJ@Archbishop?5Lazarus?8?5Lair?$AA@ DB 'Archbishop Lazarus'' La'
	DB	'ir', 00H					; `string'
_DATA	ENDS
_DATA	SEGMENT
_quest_level_names DD FLAT:??_C@_00A@?$AA@
	DD	FLAT:??_C@_0BF@CICD@Skeleton?5King?8s?5Lair?$AA@
	DD	FLAT:??_C@_0N@OEMI@Bone?5Chamber?$AA@
	DD	FLAT:??_C@_04CBNC@Maze?$AA@
	DD	FLAT:??_C@_0BG@DINJ@Poisoned?5Water?5Supply?$AA@
	DD	FLAT:??_C@_0BJ@JJ@Archbishop?5Lazarus?8?5Lair?$AA@
_DATA	ENDS
PUBLIC	@ObjIndex@8
PUBLIC	??_C@_0CN@JJIE@ObjIndex?3?5Active?5object?5not?5foun@ ; `string'
EXTRN	_objectactive:BYTE
EXTRN	_nobjects:DWORD
EXTRN	_object:BYTE
EXTRN	_TermMsg:NEAR
;	COMDAT ??_C@_0CN@JJIE@ObjIndex?3?5Active?5object?5not?5foun@
; File Source/setmaps.cpp
_DATA	SEGMENT
??_C@_0CN@JJIE@ObjIndex?3?5Active?5object?5not?5foun@ DB 'ObjIndex: Activ'
	DB	'e object not found at (%d,%d)', 00H		; `string'
; Function compile flags: /Ogsy
_DATA	ENDS
;	COMDAT @ObjIndex@8
_TEXT	SEGMENT
@ObjIndex@8 PROC NEAR					; COMDAT
; _x$ = ecx
; _y$ = edx
; Line 69
	push	ebx
; Line 73
	mov	ebx, DWORD PTR _nobjects
	push	esi
	push	edi
	xor	edi, edi
	test	ebx, ebx
	jle	SHORT $L84997
$L84995:
; Line 74
	mov	eax, DWORD PTR _objectactive[edi*4]
; Line 75
	mov	esi, eax
	imul	esi, 120				; 00000078H
	cmp	DWORD PTR _object[esi+4], ecx
	jne	SHORT $L84996
	cmp	DWORD PTR _object[esi+8], edx
	je	SHORT $L84992
$L84996:
; Line 73
	inc	edi
	cmp	edi, ebx
	jl	SHORT $L84995
$L84997:
; Line 78
	push	edx
	push	ecx
	push	OFFSET FLAT:??_C@_0CN@JJIE@ObjIndex?3?5Active?5object?5not?5foun@ ; `string'
	call	_TermMsg
	add	esp, 12					; 0000000cH
; Line 79
	or	eax, -1
$L84992:
	pop	edi
	pop	esi
	pop	ebx
; Line 80
	ret	0
@ObjIndex@8 ENDP
_TEXT	ENDS
PUBLIC	_AddSKingObjs
EXTRN	@SetObjMapRange@24:NEAR
; Function compile flags: /Ogsy
;	COMDAT _AddSKingObjs
_TEXT	SEGMENT
_AddSKingObjs PROC NEAR					; COMDAT
; Line 84
	push	1
	push	10					; 0000000aH
	push	23					; 00000017H
	push	7
	push	34					; 00000022H
	pop	edx
	push	64					; 00000040H
	pop	ecx
	call	@ObjIndex@8
	push	20					; 00000014H
	mov	ecx, eax
	pop	edx
	call	@SetObjMapRange@24
; Line 85
	push	2
	push	16					; 00000010H
	push	21					; 00000015H
	push	14					; 0000000eH
	push	59					; 0000003bH
	pop	edx
	push	64					; 00000040H
	pop	ecx
	call	@ObjIndex@8
	push	20					; 00000014H
	mov	ecx, eax
	pop	edx
	call	@SetObjMapRange@24
; Line 86
	push	3
	push	11					; 0000000bH
	push	15					; 0000000fH
	push	1
	push	37					; 00000025H
	pop	edx
	push	27					; 0000001bH
	pop	ecx
	call	@ObjIndex@8
	push	8
	mov	ecx, eax
	pop	edx
	call	@SetObjMapRange@24
; Line 87
	push	3
	push	11					; 0000000bH
	push	15					; 0000000fH
	push	1
	push	35					; 00000023H
	pop	edx
	push	46					; 0000002eH
	pop	ecx
	call	@ObjIndex@8
	push	8
	mov	ecx, eax
	pop	edx
	call	@SetObjMapRange@24
; Line 88
	push	3
	push	11					; 0000000bH
	push	15					; 0000000fH
	push	1
	push	53					; 00000035H
	pop	edx
	push	49					; 00000031H
	pop	ecx
	call	@ObjIndex@8
	push	8
	mov	ecx, eax
	pop	edx
	call	@SetObjMapRange@24
; Line 89
	push	3
	push	11					; 0000000bH
	push	15					; 0000000fH
	push	1
	push	53					; 00000035H
	pop	edx
	push	27					; 0000001bH
	pop	ecx
	call	@ObjIndex@8
	push	8
	mov	ecx, eax
	pop	edx
	call	@SetObjMapRange@24
; Line 90
	ret	0
_AddSKingObjs ENDP
_TEXT	ENDS
PUBLIC	_AddSChamObjs
; Function compile flags: /Ogsy
;	COMDAT _AddSChamObjs
_TEXT	SEGMENT
_AddSChamObjs PROC NEAR					; COMDAT
; Line 94
	push	1
	push	5
	push	21					; 00000015H
	push	0
	push	30					; 0000001eH
	pop	edx
	push	37					; 00000025H
	pop	ecx
	call	@ObjIndex@8
	push	17					; 00000011H
	mov	ecx, eax
	pop	edx
	call	@SetObjMapRange@24
; Line 95
	push	2
	push	5
	push	16					; 00000010H
	push	0
	push	46					; 0000002eH
	pop	edx
	push	37					; 00000025H
	pop	ecx
	call	@ObjIndex@8
	push	13					; 0000000dH
	mov	ecx, eax
	pop	edx
	call	@SetObjMapRange@24
; Line 96
	ret	0
_AddSChamObjs ENDP
_TEXT	ENDS
PUBLIC	_AddVileObjs
; Function compile flags: /Ogsy
;	COMDAT _AddVileObjs
_TEXT	SEGMENT
_AddVileObjs PROC NEAR					; COMDAT
; Line 100
	push	1
	push	10					; 0000000aH
	push	9
	push	1
	push	45					; 0000002dH
	pop	edx
	push	26					; 0000001aH
	pop	ecx
	call	@ObjIndex@8
	xor	edx, edx
	mov	ecx, eax
	inc	edx
	call	@SetObjMapRange@24
; Line 101
	push	2
	push	10					; 0000000aH
	push	20					; 00000014H
	push	1
	push	46					; 0000002eH
	pop	edx
	push	45					; 0000002dH
	pop	ecx
	call	@ObjIndex@8
	push	11					; 0000000bH
	mov	ecx, eax
	pop	edx
	call	@SetObjMapRange@24
; Line 102
	push	3
	push	18					; 00000012H
	push	13					; 0000000dH
	push	11					; 0000000bH
	push	36					; 00000024H
	pop	edx
	push	35					; 00000023H
	pop	ecx
	call	@ObjIndex@8
	push	7
	mov	ecx, eax
	pop	edx
	call	@SetObjMapRange@24
; Line 103
	ret	0
_AddVileObjs ENDP
_TEXT	ENDS
PUBLIC	@DRLG_SetMapTrans@4
EXTRN	@mem_free_dbg@4:NEAR
EXTRN	@LoadFileInMem@8:NEAR
EXTRN	_dung_map:BYTE
; Function compile flags: /Ogsy
;	COMDAT @DRLG_SetMapTrans@4
_TEXT	SEGMENT
_j$ = -4
@DRLG_SetMapTrans@4 PROC NEAR				; COMDAT
; _sFileName$ = ecx
; Line 106
	push	ebp
	mov	ebp, esp
	push	ecx
	push	ecx
	push	ebx
	push	esi
	push	edi
; Line 113
	xor	edx, edx
	call	@LoadFileInMem@8
	mov	ecx, eax
; Line 123
	and	DWORD PTR _j$[ebp], 0
	movzx	ebx, BYTE PTR [ecx]
	lea	esi, DWORD PTR [ecx+2]
	movzx	edi, BYTE PTR [esi]
	mov	eax, edi
	add	edi, edi
	imul	eax, ebx
	add	ebx, ebx
	mov	edx, edi
	imul	edx, ebx
	lea	eax, DWORD PTR [eax+eax+2]
	lea	edx, DWORD PTR [edx+edx*2]
	lea	eax, DWORD PTR [eax+edx*2]
	add	esi, eax
	test	edi, edi
	jle	SHORT $L85016
$L85014:
; Line 124
	test	ebx, ebx
	jle	SHORT $L85015
	mov	eax, DWORD PTR _j$[ebp]
	mov	DWORD PTR -8+[ebp], ebx
	lea	eax, DWORD PTR _dung_map[eax+1808]
$L85017:
; Line 125
	mov	dl, BYTE PTR [esi]
; Line 126
	inc	esi
	mov	BYTE PTR [eax], dl
	inc	esi
	add	eax, 112				; 00000070H
	dec	DWORD PTR -8+[ebp]
	jne	SHORT $L85017
$L85015:
; Line 123
	inc	DWORD PTR _j$[ebp]
	cmp	DWORD PTR _j$[ebp], edi
	jl	SHORT $L85014
$L85016:
; Line 129
	call	@mem_free_dbg@4
	pop	edi
	pop	esi
	pop	ebx
; Line 130
	leave
	ret	0
@DRLG_SetMapTrans@4 ENDP
_TEXT	ENDS
PUBLIC	_LoadSetMap
PUBLIC	??_C@_0BK@DMJF@Levels?2L1Data?2SklKng1?4DUN?$AA@ ; `string'
PUBLIC	??_C@_0BK@NMPK@Levels?2L1Data?2SklKng2?4DUN?$AA@ ; `string'
PUBLIC	??_C@_0BH@EIAF@Levels?2L1Data?2L1_2?4pal?$AA@	; `string'
PUBLIC	??_C@_0BL@GCOO@Levels?2L2Data?2Bonecha2?4DUN?$AA@ ; `string'
PUBLIC	??_C@_0BL@ICIB@Levels?2L2Data?2Bonecha1?4DUN?$AA@ ; `string'
PUBLIC	??_C@_0BH@NLEI@Levels?2L2Data?2L2_2?4pal?$AA@	; `string'
PUBLIC	??_C@_0BL@FCBD@Levels?2L1Data?2Lv1MazeA?4DUN?$AA@ ; `string'
PUBLIC	??_C@_0BL@LCHM@Levels?2L1Data?2Lv1MazeB?4DUN?$AA@ ; `string'
PUBLIC	??_C@_0BH@CIPP@Levels?2L1Data?2L1_5?4pal?$AA@	; `string'
PUBLIC	??_C@_0BL@GKNE@Levels?2L3Data?2Foulwatr?4DUN?$AA@ ; `string'
PUBLIC	??_C@_0BK@GALI@Levels?2L3Data?2L3pfoul?4pal?$AA@ ; `string'
PUBLIC	??_C@_0BI@GGND@Levels?2L1Data?2Vile1?4DUN?$AA@	; `string'
PUBLIC	??_C@_0BI@IGLM@Levels?2L1Data?2Vile2?4DUN?$AA@	; `string'
EXTRN	_setlvlnum:BYTE
EXTRN	@DRLG_ListTrans@8:NEAR
EXTRN	@DRLG_AreaTrans@8:NEAR
EXTRN	_quests:BYTE
EXTRN	@LoadL1Dungeon@12:NEAR
EXTRN	@LoadPreL1Dungeon@12:NEAR
EXTRN	@LoadPalette@4:NEAR
EXTRN	_InitNoTriggers:NEAR
EXTRN	_InitSKingTriggers:NEAR
EXTRN	_InitSChambTriggers:NEAR
EXTRN	_InitPWaterTriggers:NEAR
EXTRN	@LoadL2Dungeon@12:NEAR
EXTRN	@LoadPreL2Dungeon@12:NEAR
EXTRN	@AddL1Objs@16:NEAR
EXTRN	@AddL2Objs@16:NEAR
EXTRN	@LoadL3Dungeon@12:NEAR
EXTRN	@LoadPreL3Dungeon@12:NEAR
;	COMDAT ??_C@_0BI@GGND@Levels?2L1Data?2Vile1?4DUN?$AA@
_DATA	SEGMENT
??_C@_0BI@GGND@Levels?2L1Data?2Vile1?4DUN?$AA@ DB 'Levels\L1Data\Vile1.DU'
	DB	'N', 00H					; `string'
_DATA	ENDS
;	COMDAT ??_C@_0BI@IGLM@Levels?2L1Data?2Vile2?4DUN?$AA@
_DATA	SEGMENT
??_C@_0BI@IGLM@Levels?2L1Data?2Vile2?4DUN?$AA@ DB 'Levels\L1Data\Vile2.DU'
	DB	'N', 00H					; `string'
_DATA	ENDS
;	COMDAT ??_C@_0BH@EIAF@Levels?2L1Data?2L1_2?4pal?$AA@
_DATA	SEGMENT
??_C@_0BH@EIAF@Levels?2L1Data?2L1_2?4pal?$AA@ DB 'Levels\L1Data\L1_2.pal', 00H ; `string'
_DATA	ENDS
;	COMDAT ??_C@_0BL@GKNE@Levels?2L3Data?2Foulwatr?4DUN?$AA@
_DATA	SEGMENT
??_C@_0BL@GKNE@Levels?2L3Data?2Foulwatr?4DUN?$AA@ DB 'Levels\L3Data\Foulw'
	DB	'atr.DUN', 00H				; `string'
_DATA	ENDS
;	COMDAT ??_C@_0BK@GALI@Levels?2L3Data?2L3pfoul?4pal?$AA@
_DATA	SEGMENT
??_C@_0BK@GALI@Levels?2L3Data?2L3pfoul?4pal?$AA@ DB 'Levels\L3Data\L3pfou'
	DB	'l.pal', 00H					; `string'
_DATA	ENDS
;	COMDAT ??_C@_0BL@FCBD@Levels?2L1Data?2Lv1MazeA?4DUN?$AA@
_DATA	SEGMENT
??_C@_0BL@FCBD@Levels?2L1Data?2Lv1MazeA?4DUN?$AA@ DB 'Levels\L1Data\Lv1Ma'
	DB	'zeA.DUN', 00H				; `string'
_DATA	ENDS
;	COMDAT ??_C@_0BL@LCHM@Levels?2L1Data?2Lv1MazeB?4DUN?$AA@
_DATA	SEGMENT
??_C@_0BL@LCHM@Levels?2L1Data?2Lv1MazeB?4DUN?$AA@ DB 'Levels\L1Data\Lv1Ma'
	DB	'zeB.DUN', 00H				; `string'
_DATA	ENDS
;	COMDAT ??_C@_0BH@CIPP@Levels?2L1Data?2L1_5?4pal?$AA@
_DATA	SEGMENT
??_C@_0BH@CIPP@Levels?2L1Data?2L1_5?4pal?$AA@ DB 'Levels\L1Data\L1_5.pal', 00H ; `string'
_DATA	ENDS
;	COMDAT ??_C@_0BL@GCOO@Levels?2L2Data?2Bonecha2?4DUN?$AA@
_DATA	SEGMENT
??_C@_0BL@GCOO@Levels?2L2Data?2Bonecha2?4DUN?$AA@ DB 'Levels\L2Data\Bonec'
	DB	'ha2.DUN', 00H				; `string'
_DATA	ENDS
;	COMDAT ??_C@_0BL@ICIB@Levels?2L2Data?2Bonecha1?4DUN?$AA@
_DATA	SEGMENT
??_C@_0BL@ICIB@Levels?2L2Data?2Bonecha1?4DUN?$AA@ DB 'Levels\L2Data\Bonec'
	DB	'ha1.DUN', 00H				; `string'
_DATA	ENDS
;	COMDAT ??_C@_0BH@NLEI@Levels?2L2Data?2L2_2?4pal?$AA@
_DATA	SEGMENT
??_C@_0BH@NLEI@Levels?2L2Data?2L2_2?4pal?$AA@ DB 'Levels\L2Data\L2_2.pal', 00H ; `string'
_DATA	ENDS
;	COMDAT ??_C@_0BK@DMJF@Levels?2L1Data?2SklKng1?4DUN?$AA@
_DATA	SEGMENT
??_C@_0BK@DMJF@Levels?2L1Data?2SklKng1?4DUN?$AA@ DB 'Levels\L1Data\SklKng'
	DB	'1.DUN', 00H					; `string'
_DATA	ENDS
;	COMDAT ??_C@_0BK@NMPK@Levels?2L1Data?2SklKng2?4DUN?$AA@
_DATA	SEGMENT
??_C@_0BK@NMPK@Levels?2L1Data?2SklKng2?4DUN?$AA@ DB 'Levels\L1Data\SklKng'
	DB	'2.DUN', 00H					; `string'
; Function compile flags: /Ogsy
_DATA	ENDS
;	COMDAT _LoadSetMap
_TEXT	SEGMENT
_LoadSetMap PROC NEAR					; COMDAT
; Line 134
	movzx	eax, BYTE PTR _setlvlnum
	dec	eax
	push	esi
	je	$L85025
	dec	eax
	je	$L85030
	dec	eax
	je	$L85034
	dec	eax
	je	SHORT $L85038
	dec	eax
	jne	$L85022
; Line 178
	mov	al, BYTE PTR _quests+362
	cmp	al, 3
	jne	SHORT $L85043
; Line 179
	mov	BYTE PTR _quests+376, 4
; Line 180
	jmp	SHORT $L85045
$L85043:
	cmp	al, 2
	jne	SHORT $L85045
; Line 181
	mov	BYTE PTR _quests+376, 3
$L85045:
; Line 183
	push	36					; 00000024H
	push	35					; 00000023H
	mov	esi, OFFSET FLAT:??_C@_0BI@GGND@Levels?2L1Data?2Vile1?4DUN?$AA@ ; `string'
	pop	edx
	mov	ecx, esi
	call	@LoadPreL1Dungeon@12
; Line 184
	push	36					; 00000024H
	push	35					; 00000023H
	pop	edx
	mov	ecx, OFFSET FLAT:??_C@_0BI@IGLM@Levels?2L1Data?2Vile2?4DUN?$AA@ ; `string'
	call	@LoadL1Dungeon@12
; Line 185
	mov	ecx, OFFSET FLAT:??_C@_0BH@EIAF@Levels?2L1Data?2L1_2?4pal?$AA@ ; `string'
	call	@LoadPalette@4
; Line 186
	push	112					; 00000070H
	push	112					; 00000070H
	xor	edx, edx
	xor	ecx, ecx
	call	@AddL1Objs@16
; Line 187
	call	_AddVileObjs
; Line 188
	mov	ecx, esi
	call	@DRLG_SetMapTrans@4
	pop	esi
; Line 189
	jmp	_InitNoTriggers
$L85038:
; Line 170
	cmp	BYTE PTR _quests+314, 1
	jne	SHORT $L85039
; Line 171
	mov	BYTE PTR _quests+314, 2
$L85039:
; Line 172
	push	50					; 00000032H
	push	19					; 00000013H
	mov	esi, OFFSET FLAT:??_C@_0BL@GKNE@Levels?2L3Data?2Foulwatr?4DUN?$AA@ ; `string'
	pop	edx
	mov	ecx, esi
	call	@LoadPreL3Dungeon@12
; Line 173
	push	50					; 00000032H
	push	20					; 00000014H
	pop	edx
	mov	ecx, esi
	call	@LoadL3Dungeon@12
; Line 174
	mov	ecx, OFFSET FLAT:??_C@_0BK@GALI@Levels?2L3Data?2L3pfoul?4pal?$AA@ ; `string'
	call	@LoadPalette@4
	pop	esi
; Line 175
	jmp	_InitPWaterTriggers
$L85034:
; Line 163
	push	50					; 00000032H
	push	20					; 00000014H
	mov	esi, OFFSET FLAT:??_C@_0BL@FCBD@Levels?2L1Data?2Lv1MazeA?4DUN?$AA@ ; `string'
	pop	edx
	mov	ecx, esi
	call	@LoadPreL1Dungeon@12
; Line 164
	push	50					; 00000032H
	push	20					; 00000014H
	pop	edx
	mov	ecx, OFFSET FLAT:??_C@_0BL@LCHM@Levels?2L1Data?2Lv1MazeB?4DUN?$AA@ ; `string'
	call	@LoadL1Dungeon@12
; Line 165
	mov	ecx, OFFSET FLAT:??_C@_0BH@CIPP@Levels?2L1Data?2L1_5?4pal?$AA@ ; `string'
	call	@LoadPalette@4
; Line 166
	push	112					; 00000070H
	push	112					; 00000070H
	xor	edx, edx
	xor	ecx, ecx
	call	@AddL1Objs@16
; Line 167
	mov	ecx, esi
	pop	esi
	jmp	@DRLG_SetMapTrans@4
$L85030:
; Line 152
	push	39					; 00000027H
	push	69					; 00000045H
	pop	edx
	mov	ecx, OFFSET FLAT:??_C@_0BL@GCOO@Levels?2L2Data?2Bonecha2?4DUN?$AA@ ; `string'
	call	@LoadPreL2Dungeon@12
; Line 153
	push	39					; 00000027H
	push	69					; 00000045H
	pop	edx
	mov	ecx, OFFSET FLAT:??_C@_0BL@ICIB@Levels?2L2Data?2Bonecha1?4DUN?$AA@ ; `string'
	call	@LoadL2Dungeon@12
; Line 154
	mov	ecx, OFFSET FLAT:??_C@_0BH@NLEI@Levels?2L2Data?2L2_2?4pal?$AA@ ; `string'
	call	@LoadPalette@4
; Line 155
	push	5
	mov	edx, OFFSET FLAT:_SkelChamTrans1
	pop	ecx
	call	@DRLG_ListTrans@8
; Line 156
	push	2
	mov	edx, OFFSET FLAT:_SkelChamTrans2
	pop	ecx
	call	@DRLG_AreaTrans@8
; Line 157
	push	9
	mov	edx, OFFSET FLAT:_SkelChamTrans3
	pop	ecx
	call	@DRLG_ListTrans@8
; Line 158
	push	112					; 00000070H
	push	112					; 00000070H
	xor	edx, edx
	xor	ecx, ecx
	call	@AddL2Objs@16
; Line 159
	call	_AddSChamObjs
	pop	esi
; Line 160
	jmp	_InitSChambTriggers
$L85025:
; Line 136
	cmp	BYTE PTR _quests+290, 1
	jne	SHORT $L85026
; Line 137
	mov	BYTE PTR _quests+290, 2
; Line 138
	mov	BYTE PTR _quests+303, 1
$L85026:
; Line 140
	push	45					; 0000002dH
	push	83					; 00000053H
	pop	edx
	mov	ecx, OFFSET FLAT:??_C@_0BK@DMJF@Levels?2L1Data?2SklKng1?4DUN?$AA@ ; `string'
	call	@LoadPreL1Dungeon@12
; Line 141
	push	45					; 0000002dH
	push	83					; 00000053H
	pop	edx
	mov	ecx, OFFSET FLAT:??_C@_0BK@NMPK@Levels?2L1Data?2SklKng2?4DUN?$AA@ ; `string'
	call	@LoadL1Dungeon@12
; Line 142
	mov	ecx, OFFSET FLAT:??_C@_0BH@EIAF@Levels?2L1Data?2L1_2?4pal?$AA@ ; `string'
	call	@LoadPalette@4
; Line 143
	push	2
	mov	edx, OFFSET FLAT:_SkelKingTrans1
	pop	ecx
	call	@DRLG_AreaTrans@8
; Line 144
	push	2
	mov	edx, OFFSET FLAT:_SkelKingTrans2
	pop	ecx
	call	@DRLG_ListTrans@8
; Line 145
	push	5
	mov	edx, OFFSET FLAT:_SkelKingTrans3
	pop	ecx
	call	@DRLG_AreaTrans@8
; Line 146
	push	7
	mov	edx, OFFSET FLAT:_SkelKingTrans4
	pop	ecx
	call	@DRLG_ListTrans@8
; Line 147
	push	112					; 00000070H
	push	112					; 00000070H
	xor	edx, edx
	xor	ecx, ecx
	call	@AddL1Objs@16
; Line 148
	call	_AddSKingObjs
	pop	esi
; Line 149
	jmp	_InitSKingTriggers
$L85022:
	pop	esi
; Line 192
	ret	0
_LoadSetMap ENDP
_TEXT	ENDS
END
