; Listing generated by Microsoft (R) Optimizing Compiler Version 12.00.9044.0 

	TITLE	Source/spells.cpp
	.386P
include listing.inc
if @Version gt 510
.model FLAT
else
_TEXT	SEGMENT PARA USE32 PUBLIC 'CODE'
_TEXT	ENDS
_DATA	SEGMENT DWORD USE32 PUBLIC 'DATA'
_DATA	ENDS
CONST	SEGMENT DWORD USE32 PUBLIC 'CONST'
CONST	ENDS
_BSS	SEGMENT DWORD USE32 PUBLIC 'BSS'
_BSS	ENDS
$$SYMBOLS	SEGMENT BYTE USE32 'DEBSYM'
$$SYMBOLS	ENDS
$$TYPES	SEGMENT BYTE USE32 'DEBTYP'
$$TYPES	ENDS
_TLS	SEGMENT DWORD USE32 PUBLIC 'TLS'
_TLS	ENDS
;	COMDAT ??_C@_08CPGK@Firebolt?$AA@
_DATA	SEGMENT DWORD USE32 PUBLIC 'DATA'
_DATA	ENDS
;	COMDAT ??_C@_07DIGJ@Healing?$AA@
_DATA	SEGMENT DWORD USE32 PUBLIC 'DATA'
_DATA	ENDS
;	COMDAT ??_C@_09NPLP@Lightning?$AA@
_DATA	SEGMENT DWORD USE32 PUBLIC 'DATA'
_DATA	ENDS
;	COMDAT ??_C@_05JAME@Flash?$AA@
_DATA	SEGMENT DWORD USE32 PUBLIC 'DATA'
_DATA	ENDS
;	COMDAT ??_C@_08IPFG@Identify?$AA@
_DATA	SEGMENT DWORD USE32 PUBLIC 'DATA'
_DATA	ENDS
;	COMDAT ??_C@_09DHAC@Fire?5Wall?$AA@
_DATA	SEGMENT DWORD USE32 PUBLIC 'DATA'
_DATA	ENDS
;	COMDAT ??_C@_0M@JECA@Town?5Portal?$AA@
_DATA	SEGMENT DWORD USE32 PUBLIC 'DATA'
_DATA	ENDS
;	COMDAT ??_C@_0M@LIJH@Stone?5Curse?$AA@
_DATA	SEGMENT DWORD USE32 PUBLIC 'DATA'
_DATA	ENDS
;	COMDAT ??_C@_0M@DJJP@Infravision?$AA@
_DATA	SEGMENT DWORD USE32 PUBLIC 'DATA'
_DATA	ENDS
;	COMDAT ??_C@_07EOLA@Phasing?$AA@
_DATA	SEGMENT DWORD USE32 PUBLIC 'DATA'
_DATA	ENDS
;	COMDAT ??_C@_0M@IBEJ@Mana?5Shield?$AA@
_DATA	SEGMENT DWORD USE32 PUBLIC 'DATA'
_DATA	ENDS
;	COMDAT ??_C@_08KOGA@Fireball?$AA@
_DATA	SEGMENT DWORD USE32 PUBLIC 'DATA'
_DATA	ENDS
;	COMDAT ??_C@_08KEIB@Guardian?$AA@
_DATA	SEGMENT DWORD USE32 PUBLIC 'DATA'
_DATA	ENDS
;	COMDAT ??_C@_0BA@OPEP@Chain?5Lightning?$AA@
_DATA	SEGMENT DWORD USE32 PUBLIC 'DATA'
_DATA	ENDS
;	COMDAT ??_C@_0L@CBCF@Flame?5Wave?$AA@
_DATA	SEGMENT DWORD USE32 PUBLIC 'DATA'
_DATA	ENDS
;	COMDAT ??_C@_0O@JJ@Doom?5Serpents?$AA@
_DATA	SEGMENT DWORD USE32 PUBLIC 'DATA'
_DATA	ENDS
;	COMDAT ??_C@_0N@BJKD@Blood?5Ritual?$AA@
_DATA	SEGMENT DWORD USE32 PUBLIC 'DATA'
_DATA	ENDS
;	COMDAT ??_C@_04HHEE@Nova?$AA@
_DATA	SEGMENT DWORD USE32 PUBLIC 'DATA'
_DATA	ENDS
;	COMDAT ??_C@_0N@PHMD@Invisibility?$AA@
_DATA	SEGMENT DWORD USE32 PUBLIC 'DATA'
_DATA	ENDS
;	COMDAT ??_C@_07HJHJ@Inferno?$AA@
_DATA	SEGMENT DWORD USE32 PUBLIC 'DATA'
_DATA	ENDS
;	COMDAT ??_C@_05MIHD@Golem?$AA@
_DATA	SEGMENT DWORD USE32 PUBLIC 'DATA'
_DATA	ENDS
;	COMDAT ??_C@_0L@POEK@Blood?5Boil?$AA@
_DATA	SEGMENT DWORD USE32 PUBLIC 'DATA'
_DATA	ENDS
;	COMDAT ??_C@_08MOGB@Teleport?$AA@
_DATA	SEGMENT DWORD USE32 PUBLIC 'DATA'
_DATA	ENDS
;	COMDAT ??_C@_0L@GNOD@Apocalypse?$AA@
_DATA	SEGMENT DWORD USE32 PUBLIC 'DATA'
_DATA	ENDS
;	COMDAT ??_C@_0M@MIDG@Etherealize?$AA@
_DATA	SEGMENT DWORD USE32 PUBLIC 'DATA'
_DATA	ENDS
;	COMDAT ??_C@_0M@OOEP@Item?5Repair?$AA@
_DATA	SEGMENT DWORD USE32 PUBLIC 'DATA'
_DATA	ENDS
;	COMDAT ??_C@_0P@HGKA@Staff?5Recharge?$AA@
_DATA	SEGMENT DWORD USE32 PUBLIC 'DATA'
_DATA	ENDS
;	COMDAT ??_C@_0M@FFHN@Trap?5Disarm?$AA@
_DATA	SEGMENT DWORD USE32 PUBLIC 'DATA'
_DATA	ENDS
;	COMDAT ??_C@_09IPMK@Elemental?$AA@
_DATA	SEGMENT DWORD USE32 PUBLIC 'DATA'
_DATA	ENDS
;	COMDAT ??_C@_0N@JOOG@Charged?5Bolt?$AA@
_DATA	SEGMENT DWORD USE32 PUBLIC 'DATA'
_DATA	ENDS
;	COMDAT ??_C@_09KHCM@Holy?5Bolt?$AA@
_DATA	SEGMENT DWORD USE32 PUBLIC 'DATA'
_DATA	ENDS
;	COMDAT ??_C@_09DPHJ@Resurrect?$AA@
_DATA	SEGMENT DWORD USE32 PUBLIC 'DATA'
_DATA	ENDS
;	COMDAT ??_C@_0M@MENE@Telekinesis?$AA@
_DATA	SEGMENT DWORD USE32 PUBLIC 'DATA'
_DATA	ENDS
;	COMDAT ??_C@_0L@OMPF@Heal?5Other?$AA@
_DATA	SEGMENT DWORD USE32 PUBLIC 'DATA'
_DATA	ENDS
;	COMDAT ??_C@_0L@HODD@Blood?5Star?$AA@
_DATA	SEGMENT DWORD USE32 PUBLIC 'DATA'
_DATA	ENDS
;	COMDAT ??_C@_0M@EHLJ@Bone?5Spirit?$AA@
_DATA	SEGMENT DWORD USE32 PUBLIC 'DATA'
_DATA	ENDS
CRT$XCU	SEGMENT DWORD USE32 PUBLIC ''
CRT$XCU	ENDS
;	COMDAT @GetManaAmount@8
_TEXT	SEGMENT PARA USE32 PUBLIC 'CODE'
_TEXT	ENDS
;	COMDAT @UseMana@8
_TEXT	SEGMENT PARA USE32 PUBLIC 'CODE'
_TEXT	ENDS
;	COMDAT @CheckSpell@16
_TEXT	SEGMENT PARA USE32 PUBLIC 'CODE'
_TEXT	ENDS
;	COMDAT @CastSpell@32
_TEXT	SEGMENT PARA USE32 PUBLIC 'CODE'
_TEXT	ENDS
;	COMDAT @DoResurrect@8
_TEXT	SEGMENT PARA USE32 PUBLIC 'CODE'
_TEXT	ENDS
;	COMDAT @PlacePlayer@4
_TEXT	SEGMENT PARA USE32 PUBLIC 'CODE'
_TEXT	ENDS
;	COMDAT @DoHealOther@8
_TEXT	SEGMENT PARA USE32 PUBLIC 'CODE'
_TEXT	ENDS
FLAT	GROUP _DATA, CONST, _BSS, CRT$XCU
	ASSUME	CS: FLAT, DS: FLAT, SS: FLAT
endif

INCLUDELIB LIBCMT
INCLUDELIB OLDNAMES

PUBLIC	??_C@_08CPGK@Firebolt?$AA@			; `string'
PUBLIC	??_C@_07DIGJ@Healing?$AA@			; `string'
PUBLIC	??_C@_09NPLP@Lightning?$AA@			; `string'
PUBLIC	??_C@_05JAME@Flash?$AA@				; `string'
PUBLIC	??_C@_08IPFG@Identify?$AA@			; `string'
PUBLIC	??_C@_09DHAC@Fire?5Wall?$AA@			; `string'
PUBLIC	??_C@_0M@JECA@Town?5Portal?$AA@			; `string'
PUBLIC	??_C@_0M@LIJH@Stone?5Curse?$AA@			; `string'
PUBLIC	??_C@_0M@DJJP@Infravision?$AA@			; `string'
PUBLIC	??_C@_07EOLA@Phasing?$AA@			; `string'
PUBLIC	??_C@_0M@IBEJ@Mana?5Shield?$AA@			; `string'
PUBLIC	??_C@_08KOGA@Fireball?$AA@			; `string'
PUBLIC	??_C@_08KEIB@Guardian?$AA@			; `string'
PUBLIC	??_C@_0BA@OPEP@Chain?5Lightning?$AA@		; `string'
PUBLIC	??_C@_0L@CBCF@Flame?5Wave?$AA@			; `string'
PUBLIC	??_C@_0O@JJ@Doom?5Serpents?$AA@			; `string'
PUBLIC	??_C@_0N@BJKD@Blood?5Ritual?$AA@		; `string'
PUBLIC	??_C@_04HHEE@Nova?$AA@				; `string'
PUBLIC	??_C@_0N@PHMD@Invisibility?$AA@			; `string'
PUBLIC	??_C@_07HJHJ@Inferno?$AA@			; `string'
PUBLIC	??_C@_05MIHD@Golem?$AA@				; `string'
PUBLIC	??_C@_0L@POEK@Blood?5Boil?$AA@			; `string'
PUBLIC	??_C@_08MOGB@Teleport?$AA@			; `string'
PUBLIC	??_C@_0L@GNOD@Apocalypse?$AA@			; `string'
PUBLIC	??_C@_0M@MIDG@Etherealize?$AA@			; `string'
PUBLIC	??_C@_0M@OOEP@Item?5Repair?$AA@			; `string'
PUBLIC	??_C@_0P@HGKA@Staff?5Recharge?$AA@		; `string'
PUBLIC	??_C@_0M@FFHN@Trap?5Disarm?$AA@			; `string'
PUBLIC	??_C@_09IPMK@Elemental?$AA@			; `string'
PUBLIC	??_C@_0N@JOOG@Charged?5Bolt?$AA@		; `string'
PUBLIC	??_C@_09KHCM@Holy?5Bolt?$AA@			; `string'
PUBLIC	??_C@_09DPHJ@Resurrect?$AA@			; `string'
PUBLIC	??_C@_0M@MENE@Telekinesis?$AA@			; `string'
PUBLIC	??_C@_0L@OMPF@Heal?5Other?$AA@			; `string'
PUBLIC	??_C@_0L@HODD@Blood?5Star?$AA@			; `string'
PUBLIC	??_C@_0M@EHLJ@Bone?5Spirit?$AA@			; `string'
PUBLIC	_spelldata
;	COMDAT ??_C@_08CPGK@Firebolt?$AA@
_DATA	SEGMENT
??_C@_08CPGK@Firebolt?$AA@ DB 'Firebolt', 00H		; `string'
_DATA	ENDS
;	COMDAT ??_C@_07DIGJ@Healing?$AA@
_DATA	SEGMENT
??_C@_07DIGJ@Healing?$AA@ DB 'Healing', 00H		; `string'
_DATA	ENDS
;	COMDAT ??_C@_09NPLP@Lightning?$AA@
_DATA	SEGMENT
??_C@_09NPLP@Lightning?$AA@ DB 'Lightning', 00H		; `string'
_DATA	ENDS
;	COMDAT ??_C@_05JAME@Flash?$AA@
_DATA	SEGMENT
??_C@_05JAME@Flash?$AA@ DB 'Flash', 00H			; `string'
_DATA	ENDS
;	COMDAT ??_C@_08IPFG@Identify?$AA@
_DATA	SEGMENT
??_C@_08IPFG@Identify?$AA@ DB 'Identify', 00H		; `string'
_DATA	ENDS
;	COMDAT ??_C@_09DHAC@Fire?5Wall?$AA@
_DATA	SEGMENT
??_C@_09DHAC@Fire?5Wall?$AA@ DB 'Fire Wall', 00H	; `string'
_DATA	ENDS
;	COMDAT ??_C@_0M@JECA@Town?5Portal?$AA@
_DATA	SEGMENT
??_C@_0M@JECA@Town?5Portal?$AA@ DB 'Town Portal', 00H	; `string'
_DATA	ENDS
;	COMDAT ??_C@_0M@LIJH@Stone?5Curse?$AA@
_DATA	SEGMENT
??_C@_0M@LIJH@Stone?5Curse?$AA@ DB 'Stone Curse', 00H	; `string'
_DATA	ENDS
;	COMDAT ??_C@_0M@DJJP@Infravision?$AA@
_DATA	SEGMENT
??_C@_0M@DJJP@Infravision?$AA@ DB 'Infravision', 00H	; `string'
_DATA	ENDS
;	COMDAT ??_C@_07EOLA@Phasing?$AA@
_DATA	SEGMENT
??_C@_07EOLA@Phasing?$AA@ DB 'Phasing', 00H		; `string'
_DATA	ENDS
;	COMDAT ??_C@_0M@IBEJ@Mana?5Shield?$AA@
_DATA	SEGMENT
??_C@_0M@IBEJ@Mana?5Shield?$AA@ DB 'Mana Shield', 00H	; `string'
_DATA	ENDS
;	COMDAT ??_C@_08KOGA@Fireball?$AA@
_DATA	SEGMENT
??_C@_08KOGA@Fireball?$AA@ DB 'Fireball', 00H		; `string'
_DATA	ENDS
;	COMDAT ??_C@_08KEIB@Guardian?$AA@
_DATA	SEGMENT
??_C@_08KEIB@Guardian?$AA@ DB 'Guardian', 00H		; `string'
_DATA	ENDS
;	COMDAT ??_C@_0BA@OPEP@Chain?5Lightning?$AA@
_DATA	SEGMENT
??_C@_0BA@OPEP@Chain?5Lightning?$AA@ DB 'Chain Lightning', 00H ; `string'
_DATA	ENDS
;	COMDAT ??_C@_0L@CBCF@Flame?5Wave?$AA@
_DATA	SEGMENT
??_C@_0L@CBCF@Flame?5Wave?$AA@ DB 'Flame Wave', 00H	; `string'
_DATA	ENDS
;	COMDAT ??_C@_0O@JJ@Doom?5Serpents?$AA@
_DATA	SEGMENT
??_C@_0O@JJ@Doom?5Serpents?$AA@ DB 'Doom Serpents', 00H	; `string'
_DATA	ENDS
;	COMDAT ??_C@_0N@BJKD@Blood?5Ritual?$AA@
_DATA	SEGMENT
??_C@_0N@BJKD@Blood?5Ritual?$AA@ DB 'Blood Ritual', 00H	; `string'
_DATA	ENDS
;	COMDAT ??_C@_04HHEE@Nova?$AA@
_DATA	SEGMENT
??_C@_04HHEE@Nova?$AA@ DB 'Nova', 00H			; `string'
_DATA	ENDS
;	COMDAT ??_C@_0N@PHMD@Invisibility?$AA@
_DATA	SEGMENT
??_C@_0N@PHMD@Invisibility?$AA@ DB 'Invisibility', 00H	; `string'
_DATA	ENDS
;	COMDAT ??_C@_07HJHJ@Inferno?$AA@
_DATA	SEGMENT
??_C@_07HJHJ@Inferno?$AA@ DB 'Inferno', 00H		; `string'
_DATA	ENDS
;	COMDAT ??_C@_05MIHD@Golem?$AA@
_DATA	SEGMENT
??_C@_05MIHD@Golem?$AA@ DB 'Golem', 00H			; `string'
_DATA	ENDS
;	COMDAT ??_C@_0L@POEK@Blood?5Boil?$AA@
_DATA	SEGMENT
??_C@_0L@POEK@Blood?5Boil?$AA@ DB 'Blood Boil', 00H	; `string'
_DATA	ENDS
;	COMDAT ??_C@_08MOGB@Teleport?$AA@
_DATA	SEGMENT
??_C@_08MOGB@Teleport?$AA@ DB 'Teleport', 00H		; `string'
_DATA	ENDS
;	COMDAT ??_C@_0L@GNOD@Apocalypse?$AA@
_DATA	SEGMENT
??_C@_0L@GNOD@Apocalypse?$AA@ DB 'Apocalypse', 00H	; `string'
_DATA	ENDS
;	COMDAT ??_C@_0M@MIDG@Etherealize?$AA@
_DATA	SEGMENT
??_C@_0M@MIDG@Etherealize?$AA@ DB 'Etherealize', 00H	; `string'
_DATA	ENDS
;	COMDAT ??_C@_0M@OOEP@Item?5Repair?$AA@
_DATA	SEGMENT
??_C@_0M@OOEP@Item?5Repair?$AA@ DB 'Item Repair', 00H	; `string'
_DATA	ENDS
;	COMDAT ??_C@_0P@HGKA@Staff?5Recharge?$AA@
_DATA	SEGMENT
??_C@_0P@HGKA@Staff?5Recharge?$AA@ DB 'Staff Recharge', 00H ; `string'
_DATA	ENDS
;	COMDAT ??_C@_0M@FFHN@Trap?5Disarm?$AA@
_DATA	SEGMENT
??_C@_0M@FFHN@Trap?5Disarm?$AA@ DB 'Trap Disarm', 00H	; `string'
_DATA	ENDS
;	COMDAT ??_C@_09IPMK@Elemental?$AA@
_DATA	SEGMENT
??_C@_09IPMK@Elemental?$AA@ DB 'Elemental', 00H		; `string'
_DATA	ENDS
;	COMDAT ??_C@_0N@JOOG@Charged?5Bolt?$AA@
_DATA	SEGMENT
??_C@_0N@JOOG@Charged?5Bolt?$AA@ DB 'Charged Bolt', 00H	; `string'
_DATA	ENDS
;	COMDAT ??_C@_09KHCM@Holy?5Bolt?$AA@
_DATA	SEGMENT
??_C@_09KHCM@Holy?5Bolt?$AA@ DB 'Holy Bolt', 00H	; `string'
_DATA	ENDS
;	COMDAT ??_C@_09DPHJ@Resurrect?$AA@
_DATA	SEGMENT
??_C@_09DPHJ@Resurrect?$AA@ DB 'Resurrect', 00H		; `string'
_DATA	ENDS
;	COMDAT ??_C@_0M@MENE@Telekinesis?$AA@
_DATA	SEGMENT
??_C@_0M@MENE@Telekinesis?$AA@ DB 'Telekinesis', 00H	; `string'
_DATA	ENDS
;	COMDAT ??_C@_0L@OMPF@Heal?5Other?$AA@
_DATA	SEGMENT
??_C@_0L@OMPF@Heal?5Other?$AA@ DB 'Heal Other', 00H	; `string'
_DATA	ENDS
;	COMDAT ??_C@_0L@HODD@Blood?5Star?$AA@
_DATA	SEGMENT
??_C@_0L@HODD@Blood?5Star?$AA@ DB 'Blood Star', 00H	; `string'
_DATA	ENDS
;	COMDAT ??_C@_0M@EHLJ@Bone?5Spirit?$AA@
_DATA	SEGMENT
??_C@_0M@EHLJ@Bone?5Spirit?$AA@ DB 'Bone Spirit', 00H	; `string'
_DATA	ENDS
_DATA	SEGMENT
_spelldata DB	00H
	DB	00H
	DB	00H
	ORG $+1
	DD	00H
	DD	00H
	DD	00H
	DD	00H
	DD	00H
	DD	00H
	DD	00H
	DB	00H
	DB	00H
	DB	00H
	DB	00H
	DB	00H
	DB	00H
	ORG $+2
	DD	028H
	DD	050H
	DD	00H
	DD	00H
	DB	01H
	DB	06H
	DB	00H
	ORG $+1
	DD	FLAT:??_C@_08CPGK@Firebolt?$AA@
	DD	FLAT:??_C@_08CPGK@Firebolt?$AA@
	DD	01H
	DD	01H
	DD	01H
	DD	00H
	DD	0fH
	DB	04cH
	DB	01H
	DB	00H
	DB	00H
	DB	01H
	DB	03H
	ORG $+2
	DD	028H
	DD	050H
	DD	03e8H
	DD	032H
	DB	02H
	DB	05H
	DB	02H
	ORG $+1
	DD	FLAT:??_C@_07DIGJ@Healing?$AA@
	DD	00H
	DD	01H
	DD	01H
	DD	00H
	DD	01H
	DD	011H
	DB	052H
	DB	025H
	DB	00H
	DB	00H
	DB	03H
	DB	01H
	ORG $+2
	DD	014H
	DD	028H
	DD	03e8H
	DD	032H
	DB	03H
	DB	0aH
	DB	01H
	ORG $+1
	DD	FLAT:??_C@_09NPLP@Lightning?$AA@
	DD	00H
	DD	04H
	DD	03H
	DD	01H
	DD	00H
	DD	014H
	DB	04eH
	DB	07H
	DB	00H
	DB	00H
	DB	01H
	DB	06H
	ORG $+2
	DD	014H
	DD	03cH
	DD	0bb8H
	DD	096H
	DB	04H
	DB	01eH
	DB	01H
	ORG $+1
	DD	FLAT:??_C@_05JAME@Flash?$AA@
	DD	00H
	DD	05H
	DD	04H
	DD	00H
	DD	00H
	DD	021H
	DB	04eH
	DB	0bH
	DB	0cH
	DB	00H
	DB	02H
	DB	010H
	ORG $+2
	DD	014H
	DD	028H
	DD	01d4cH
	DD	01f4H
	DB	05H
	DB	0dH
	DB	02H
	ORG $+1
	DD	FLAT:??_C@_08IPFG@Identify?$AA@
	DD	FLAT:??_C@_08IPFG@Identify?$AA@
	DD	0ffffffffH
	DD	0ffffffffH
	DD	00H
	DD	01H
	DD	017H
	DB	050H
	DB	028H
	DB	00H
	DB	00H
	DB	02H
	DB	01H
	ORG $+2
	DD	08H
	DD	0cH
	DD	00H
	DD	064H
	DB	06H
	DB	01cH
	DB	00H
	ORG $+1
	DD	FLAT:??_C@_09DHAC@Fire?5Wall?$AA@
	DD	00H
	DD	03H
	DD	02H
	DD	01H
	DD	00H
	DD	01bH
	DB	04cH
	DB	026H
	DB	00H
	DB	00H
	DB	02H
	DB	010H
	ORG $+2
	DD	08H
	DD	010H
	DD	01770H
	DD	0190H
	DB	07H
	DB	023H
	DB	02H
	ORG $+1
	DD	FLAT:??_C@_0M@JECA@Town?5Portal?$AA@
	DD	00H
	DD	03H
	DD	03H
	DD	01H
	DD	00H
	DD	014H
	DB	050H
	DB	0aH
	DB	00H
	DB	00H
	DB	03H
	DB	012H
	ORG $+2
	DD	08H
	DD	0cH
	DD	0bb8H
	DD	0c8H
	DB	08H
	DB	03cH
	DB	02H
	ORG $+1
	DD	FLAT:??_C@_0M@LIJH@Stone?5Curse?$AA@
	DD	00H
	DD	06H
	DD	05H
	DD	01H
	DD	00H
	DD	033H
	DB	04cH
	DB	01eH
	DB	00H
	DB	00H
	DB	03H
	DB	028H
	ORG $+2
	DD	08H
	DD	010H
	DD	02ee0H
	DD	0320H
	DB	09H
	DB	028H
	DB	02H
	ORG $+1
	DD	FLAT:??_C@_0M@DJJP@Infravision?$AA@
	DD	00H
	DD	0ffffffffH
	DD	0ffffffffH
	DD	00H
	DD	00H
	DD	024H
	DB	052H
	DB	027H
	DB	00H
	DB	00H
	DB	05H
	DB	014H
	ORG $+2
	DD	00H
	DD	00H
	DD	00H
	DD	0258H
	DB	0aH
	DB	0cH
	DB	02H
	ORG $+1
	DD	FLAT:??_C@_07EOLA@Phasing?$AA@
	DD	00H
	DD	07H
	DD	06H
	DD	00H
	DD	00H
	DD	027H
	DB	04cH
	DB	03H
	DB	00H
	DB	00H
	DB	02H
	DB	04H
	ORG $+2
	DD	028H
	DD	050H
	DD	0dacH
	DD	0c8H
	DB	0bH
	DB	021H
	DB	02H
	ORG $+1
	DD	FLAT:??_C@_0M@IBEJ@Mana?5Shield?$AA@
	DD	00H
	DD	06H
	DD	05H
	DD	00H
	DD	00H
	DD	019H
	DB	04cH
	DB	0dH
	DB	00H
	DB	00H
	DB	00H
	DB	021H
	ORG $+2
	DD	04H
	DD	0aH
	DD	03e80H
	DD	04b0H
	DB	0cH
	DB	010H
	DB	00H
	ORG $+1
	DD	FLAT:??_C@_08KOGA@Fireball?$AA@
	DD	00H
	DD	08H
	DD	07H
	DD	01H
	DD	00H
	DD	030H
	DB	04cH
	DB	06H
	DB	00H
	DB	00H
	DB	01H
	DB	0aH
	ORG $+2
	DD	028H
	DD	050H
	DD	01f40H
	DD	012cH
	DB	0dH
	DB	032H
	DB	00H
	ORG $+1
	DD	FLAT:??_C@_08KEIB@Guardian?$AA@
	DD	00H
	DD	09H
	DD	08H
	DD	01H
	DD	00H
	DD	03dH
	DB	04cH
	DB	02H
	DB	00H
	DB	00H
	DB	02H
	DB	01eH
	ORG $+2
	DD	010H
	DD	020H
	DD	036b0H
	DD	03b6H
	DB	0eH
	DB	01eH
	DB	01H
	ORG $+1
	DD	FLAT:??_C@_0BA@OPEP@Chain?5Lightning?$AA@
	DD	00H
	DD	08H
	DD	07H
	DD	00H
	DD	00H
	DD	036H
	DB	04cH
	DB	0fH
	DB	00H
	DB	00H
	DB	01H
	DB	012H
	ORG $+2
	DD	014H
	DD	03cH
	DD	02af8H
	DD	02eeH
	DB	0fH
	DB	023H
	DB	00H
	ORG $+1
	DD	FLAT:??_C@_0L@CBCF@Flame?5Wave?$AA@
	DD	00H
	DD	09H
	DD	08H
	DD	01H
	DD	00H
	DD	036H
	DB	04cH
	DB	029H
	DB	00H
	DB	00H
	DB	03H
	DB	014H
	ORG $+2
	DD	014H
	DD	028H
	DD	02710H
	DD	028aH
	DB	010H
	DB	00H
	DB	01H
	ORG $+1
	DD	FLAT:??_C@_0O@JJ@Doom?5Serpents?$AA@
	DD	00H
	DD	0ffffffffH
	DD	0ffffffffH
	DD	00H
	DD	00H
	DD	00H
	DB	04cH
	DB	00H
	DB	00H
	DB	00H
	DB	00H
	DB	00H
	ORG $+2
	DD	028H
	DD	050H
	DD	00H
	DD	00H
	DB	011H
	DB	00H
	DB	02H
	ORG $+1
	DD	FLAT:??_C@_0N@BJKD@Blood?5Ritual?$AA@
	DD	00H
	DD	0ffffffffH
	DD	0ffffffffH
	DD	00H
	DD	00H
	DD	00H
	DB	04cH
	DB	00H
	DB	00H
	DB	00H
	DB	00H
	DB	00H
	ORG $+2
	DD	028H
	DD	050H
	DD	00H
	DD	00H
	DB	012H
	DB	03cH
	DB	02H
	ORG $+1
	DD	FLAT:??_C@_04HHEE@Nova?$AA@
	DD	00H
	DD	0ffffffffH
	DD	0aH
	DD	00H
	DD	00H
	DD	057H
	DB	04eH
	DB	02aH
	DB	00H
	DB	00H
	DB	03H
	DB	023H
	ORG $+2
	DD	010H
	DD	020H
	DD	05208H
	DD	0514H
	DB	013H
	DB	00H
	DB	02H
	ORG $+1
	DD	FLAT:??_C@_0N@PHMD@Invisibility?$AA@
	DD	00H
	DD	0ffffffffH
	DD	0ffffffffH
	DD	00H
	DD	00H
	DD	00H
	DB	04cH
	DB	00H
	DB	00H
	DB	00H
	DB	00H
	DB	00H
	ORG $+2
	DD	028H
	DD	050H
	DD	00H
	DD	00H
	DB	014H
	DB	0bH
	DB	00H
	ORG $+1
	DD	FLAT:??_C@_07HJHJ@Inferno?$AA@
	DD	00H
	DD	03H
	DD	02H
	DD	01H
	DD	00H
	DD	014H
	DB	04cH
	DB	031H
	DB	00H
	DB	00H
	DB	01H
	DB	06H
	ORG $+2
	DD	014H
	DD	028H
	DD	07d0H
	DD	064H
	DB	015H
	DB	064H
	DB	00H
	ORG $+1
	DD	FLAT:??_C@_05MIHD@Golem?$AA@
	DD	00H
	DD	0bH
	DD	09H
	DD	00H
	DD	00H
	DD	051H
	DB	04cH
	DB	021H
	DB	00H
	DB	00H
	DB	06H
	DB	03cH
	ORG $+2
	DD	010H
	DD	020H
	DD	04650H
	DD	044cH
	DB	016H
	DB	00H
	DB	01H
	ORG $+1
	DD	FLAT:??_C@_0L@POEK@Blood?5Boil?$AA@
	DD	00H
	DD	0ffffffffH
	DD	0ffffffffH
	DD	01H
	DD	00H
	DD	00H
	DB	052H
	DB	00H
	DB	00H
	DB	00H
	DB	00H
	DB	00H
	ORG $+2
	DD	00H
	DD	00H
	DD	00H
	DD	00H
	DB	017H
	DB	023H
	DB	02H
	ORG $+1
	DD	FLAT:??_C@_08MOGB@Teleport?$AA@
	DD	00H
	DD	0eH
	DD	0cH
	DD	01H
	DD	00H
	DD	069H
	DB	050H
	DB	01aH
	DB	00H
	DB	00H
	DB	03H
	DB	0fH
	ORG $+2
	DD	010H
	DD	020H
	DD	04e20H
	DD	04e2H
	DB	018H
	DB	096H
	DB	00H
	ORG $+1
	DD	FLAT:??_C@_0L@GNOD@Apocalypse?$AA@
	DD	00H
	DD	0ffffffffH
	DD	0fH
	DD	00H
	DD	00H
	DD	095H
	DB	04cH
	DB	02cH
	DB	00H
	DB	00H
	DB	06H
	DB	05aH
	ORG $+2
	DD	08H
	DD	0cH
	DD	07530H
	DD	07d0H
	DB	019H
	DB	064H
	DB	02H
	ORG $+1
	DD	FLAT:??_C@_0M@MIDG@Etherealize?$AA@
	DD	00H
	DD	0ffffffffH
	DD	0ffffffffH
	DD	00H
	DD	00H
	DD	05dH
	DB	04cH
	DB	022H
	DB	00H
	DB	00H
	DB	00H
	DB	064H
	ORG $+2
	DD	02H
	DD	06H
	DD	06590H
	DD	0640H
	DB	01aH
	DB	00H
	DB	02H
	ORG $+1
	DD	FLAT:??_C@_0M@OOEP@Item?5Repair?$AA@
	DD	FLAT:??_C@_0M@OOEP@Item?5Repair?$AA@
	DD	0ffffffffH
	DD	0ffffffffH
	DD	00H
	DD	01H
	DD	0ffffffffH
	DB	050H
	DB	02dH
	DB	00H
	DB	00H
	DB	00H
	DB	00H
	ORG $+2
	DD	028H
	DD	050H
	DD	00H
	DD	00H
	DB	01bH
	DB	00H
	DB	02H
	ORG $+1
	DD	FLAT:??_C@_0P@HGKA@Staff?5Recharge?$AA@
	DD	FLAT:??_C@_0P@HGKA@Staff?5Recharge?$AA@
	DD	0ffffffffH
	DD	0ffffffffH
	DD	00H
	DD	01H
	DD	0ffffffffH
	DB	050H
	DB	02eH
	DB	00H
	DB	00H
	DB	00H
	DB	00H
	ORG $+2
	DD	028H
	DD	050H
	DD	00H
	DD	00H
	DB	01cH
	DB	00H
	DB	02H
	ORG $+1
	DD	FLAT:??_C@_0M@FFHN@Trap?5Disarm?$AA@
	DD	FLAT:??_C@_0M@FFHN@Trap?5Disarm?$AA@
	DD	0ffffffffH
	DD	0ffffffffH
	DD	00H
	DD	00H
	DD	0ffffffffH
	DB	050H
	DB	02fH
	DB	00H
	DB	00H
	DB	00H
	DB	00H
	ORG $+2
	DD	028H
	DD	050H
	DD	00H
	DD	00H
	DB	01dH
	DB	023H
	DB	00H
	ORG $+1
	DD	FLAT:??_C@_09IPMK@Elemental?$AA@
	DD	00H
	DD	08H
	DD	06H
	DD	00H
	DD	00H
	DD	044H
	DB	04cH
	DB	03dH
	DB	00H
	DB	00H
	DB	02H
	DB	014H
	ORG $+2
	DD	014H
	DD	03cH
	DD	02904H
	DD	02bcH
	DB	01eH
	DB	06H
	DB	01H
	ORG $+1
	DD	FLAT:??_C@_0N@JOOG@Charged?5Bolt?$AA@
	DD	00H
	DD	01H
	DD	01H
	DD	01H
	DD	00H
	DD	019H
	DB	04cH
	DB	034H
	DB	00H
	DB	00H
	DB	01H
	DB	06H
	ORG $+2
	DD	028H
	DD	050H
	DD	03e8H
	DD	032H
	DB	01fH
	DB	07H
	DB	02H
	ORG $+1
	DD	FLAT:??_C@_09KHCM@Holy?5Bolt?$AA@
	DD	00H
	DD	01H
	DD	01H
	DD	01H
	DD	00H
	DD	014H
	DB	04cH
	DB	035H
	DB	00H
	DB	00H
	DB	01H
	DB	03H
	ORG $+2
	DD	028H
	DD	050H
	DD	03e8H
	DD	032H
	DB	020H
	DB	014H
	DB	02H
	ORG $+1
	DD	FLAT:??_C@_09DPHJ@Resurrect?$AA@
	DD	00H
	DD	0ffffffffH
	DD	05H
	DD	00H
	DD	01H
	DD	01eH
	DB	052H
	DB	036H
	DB	00H
	DB	00H
	DB	00H
	DB	014H
	ORG $+2
	DD	04H
	DD	0aH
	DD	0fa0H
	DD	0faH
	DB	021H
	DB	0fH
	DB	02H
	ORG $+1
	DD	FLAT:??_C@_0M@MENE@Telekinesis?$AA@
	DD	00H
	DD	02H
	DD	02H
	DD	00H
	DD	00H
	DD	021H
	DB	04cH
	DB	037H
	DB	00H
	DB	00H
	DB	02H
	DB	08H
	ORG $+2
	DD	014H
	DD	028H
	DD	09c4H
	DD	0c8H
	DB	022H
	DB	05H
	DB	02H
	ORG $+1
	DD	FLAT:??_C@_0L@OMPF@Heal?5Other?$AA@
	DD	00H
	DD	01H
	DD	01H
	DD	00H
	DD	01H
	DD	011H
	DB	052H
	DB	03cH
	DB	00H
	DB	00H
	DB	03H
	DB	01H
	ORG $+2
	DD	014H
	DD	028H
	DD	03e8H
	DD	032H
	DB	023H
	DB	019H
	DB	02H
	ORG $+1
	DD	FLAT:??_C@_0L@HODD@Blood?5Star?$AA@
	DD	00H
	DD	0eH
	DD	0dH
	DD	00H
	DD	00H
	DD	046H
	DB	04cH
	DB	018H
	DB	00H
	DB	00H
	DB	02H
	DB	0eH
	ORG $+2
	DD	014H
	DD	03cH
	DD	06b6cH
	DD	0708H
	DB	024H
	DB	018H
	DB	02H
	ORG $+1
	DD	FLAT:??_C@_0M@EHLJ@Bone?5Spirit?$AA@
	DD	00H
	DD	09H
	DD	07H
	DD	00H
	DD	00H
	DD	022H
	DB	04cH
	DB	03fH
	DB	00H
	DB	00H
	DB	01H
	DB	0cH
	ORG $+2
	DD	014H
	DD	03cH
	DD	02cecH
	DD	0320H
_DATA	ENDS
PUBLIC	@GetManaAmount@8
EXTRN	_plr:BYTE
; Function compile flags: /Ogsy
;	COMDAT @GetManaAmount@8
_TEXT	SEGMENT
@GetManaAmount@8 PROC NEAR				; COMDAT
; _id$ = ecx
; _sn$ = edx
; File Source/spells.cpp
; Line 49
	mov	eax, ecx
	push	esi
; Line 57
	imul	eax, 21720				; 000054d8H
	push	edi
	xor	esi, esi
	movsx	ecx, BYTE PTR _plr[eax+edx+193]
	movsx	edi, BYTE PTR _plr[eax+21592]
	lea	ecx, DWORD PTR [ecx+edi-1]
; Line 59
	test	ecx, ecx
	jge	SHORT $L85246
; Line 60
	xor	ecx, ecx
; Line 63
	test	ecx, ecx
$L85246:
	jle	SHORT $L85061
; Line 64
	mov	esi, edx
	imul	esi, 56					; 00000038H
	movzx	esi, BYTE PTR _spelldata[esi+36]
	imul	esi, ecx
$L85061:
; Line 66
	cmp	edx, 1
	jne	SHORT $L85062
; Line 67
	sar	esi, 1
$L85062:
; Line 69
	cmp	edx, 32					; 00000020H
	jne	SHORT $L85063
	test	ecx, ecx
	jle	SHORT $L85063
; Line 70
	movzx	esi, BYTE PTR _spelldata+1793
	shr	esi, 3
	imul	esi, ecx
$L85063:
; Line 73
	mov	edi, edx
	imul	edi, 56					; 00000038H
	mov	cl, BYTE PTR _spelldata[edi+1]
	cmp	cl, 255					; 000000ffH
	jne	SHORT $L85064
; Line 75
	movzx	ecx, BYTE PTR _plr[eax+424]
; Line 76
	jmp	SHORT $L85066
$L85064:
; Line 77
	movzx	ecx, cl
$L85066:
; Line 80
	sub	ecx, esi
	push	ebx
; Line 82
	mov	bl, BYTE PTR _spelldata+113
	shl	ecx, 6
	cmp	edx, 2
	jne	SHORT $L85067
; Line 83
	movsx	ecx, BYTE PTR _plr[eax+440]
	push	ebp
	movzx	ebp, bl
	lea	ecx, DWORD PTR [ebp+ecx*2]
	pop	ebp
	sub	ecx, esi
	shl	ecx, 6
$L85067:
; Line 85
	cmp	edx, 34					; 00000022H
	jne	SHORT $L85068
; Line 86
	movsx	ecx, BYTE PTR _plr[eax+440]
	movzx	edx, bl
	lea	ecx, DWORD PTR [edx+ecx*2]
	sub	ecx, esi
	shl	ecx, 6
$L85068:
; Line 89
	cmp	BYTE PTR _plr[eax+352], 1
	pop	ebx
	jne	SHORT $L85069
; Line 90
	mov	edx, ecx
	sar	edx, 2
	sub	ecx, edx
$L85069:
; Line 93
	movzx	edx, BYTE PTR _spelldata[edi+37]
	mov	esi, ecx
	pop	edi
	sar	esi, 6
	cmp	edx, esi
	pop	esi
	jle	SHORT $L85070
; Line 94
	shl	edx, 6
	mov	ecx, edx
$L85070:
; Line 97
	movsx	edx, BYTE PTR _plr[eax+21593]
	push	100					; 00000064H
	pop	eax
	sub	eax, edx
	push	100					; 00000064H
	imul	eax, ecx
	cdq
	pop	ecx
	idiv	ecx
; Line 98
	ret	0
@GetManaAmount@8 ENDP
_TEXT	ENDS
PUBLIC	@UseMana@8
EXTRN	@RemoveScroll@4:NEAR
EXTRN	@UseStaffCharge@4:NEAR
EXTRN	_myplr:DWORD
EXTRN	_drawmanaflag:DWORD
; Function compile flags: /Ogsy
;	COMDAT @UseMana@8
_TEXT	SEGMENT
@UseMana@8 PROC NEAR					; COMDAT
; _id$ = ecx
; _sn$ = edx
; Line 104
	cmp	ecx, DWORD PTR _myplr
	push	esi
	jne	SHORT $L85079
; Line 105
	mov	esi, ecx
	imul	esi, 21720				; 000054d8H
	movsx	eax, BYTE PTR _plr[esi+168]
	dec	eax
	je	SHORT $L85082
	dec	eax
	je	SHORT $L85083
	dec	eax
	jne	SHORT $L85079
	pop	esi
; Line 122
	jmp	@UseStaffCharge@4
$L85083:
	pop	esi
; Line 119
	jmp	@RemoveScroll@4
$L85082:
; Line 110
	call	@GetManaAmount@8
; Line 111
	sub	DWORD PTR _plr[esi+428], eax
; Line 112
	sub	DWORD PTR _plr[esi+420], eax
; Line 113
	mov	DWORD PTR _drawmanaflag, 1
$L85079:
	pop	esi
; Line 126
	ret	0
@UseMana@8 ENDP
_TEXT	ENDS
PUBLIC	@CheckSpell@16
EXTRN	_pcurs:DWORD
EXTRN	@GetSpellLevel@8:NEAR
; Function compile flags: /Ogsy
;	COMDAT @CheckSpell@16
_TEXT	SEGMENT
_st$ = 8
_manaonly$ = 12
@CheckSpell@16 PROC NEAR				; COMDAT
; _id$ = ecx
; _sn$ = edx
; Line 137
	xor	eax, eax
	push	esi
	inc	eax
; Line 138
	cmp	DWORD PTR _manaonly$[esp], 0
	push	edi
	mov	edi, edx
	mov	esi, ecx
	jne	SHORT $L85095
	cmp	DWORD PTR _pcurs, eax
	je	SHORT $L85095
$L85254:
; Line 139
	xor	eax, eax
; Line 140
	jmp	SHORT $L85099
$L85095:
; Line 141
	cmp	BYTE PTR _st$[esp+4], 0
	je	SHORT $L85099
; Line 142
	mov	edx, edi
	mov	ecx, esi
	call	@GetSpellLevel@8
	test	eax, eax
; Line 144
	jle	SHORT $L85254
; Line 145
	mov	edx, edi
	mov	ecx, esi
	call	@GetManaAmount@8
	imul	esi, 21720				; 000054d8H
	xor	ecx, ecx
	cmp	DWORD PTR _plr[esi+428], eax
	setge	cl
	mov	eax, ecx
$L85099:
	pop	edi
	pop	esi
; Line 151
	ret	8
@CheckSpell@16 ENDP
_TEXT	ENDS
PUBLIC	@CastSpell@32
EXTRN	@AddMissile@40:NEAR
EXTRN	_monster:BYTE
; Function compile flags: /Ogsy
;	COMDAT @CastSpell@32
_TEXT	SEGMENT
_id$ = -4
_sx$ = 8
_sy$ = 12
_dx$ = 16
_dy$ = 20
_caster$ = 24
_spllvl$ = 28
_dir$ = -8
@CastSpell@32 PROC NEAR					; COMDAT
; _id$ = ecx
; _spl$ = edx
; Line 154
	push	ebp
	mov	ebp, esp
	push	ecx
	push	ecx
; Line 159
	mov	eax, DWORD PTR _caster$[ebp]
	push	ebx
	xor	ebx, ebx
	push	esi
	sub	eax, ebx
	mov	DWORD PTR _id$[ebp], ecx
	je	SHORT $L85124
	dec	eax
	jne	SHORT $L85125
; Line 161
	imul	ecx, 228				; 000000e4H
	mov	eax, DWORD PTR _monster[ecx+72]
; Line 162
	jmp	SHORT $L85265
$L85124:
; Line 167
	mov	eax, ecx
	mov	DWORD PTR _caster$[ebp], ebx
	imul	eax, 21720				; 000054d8H
; Line 169
	cmp	edx, 6
	mov	ecx, DWORD PTR _plr[eax+112]
	mov	DWORD PTR _dir$[ebp], ecx
	jne	SHORT $L85125
; Line 170
	mov	eax, DWORD PTR _plr[eax+476]
$L85265:
	mov	DWORD PTR _dir$[ebp], eax
$L85125:
; Line 175
	imul	edx, 56					; 00000038H
	push	edi
	xor	edi, edi
	lea	esi, DWORD PTR _spelldata[edx+33]
	cmp	BYTE PTR [esi], bl
	je	SHORT $L85128
$L85126:
	cmp	edi, 3
	jge	SHORT $L85128
; Line 176
	push	DWORD PTR _spllvl$[ebp]
	mov	edx, DWORD PTR _sy$[ebp]
	movzx	eax, BYTE PTR [esi+edi]
	push	ebx
	mov	ecx, DWORD PTR _sx$[ebp]
	push	DWORD PTR _id$[ebp]
	push	DWORD PTR _caster$[ebp]
	push	eax
	push	DWORD PTR _dir$[ebp]
	push	DWORD PTR _dy$[ebp]
	push	DWORD PTR _dx$[ebp]
	call	@AddMissile@40
	inc	edi
	cmp	BYTE PTR [esi+edi], bl
	jne	SHORT $L85126
$L85128:
; Line 179
	cmp	BYTE PTR [esi], 10			; 0000000aH
	pop	edi
	jne	SHORT $L85129
; Line 180
	mov	ecx, DWORD PTR _id$[ebp]
	push	7
	pop	edx
	call	@UseMana@8
$L85129:
; Line 182
	cmp	BYTE PTR [esi], 52			; 00000034H
	jne	SHORT $L85133
; Line 183
	mov	ecx, DWORD PTR _id$[ebp]
	push	30					; 0000001eH
	pop	edx
	call	@UseMana@8
; Line 185
	mov	eax, DWORD PTR _spllvl$[ebp]
	sar	eax, 1
	add	eax, 3
	cmp	eax, ebx
	jle	SHORT $L85133
; Line 183
	mov	esi, eax
$L85131:
; Line 186
	push	DWORD PTR _spllvl$[ebp]
	mov	edx, DWORD PTR _sy$[ebp]
	mov	ecx, DWORD PTR _sx$[ebp]
	push	ebx
	push	DWORD PTR _id$[ebp]
	push	DWORD PTR _caster$[ebp]
	push	52					; 00000034H
	push	DWORD PTR _dir$[ebp]
	push	DWORD PTR _dy$[ebp]
	push	DWORD PTR _dx$[ebp]
	call	@AddMissile@40
	dec	esi
	jne	SHORT $L85131
$L85133:
	pop	esi
	pop	ebx
; Line 189
	leave
	ret	24					; 00000018H
@CastSpell@32 ENDP
_TEXT	ENDS
PUBLIC	@DoResurrect@8
PUBLIC	@PlacePlayer@4
EXTRN	@ClrPlrPath@4:NEAR
EXTRN	@SetPlayerHitPoints@8:NEAR
EXTRN	@NewCursor@4:NEAR
EXTRN	@CalcPlrInv@8:NEAR
EXTRN	_deathflag:DWORD
EXTRN	@StartStand@8:NEAR
EXTRN	_drawhpflag:DWORD
EXTRN	_gamemenu_off:NEAR
EXTRN	_currlevel:BYTE
; Function compile flags: /Ogsy
;	COMDAT @DoResurrect@8
_TEXT	SEGMENT
@DoResurrect@8 PROC NEAR				; COMDAT
; _pnum$ = ecx
; _rid$ = edx
; Line 194
	push	ebx
	push	ebp
	mov	ebx, edx
; Line 198
	xor	ebp, ebp
	push	esi
	cmp	bl, -1
	push	edi
	mov	esi, ecx
	je	SHORT $L85141
	mov	eax, ebx
	push	ebp
	imul	eax, 21720				; 000054d8H
	push	ebp
	push	esi
	mov	edx, DWORD PTR _plr[eax+60]
	mov	eax, DWORD PTR _plr[eax+56]
	push	ebp
	push	62					; 0000003eH
	push	ebp
	push	edx
	push	eax
	mov	ecx, eax
	call	@AddMissile@40
$L85141:
; Line 202
	xor	edi, edi
	inc	edi
	cmp	esi, DWORD PTR _myplr
	jne	SHORT $L85142
	mov	ecx, edi
	call	@NewCursor@4
$L85142:
; Line 205
	cmp	bl, -1
	je	$L85148
	mov	esi, ebx
	imul	esi, 21720				; 000054d8H
	cmp	DWORD PTR _plr[esi+408], ebp
	jne	$L85148
; Line 206
	cmp	ebx, DWORD PTR _myplr
	jne	SHORT $L85145
; Line 207
	mov	DWORD PTR _deathflag, ebp
; Line 208
	call	_gamemenu_off
; Line 209
	mov	DWORD PTR _drawhpflag, edi
; Line 210
	mov	DWORD PTR _drawmanaflag, edi
$L85145:
; Line 213
	mov	ecx, ebx
	call	@ClrPlrPath@4
; Line 214
	or	DWORD PTR _plr[esi+32], -1
; Line 215
	and	BYTE PTR _plr[esi+317], 0
; Line 216
	mov	ecx, ebx
	call	@PlacePlayer@4
; Line 219
	lea	edi, DWORD PTR _plr[esi+404]
	mov	eax, 640				; 00000280H
	mov	edx, eax
	mov	ecx, DWORD PTR [edi]
	cmp	ecx, eax
	jge	SHORT $L85146
; Line 220
	mov	edx, ecx
$L85146:
; Line 222
	mov	ecx, ebx
	call	@SetPlayerHitPoints@8
; Line 225
	mov	eax, DWORD PTR [edi]
; Line 228
	xor	edx, edx
	sub	eax, DWORD PTR _plr[esi+412]
	inc	edx
	mov	ecx, ebx
	mov	DWORD PTR _plr[esi+428], ebp
	add	eax, DWORD PTR _plr[esi+408]
	mov	DWORD PTR _plr[esi+400], eax
	mov	eax, DWORD PTR _plr[esi+424]
	sub	eax, DWORD PTR _plr[esi+432]
	mov	DWORD PTR _plr[esi+420], eax
	call	@CalcPlrInv@8
; Line 230
	movzx	eax, BYTE PTR _currlevel
	cmp	DWORD PTR _plr[esi+52], eax
	jne	SHORT $L85147
; Line 231
	mov	edx, DWORD PTR _plr[esi+112]
	pop	edi
	pop	esi
	mov	ecx, ebx
	pop	ebp
	pop	ebx
	jmp	@StartStand@8
$L85147:
; Line 233
	mov	DWORD PTR _plr[esi], ebp
$L85148:
	pop	edi
	pop	esi
	pop	ebp
	pop	ebx
; Line 236
	ret	0
@DoResurrect@8 ENDP
_TEXT	ENDS
EXTRN	@PosOkPlayer@12:NEAR
EXTRN	_ViewX:DWORD
EXTRN	_ViewY:DWORD
EXTRN	_plrxoff2:BYTE
EXTRN	_plryoff2:BYTE
EXTRN	_dPlayer:BYTE
; Function compile flags: /Ogsy
;	COMDAT @PlacePlayer@4
_TEXT	SEGMENT
_pnum$ = -20
_max$ = -4
_min$ = -24
_x$ = -12
_y$ = -16
_done$ = -8
@PlacePlayer@4 PROC NEAR				; COMDAT
; _pnum$ = ecx
; Line 239
	push	ebp
	mov	ebp, esp
	sub	esp, 24					; 00000018H
	push	ebx
	mov	ebx, ecx
	mov	DWORD PTR _pnum$[ebp], ebx
; Line 244
	imul	ebx, 21720				; 000054d8H
	movzx	eax, BYTE PTR _currlevel
	cmp	DWORD PTR _plr[ebx+52], eax
	push	esi
	push	edi
	jne	$L85176
; Line 245
	xor	eax, eax
	mov	DWORD PTR -4+[ebp], eax
	jmp	SHORT $L85161
$L85283:
	mov	eax, DWORD PTR -4+[ebp]
$L85161:
; Line 246
	mov	edi, DWORD PTR _plrxoff2[eax]
; Line 247
	mov	esi, DWORD PTR _plryoff2[eax]
	add	edi, DWORD PTR _plr[ebx+56]
	add	esi, DWORD PTR _plr[ebx+60]
; Line 249
	mov	ecx, DWORD PTR _pnum$[ebp]
	push	esi
	mov	edx, edi
	call	@PosOkPlayer@12
	test	eax, eax
	jne	SHORT $L85278
	add	DWORD PTR -4+[ebp], 4
	cmp	DWORD PTR -4+[ebp], 32			; 00000020H
	jb	SHORT $L85283
$L85278:
; Line 254
	mov	ecx, DWORD PTR _pnum$[ebp]
	push	esi
	mov	edx, edi
	call	@PosOkPlayer@12
	test	eax, eax
	jne	SHORT $L85168
; Line 255
	and	DWORD PTR _done$[ebp], eax
; Line 257
	or	eax, -1
	mov	DWORD PTR _max$[ebp], 1
	mov	DWORD PTR _min$[ebp], eax
$L85166:
	cmp	DWORD PTR _done$[ebp], 0
	jne	SHORT $L85168
; Line 258
	mov	DWORD PTR _y$[ebp], eax
	jmp	SHORT $L85287
$L85169:
	cmp	DWORD PTR _done$[ebp], 0
	jne	SHORT $L85167
; Line 259
	mov	esi, DWORD PTR _plr[ebx+60]
; Line 261
	mov	eax, DWORD PTR _min$[ebp]
	add	esi, DWORD PTR _y$[ebp]
	mov	DWORD PTR _x$[ebp], eax
$L85172:
	cmp	DWORD PTR _done$[ebp], 0
	jne	SHORT $L85170
; Line 262
	mov	edi, DWORD PTR _plr[ebx+56]
; Line 264
	mov	ecx, DWORD PTR _pnum$[ebp]
	add	edi, DWORD PTR _x$[ebp]
	push	esi
	mov	edx, edi
	call	@PosOkPlayer@12
	test	eax, eax
	je	SHORT $L85173
; Line 265
	mov	DWORD PTR _done$[ebp], 1
$L85173:
; Line 261
	inc	DWORD PTR _x$[ebp]
	mov	eax, DWORD PTR _x$[ebp]
	cmp	eax, DWORD PTR _max$[ebp]
	jle	SHORT $L85172
$L85170:
; Line 258
	inc	DWORD PTR _y$[ebp]
	mov	eax, DWORD PTR _y$[ebp]
$L85287:
	cmp	eax, DWORD PTR _max$[ebp]
	jle	SHORT $L85169
$L85167:
; Line 257
	mov	eax, DWORD PTR _min$[ebp]
	inc	DWORD PTR _max$[ebp]
	dec	eax
	cmp	eax, -50				; ffffffceH
	mov	DWORD PTR _min$[ebp], eax
	jg	SHORT $L85166
$L85168:
; Line 275
	mov	eax, DWORD PTR _pnum$[ebp]
	mov	edx, edi
	imul	edx, 112				; 00000070H
	mov	cl, al
	mov	DWORD PTR _plr[ebx+56], edi
	inc	cl
; Line 277
	cmp	eax, DWORD PTR _myplr
	mov	DWORD PTR _plr[ebx+60], esi
	mov	BYTE PTR _dPlayer[edx+esi], cl
	jne	SHORT $L85176
; Line 278
	mov	DWORD PTR _ViewX, edi
; Line 279
	mov	DWORD PTR _ViewY, esi
$L85176:
	pop	edi
	pop	esi
	pop	ebx
; Line 282
	leave
	ret	0
@PlacePlayer@4 ENDP
_TEXT	ENDS
PUBLIC	@DoHealOther@8
EXTRN	@random@8:NEAR
; Function compile flags: /Ogsy
;	COMDAT @DoHealOther@8
_TEXT	SEGMENT
_pnum$ = -8
_rid$ = -4
_i$ = -4
_j$ = -4
@DoHealOther@8 PROC NEAR				; COMDAT
; _pnum$ = ecx
; _rid$ = edx
; Line 285
	push	ebp
	mov	ebp, esp
	push	ecx
	push	ecx
	push	ebx
	mov	ebx, ecx
; Line 288
	cmp	ebx, DWORD PTR _myplr
	push	esi
	mov	DWORD PTR _rid$[ebp], edx
	mov	DWORD PTR _pnum$[ebp], ebx
	jne	SHORT $L85185
; Line 289
	xor	ecx, ecx
	inc	ecx
	call	@NewCursor@4
$L85185:
; Line 292
	cmp	BYTE PTR _rid$[ebp], -1
	je	$L85187
	mov	esi, DWORD PTR _rid$[ebp]
	imul	esi, 21720				; 000054d8H
	test	DWORD PTR _plr[esi+408], -64		; ffffffc0H
	jle	$L85187
	push	edi
; Line 293
	push	10					; 0000000aH
	pop	edx
	mov	cl, 57					; 00000039H
	call	@random@8
; Line 295
	imul	ebx, 21720				; 000054d8H
	and	DWORD PTR _i$[ebp], 0
	mov	edi, eax
	inc	edi
	shl	edi, 6
	cmp	BYTE PTR _plr[ebx+440], 0
	jle	SHORT $L85190
$L85188:
; Line 296
	push	4
	mov	cl, 57					; 00000039H
	pop	edx
	call	@random@8
	inc	eax
	shl	eax, 6
	add	edi, eax
	inc	DWORD PTR _i$[ebp]
	movsx	eax, BYTE PTR _plr[ebx+440]
	cmp	DWORD PTR _i$[ebp], eax
	jl	SHORT $L85188
$L85190:
; Line 299
	mov	ecx, DWORD PTR _pnum$[ebp]
	and	DWORD PTR _j$[ebp], 0
	push	34					; 00000022H
	pop	edx
	call	@GetSpellLevel@8
	test	eax, eax
	jle	SHORT $L85193
$L85191:
; Line 300
	push	6
	mov	cl, 57					; 00000039H
	pop	edx
	call	@random@8
	mov	ecx, DWORD PTR _pnum$[ebp]
	inc	eax
	shl	eax, 6
	push	34					; 00000022H
	add	edi, eax
	inc	DWORD PTR _j$[ebp]
	pop	edx
	call	@GetSpellLevel@8
	cmp	DWORD PTR _j$[ebp], eax
	jl	SHORT $L85191
$L85193:
; Line 303
	mov	bl, BYTE PTR _plr[ebx+352]
	test	bl, bl
	jne	SHORT $L85194
; Line 304
	add	edi, edi
$L85194:
; Line 307
	cmp	bl, 1
	jne	SHORT $L85195
; Line 308
	mov	eax, edi
	sar	eax, 1
	add	edi, eax
$L85195:
; Line 311
	add	DWORD PTR _plr[esi+408], edi
	mov	ecx, DWORD PTR _plr[esi+408]
; Line 313
	mov	eax, DWORD PTR _plr[esi+412]
	cmp	ecx, eax
	jle	SHORT $L85196
; Line 314
	mov	DWORD PTR _plr[esi+408], eax
$L85196:
; Line 317
	lea	eax, DWORD PTR _plr[esi+400]
; Line 319
	mov	esi, DWORD PTR _plr[esi+404]
	add	DWORD PTR [eax], edi
	mov	ecx, DWORD PTR [eax]
	cmp	ecx, esi
	pop	edi
	jle	SHORT $L85197
; Line 320
	mov	DWORD PTR [eax], esi
$L85197:
; Line 323
	mov	DWORD PTR _drawhpflag, 1
$L85187:
	pop	esi
	pop	ebx
; Line 325
	leave
	ret	0
@DoHealOther@8 ENDP
_TEXT	ENDS
END
