; Listing generated by Microsoft (R) Optimizing Compiler Version 12.00.9044.0 

	TITLE	Source/textdat.cpp
	.386P
include listing.inc
if @Version gt 510
.model FLAT
else
_TEXT	SEGMENT PARA USE32 PUBLIC 'CODE'
_TEXT	ENDS
_DATA	SEGMENT DWORD USE32 PUBLIC 'DATA'
_DATA	ENDS
CONST	SEGMENT DWORD USE32 PUBLIC 'CONST'
CONST	ENDS
_BSS	SEGMENT DWORD USE32 PUBLIC 'BSS'
_BSS	ENDS
$$SYMBOLS	SEGMENT BYTE USE32 'DEBSYM'
$$SYMBOLS	ENDS
$$TYPES	SEGMENT BYTE USE32 'DEBTYP'
$$TYPES	ENDS
_TLS	SEGMENT DWORD USE32 PUBLIC 'TLS'
_TLS	ENDS
;	COMDAT ??_C@_0BHP@MNPM@?5Ahh?0?5the?5story?5of?5our?5King?0?5is?5@
_DATA	SEGMENT DWORD USE32 PUBLIC 'DATA'
_DATA	ENDS
;	COMDAT ??_C@_0DOE@KIMK@The?5village?5needs?5your?5help?0?5goo@
_DATA	SEGMENT DWORD USE32 PUBLIC 'DATA'
_DATA	ENDS
;	COMDAT ??_C@_0JP@DHAN@As?5I?5told?5you?0?5good?5master?0?5the?5@
_DATA	SEGMENT DWORD USE32 PUBLIC 'DATA'
_DATA	ENDS
;	COMDAT ??_C@_0PG@FDPL@The?5curse?5of?5our?5King?5has?5passed@
_DATA	SEGMENT DWORD USE32 PUBLIC 'DATA'
_DATA	ENDS
;	COMDAT ??_C@_0BBN@MEID@The?5loss?5of?5his?5son?5was?5too?5much@
_DATA	SEGMENT DWORD USE32 PUBLIC 'DATA'
_DATA	ENDS
;	COMDAT ??_C@_0KG@OPKF@I?5don?8t?5like?5to?5think?5about?5how?5@
_DATA	SEGMENT DWORD USE32 PUBLIC 'DATA'
_DATA	ENDS
;	COMDAT ??_C@_0BCO@NBMD@I?5made?5many?5of?5the?5weapons?5and?5m@
_DATA	SEGMENT DWORD USE32 PUBLIC 'DATA'
_DATA	ENDS
;	COMDAT ??_C@_0HM@OOBO@I?5don?8t?5care?5about?5that?4?5Listen?0@
_DATA	SEGMENT DWORD USE32 PUBLIC 'DATA'
_DATA	ENDS
;	COMDAT ??_C@_0PJ@HFNP@The?5dead?5who?5walk?5among?5the?5livi@
_DATA	SEGMENT DWORD USE32 PUBLIC 'DATA'
_DATA	ENDS
;	COMDAT ??_C@_0OH@NJDG@Look?0?5I?8m?5running?5a?5business?5her@
_DATA	SEGMENT DWORD USE32 PUBLIC 'DATA'
_DATA	ENDS
;	COMDAT ??_C@_0GF@OLJL@The?5warmth?5of?5life?5has?5entered?5m@
_DATA	SEGMENT DWORD USE32 PUBLIC 'DATA'
_DATA	ENDS
;	COMDAT ??_C@_0BFJ@GIND@I?5see?5that?5this?5strange?5behavior@
_DATA	SEGMENT DWORD USE32 PUBLIC 'DATA'
_DATA	ENDS
;	COMDAT ??_C@_0CDH@BPJH@Master?0?5I?5have?5a?5strange?5experie@
_DATA	SEGMENT DWORD USE32 PUBLIC 'DATA'
_DATA	ENDS
;	COMDAT ??_C@_0BFI@OLP@Oh?0?5you?5didn?8t?5have?5to?5bring?5bac@
_DATA	SEGMENT DWORD USE32 PUBLIC 'DATA'
_DATA	ENDS
;	COMDAT ??_C@_0MM@NPKM@My?5goodness?0?5demons?5running?5abou@
_DATA	SEGMENT DWORD USE32 PUBLIC 'DATA'
_DATA	ENDS
;	COMDAT ??_C@_0KF@OELJ@Oh?5my?$CB?5Is?5that?5where?5the?5sign?5we@
_DATA	SEGMENT DWORD USE32 PUBLIC 'DATA'
_DATA	ENDS
;	COMDAT ??_C@_0LD@FAMD@Demons?5stole?5Ogden?8s?5sign?0?5you?5s@
_DATA	SEGMENT DWORD USE32 PUBLIC 'DATA'
_DATA	ENDS
;	COMDAT ??_C@_0PD@BOCE@You?5know?5what?5I?5think?$DP?5Somebody?5@
_DATA	SEGMENT DWORD USE32 PUBLIC 'DATA'
_DATA	ENDS
;	COMDAT ??_C@_0IH@MMMG@No?5mortal?5can?5truly?5understand?5t@
_DATA	SEGMENT DWORD USE32 PUBLIC 'DATA'
_DATA	ENDS
;	COMDAT ??_C@_0LB@NBLI@What?5?9?5is?5he?5saying?5I?5took?5that?$DP@
_DATA	SEGMENT DWORD USE32 PUBLIC 'DATA'
_DATA	ENDS
;	COMDAT ??_C@_0MD@GIG@Hey?5?9?5You?5that?5one?5that?5kill?5all@
_DATA	SEGMENT DWORD USE32 PUBLIC 'DATA'
_DATA	ENDS
;	COMDAT ??_C@_0DL@CGCM@You?5kill?5uglies?0?5get?5banner?4?5You@
_DATA	SEGMENT DWORD USE32 PUBLIC 'DATA'
_DATA	ENDS
;	COMDAT ??_C@_0EG@COJF@You?5give?$CB?5Yes?0?5good?$CB?5Go?5now?0?5we?5@
_DATA	SEGMENT DWORD USE32 PUBLIC 'DATA'
_DATA	ENDS
;	COMDAT ??_C@_0ENC@DIKO@This?5does?5not?5bode?5well?0?5for?5it?5@
_DATA	SEGMENT DWORD USE32 PUBLIC 'DATA'
_DATA	ENDS
;	COMDAT ??_C@_0HP@JHAM@You?5must?5hurry?5and?5rescue?5Albrec@
_DATA	SEGMENT DWORD USE32 PUBLIC 'DATA'
_DATA	ENDS
;	COMDAT ??_C@_0CGP@BPPO@Your?5story?5is?5quite?5grim?0?5my?5fri@
_DATA	SEGMENT DWORD USE32 PUBLIC 'DATA'
_DATA	ENDS
;	COMDAT ??_C@_0BBP@HECL@Lazarus?5was?5the?5Archbishop?5who?5l@
_DATA	SEGMENT DWORD USE32 PUBLIC 'DATA'
_DATA	ENDS
;	COMDAT ??_C@_01KALE@?$HM?$AA@
_DATA	SEGMENT DWORD USE32 PUBLIC 'DATA'
_DATA	ENDS
;	COMDAT ??_C@_0BCK@MONF@I?5was?5shocked?5when?5I?5heard?5of?5wh@
_DATA	SEGMENT DWORD USE32 PUBLIC 'DATA'
_DATA	ENDS
;	COMDAT ??_C@_0OB@HLFK@I?5remember?5Lazarus?5as?5being?5a?5ve@
_DATA	SEGMENT DWORD USE32 PUBLIC 'DATA'
_DATA	ENDS
;	COMDAT ??_C@_0BBG@OBFK@I?5was?5there?5when?5Lazarus?5led?5us?5@
_DATA	SEGMENT DWORD USE32 PUBLIC 'DATA'
_DATA	ENDS
;	COMDAT ??_C@_0MP@JODH@They?5stab?0?5then?5bite?0?5then?5they?8@
_DATA	SEGMENT DWORD USE32 PUBLIC 'DATA'
_DATA	ENDS
;	COMDAT ??_C@_0NH@LMDN@I?5did?5not?5know?5this?5Lazarus?5of?5w@
_DATA	SEGMENT DWORD USE32 PUBLIC 'DATA'
_DATA	ENDS
;	COMDAT ??_C@_0MA@CGJN@Yes?0?5the?5righteous?5Lazarus?0?5who?5@
_DATA	SEGMENT DWORD USE32 PUBLIC 'DATA'
_DATA	ENDS
;	COMDAT ??_C@_0JA@BFOI@Abandon?5your?5foolish?5quest?4?5All?5@
_DATA	SEGMENT DWORD USE32 PUBLIC 'DATA'
_DATA	ENDS
;	COMDAT ??_C@_02HFOG@?5?$HM?$AA@
_DATA	SEGMENT DWORD USE32 PUBLIC 'DATA'
_DATA	ENDS
;	COMDAT ??_C@_0BDM@EGPP@Hmm?0?5I?5don?8t?5know?5what?5I?5can?5rea@
_DATA	SEGMENT DWORD USE32 PUBLIC 'DATA'
_DATA	ENDS
;	COMDAT ??_C@_0PF@KKBF@I?5have?5always?5tried?5to?5keep?5a?5la@
_DATA	SEGMENT DWORD USE32 PUBLIC 'DATA'
_DATA	ENDS
;	COMDAT ??_C@_0BGC@IGFC@I?8m?5glad?5I?5caught?5up?5to?5you?5in?5t@
_DATA	SEGMENT DWORD USE32 PUBLIC 'DATA'
_DATA	ENDS
;	COMDAT ??_C@_0JA@FAIC@Please?0?5you?5must?5hurry?4?5Every?5ho@
_DATA	SEGMENT DWORD USE32 PUBLIC 'DATA'
_DATA	ENDS
;	COMDAT ??_C@_0BBL@NIPL@What?8s?5that?5you?5say?5?9?5the?5mere?5p@
_DATA	SEGMENT DWORD USE32 PUBLIC 'DATA'
_DATA	ENDS
;	COMDAT ??_C@_0IG@HEHM@My?5grandmother?5is?5very?5weak?0?5and@
_DATA	SEGMENT DWORD USE32 PUBLIC 'DATA'
_DATA	ENDS
;	COMDAT ??_C@_0ME@FEIF@Pepin?5has?5told?5you?5the?5truth?4?5We@
_DATA	SEGMENT DWORD USE32 PUBLIC 'DATA'
_DATA	ENDS
;	COMDAT ??_C@_0BD@DINJ@You?5drink?5water?$DP?5?$HM?$AA@
_DATA	SEGMENT DWORD USE32 PUBLIC 'DATA'
_DATA	ENDS
;	COMDAT ??_C@_0LP@CPOP@The?5people?5of?5Tristram?5will?5die?5@
_DATA	SEGMENT DWORD USE32 PUBLIC 'DATA'
_DATA	ENDS
;	COMDAT ??_C@_0IP@PIKF@For?5once?0?5I?8m?5with?5you?4?5My?5busin@
_DATA	SEGMENT DWORD USE32 PUBLIC 'DATA'
_DATA	ENDS
;	COMDAT ??_C@_0BKA@DFMI@A?5book?5that?5speaks?5of?5a?5chamber?5@
_DATA	SEGMENT DWORD USE32 PUBLIC 'DATA'
_DATA	ENDS
;	COMDAT ??_C@_0HA@OCOF@I?5am?5afraid?5that?5I?5don?8t?5know?5an@
_DATA	SEGMENT DWORD USE32 PUBLIC 'DATA'
_DATA	ENDS
;	COMDAT ??_C@_0FJ@INNK@This?5sounds?5like?5a?5very?5dangerou@
_DATA	SEGMENT DWORD USE32 PUBLIC 'DATA'
_DATA	ENDS
;	COMDAT ??_C@_0GM@IJJO@I?5am?5afraid?5that?5I?5haven?8t?5heard@
_DATA	SEGMENT DWORD USE32 PUBLIC 'DATA'
_DATA	ENDS
;	COMDAT ??_C@_0JP@KNGP@I?5know?5nothing?5of?5this?5place?0?5bu@
_DATA	SEGMENT DWORD USE32 PUBLIC 'DATA'
_DATA	ENDS
;	COMDAT ??_C@_0OF@LJAJ@Okay?0?5so?5listen?4?5There?8s?5this?5ch@
_DATA	SEGMENT DWORD USE32 PUBLIC 'DATA'
_DATA	ENDS
;	COMDAT ??_C@_0JE@BFIG@You?5will?5become?5an?5eternal?5serva@
_DATA	SEGMENT DWORD USE32 PUBLIC 'DATA'
_DATA	ENDS
;	COMDAT ??_C@_0MN@BLMN@A?5vast?5and?5mysterious?5treasure?0?5@
_DATA	SEGMENT DWORD USE32 PUBLIC 'DATA'
_DATA	ENDS
;	COMDAT ??_C@_0BGB@OLOM@It?5seems?5that?5the?5Archbishop?5Laz@
_DATA	SEGMENT DWORD USE32 PUBLIC 'DATA'
_DATA	ENDS
;	COMDAT ??_C@_0HL@INAO@Yes?0?5Farnham?5has?5mumbled?5somethi@
_DATA	SEGMENT DWORD USE32 PUBLIC 'DATA'
_DATA	ENDS
;	COMDAT ??_C@_0BKA@IIOP@By?5the?5Light?0?5I?5know?5of?5this?5vil@
_DATA	SEGMENT DWORD USE32 PUBLIC 'DATA'
_DATA	ENDS
;	COMDAT ??_C@_0IK@JGGP@When?5Farnham?5said?5something?5abou@
_DATA	SEGMENT DWORD USE32 PUBLIC 'DATA'
_DATA	ENDS
;	COMDAT ??_C@_0BII@LGOE@I?5saw?5what?5Farnham?5calls?5the?5But@
_DATA	SEGMENT DWORD USE32 PUBLIC 'DATA'
_DATA	ENDS
;	COMDAT ??_C@_0KM@DBJO@Big?$CB?5Big?5cleaver?5killing?5all?5my?5@
_DATA	SEGMENT DWORD USE32 PUBLIC 'DATA'
_DATA	ENDS
;	COMDAT ??_C@_0MO@NACH@The?5Butcher?5is?5a?5sadistic?5creatu@
_DATA	SEGMENT DWORD USE32 PUBLIC 'DATA'
_DATA	ENDS
;	COMDAT ??_C@_0BAA@GEMB@I?5know?5more?5than?5you?8d?5think?5abo@
_DATA	SEGMENT DWORD USE32 PUBLIC 'DATA'
_DATA	ENDS
;	COMDAT ??_C@_0BAN@LCEP@Please?0?5listen?5to?5me?4?5The?5Archbi@
_DATA	SEGMENT DWORD USE32 PUBLIC 'DATA'
_DATA	ENDS
;	COMDAT ??_C@_0BGN@HNHP@You?5recite?5an?5interesting?5rhyme?5@
_DATA	SEGMENT DWORD USE32 PUBLIC 'DATA'
_DATA	ENDS
;	COMDAT ??_C@_0OH@NJ@I?5never?5much?5cared?5for?5poetry?4?5O@
_DATA	SEGMENT DWORD USE32 PUBLIC 'DATA'
_DATA	ENDS
;	COMDAT ??_C@_0OH@IDPN@This?5does?5seem?5familiar?0?5somehow@
_DATA	SEGMENT DWORD USE32 PUBLIC 'DATA'
_DATA	ENDS
;	COMDAT ??_C@_0KM@GBEC@If?5you?5have?5questions?5about?5blin@
_DATA	SEGMENT DWORD USE32 PUBLIC 'DATA'
_DATA	ENDS
;	COMDAT ??_C@_0JN@PHAB@I?5am?5afraid?5that?5I?5have?5neither?5@
_DATA	SEGMENT DWORD USE32 PUBLIC 'DATA'
_DATA	ENDS
;	COMDAT ??_C@_0EE@NKDH@Look?5here?4?4?4?5that?8s?5pretty?5funny@
_DATA	SEGMENT DWORD USE32 PUBLIC 'DATA'
_DATA	ENDS
;	COMDAT ??_C@_0KG@PNIA@This?5is?5a?5place?5of?5great?5anguish@
_DATA	SEGMENT DWORD USE32 PUBLIC 'DATA'
_DATA	ENDS
;	COMDAT ??_C@_0MA@KNFA@Lets?5see?0?5am?5I?5selling?5you?5somet@
_DATA	SEGMENT DWORD USE32 PUBLIC 'DATA'
_DATA	ENDS
;	COMDAT ??_C@_0BNM@DNCC@You?5claim?5to?5have?5spoken?5with?5La@
_DATA	SEGMENT DWORD USE32 PUBLIC 'DATA'
_DATA	ENDS
;	COMDAT ??_C@_0IG@IJIF@You?5speak?5of?5a?5brave?5warrior?5lon@
_DATA	SEGMENT DWORD USE32 PUBLIC 'DATA'
_DATA	ENDS
;	COMDAT ??_C@_0BBE@FPLK@A?5golden?5elixir?0?5you?5say?4?5I?5have@
_DATA	SEGMENT DWORD USE32 PUBLIC 'DATA'
_DATA	ENDS
;	COMDAT ??_C@_0GK@DADD@I?8ve?5never?5heard?5of?5a?5Lachdanan?5@
_DATA	SEGMENT DWORD USE32 PUBLIC 'DATA'
_DATA	ENDS
;	COMDAT ??_C@_0BAI@PBNB@If?5it?5is?5actually?5Lachdanan?5that@
_DATA	SEGMENT DWORD USE32 PUBLIC 'DATA'
_DATA	ENDS
;	COMDAT ??_C@_0ID@CAPA@?5Lachdanan?5is?5dead?4?5Everybody?5kn@
_DATA	SEGMENT DWORD USE32 PUBLIC 'DATA'
_DATA	ENDS
;	COMDAT ??_C@_0JO@EHOM@You?5may?5meet?5people?5who?5are?5trap@
_DATA	SEGMENT DWORD USE32 PUBLIC 'DATA'
_DATA	ENDS
;	COMDAT ??_C@_0BAO@LAIB@Wait?0?5let?5me?5guess?4?5Cain?5was?5swa@
_DATA	SEGMENT DWORD USE32 PUBLIC 'DATA'
_DATA	ENDS
;	COMDAT ??_C@_0CJA@CGLA@Please?0?5don?8t?5kill?5me?0?5just?5hear@
_DATA	SEGMENT DWORD USE32 PUBLIC 'DATA'
_DATA	ENDS
;	COMDAT ??_C@_0GF@KDAC@You?5have?5not?5found?5the?5Golden?5El@
_DATA	SEGMENT DWORD USE32 PUBLIC 'DATA'
_DATA	ENDS
;	COMDAT ??_C@_0BEK@GDGJ@You?5have?5saved?5my?5soul?5from?5damn@
_DATA	SEGMENT DWORD USE32 PUBLIC 'DATA'
_DATA	ENDS
;	COMDAT ??_C@_0CBG@BNMH@Griswold?5speaks?5of?5The?5Anvil?5of?5@
_DATA	SEGMENT DWORD USE32 PUBLIC 'DATA'
_DATA	ENDS
;	COMDAT ??_C@_0GI@PFKF@Don?8t?5you?5think?5that?5Griswold?5wo@
_DATA	SEGMENT DWORD USE32 PUBLIC 'DATA'
_DATA	ENDS
;	COMDAT ??_C@_0OI@NGGI@If?5you?5had?5been?5looking?5for?5info@
_DATA	SEGMENT DWORD USE32 PUBLIC 'DATA'
_DATA	ENDS
;	COMDAT ??_C@_0BBH@BOEP@Griswold?8s?5father?5used?5to?5tell?5s@
_DATA	SEGMENT DWORD USE32 PUBLIC 'DATA'
_DATA	ENDS
;	COMDAT ??_C@_0DHE@GKGO@Greetings?$CB?5It?8s?5always?5a?5pleasur@
_DATA	SEGMENT DWORD USE32 PUBLIC 'DATA'
_DATA	ENDS
;	COMDAT ??_C@_0KB@BMCB@Nothing?5yet?0?5eh?$DP?5Well?0?5keep?5sear@
_DATA	SEGMENT DWORD USE32 PUBLIC 'DATA'
_DATA	ENDS
;	COMDAT ??_C@_0NG@BKNC@I?5can?5hardly?5believe?5it?$CB?5This?5is@
_DATA	SEGMENT DWORD USE32 PUBLIC 'DATA'
_DATA	ENDS
;	COMDAT ??_C@_0GG@KIBD@Griswold?5can?8t?5sell?5his?5anvil?4?5W@
_DATA	SEGMENT DWORD USE32 PUBLIC 'DATA'
_DATA	ENDS
;	COMDAT ??_C@_0BBG@FNHD@There?5are?5many?5artifacts?5within?5@
_DATA	SEGMENT DWORD USE32 PUBLIC 'DATA'
_DATA	ENDS
;	COMDAT ??_C@_0IC@MEGF@If?5you?5were?5to?5find?5this?5artifac@
_DATA	SEGMENT DWORD USE32 PUBLIC 'DATA'
_DATA	ENDS
;	COMDAT ??_C@_0DGD@CLHN@The?5Gateway?5of?5Blood?5and?5the?5Hal@
_DATA	SEGMENT DWORD USE32 PUBLIC 'DATA'
_DATA	ENDS
;	COMDAT ??_C@_0LO@MLKC@Every?5child?5hears?5the?5story?5of?5t@
_DATA	SEGMENT DWORD USE32 PUBLIC 'DATA'
_DATA	ENDS
;	COMDAT ??_C@_0JP@BOGN@Hmm?4?4?4?5it?5sounds?5like?5something?5@
_DATA	SEGMENT DWORD USE32 PUBLIC 'DATA'
_DATA	ENDS
;	COMDAT ??_C@_0IO@FJEP@The?5story?5of?5the?5magic?5armor?5cal@
_DATA	SEGMENT DWORD USE32 PUBLIC 'DATA'
_DATA	ENDS
;	COMDAT ??_C@_0BBN@BIHB@The?5armor?5known?5as?5Valor?5could?5b@
_DATA	SEGMENT DWORD USE32 PUBLIC 'DATA'
_DATA	ENDS
;	COMDAT ??_C@_0CG@DHDB@Zzzzzzzzzzzzzzzzzzzzzzzzzzzzzzzz@
_DATA	SEGMENT DWORD USE32 PUBLIC 'DATA'
_DATA	ENDS
;	COMDAT ??_C@_0JA@LPJL@Should?5you?5find?5these?5Stones?5of?5@
_DATA	SEGMENT DWORD USE32 PUBLIC 'DATA'
_DATA	ENDS
;	COMDAT ??_C@_0LM@ONEI@You?5intend?5to?5find?5the?5armor?5kno@
_DATA	SEGMENT DWORD USE32 PUBLIC 'DATA'
_DATA	ENDS
;	COMDAT ??_C@_0CDK@LJNG@I?5know?5of?5only?5one?5legend?5that?5s@
_DATA	SEGMENT DWORD USE32 PUBLIC 'DATA'
_DATA	ENDS
;	COMDAT ??_C@_0KE@EBNB@I?5am?5afraid?5that?5I?5haven?8t?5heard@
_DATA	SEGMENT DWORD USE32 PUBLIC 'DATA'
_DATA	ENDS
;	COMDAT ??_C@_0GF@BICG@Cain?5would?5be?5able?5to?5tell?5you?5m@
_DATA	SEGMENT DWORD USE32 PUBLIC 'DATA'
_DATA	ENDS
;	COMDAT ??_C@_0HK@JAMK@If?5you?5are?5to?5battle?5such?5a?5fier@
_DATA	SEGMENT DWORD USE32 PUBLIC 'DATA'
_DATA	ENDS
;	COMDAT ??_C@_0HN@MICE@Dark?5and?5wicked?5legends?5surround@
_DATA	SEGMENT DWORD USE32 PUBLIC 'DATA'
_DATA	ENDS
;	COMDAT ??_C@_0KL@CACD@Always?5you?5gotta?5talk?5about?5Bloo@
_DATA	SEGMENT DWORD USE32 PUBLIC 'DATA'
_DATA	ENDS
;	COMDAT ??_C@_0JL@PNPB@His?5prowess?5with?5the?5blade?5is?5aw@
_DATA	SEGMENT DWORD USE32 PUBLIC 'DATA'
_DATA	ENDS
;	COMDAT ??_C@_0JE@IECE@I?5haven?8t?5ever?5dealt?5with?5this?5W@
_DATA	SEGMENT DWORD USE32 PUBLIC 'DATA'
_DATA	ENDS
;	COMDAT ??_C@_0FI@OPJJ@My?5blade?5sings?5for?5your?5blood?0?5m@
_DATA	SEGMENT DWORD USE32 PUBLIC 'DATA'
_DATA	ENDS
;	COMDAT ??_C@_0BGA@GNIC@Griswold?5speaks?5of?5the?5Heaven?5St@
_DATA	SEGMENT DWORD USE32 PUBLIC 'DATA'
_DATA	ENDS
;	COMDAT ??_C@_0OB@DGEG@The?5caravan?5stopped?5here?5to?5take@
_DATA	SEGMENT DWORD USE32 PUBLIC 'DATA'
_DATA	ENDS
;	COMDAT ??_C@_0JO@MAOM@I?5don?8t?5know?5what?5it?5is?5that?5the@
_DATA	SEGMENT DWORD USE32 PUBLIC 'DATA'
_DATA	ENDS
;	COMDAT ??_C@_0BAB@FIMM@Well?0?5a?5caravan?5of?5some?5very?5imp@
_DATA	SEGMENT DWORD USE32 PUBLIC 'DATA'
_DATA	ENDS
;	COMDAT ??_C@_0BMM@FPNH@Stay?5for?5a?5moment?5?9?5I?5have?5a?5sto@
_DATA	SEGMENT DWORD USE32 PUBLIC 'DATA'
_DATA	ENDS
;	COMDAT ??_C@_0HL@DMGI@I?5am?5still?5waiting?5for?5you?5to?5br@
_DATA	SEGMENT DWORD USE32 PUBLIC 'DATA'
_DATA	ENDS
;	COMDAT ??_C@_0ME@MCLM@Let?5me?5see?5that?5?9?5aye?4?4?4?5aye?0?5it@
_DATA	SEGMENT DWORD USE32 PUBLIC 'DATA'
_DATA	ENDS
;	COMDAT ??_C@_0KM@KIKN@I?5used?5to?5have?5a?5nice?5ring?$DL?5it?5w@
_DATA	SEGMENT DWORD USE32 PUBLIC 'DATA'
_DATA	ENDS
;	COMDAT ??_C@_0LC@IGNK@The?5Heaven?5Stone?5is?5very?5powerfu@
_DATA	SEGMENT DWORD USE32 PUBLIC 'DATA'
_DATA	ENDS
;	COMDAT ??_C@_0KK@GHKD@If?5anyone?5can?5make?5something?5out@
_DATA	SEGMENT DWORD USE32 PUBLIC 'DATA'
_DATA	ENDS
;	COMDAT ??_C@_0OD@PBDG@The?5witch?5Adria?5seeks?5a?5black?5mu@
_DATA	SEGMENT DWORD USE32 PUBLIC 'DATA'
_DATA	ENDS
;	COMDAT ??_C@_0OM@DELD@Let?5me?5just?5say?5this?4?5Both?5Garda@
_DATA	SEGMENT DWORD USE32 PUBLIC 'DATA'
_DATA	ENDS
;	COMDAT ??_C@_0BGE@ENCM@The?5witch?5told?5me?5that?5you?5were?5@
_DATA	SEGMENT DWORD USE32 PUBLIC 'DATA'
_DATA	ENDS
;	COMDAT ??_C@_0ND@LBDP@Excellent?0?5this?5is?5just?5what?5I?5h@
_DATA	SEGMENT DWORD USE32 PUBLIC 'DATA'
_DATA	ENDS
;	COMDAT ??_C@_0FI@HPCK@I?5think?5Ogden?5might?5have?5some?5mu@
_DATA	SEGMENT DWORD USE32 PUBLIC 'DATA'
_DATA	ENDS
;	COMDAT ??_C@_0NK@HJPE@If?5Adria?5doesn?8t?5have?5one?5of?5the@
_DATA	SEGMENT DWORD USE32 PUBLIC 'DATA'
_DATA	ENDS
;	COMDAT ??_C@_0IC@OJIM@Ogden?5mixes?5a?5MEAN?5black?5mushroo@
_DATA	SEGMENT DWORD USE32 PUBLIC 'DATA'
_DATA	ENDS
;	COMDAT ??_C@_0MM@DGBL@What?5do?5we?5have?5here?$DP?5Interestin@
_DATA	SEGMENT DWORD USE32 PUBLIC 'DATA'
_DATA	ENDS
;	COMDAT ??_C@_0IM@HIJJ@It?8s?5a?5big?0?5black?5mushroom?5that?5@
_DATA	SEGMENT DWORD USE32 PUBLIC 'DATA'
_DATA	ENDS
;	COMDAT ??_C@_0BFO@GEJH@Yes?0?5this?5will?5be?5perfect?5for?5a?5@
_DATA	SEGMENT DWORD USE32 PUBLIC 'DATA'
_DATA	ENDS
;	COMDAT ??_C@_0BAL@OEFK@Why?5have?5you?5brought?5that?5here?$DP?5@
_DATA	SEGMENT DWORD USE32 PUBLIC 'DATA'
_DATA	ENDS
;	COMDAT ??_C@_0HN@JCMP@What?$DP?5Now?5you?5bring?5me?5that?5elix@
_DATA	SEGMENT DWORD USE32 PUBLIC 'DATA'
_DATA	ENDS
;	COMDAT ??_C@_0GD@DCAJ@I?5don?8t?5have?5any?5mushrooms?5of?5an@
_DATA	SEGMENT DWORD USE32 PUBLIC 'DATA'
_DATA	ENDS
;	COMDAT ??_C@_0DNC@DFGB@So?0?5the?5legend?5of?5the?5Map?5is?5rea@
_DATA	SEGMENT DWORD USE32 PUBLIC 'DATA'
_DATA	ENDS
;	COMDAT ??_C@_0HG@OAIH@Our?5time?5is?5running?5short?$CB?5I?5sen@
_DATA	SEGMENT DWORD USE32 PUBLIC 'DATA'
_DATA	ENDS
;	COMDAT ??_C@_0BCN@GOM@I?5am?5sure?5that?5you?5tried?5your?5be@
_DATA	SEGMENT DWORD USE32 PUBLIC 'DATA'
_DATA	ENDS
;	COMDAT ??_C@_0NK@IKFG@If?5the?5witch?5can?8t?5help?5you?5and?5@
_DATA	SEGMENT DWORD USE32 PUBLIC 'DATA'
_DATA	ENDS
;	COMDAT ??_C@_0NL@NMNL@I?5can?8t?5make?5much?5of?5the?5writing@
_DATA	SEGMENT DWORD USE32 PUBLIC 'DATA'
_DATA	ENDS
;	COMDAT ??_C@_0MO@PAFL@The?5best?5person?5to?5ask?5about?5tha@
_DATA	SEGMENT DWORD USE32 PUBLIC 'DATA'
_DATA	ENDS
;	COMDAT ??_C@_0KN@BBPI@I?5have?5never?5seen?5a?5map?5of?5this?5@
_DATA	SEGMENT DWORD USE32 PUBLIC 'DATA'
_DATA	ENDS
;	COMDAT ??_C@_0HH@ONBA@Listen?5here?0?5come?5close?4?5I?5don?8t@
_DATA	SEGMENT DWORD USE32 PUBLIC 'DATA'
_DATA	ENDS
;	COMDAT ??_C@_0NM@CELJ@Oh?0?5I?8m?5afraid?5this?5does?5not?5bod@
_DATA	SEGMENT DWORD USE32 PUBLIC 'DATA'
_DATA	ENDS
;	COMDAT ??_C@_0ME@JPKK@I?8ve?5been?5looking?5for?5a?5map?0?5but@
_DATA	SEGMENT DWORD USE32 PUBLIC 'DATA'
_DATA	ENDS
;	COMDAT ??_C@_0EL@KAGA@Pleeeease?0?5no?5hurt?4?5No?5Kill?4?5Kee@
_DATA	SEGMENT DWORD USE32 PUBLIC 'DATA'
_DATA	ENDS
;	COMDAT ??_C@_0HH@EPFF@Something?5for?5you?5I?5am?5making?4?5A@
_DATA	SEGMENT DWORD USE32 PUBLIC 'DATA'
_DATA	ENDS
;	COMDAT ??_C@_0GG@KGHB@Nothing?5yet?$CB?5Almost?5done?4?5?6?5?6Ver@
_DATA	SEGMENT DWORD USE32 PUBLIC 'DATA'
_DATA	ENDS
;	COMDAT ??_C@_0DN@JOKI@This?5too?5good?5for?5you?4?5Very?5Powe@
_DATA	SEGMENT DWORD USE32 PUBLIC 'DATA'
_DATA	ENDS
;	COMDAT ??_C@_0IP@JLCE@What?$DP?$CB?5Why?5are?5you?5here?$DP?5All?5the@
_DATA	SEGMENT DWORD USE32 PUBLIC 'DATA'
_DATA	ENDS
;	COMDAT ??_C@_0DG@BEGG@Arrrrgh?$CB?5Your?5curiosity?5will?5be?5@
_DATA	SEGMENT DWORD USE32 PUBLIC 'DATA'
_DATA	ENDS
;	COMDAT ??_C@_0CO@NHMI@Hello?0?5my?5friend?4?5Stay?5awhile?5an@
_DATA	SEGMENT DWORD USE32 PUBLIC 'DATA'
_DATA	ENDS
;	COMDAT ??_C@_0LA@HHNB@While?5you?5are?5venturing?5deeper?5i@
_DATA	SEGMENT DWORD USE32 PUBLIC 'DATA'
_DATA	ENDS
;	COMDAT ??_C@_0PC@JABC@I?5know?5of?5many?5myths?5and?5legends@
_DATA	SEGMENT DWORD USE32 PUBLIC 'DATA'
_DATA	ENDS
;	COMDAT ??_C@_0BFP@KJOE@Griswold?5?9?5a?5man?5of?5great?5action@
_DATA	SEGMENT DWORD USE32 PUBLIC 'DATA'
_DATA	ENDS
;	COMDAT ??_C@_0BEP@NONA@Ogden?5has?5owned?5and?5run?5the?5Risi@
_DATA	SEGMENT DWORD USE32 PUBLIC 'DATA'
_DATA	ENDS
;	COMDAT ??_C@_0BGK@HEMO@Poor?5Farnham?4?5He?5is?5a?5disquietin@
_DATA	SEGMENT DWORD USE32 PUBLIC 'DATA'
_DATA	ENDS
;	COMDAT ??_C@_0BEK@IIIF@The?5witch?0?5Adria?0?5is?5an?5anomaly?5@
_DATA	SEGMENT DWORD USE32 PUBLIC 'DATA'
_DATA	ENDS
;	COMDAT ??_C@_0BLA@CMEH@The?5story?5of?5Wirt?5is?5a?5frighteni@
_DATA	SEGMENT DWORD USE32 PUBLIC 'DATA'
_DATA	ENDS
;	COMDAT ??_C@_0ON@LHIM@Ah?0?5Pepin?4?5I?5count?5him?5as?5a?5true@
_DATA	SEGMENT DWORD USE32 PUBLIC 'DATA'
_DATA	ENDS
;	COMDAT ??_C@_0BDP@IHNJ@Gillian?5is?5a?5fine?5woman?4?5Much?5ad@
_DATA	SEGMENT DWORD USE32 PUBLIC 'DATA'
_DATA	ENDS
;	COMDAT ??_C@_0ED@IHED@Greetings?0?5good?5master?4?5Welcome?5@
_DATA	SEGMENT DWORD USE32 PUBLIC 'DATA'
_DATA	ENDS
;	COMDAT ??_C@_0BAP@KJPC@Many?5adventurers?5have?5graced?5the@
_DATA	SEGMENT DWORD USE32 PUBLIC 'DATA'
_DATA	ENDS
;	COMDAT ??_C@_0JI@NDOI@Griswold?5the?5blacksmith?5is?5extre@
_DATA	SEGMENT DWORD USE32 PUBLIC 'DATA'
_DATA	ENDS
;	COMDAT ??_C@_0JL@LFFN@Farnham?5spends?5far?5too?5much?5time@
_DATA	SEGMENT DWORD USE32 PUBLIC 'DATA'
_DATA	ENDS
;	COMDAT ??_C@_0NK@CCDK@Adria?5is?5wise?5beyond?5her?5years?0?5@
_DATA	SEGMENT DWORD USE32 PUBLIC 'DATA'
_DATA	ENDS
;	COMDAT ??_C@_0HE@GCOP@If?5you?5want?5to?5know?5more?5about?5t@
_DATA	SEGMENT DWORD USE32 PUBLIC 'DATA'
_DATA	ENDS
;	COMDAT ??_C@_0BAP@GJPF@Wirt?5is?5a?5rapscallion?5and?5a?5litt@
_DATA	SEGMENT DWORD USE32 PUBLIC 'DATA'
_DATA	ENDS
;	COMDAT ??_C@_0MH@GOFJ@Pepin?5is?5a?5good?5man?5?9?5and?5certai@
_DATA	SEGMENT DWORD USE32 PUBLIC 'DATA'
_DATA	ENDS
;	COMDAT ??_C@_0BAE@GCN@Gillian?0?5my?5Barmaid?$DP?5If?5it?5were?5@
_DATA	SEGMENT DWORD USE32 PUBLIC 'DATA'
_DATA	ENDS
;	COMDAT ??_C@_0BM@OKLI@What?5ails?5you?0?5my?5friend?$DP?5?$HM?$AA@
_DATA	SEGMENT DWORD USE32 PUBLIC 'DATA'
_DATA	ENDS
;	COMDAT ??_C@_0OM@CINH@I?5have?5made?5a?5very?5interesting?5d@
_DATA	SEGMENT DWORD USE32 PUBLIC 'DATA'
_DATA	ENDS
;	COMDAT ??_C@_0PH@OFIE@Before?5it?5was?5taken?5over?5by?0?5wel@
_DATA	SEGMENT DWORD USE32 PUBLIC 'DATA'
_DATA	ENDS
;	COMDAT ??_C@_0NA@HMAC@Griswold?5knows?5as?5much?5about?5the@
_DATA	SEGMENT DWORD USE32 PUBLIC 'DATA'
_DATA	ENDS
;	COMDAT ??_C@_0MF@KAKG@Cain?5is?5a?5true?5friend?5and?5a?5wise@
_DATA	SEGMENT DWORD USE32 PUBLIC 'DATA'
_DATA	ENDS
;	COMDAT ??_C@_0JG@MLH@Even?5my?5skills?5have?5been?5unable?5@
_DATA	SEGMENT DWORD USE32 PUBLIC 'DATA'
_DATA	ENDS
;	COMDAT ??_C@_0BDP@CFOJ@While?5I?5use?5some?5limited?5forms?5o@
_DATA	SEGMENT DWORD USE32 PUBLIC 'DATA'
_DATA	ENDS
;	COMDAT ??_C@_0PD@HPPJ@Poor?5Wirt?4?5I?5did?5all?5that?5was?5po@
_DATA	SEGMENT DWORD USE32 PUBLIC 'DATA'
_DATA	ENDS
;	COMDAT ??_C@_0BGM@GGCO@I?5really?5don?8t?5understand?5why?5Og@
_DATA	SEGMENT DWORD USE32 PUBLIC 'DATA'
_DATA	ENDS
;	COMDAT ??_C@_0LE@CPOG@Ogden?8s?5barmaid?5is?5a?5sweet?5girl?4@
_DATA	SEGMENT DWORD USE32 PUBLIC 'DATA'
_DATA	ENDS
;	COMDAT ??_C@_0CB@OAIK@Good?5day?$CB?5How?5may?5I?5serve?5you?$DP?5?$HM@
_DATA	SEGMENT DWORD USE32 PUBLIC 'DATA'
_DATA	ENDS
;	COMDAT ??_C@_0HI@CIIL@My?5grandmother?5had?5a?5dream?5that?5@
_DATA	SEGMENT DWORD USE32 PUBLIC 'DATA'
_DATA	ENDS
;	COMDAT ??_C@_0OG@PFKL@The?5woman?5at?5the?5edge?5of?5town?5is@
_DATA	SEGMENT DWORD USE32 PUBLIC 'DATA'
_DATA	ENDS
;	COMDAT ??_C@_0BAP@PJLN@Our?5Blacksmith?5is?5a?5point?5of?5pri@
_DATA	SEGMENT DWORD USE32 PUBLIC 'DATA'
_DATA	ENDS
;	COMDAT ??_C@_0JL@NENK@Cain?5has?5been?5the?5storyteller?5of@
_DATA	SEGMENT DWORD USE32 PUBLIC 'DATA'
_DATA	ENDS
;	COMDAT ??_C@_0PL@GEFO@Farnham?5is?5a?5drunkard?5who?5fills?5@
_DATA	SEGMENT DWORD USE32 PUBLIC 'DATA'
_DATA	ENDS
;	COMDAT ??_C@_0BAJ@GNCE@Pepin?5saved?5my?5grandmother?8s?5lif@
_DATA	SEGMENT DWORD USE32 PUBLIC 'DATA'
_DATA	ENDS
;	COMDAT ??_C@_0BIC@BAOL@I?5grew?5up?5with?5Wirt?8s?5mother?0?5Ca@
_DATA	SEGMENT DWORD USE32 PUBLIC 'DATA'
_DATA	ENDS
;	COMDAT ??_C@_0PE@LNAL@Ogden?5and?5his?5wife?5have?5taken?5me@
_DATA	SEGMENT DWORD USE32 PUBLIC 'DATA'
_DATA	ENDS
;	COMDAT ??_C@_0BO@IOHP@Well?0?5what?5can?5I?5do?5for?5ya?$DP?5?$HM?$AA@
_DATA	SEGMENT DWORD USE32 PUBLIC 'DATA'
_DATA	ENDS
;	COMDAT ??_C@_0PC@IMH@If?5you?8re?5looking?5for?5a?5good?5wea@
_DATA	SEGMENT DWORD USE32 PUBLIC 'DATA'
_DATA	ENDS
;	COMDAT ??_C@_0OI@IPDF@The?5axe?$DP?5Aye?0?5that?8s?5a?5good?5weap@
_DATA	SEGMENT DWORD USE32 PUBLIC 'DATA'
_DATA	ENDS
;	COMDAT ??_C@_0BAD@LLLB@Look?5at?5that?5edge?0?5that?5balance?4@
_DATA	SEGMENT DWORD USE32 PUBLIC 'DATA'
_DATA	ENDS
;	COMDAT ??_C@_0LL@JBEI@Your?5weapons?5and?5armor?5will?5show@
_DATA	SEGMENT DWORD USE32 PUBLIC 'DATA'
_DATA	ENDS
;	COMDAT ??_C@_0BCJ@EEGB@While?5I?5have?5to?5practically?5smug@
_DATA	SEGMENT DWORD USE32 PUBLIC 'DATA'
_DATA	ENDS
;	COMDAT ??_C@_0JK@NIIE@Gillian?5is?5a?5nice?5lass?4?5Shame?5th@
_DATA	SEGMENT DWORD USE32 PUBLIC 'DATA'
_DATA	ENDS
;	COMDAT ??_C@_0MN@MBCF@Sometimes?5I?5think?5that?5Cain?5talk@
_DATA	SEGMENT DWORD USE32 PUBLIC 'DATA'
_DATA	ENDS
;	COMDAT ??_C@_0BDA@BFLB@I?5was?5with?5Farnham?5that?5night?5th@
_DATA	SEGMENT DWORD USE32 PUBLIC 'DATA'
_DATA	ENDS
;	COMDAT ??_C@_0LC@HEN@A?5good?5man?5who?5puts?5the?5needs?5of@
_DATA	SEGMENT DWORD USE32 PUBLIC 'DATA'
_DATA	ENDS
;	COMDAT ??_C@_0BFC@GLJH@That?5lad?5is?5going?5to?5get?5himself@
_DATA	SEGMENT DWORD USE32 PUBLIC 'DATA'
_DATA	ENDS
;	COMDAT ??_C@_0BMA@CFMJ@The?5Innkeeper?5has?5little?5busines@
_DATA	SEGMENT DWORD USE32 PUBLIC 'DATA'
_DATA	ENDS
;	COMDAT ??_C@_0CA@JCEK@Can?8t?5a?5fella?5drink?5in?5peace?$DP?5?$HM?$AA@
_DATA	SEGMENT DWORD USE32 PUBLIC 'DATA'
_DATA	ENDS
;	COMDAT ??_C@_0EN@EJNE@The?5gal?5who?5brings?5the?5drinks?$DP?5O@
_DATA	SEGMENT DWORD USE32 PUBLIC 'DATA'
_DATA	ENDS
;	COMDAT ??_C@_0OE@FMDI@Why?5don?8t?5that?5old?5crone?5do?5some@
_DATA	SEGMENT DWORD USE32 PUBLIC 'DATA'
_DATA	ENDS
;	COMDAT ??_C@_0JP@FFDK@Cain?5isn?8t?5what?5he?5says?5he?5is?4?5S@
_DATA	SEGMENT DWORD USE32 PUBLIC 'DATA'
_DATA	ENDS
;	COMDAT ??_C@_0IN@FPMD@Griswold?$DP?5Good?5old?5Griswold?4?5I?5l@
_DATA	SEGMENT DWORD USE32 PUBLIC 'DATA'
_DATA	ENDS
;	COMDAT ??_C@_0OJ@JIFC@Hehehe?0?5I?5like?5Pepin?4?5He?5really?5@
_DATA	SEGMENT DWORD USE32 PUBLIC 'DATA'
_DATA	ENDS
;	COMDAT ??_C@_0NP@GHOO@Wirt?5is?5a?5kid?5with?5more?5problems@
_DATA	SEGMENT DWORD USE32 PUBLIC 'DATA'
_DATA	ENDS
;	COMDAT ??_C@_0NM@ICEM@Ogden?5is?5the?5best?5man?5in?5town?4?5I@
_DATA	SEGMENT DWORD USE32 PUBLIC 'DATA'
_DATA	ENDS
;	COMDAT ??_C@_0LC@DAKE@I?5wanna?5tell?5ya?5sumthin?8?0?5?8cause@
_DATA	SEGMENT DWORD USE32 PUBLIC 'DATA'
_DATA	ENDS
;	COMDAT ??_C@_0LI@HDAI@No?5one?5ever?5lis?4?4?4?5listens?5to?5me@
_DATA	SEGMENT DWORD USE32 PUBLIC 'DATA'
_DATA	ENDS
;	COMDAT ??_C@_0PP@GFC@I?5know?5you?5gots?5your?5own?5ideas?0?5@
_DATA	SEGMENT DWORD USE32 PUBLIC 'DATA'
_DATA	ENDS
;	COMDAT ??_C@_0OD@HAHJ@If?5I?5was?5you?4?4?4?5and?5I?5ain?8t?4?4?4?5b@
_DATA	SEGMENT DWORD USE32 PUBLIC 'DATA'
_DATA	ENDS
;	COMDAT ??_C@_0CJ@MHFH@I?5sense?5a?5soul?5in?5search?5of?5answ@
_DATA	SEGMENT DWORD USE32 PUBLIC 'DATA'
_DATA	ENDS
;	COMDAT ??_C@_0NN@NKBO@Wisdom?5is?5earned?0?5not?5given?4?5If?5@
_DATA	SEGMENT DWORD USE32 PUBLIC 'DATA'
_DATA	ENDS
;	COMDAT ??_C@_0BJK@COGJ@The?5greatest?5power?5is?5often?5the?5@
_DATA	SEGMENT DWORD USE32 PUBLIC 'DATA'
_DATA	ENDS
;	COMDAT ??_C@_0BFO@DMBJ@Though?5the?5heat?5of?5the?5sun?5is?5be@
_DATA	SEGMENT DWORD USE32 PUBLIC 'DATA'
_DATA	ENDS
;	COMDAT ??_C@_0MK@CCCJ@The?5sum?5of?5our?5knowledge?5is?5in?5t@
_DATA	SEGMENT DWORD USE32 PUBLIC 'DATA'
_DATA	ENDS
;	COMDAT ??_C@_0MB@NOML@To?5a?5man?5who?5only?5knows?5Iron?0?5th@
_DATA	SEGMENT DWORD USE32 PUBLIC 'DATA'
_DATA	ENDS
;	COMDAT ??_C@_0OO@INKM@Corruption?5has?5the?5strength?5of?5d@
_DATA	SEGMENT DWORD USE32 PUBLIC 'DATA'
_DATA	ENDS
;	COMDAT ??_C@_0BAK@MNNG@A?5chest?5opened?5in?5darkness?5holds@
_DATA	SEGMENT DWORD USE32 PUBLIC 'DATA'
_DATA	ENDS
;	COMDAT ??_C@_0BBH@CNBM@The?5higher?5you?5place?5your?5faith?5@
_DATA	SEGMENT DWORD USE32 PUBLIC 'DATA'
_DATA	ENDS
;	COMDAT ??_C@_0BEB@BIKJ@The?5hand?0?5the?5heart?5and?5the?5mind@
_DATA	SEGMENT DWORD USE32 PUBLIC 'DATA'
_DATA	ENDS
;	COMDAT ??_C@_0BMP@FECG@There?5is?5much?5about?5the?5future?5w@
_DATA	SEGMENT DWORD USE32 PUBLIC 'DATA'
_DATA	ENDS
;	COMDAT ??_C@_0CAD@CBLM@Earthen?5walls?5and?5thatched?5canop@
_DATA	SEGMENT DWORD USE32 PUBLIC 'DATA'
_DATA	ENDS
;	COMDAT ??_C@_0BI@JGAM@Pssst?4?4?4?5over?5here?4?4?4?5?$HM?$AA@
_DATA	SEGMENT DWORD USE32 PUBLIC 'DATA'
_DATA	ENDS
;	COMDAT ??_C@_0NH@EBOI@Not?5everyone?5in?5Tristram?5has?5a?5u@
_DATA	SEGMENT DWORD USE32 PUBLIC 'DATA'
_DATA	ENDS
;	COMDAT ??_C@_0GC@NCKB@Don?8t?5trust?5everything?5the?5drunk@
_DATA	SEGMENT DWORD USE32 PUBLIC 'DATA'
_DATA	ENDS
;	COMDAT ??_C@_0PK@MPPC@In?5case?5you?5haven?8t?5noticed?0?5I?5d@
_DATA	SEGMENT DWORD USE32 PUBLIC 'DATA'
_DATA	ENDS
;	COMDAT ??_C@_0BBB@PNON@I?5guess?5I?5owe?5the?5blacksmith?5my?5@
_DATA	SEGMENT DWORD USE32 PUBLIC 'DATA'
_DATA	ENDS
;	COMDAT ??_C@_0BBM@BDD@If?5I?5were?5a?5few?5years?5older?0?5I?5w@
_DATA	SEGMENT DWORD USE32 PUBLIC 'DATA'
_DATA	ENDS
;	COMDAT ??_C@_0NM@EPHD@Cain?5knows?5too?5much?4?5He?5scares?5t@
_DATA	SEGMENT DWORD USE32 PUBLIC 'DATA'
_DATA	ENDS
;	COMDAT ??_C@_0BGL@PMGC@Farnham?5?9?5now?5there?5is?5a?5man?5wit@
_DATA	SEGMENT DWORD USE32 PUBLIC 'DATA'
_DATA	ENDS
;	COMDAT ??_C@_0KE@KLJD@As?5long?5as?5you?5don?8t?5need?5anythi@
_DATA	SEGMENT DWORD USE32 PUBLIC 'DATA'
_DATA	ENDS
;	COMDAT ??_C@_0BDA@IAAA@Adria?5truly?5bothers?5me?4?5Sure?0?5Ca@
_DATA	SEGMENT DWORD USE32 PUBLIC 'DATA'
_DATA	ENDS
;	COMDAT ??_C@_0BBB@IGFO@Ogden?5is?5a?5fool?5for?5staying?5here@
_DATA	SEGMENT DWORD USE32 PUBLIC 'DATA'
_DATA	ENDS
;	COMDAT ??_C@_0MD@OINA@Beyond?5the?5Hall?5of?5Heroes?5lies?5t@
_DATA	SEGMENT DWORD USE32 PUBLIC 'DATA'
_DATA	ENDS
;	COMDAT ??_C@_0HL@PJLJ@?4?4?4and?5so?0?5locked?5beyond?5the?5Gat@
_DATA	SEGMENT DWORD USE32 PUBLIC 'DATA'
_DATA	ENDS
;	COMDAT ??_C@_0BAA@NLCC@I?5can?5see?5what?5you?5see?5not?4?6Visi@
_DATA	SEGMENT DWORD USE32 PUBLIC 'DATA'
_DATA	ENDS
;	COMDAT ??_C@_0OJ@FKCI@The?5armories?5of?5Hell?5are?5home?5to@
_DATA	SEGMENT DWORD USE32 PUBLIC 'DATA'
_DATA	ENDS
;	COMDAT ??_C@_0BPE@JMJL@Take?5heed?5and?5bear?5witness?5to?5th@
_DATA	SEGMENT DWORD USE32 PUBLIC 'DATA'
_DATA	ENDS
;	COMDAT ??_C@_0BNB@LDEK@Take?5heed?5and?5bear?5witness?5to?5th@
_DATA	SEGMENT DWORD USE32 PUBLIC 'DATA'
_DATA	ENDS
;	COMDAT ??_C@_0EEK@CKGF@Take?5heed?5and?5bear?5witness?5to?5th@
_DATA	SEGMENT DWORD USE32 PUBLIC 'DATA'
_DATA	ENDS
;	COMDAT ??_C@_0BPE@KCBK@So?5it?5came?5to?5be?5that?5there?5was?5@
_DATA	SEGMENT DWORD USE32 PUBLIC 'DATA'
_DATA	ENDS
;	COMDAT ??_C@_0BHF@PIMJ@Many?5demons?5traveled?5to?5the?5mort@
_DATA	SEGMENT DWORD USE32 PUBLIC 'DATA'
_DATA	ENDS
;	COMDAT ??_C@_0DDH@IDMK@So?5it?5came?5to?5be?5that?5the?5Three?5@
_DATA	SEGMENT DWORD USE32 PUBLIC 'DATA'
_DATA	ENDS
;	COMDAT ??_C@_0BLG@EIJK@All?5praises?5to?5Diablo?5?9?5Lord?5of?5@
_DATA	SEGMENT DWORD USE32 PUBLIC 'DATA'
_DATA	ENDS
;	COMDAT ??_C@_0BKF@KIGP@Glory?5and?5Approbation?5to?5Diablo?5@
_DATA	SEGMENT DWORD USE32 PUBLIC 'DATA'
_DATA	ENDS
;	COMDAT ??_C@_0CHD@HMLO@Hail?5and?5Sacrifice?5to?5Diablo?5?9?5L@
_DATA	SEGMENT DWORD USE32 PUBLIC 'DATA'
_DATA	ENDS
;	COMDAT ??_C@_0CGO@ICAH@Thank?5goodness?5you?8ve?5returned?$CB?6@
_DATA	SEGMENT DWORD USE32 PUBLIC 'DATA'
_DATA	ENDS
CRT$XCU	SEGMENT DWORD USE32 PUBLIC ''
CRT$XCU	ENDS
FLAT	GROUP _DATA, CONST, _BSS, CRT$XCU
	ASSUME	CS: FLAT, DS: FLAT, SS: FLAT
endif

INCLUDELIB LIBCMT
INCLUDELIB OLDNAMES

PUBLIC	_alltext
PUBLIC	_gdwAllTextEntries
PUBLIC	??_C@_0BHP@MNPM@?5Ahh?0?5the?5story?5of?5our?5King?0?5is?5@ ; `string'
PUBLIC	??_C@_0DOE@KIMK@The?5village?5needs?5your?5help?0?5goo@ ; `string'
PUBLIC	??_C@_0JP@DHAN@As?5I?5told?5you?0?5good?5master?0?5the?5@ ; `string'
PUBLIC	??_C@_0PG@FDPL@The?5curse?5of?5our?5King?5has?5passed@ ; `string'
PUBLIC	??_C@_0BBN@MEID@The?5loss?5of?5his?5son?5was?5too?5much@ ; `string'
PUBLIC	??_C@_0KG@OPKF@I?5don?8t?5like?5to?5think?5about?5how?5@ ; `string'
PUBLIC	??_C@_0BCO@NBMD@I?5made?5many?5of?5the?5weapons?5and?5m@ ; `string'
PUBLIC	??_C@_0HM@OOBO@I?5don?8t?5care?5about?5that?4?5Listen?0@ ; `string'
PUBLIC	??_C@_0PJ@HFNP@The?5dead?5who?5walk?5among?5the?5livi@ ; `string'
PUBLIC	??_C@_0OH@NJDG@Look?0?5I?8m?5running?5a?5business?5her@ ; `string'
PUBLIC	??_C@_0GF@OLJL@The?5warmth?5of?5life?5has?5entered?5m@ ; `string'
PUBLIC	??_C@_0BFJ@GIND@I?5see?5that?5this?5strange?5behavior@ ; `string'
PUBLIC	??_C@_0CDH@BPJH@Master?0?5I?5have?5a?5strange?5experie@ ; `string'
PUBLIC	??_C@_0BFI@OLP@Oh?0?5you?5didn?8t?5have?5to?5bring?5bac@ ; `string'
PUBLIC	??_C@_0MM@NPKM@My?5goodness?0?5demons?5running?5abou@ ; `string'
PUBLIC	??_C@_0KF@OELJ@Oh?5my?$CB?5Is?5that?5where?5the?5sign?5we@ ; `string'
PUBLIC	??_C@_0LD@FAMD@Demons?5stole?5Ogden?8s?5sign?0?5you?5s@ ; `string'
PUBLIC	??_C@_0PD@BOCE@You?5know?5what?5I?5think?$DP?5Somebody?5@ ; `string'
PUBLIC	??_C@_0IH@MMMG@No?5mortal?5can?5truly?5understand?5t@ ; `string'
PUBLIC	??_C@_0LB@NBLI@What?5?9?5is?5he?5saying?5I?5took?5that?$DP@ ; `string'
PUBLIC	??_C@_0MD@GIG@Hey?5?9?5You?5that?5one?5that?5kill?5all@ ; `string'
PUBLIC	??_C@_0DL@CGCM@You?5kill?5uglies?0?5get?5banner?4?5You@ ; `string'
PUBLIC	??_C@_0EG@COJF@You?5give?$CB?5Yes?0?5good?$CB?5Go?5now?0?5we?5@ ; `string'
PUBLIC	??_C@_0ENC@DIKO@This?5does?5not?5bode?5well?0?5for?5it?5@ ; `string'
PUBLIC	??_C@_0HP@JHAM@You?5must?5hurry?5and?5rescue?5Albrec@ ; `string'
PUBLIC	??_C@_0CGP@BPPO@Your?5story?5is?5quite?5grim?0?5my?5fri@ ; `string'
PUBLIC	??_C@_0BBP@HECL@Lazarus?5was?5the?5Archbishop?5who?5l@ ; `string'
PUBLIC	??_C@_01KALE@?$HM?$AA@				; `string'
PUBLIC	??_C@_0BCK@MONF@I?5was?5shocked?5when?5I?5heard?5of?5wh@ ; `string'
PUBLIC	??_C@_0OB@HLFK@I?5remember?5Lazarus?5as?5being?5a?5ve@ ; `string'
PUBLIC	??_C@_0BBG@OBFK@I?5was?5there?5when?5Lazarus?5led?5us?5@ ; `string'
PUBLIC	??_C@_0MP@JODH@They?5stab?0?5then?5bite?0?5then?5they?8@ ; `string'
PUBLIC	??_C@_0NH@LMDN@I?5did?5not?5know?5this?5Lazarus?5of?5w@ ; `string'
PUBLIC	??_C@_0MA@CGJN@Yes?0?5the?5righteous?5Lazarus?0?5who?5@ ; `string'
PUBLIC	??_C@_0JA@BFOI@Abandon?5your?5foolish?5quest?4?5All?5@ ; `string'
PUBLIC	??_C@_02HFOG@?5?$HM?$AA@			; `string'
PUBLIC	??_C@_0BDM@EGPP@Hmm?0?5I?5don?8t?5know?5what?5I?5can?5rea@ ; `string'
PUBLIC	??_C@_0PF@KKBF@I?5have?5always?5tried?5to?5keep?5a?5la@ ; `string'
PUBLIC	??_C@_0BGC@IGFC@I?8m?5glad?5I?5caught?5up?5to?5you?5in?5t@ ; `string'
PUBLIC	??_C@_0JA@FAIC@Please?0?5you?5must?5hurry?4?5Every?5ho@ ; `string'
PUBLIC	??_C@_0BBL@NIPL@What?8s?5that?5you?5say?5?9?5the?5mere?5p@ ; `string'
PUBLIC	??_C@_0IG@HEHM@My?5grandmother?5is?5very?5weak?0?5and@ ; `string'
PUBLIC	??_C@_0ME@FEIF@Pepin?5has?5told?5you?5the?5truth?4?5We@ ; `string'
PUBLIC	??_C@_0BD@DINJ@You?5drink?5water?$DP?5?$HM?$AA@	; `string'
PUBLIC	??_C@_0LP@CPOP@The?5people?5of?5Tristram?5will?5die?5@ ; `string'
PUBLIC	??_C@_0IP@PIKF@For?5once?0?5I?8m?5with?5you?4?5My?5busin@ ; `string'
PUBLIC	??_C@_0BKA@DFMI@A?5book?5that?5speaks?5of?5a?5chamber?5@ ; `string'
PUBLIC	??_C@_0HA@OCOF@I?5am?5afraid?5that?5I?5don?8t?5know?5an@ ; `string'
PUBLIC	??_C@_0FJ@INNK@This?5sounds?5like?5a?5very?5dangerou@ ; `string'
PUBLIC	??_C@_0GM@IJJO@I?5am?5afraid?5that?5I?5haven?8t?5heard@ ; `string'
PUBLIC	??_C@_0JP@KNGP@I?5know?5nothing?5of?5this?5place?0?5bu@ ; `string'
PUBLIC	??_C@_0OF@LJAJ@Okay?0?5so?5listen?4?5There?8s?5this?5ch@ ; `string'
PUBLIC	??_C@_0JE@BFIG@You?5will?5become?5an?5eternal?5serva@ ; `string'
PUBLIC	??_C@_0MN@BLMN@A?5vast?5and?5mysterious?5treasure?0?5@ ; `string'
PUBLIC	??_C@_0BGB@OLOM@It?5seems?5that?5the?5Archbishop?5Laz@ ; `string'
PUBLIC	??_C@_0HL@INAO@Yes?0?5Farnham?5has?5mumbled?5somethi@ ; `string'
PUBLIC	??_C@_0BKA@IIOP@By?5the?5Light?0?5I?5know?5of?5this?5vil@ ; `string'
PUBLIC	??_C@_0IK@JGGP@When?5Farnham?5said?5something?5abou@ ; `string'
PUBLIC	??_C@_0BII@LGOE@I?5saw?5what?5Farnham?5calls?5the?5But@ ; `string'
PUBLIC	??_C@_0KM@DBJO@Big?$CB?5Big?5cleaver?5killing?5all?5my?5@ ; `string'
PUBLIC	??_C@_0MO@NACH@The?5Butcher?5is?5a?5sadistic?5creatu@ ; `string'
PUBLIC	??_C@_0BAA@GEMB@I?5know?5more?5than?5you?8d?5think?5abo@ ; `string'
PUBLIC	??_C@_0BAN@LCEP@Please?0?5listen?5to?5me?4?5The?5Archbi@ ; `string'
PUBLIC	??_C@_0BGN@HNHP@You?5recite?5an?5interesting?5rhyme?5@ ; `string'
PUBLIC	??_C@_0OH@NJ@I?5never?5much?5cared?5for?5poetry?4?5O@ ; `string'
PUBLIC	??_C@_0OH@IDPN@This?5does?5seem?5familiar?0?5somehow@ ; `string'
PUBLIC	??_C@_0KM@GBEC@If?5you?5have?5questions?5about?5blin@ ; `string'
PUBLIC	??_C@_0JN@PHAB@I?5am?5afraid?5that?5I?5have?5neither?5@ ; `string'
PUBLIC	??_C@_0EE@NKDH@Look?5here?4?4?4?5that?8s?5pretty?5funny@ ; `string'
PUBLIC	??_C@_0KG@PNIA@This?5is?5a?5place?5of?5great?5anguish@ ; `string'
PUBLIC	??_C@_0MA@KNFA@Lets?5see?0?5am?5I?5selling?5you?5somet@ ; `string'
PUBLIC	??_C@_0BNM@DNCC@You?5claim?5to?5have?5spoken?5with?5La@ ; `string'
PUBLIC	??_C@_0IG@IJIF@You?5speak?5of?5a?5brave?5warrior?5lon@ ; `string'
PUBLIC	??_C@_0BBE@FPLK@A?5golden?5elixir?0?5you?5say?4?5I?5have@ ; `string'
PUBLIC	??_C@_0GK@DADD@I?8ve?5never?5heard?5of?5a?5Lachdanan?5@ ; `string'
PUBLIC	??_C@_0BAI@PBNB@If?5it?5is?5actually?5Lachdanan?5that@ ; `string'
PUBLIC	??_C@_0ID@CAPA@?5Lachdanan?5is?5dead?4?5Everybody?5kn@ ; `string'
PUBLIC	??_C@_0JO@EHOM@You?5may?5meet?5people?5who?5are?5trap@ ; `string'
PUBLIC	??_C@_0BAO@LAIB@Wait?0?5let?5me?5guess?4?5Cain?5was?5swa@ ; `string'
PUBLIC	??_C@_0CJA@CGLA@Please?0?5don?8t?5kill?5me?0?5just?5hear@ ; `string'
PUBLIC	??_C@_0GF@KDAC@You?5have?5not?5found?5the?5Golden?5El@ ; `string'
PUBLIC	??_C@_0BEK@GDGJ@You?5have?5saved?5my?5soul?5from?5damn@ ; `string'
PUBLIC	??_C@_0CBG@BNMH@Griswold?5speaks?5of?5The?5Anvil?5of?5@ ; `string'
PUBLIC	??_C@_0GI@PFKF@Don?8t?5you?5think?5that?5Griswold?5wo@ ; `string'
PUBLIC	??_C@_0OI@NGGI@If?5you?5had?5been?5looking?5for?5info@ ; `string'
PUBLIC	??_C@_0BBH@BOEP@Griswold?8s?5father?5used?5to?5tell?5s@ ; `string'
PUBLIC	??_C@_0DHE@GKGO@Greetings?$CB?5It?8s?5always?5a?5pleasur@ ; `string'
PUBLIC	??_C@_0KB@BMCB@Nothing?5yet?0?5eh?$DP?5Well?0?5keep?5sear@ ; `string'
PUBLIC	??_C@_0NG@BKNC@I?5can?5hardly?5believe?5it?$CB?5This?5is@ ; `string'
PUBLIC	??_C@_0GG@KIBD@Griswold?5can?8t?5sell?5his?5anvil?4?5W@ ; `string'
PUBLIC	??_C@_0BBG@FNHD@There?5are?5many?5artifacts?5within?5@ ; `string'
PUBLIC	??_C@_0IC@MEGF@If?5you?5were?5to?5find?5this?5artifac@ ; `string'
PUBLIC	??_C@_0DGD@CLHN@The?5Gateway?5of?5Blood?5and?5the?5Hal@ ; `string'
PUBLIC	??_C@_0LO@MLKC@Every?5child?5hears?5the?5story?5of?5t@ ; `string'
PUBLIC	??_C@_0JP@BOGN@Hmm?4?4?4?5it?5sounds?5like?5something?5@ ; `string'
PUBLIC	??_C@_0IO@FJEP@The?5story?5of?5the?5magic?5armor?5cal@ ; `string'
PUBLIC	??_C@_0BBN@BIHB@The?5armor?5known?5as?5Valor?5could?5b@ ; `string'
PUBLIC	??_C@_0CG@DHDB@Zzzzzzzzzzzzzzzzzzzzzzzzzzzzzzzz@ ; `string'
PUBLIC	??_C@_0JA@LPJL@Should?5you?5find?5these?5Stones?5of?5@ ; `string'
PUBLIC	??_C@_0LM@ONEI@You?5intend?5to?5find?5the?5armor?5kno@ ; `string'
PUBLIC	??_C@_0CDK@LJNG@I?5know?5of?5only?5one?5legend?5that?5s@ ; `string'
PUBLIC	??_C@_0KE@EBNB@I?5am?5afraid?5that?5I?5haven?8t?5heard@ ; `string'
PUBLIC	??_C@_0GF@BICG@Cain?5would?5be?5able?5to?5tell?5you?5m@ ; `string'
PUBLIC	??_C@_0HK@JAMK@If?5you?5are?5to?5battle?5such?5a?5fier@ ; `string'
PUBLIC	??_C@_0HN@MICE@Dark?5and?5wicked?5legends?5surround@ ; `string'
PUBLIC	??_C@_0KL@CACD@Always?5you?5gotta?5talk?5about?5Bloo@ ; `string'
PUBLIC	??_C@_0JL@PNPB@His?5prowess?5with?5the?5blade?5is?5aw@ ; `string'
PUBLIC	??_C@_0JE@IECE@I?5haven?8t?5ever?5dealt?5with?5this?5W@ ; `string'
PUBLIC	??_C@_0FI@OPJJ@My?5blade?5sings?5for?5your?5blood?0?5m@ ; `string'
PUBLIC	??_C@_0BGA@GNIC@Griswold?5speaks?5of?5the?5Heaven?5St@ ; `string'
PUBLIC	??_C@_0OB@DGEG@The?5caravan?5stopped?5here?5to?5take@ ; `string'
PUBLIC	??_C@_0JO@MAOM@I?5don?8t?5know?5what?5it?5is?5that?5the@ ; `string'
PUBLIC	??_C@_0BAB@FIMM@Well?0?5a?5caravan?5of?5some?5very?5imp@ ; `string'
PUBLIC	??_C@_0BMM@FPNH@Stay?5for?5a?5moment?5?9?5I?5have?5a?5sto@ ; `string'
PUBLIC	??_C@_0HL@DMGI@I?5am?5still?5waiting?5for?5you?5to?5br@ ; `string'
PUBLIC	??_C@_0ME@MCLM@Let?5me?5see?5that?5?9?5aye?4?4?4?5aye?0?5it@ ; `string'
PUBLIC	??_C@_0KM@KIKN@I?5used?5to?5have?5a?5nice?5ring?$DL?5it?5w@ ; `string'
PUBLIC	??_C@_0LC@IGNK@The?5Heaven?5Stone?5is?5very?5powerfu@ ; `string'
PUBLIC	??_C@_0KK@GHKD@If?5anyone?5can?5make?5something?5out@ ; `string'
PUBLIC	??_C@_0OD@PBDG@The?5witch?5Adria?5seeks?5a?5black?5mu@ ; `string'
PUBLIC	??_C@_0OM@DELD@Let?5me?5just?5say?5this?4?5Both?5Garda@ ; `string'
PUBLIC	??_C@_0BGE@ENCM@The?5witch?5told?5me?5that?5you?5were?5@ ; `string'
PUBLIC	??_C@_0ND@LBDP@Excellent?0?5this?5is?5just?5what?5I?5h@ ; `string'
PUBLIC	??_C@_0FI@HPCK@I?5think?5Ogden?5might?5have?5some?5mu@ ; `string'
PUBLIC	??_C@_0NK@HJPE@If?5Adria?5doesn?8t?5have?5one?5of?5the@ ; `string'
PUBLIC	??_C@_0IC@OJIM@Ogden?5mixes?5a?5MEAN?5black?5mushroo@ ; `string'
PUBLIC	??_C@_0MM@DGBL@What?5do?5we?5have?5here?$DP?5Interestin@ ; `string'
PUBLIC	??_C@_0IM@HIJJ@It?8s?5a?5big?0?5black?5mushroom?5that?5@ ; `string'
PUBLIC	??_C@_0BFO@GEJH@Yes?0?5this?5will?5be?5perfect?5for?5a?5@ ; `string'
PUBLIC	??_C@_0BAL@OEFK@Why?5have?5you?5brought?5that?5here?$DP?5@ ; `string'
PUBLIC	??_C@_0HN@JCMP@What?$DP?5Now?5you?5bring?5me?5that?5elix@ ; `string'
PUBLIC	??_C@_0GD@DCAJ@I?5don?8t?5have?5any?5mushrooms?5of?5an@ ; `string'
PUBLIC	??_C@_0DNC@DFGB@So?0?5the?5legend?5of?5the?5Map?5is?5rea@ ; `string'
PUBLIC	??_C@_0HG@OAIH@Our?5time?5is?5running?5short?$CB?5I?5sen@ ; `string'
PUBLIC	??_C@_0BCN@GOM@I?5am?5sure?5that?5you?5tried?5your?5be@ ; `string'
PUBLIC	??_C@_0NK@IKFG@If?5the?5witch?5can?8t?5help?5you?5and?5@ ; `string'
PUBLIC	??_C@_0NL@NMNL@I?5can?8t?5make?5much?5of?5the?5writing@ ; `string'
PUBLIC	??_C@_0MO@PAFL@The?5best?5person?5to?5ask?5about?5tha@ ; `string'
PUBLIC	??_C@_0KN@BBPI@I?5have?5never?5seen?5a?5map?5of?5this?5@ ; `string'
PUBLIC	??_C@_0HH@ONBA@Listen?5here?0?5come?5close?4?5I?5don?8t@ ; `string'
PUBLIC	??_C@_0NM@CELJ@Oh?0?5I?8m?5afraid?5this?5does?5not?5bod@ ; `string'
PUBLIC	??_C@_0ME@JPKK@I?8ve?5been?5looking?5for?5a?5map?0?5but@ ; `string'
PUBLIC	??_C@_0EL@KAGA@Pleeeease?0?5no?5hurt?4?5No?5Kill?4?5Kee@ ; `string'
PUBLIC	??_C@_0HH@EPFF@Something?5for?5you?5I?5am?5making?4?5A@ ; `string'
PUBLIC	??_C@_0GG@KGHB@Nothing?5yet?$CB?5Almost?5done?4?5?6?5?6Ver@ ; `string'
PUBLIC	??_C@_0DN@JOKI@This?5too?5good?5for?5you?4?5Very?5Powe@ ; `string'
PUBLIC	??_C@_0IP@JLCE@What?$DP?$CB?5Why?5are?5you?5here?$DP?5All?5the@ ; `string'
PUBLIC	??_C@_0DG@BEGG@Arrrrgh?$CB?5Your?5curiosity?5will?5be?5@ ; `string'
PUBLIC	??_C@_0CO@NHMI@Hello?0?5my?5friend?4?5Stay?5awhile?5an@ ; `string'
PUBLIC	??_C@_0LA@HHNB@While?5you?5are?5venturing?5deeper?5i@ ; `string'
PUBLIC	??_C@_0PC@JABC@I?5know?5of?5many?5myths?5and?5legends@ ; `string'
PUBLIC	??_C@_0BFP@KJOE@Griswold?5?9?5a?5man?5of?5great?5action@ ; `string'
PUBLIC	??_C@_0BEP@NONA@Ogden?5has?5owned?5and?5run?5the?5Risi@ ; `string'
PUBLIC	??_C@_0BGK@HEMO@Poor?5Farnham?4?5He?5is?5a?5disquietin@ ; `string'
PUBLIC	??_C@_0BEK@IIIF@The?5witch?0?5Adria?0?5is?5an?5anomaly?5@ ; `string'
PUBLIC	??_C@_0BLA@CMEH@The?5story?5of?5Wirt?5is?5a?5frighteni@ ; `string'
PUBLIC	??_C@_0ON@LHIM@Ah?0?5Pepin?4?5I?5count?5him?5as?5a?5true@ ; `string'
PUBLIC	??_C@_0BDP@IHNJ@Gillian?5is?5a?5fine?5woman?4?5Much?5ad@ ; `string'
PUBLIC	??_C@_0ED@IHED@Greetings?0?5good?5master?4?5Welcome?5@ ; `string'
PUBLIC	??_C@_0BAP@KJPC@Many?5adventurers?5have?5graced?5the@ ; `string'
PUBLIC	??_C@_0JI@NDOI@Griswold?5the?5blacksmith?5is?5extre@ ; `string'
PUBLIC	??_C@_0JL@LFFN@Farnham?5spends?5far?5too?5much?5time@ ; `string'
PUBLIC	??_C@_0NK@CCDK@Adria?5is?5wise?5beyond?5her?5years?0?5@ ; `string'
PUBLIC	??_C@_0HE@GCOP@If?5you?5want?5to?5know?5more?5about?5t@ ; `string'
PUBLIC	??_C@_0BAP@GJPF@Wirt?5is?5a?5rapscallion?5and?5a?5litt@ ; `string'
PUBLIC	??_C@_0MH@GOFJ@Pepin?5is?5a?5good?5man?5?9?5and?5certai@ ; `string'
PUBLIC	??_C@_0BAE@GCN@Gillian?0?5my?5Barmaid?$DP?5If?5it?5were?5@ ; `string'
PUBLIC	??_C@_0BM@OKLI@What?5ails?5you?0?5my?5friend?$DP?5?$HM?$AA@ ; `string'
PUBLIC	??_C@_0OM@CINH@I?5have?5made?5a?5very?5interesting?5d@ ; `string'
PUBLIC	??_C@_0PH@OFIE@Before?5it?5was?5taken?5over?5by?0?5wel@ ; `string'
PUBLIC	??_C@_0NA@HMAC@Griswold?5knows?5as?5much?5about?5the@ ; `string'
PUBLIC	??_C@_0MF@KAKG@Cain?5is?5a?5true?5friend?5and?5a?5wise@ ; `string'
PUBLIC	??_C@_0JG@MLH@Even?5my?5skills?5have?5been?5unable?5@ ; `string'
PUBLIC	??_C@_0BDP@CFOJ@While?5I?5use?5some?5limited?5forms?5o@ ; `string'
PUBLIC	??_C@_0PD@HPPJ@Poor?5Wirt?4?5I?5did?5all?5that?5was?5po@ ; `string'
PUBLIC	??_C@_0BGM@GGCO@I?5really?5don?8t?5understand?5why?5Og@ ; `string'
PUBLIC	??_C@_0LE@CPOG@Ogden?8s?5barmaid?5is?5a?5sweet?5girl?4@ ; `string'
PUBLIC	??_C@_0CB@OAIK@Good?5day?$CB?5How?5may?5I?5serve?5you?$DP?5?$HM@ ; `string'
PUBLIC	??_C@_0HI@CIIL@My?5grandmother?5had?5a?5dream?5that?5@ ; `string'
PUBLIC	??_C@_0OG@PFKL@The?5woman?5at?5the?5edge?5of?5town?5is@ ; `string'
PUBLIC	??_C@_0BAP@PJLN@Our?5Blacksmith?5is?5a?5point?5of?5pri@ ; `string'
PUBLIC	??_C@_0JL@NENK@Cain?5has?5been?5the?5storyteller?5of@ ; `string'
PUBLIC	??_C@_0PL@GEFO@Farnham?5is?5a?5drunkard?5who?5fills?5@ ; `string'
PUBLIC	??_C@_0BAJ@GNCE@Pepin?5saved?5my?5grandmother?8s?5lif@ ; `string'
PUBLIC	??_C@_0BIC@BAOL@I?5grew?5up?5with?5Wirt?8s?5mother?0?5Ca@ ; `string'
PUBLIC	??_C@_0PE@LNAL@Ogden?5and?5his?5wife?5have?5taken?5me@ ; `string'
PUBLIC	??_C@_0BO@IOHP@Well?0?5what?5can?5I?5do?5for?5ya?$DP?5?$HM?$AA@ ; `string'
PUBLIC	??_C@_0PC@IMH@If?5you?8re?5looking?5for?5a?5good?5wea@ ; `string'
PUBLIC	??_C@_0OI@IPDF@The?5axe?$DP?5Aye?0?5that?8s?5a?5good?5weap@ ; `string'
PUBLIC	??_C@_0BAD@LLLB@Look?5at?5that?5edge?0?5that?5balance?4@ ; `string'
PUBLIC	??_C@_0LL@JBEI@Your?5weapons?5and?5armor?5will?5show@ ; `string'
PUBLIC	??_C@_0BCJ@EEGB@While?5I?5have?5to?5practically?5smug@ ; `string'
PUBLIC	??_C@_0JK@NIIE@Gillian?5is?5a?5nice?5lass?4?5Shame?5th@ ; `string'
PUBLIC	??_C@_0MN@MBCF@Sometimes?5I?5think?5that?5Cain?5talk@ ; `string'
PUBLIC	??_C@_0BDA@BFLB@I?5was?5with?5Farnham?5that?5night?5th@ ; `string'
PUBLIC	??_C@_0LC@HEN@A?5good?5man?5who?5puts?5the?5needs?5of@ ; `string'
PUBLIC	??_C@_0BFC@GLJH@That?5lad?5is?5going?5to?5get?5himself@ ; `string'
PUBLIC	??_C@_0BMA@CFMJ@The?5Innkeeper?5has?5little?5busines@ ; `string'
PUBLIC	??_C@_0CA@JCEK@Can?8t?5a?5fella?5drink?5in?5peace?$DP?5?$HM?$AA@ ; `string'
PUBLIC	??_C@_0EN@EJNE@The?5gal?5who?5brings?5the?5drinks?$DP?5O@ ; `string'
PUBLIC	??_C@_0OE@FMDI@Why?5don?8t?5that?5old?5crone?5do?5some@ ; `string'
PUBLIC	??_C@_0JP@FFDK@Cain?5isn?8t?5what?5he?5says?5he?5is?4?5S@ ; `string'
PUBLIC	??_C@_0IN@FPMD@Griswold?$DP?5Good?5old?5Griswold?4?5I?5l@ ; `string'
PUBLIC	??_C@_0OJ@JIFC@Hehehe?0?5I?5like?5Pepin?4?5He?5really?5@ ; `string'
PUBLIC	??_C@_0NP@GHOO@Wirt?5is?5a?5kid?5with?5more?5problems@ ; `string'
PUBLIC	??_C@_0NM@ICEM@Ogden?5is?5the?5best?5man?5in?5town?4?5I@ ; `string'
PUBLIC	??_C@_0LC@DAKE@I?5wanna?5tell?5ya?5sumthin?8?0?5?8cause@ ; `string'
PUBLIC	??_C@_0LI@HDAI@No?5one?5ever?5lis?4?4?4?5listens?5to?5me@ ; `string'
PUBLIC	??_C@_0PP@GFC@I?5know?5you?5gots?5your?5own?5ideas?0?5@ ; `string'
PUBLIC	??_C@_0OD@HAHJ@If?5I?5was?5you?4?4?4?5and?5I?5ain?8t?4?4?4?5b@ ; `string'
PUBLIC	??_C@_0CJ@MHFH@I?5sense?5a?5soul?5in?5search?5of?5answ@ ; `string'
PUBLIC	??_C@_0NN@NKBO@Wisdom?5is?5earned?0?5not?5given?4?5If?5@ ; `string'
PUBLIC	??_C@_0BJK@COGJ@The?5greatest?5power?5is?5often?5the?5@ ; `string'
PUBLIC	??_C@_0BFO@DMBJ@Though?5the?5heat?5of?5the?5sun?5is?5be@ ; `string'
PUBLIC	??_C@_0MK@CCCJ@The?5sum?5of?5our?5knowledge?5is?5in?5t@ ; `string'
PUBLIC	??_C@_0MB@NOML@To?5a?5man?5who?5only?5knows?5Iron?0?5th@ ; `string'
PUBLIC	??_C@_0OO@INKM@Corruption?5has?5the?5strength?5of?5d@ ; `string'
PUBLIC	??_C@_0BAK@MNNG@A?5chest?5opened?5in?5darkness?5holds@ ; `string'
PUBLIC	??_C@_0BBH@CNBM@The?5higher?5you?5place?5your?5faith?5@ ; `string'
PUBLIC	??_C@_0BEB@BIKJ@The?5hand?0?5the?5heart?5and?5the?5mind@ ; `string'
PUBLIC	??_C@_0BMP@FECG@There?5is?5much?5about?5the?5future?5w@ ; `string'
PUBLIC	??_C@_0CAD@CBLM@Earthen?5walls?5and?5thatched?5canop@ ; `string'
PUBLIC	??_C@_0BI@JGAM@Pssst?4?4?4?5over?5here?4?4?4?5?$HM?$AA@ ; `string'
PUBLIC	??_C@_0NH@EBOI@Not?5everyone?5in?5Tristram?5has?5a?5u@ ; `string'
PUBLIC	??_C@_0GC@NCKB@Don?8t?5trust?5everything?5the?5drunk@ ; `string'
PUBLIC	??_C@_0PK@MPPC@In?5case?5you?5haven?8t?5noticed?0?5I?5d@ ; `string'
PUBLIC	??_C@_0BBB@PNON@I?5guess?5I?5owe?5the?5blacksmith?5my?5@ ; `string'
PUBLIC	??_C@_0BBM@BDD@If?5I?5were?5a?5few?5years?5older?0?5I?5w@ ; `string'
PUBLIC	??_C@_0NM@EPHD@Cain?5knows?5too?5much?4?5He?5scares?5t@ ; `string'
PUBLIC	??_C@_0BGL@PMGC@Farnham?5?9?5now?5there?5is?5a?5man?5wit@ ; `string'
PUBLIC	??_C@_0KE@KLJD@As?5long?5as?5you?5don?8t?5need?5anythi@ ; `string'
PUBLIC	??_C@_0BDA@IAAA@Adria?5truly?5bothers?5me?4?5Sure?0?5Ca@ ; `string'
PUBLIC	??_C@_0BBB@IGFO@Ogden?5is?5a?5fool?5for?5staying?5here@ ; `string'
PUBLIC	??_C@_0MD@OINA@Beyond?5the?5Hall?5of?5Heroes?5lies?5t@ ; `string'
PUBLIC	??_C@_0HL@PJLJ@?4?4?4and?5so?0?5locked?5beyond?5the?5Gat@ ; `string'
PUBLIC	??_C@_0BAA@NLCC@I?5can?5see?5what?5you?5see?5not?4?6Visi@ ; `string'
PUBLIC	??_C@_0OJ@FKCI@The?5armories?5of?5Hell?5are?5home?5to@ ; `string'
PUBLIC	??_C@_0BPE@JMJL@Take?5heed?5and?5bear?5witness?5to?5th@ ; `string'
PUBLIC	??_C@_0BNB@LDEK@Take?5heed?5and?5bear?5witness?5to?5th@ ; `string'
PUBLIC	??_C@_0EEK@CKGF@Take?5heed?5and?5bear?5witness?5to?5th@ ; `string'
PUBLIC	??_C@_0BPE@KCBK@So?5it?5came?5to?5be?5that?5there?5was?5@ ; `string'
PUBLIC	??_C@_0BHF@PIMJ@Many?5demons?5traveled?5to?5the?5mort@ ; `string'
PUBLIC	??_C@_0DDH@IDMK@So?5it?5came?5to?5be?5that?5the?5Three?5@ ; `string'
PUBLIC	??_C@_0BLG@EIJK@All?5praises?5to?5Diablo?5?9?5Lord?5of?5@ ; `string'
PUBLIC	??_C@_0BKF@KIGP@Glory?5and?5Approbation?5to?5Diablo?5@ ; `string'
PUBLIC	??_C@_0CHD@HMLO@Hail?5and?5Sacrifice?5to?5Diablo?5?9?5L@ ; `string'
PUBLIC	??_C@_0CGO@ICAH@Thank?5goodness?5you?8ve?5returned?$CB?6@ ; `string'
;	COMDAT ??_C@_0BHP@MNPM@?5Ahh?0?5the?5story?5of?5our?5King?0?5is?5@
_DATA	SEGMENT
??_C@_0BHP@MNPM@?5Ahh?0?5the?5story?5of?5our?5King?0?5is?5@ DB ' Ahh, the'
	DB	' story of our King, is it? The tragic fall of Leoric was a ha'
	DB	'rsh blow to this land. The people always loved the King, and '
	DB	'now they live in mortal fear of him. The question that I keep'
	DB	' asking myself is how he could have fallen so far from the Li'
	DB	'ght, as Leoric had always been the holiest of men. Only the v'
	DB	'ilest powers of Hell could so utterly destroy a man from with'
	DB	'in... |', 00H				; `string'
_DATA	ENDS
;	COMDAT ??_C@_0DOE@KIMK@The?5village?5needs?5your?5help?0?5goo@
_DATA	SEGMENT
??_C@_0DOE@KIMK@The?5village?5needs?5your?5help?0?5goo@ DB 'The village n'
	DB	'eeds your help, good master! Some months ago King Leoric''s s'
	DB	'on, Prince Albrecht, was kidnapped. The King went into a rage'
	DB	' and scoured the village for his missing child. With each pas'
	DB	'sing day, Leoric seemed to slip deeper into madness. He sough'
	DB	't to blame innocent townsfolk for the boy''s disappearance an'
	DB	'd had them brutally executed. Less than half of us survived h'
	DB	'is insanity...', 0aH, ' ', 0aH, 'The King''s Knights and Prie'
	DB	'sts tried to placate him, but he turned against them and sadl'
	DB	'y, they were forced to kill him. With his dying breath the Ki'
	DB	'ng called down a terrible curse upon his former followers. He'
	DB	' vowed that they would serve him in darkness forever...', 0aH
	DB	' ', 0aH, 'This is where things take an even darker twist than'
	DB	' I thought possible! Our former King has risen from his etern'
	DB	'al sleep and now commands a legion of undead minions within t'
	DB	'he Labyrinth. His body was buried in a tomb three levels bene'
	DB	'ath the Cathedral. Please, good master, put his soul at ease '
	DB	'by destroying his now cursed form... |', 00H ; `string'
_DATA	ENDS
;	COMDAT ??_C@_0JP@DHAN@As?5I?5told?5you?0?5good?5master?0?5the?5@
_DATA	SEGMENT
??_C@_0JP@DHAN@As?5I?5told?5you?0?5good?5master?0?5the?5@ DB 'As I told y'
	DB	'ou, good master, the King was entombed three levels below. He'
	DB	'''s down there, waiting in the putrid darkness for his chance'
	DB	' to destroy this land... |', 00H		; `string'
_DATA	ENDS
;	COMDAT ??_C@_0PG@FDPL@The?5curse?5of?5our?5King?5has?5passed@
_DATA	SEGMENT
??_C@_0PG@FDPL@The?5curse?5of?5our?5King?5has?5passed@ DB 'The curse of o'
	DB	'ur King has passed, but I fear that it was only part of a gre'
	DB	'ater evil at work. However, we may yet be saved from the dark'
	DB	'ness that consumes our land, for your victory is a good omen.'
	DB	' May Light guide you on your way, good master. |', 00H ; `string'
_DATA	ENDS
;	COMDAT ??_C@_0BBN@MEID@The?5loss?5of?5his?5son?5was?5too?5much@
_DATA	SEGMENT
??_C@_0BBN@MEID@The?5loss?5of?5his?5son?5was?5too?5much@ DB 'The loss of '
	DB	'his son was too much for King Leoric. I did what I could to e'
	DB	'ase his madness, but in the end it overcame him. A black curs'
	DB	'e has hung over this kingdom from that day forward, but perha'
	DB	'ps if you were to free his spirit from his earthly prison, th'
	DB	'e curse would be lifted... |', 00H		; `string'
_DATA	ENDS
;	COMDAT ??_C@_0KG@OPKF@I?5don?8t?5like?5to?5think?5about?5how?5@
_DATA	SEGMENT
??_C@_0KG@OPKF@I?5don?8t?5like?5to?5think?5about?5how?5@ DB 'I don''t lik'
	DB	'e to think about how the King died. I like to remember him fo'
	DB	'r the kind and just ruler that he was. His death was so sad a'
	DB	'nd seemed very wrong, somehow. |', 00H	; `string'
_DATA	ENDS
;	COMDAT ??_C@_0BCO@NBMD@I?5made?5many?5of?5the?5weapons?5and?5m@
_DATA	SEGMENT
??_C@_0BCO@NBMD@I?5made?5many?5of?5the?5weapons?5and?5m@ DB 'I made many '
	DB	'of the weapons and most of the armor that King Leoric used to'
	DB	' outfit his knights. I even crafted a huge two-handed sword o'
	DB	'f the finest mithril for him, as well as a field crown to mat'
	DB	'ch. I still cannot believe how he died, but it must have been'
	DB	' some sinister force that drove him insane! |', 00H ; `string'
_DATA	ENDS
;	COMDAT ??_C@_0HM@OOBO@I?5don?8t?5care?5about?5that?4?5Listen?0@
_DATA	SEGMENT
??_C@_0HM@OOBO@I?5don?8t?5care?5about?5that?4?5Listen?0@ DB 'I don''t car'
	DB	'e about that. Listen, no skeleton is gonna be MY king. Leoric'
	DB	' is King. King, so you hear me? HAIL TO THE KING! |', 00H ; `string'
_DATA	ENDS
;	COMDAT ??_C@_0PJ@HFNP@The?5dead?5who?5walk?5among?5the?5livi@
_DATA	SEGMENT
??_C@_0PJ@HFNP@The?5dead?5who?5walk?5among?5the?5livi@ DB 'The dead who w'
	DB	'alk among the living follow the cursed King. He holds the pow'
	DB	'er to raise yet more warriors for an ever growing army of the'
	DB	' undead. If you do not stop his reign, he will surely march a'
	DB	'cross this land and slay all who still live here. |', 00H ; `string'
_DATA	ENDS
;	COMDAT ??_C@_0OH@NJDG@Look?0?5I?8m?5running?5a?5business?5her@
_DATA	SEGMENT
??_C@_0OH@NJDG@Look?0?5I?8m?5running?5a?5business?5her@ DB 'Look, I''m ru'
	DB	'nning a business here. I don''t sell information, and I don'''
	DB	't care about some King that''s been dead longer than I''ve be'
	DB	'en alive. If you need something to use against this King of t'
	DB	'he undead, then I can help you out... |', 00H ; `string'
_DATA	ENDS
;	COMDAT ??_C@_0GF@OLJL@The?5warmth?5of?5life?5has?5entered?5m@
_DATA	SEGMENT
??_C@_0GF@OLJL@The?5warmth?5of?5life?5has?5entered?5m@ DB 'The warmth of '
	DB	'life has entered my tomb. Prepare yourself, mortal, to serve '
	DB	'my Master for eternity! |', 00H		; `string'
_DATA	ENDS
;	COMDAT ??_C@_0BFJ@GIND@I?5see?5that?5this?5strange?5behavior@
_DATA	SEGMENT
??_C@_0BFJ@GIND@I?5see?5that?5this?5strange?5behavior@ DB 'I see that thi'
	DB	's strange behavior puzzles you as well. I would surmise that '
	DB	'since many demons fear the light of the sun and believe that '
	DB	'it holds great power, it may be that the rising sun depicted '
	DB	'on the sign you speak of has led them to believe that it too '
	DB	'holds some arcane powers. Hmm, perhaps they are not all as sm'
	DB	'art as we had feared... |', 00H		; `string'
_DATA	ENDS
;	COMDAT ??_C@_0CDH@BPJH@Master?0?5I?5have?5a?5strange?5experie@
_DATA	SEGMENT
??_C@_0CDH@BPJH@Master?0?5I?5have?5a?5strange?5experie@ DB 'Master, I hav'
	DB	'e a strange experience to relate. I know that you have a grea'
	DB	't knowledge of those monstrosities that inhabit the labyrinth'
	DB	', and this is something that I cannot understand for the very'
	DB	' life of me... I was awakened during the night by a scraping '
	DB	'sound just outside of my tavern. When I looked out from my be'
	DB	'droom, I saw the shapes of small demon-like creatures in the '
	DB	'inn yard. After a short time, they ran off, but not before st'
	DB	'ealing the sign to my inn. I don''t know why the demons would'
	DB	' steal my sign but leave my family in peace... ''tis strange,'
	DB	' no? |', 00H				; `string'
_DATA	ENDS
;	COMDAT ??_C@_0BFI@OLP@Oh?0?5you?5didn?8t?5have?5to?5bring?5bac@
_DATA	SEGMENT
??_C@_0BFI@OLP@Oh?0?5you?5didn?8t?5have?5to?5bring?5bac@ DB 'Oh, you didn'
	DB	'''t have to bring back my sign, but I suppose that it does sa'
	DB	've me the expense of having another one made. Well, let me se'
	DB	'e, what could I give you as a fee for finding it? Hmmm, what '
	DB	'have we here... ah, yes! This cap was left in one of the room'
	DB	's by a magician who stayed here some time ago. Perhaps it may'
	DB	' be of some value to you. |', 00H		; `string'
_DATA	ENDS
;	COMDAT ??_C@_0MM@NPKM@My?5goodness?0?5demons?5running?5abou@
_DATA	SEGMENT
??_C@_0MM@NPKM@My?5goodness?0?5demons?5running?5abou@ DB 'My goodness, de'
	DB	'mons running about the village at night, pillaging our homes '
	DB	'- is nothing sacred? I hope that Ogden and Garda are all righ'
	DB	't. I suppose that they would come to see me if they were hurt'
	DB	'... |', 00H					; `string'
_DATA	ENDS
;	COMDAT ??_C@_0KF@OELJ@Oh?5my?$CB?5Is?5that?5where?5the?5sign?5we@
_DATA	SEGMENT
??_C@_0KF@OELJ@Oh?5my?$CB?5Is?5that?5where?5the?5sign?5we@ DB 'Oh my! Is '
	DB	'that where the sign went? My Grandmother and I must have slep'
	DB	't right through the whole thing. Thank the Light that those m'
	DB	'onsters didn''t attack the inn. |', 00H	; `string'
_DATA	ENDS
;	COMDAT ??_C@_0LD@FAMD@Demons?5stole?5Ogden?8s?5sign?0?5you?5s@
_DATA	SEGMENT
??_C@_0LD@FAMD@Demons?5stole?5Ogden?8s?5sign?0?5you?5s@ DB 'Demons stole '
	DB	'Ogden''s sign, you say? That doesn''t sound much like the atr'
	DB	'ocities I''ve heard of - or seen. ', 0aH, ' ', 0aH, 'Demons a'
	DB	're concerned with ripping out your heart, not your signpost. '
	DB	'|', 00H					; `string'
_DATA	ENDS
;	COMDAT ??_C@_0PD@BOCE@You?5know?5what?5I?5think?$DP?5Somebody?5@
_DATA	SEGMENT
??_C@_0PD@BOCE@You?5know?5what?5I?5think?$DP?5Somebody?5@ DB 'You know wh'
	DB	'at I think? Somebody took that sign, and they gonna want lots'
	DB	' of money for it. If I was Ogden... and I''m not, but if I wa'
	DB	's... I''d just buy a new sign with some pretty drawing on it.'
	DB	' Maybe a nice mug of ale or a piece of cheese... |', 00H ; `string'
_DATA	ENDS
;	COMDAT ??_C@_0IH@MMMG@No?5mortal?5can?5truly?5understand?5t@
_DATA	SEGMENT
??_C@_0IH@MMMG@No?5mortal?5can?5truly?5understand?5t@ DB 'No mortal can t'
	DB	'ruly understand the mind of the demon. ', 0aH, ' ', 0aH, 'Nev'
	DB	'er let their erratic actions confuse you, as that too may be '
	DB	'their plan. |', 00H				; `string'
_DATA	ENDS
;	COMDAT ??_C@_0LB@NBLI@What?5?9?5is?5he?5saying?5I?5took?5that?$DP@
_DATA	SEGMENT
??_C@_0LB@NBLI@What?5?9?5is?5he?5saying?5I?5took?5that?$DP@ DB 'What - is'
	DB	' he saying I took that? I suppose that Griswold is on his sid'
	DB	'e, too. ', 0aH, ' ', 0aH, 'Look, I got over simple sign steal'
	DB	'ing months ago. You can''t turn a profit on a piece of wood. '
	DB	'|', 00H					; `string'
_DATA	ENDS
;	COMDAT ??_C@_0MD@GIG@Hey?5?9?5You?5that?5one?5that?5kill?5all@
_DATA	SEGMENT
??_C@_0MD@GIG@Hey?5?9?5You?5that?5one?5that?5kill?5all@ DB 'Hey - You tha'
	DB	't one that kill all! You get me Magic Banner or we attack! Yo'
	DB	'u no leave with life! You kill big uglies and give back Magic'
	DB	'. Go past corner and door, find uglies. You give, you go! |', 00H ; `string'
_DATA	ENDS
;	COMDAT ??_C@_0DL@CGCM@You?5kill?5uglies?0?5get?5banner?4?5You@
_DATA	SEGMENT
??_C@_0DL@CGCM@You?5kill?5uglies?0?5get?5banner?4?5You@ DB 'You kill ugli'
	DB	'es, get banner. You bring to me, or else... |', 00H ; `string'
_DATA	ENDS
;	COMDAT ??_C@_0EG@COJF@You?5give?$CB?5Yes?0?5good?$CB?5Go?5now?0?5we?5@
_DATA	SEGMENT
??_C@_0EG@COJF@You?5give?$CB?5Yes?0?5good?$CB?5Go?5now?0?5we?5@ DB 'You g'
	DB	'ive! Yes, good! Go now, we strong. We kill all with big Magic'
	DB	'! |', 00H					; `string'
_DATA	ENDS
;	COMDAT ??_C@_0ENC@DIKO@This?5does?5not?5bode?5well?0?5for?5it?5@
_DATA	SEGMENT
??_C@_0ENC@DIKO@This?5does?5not?5bode?5well?0?5for?5it?5@ DB 'This does n'
	DB	'ot bode well, for it confirms my darkest fears. While I did n'
	DB	'ot allow myself to believe the ancient legends, I cannot deny'
	DB	' them now. Perhaps the time has come to reveal who I am.', 0aH
	DB	' ', 0aH, 'My true name is Deckard Cain the Elder, and I am th'
	DB	'e last descendant of an ancient Brotherhood that was dedicate'
	DB	'd to safeguarding the secrets of a timeless evil. An evil tha'
	DB	't quite obviously has now been released.', 0aH, ' ', 0aH, 'Th'
	DB	'e Archbishop Lazarus, once King Leoric''s most trusted adviso'
	DB	'r, led a party of simple townsfolk into the Labyrinth to find'
	DB	' the King''s missing son, Albrecht. Quite some time passed be'
	DB	'fore they returned, and only a few of them escaped with their'
	DB	' lives.', 0aH, ' ', 0aH, 'Curse me for a fool! I should have '
	DB	'suspected his veiled treachery then. It must have been Lazaru'
	DB	's himself who kidnapped Albrecht and has since hidden him wit'
	DB	'hin the Labyrinth. I do not understand why the Archbishop tur'
	DB	'ned to the darkness, or what his interest is in the child. un'
	DB	'less he means to sacrifice him to his dark masters!', 0aH, ' '
	DB	0aH, 'That must be what he has planned! The survivors of his '''
	DB	'rescue party'' say that Lazarus was last seen running into th'
	DB	'e deepest bowels of the labyrinth. You must hurry and save th'
	DB	'e prince from the sacrificial blade of this demented fiend! |'
	DB	00H						; `string'
_DATA	ENDS
;	COMDAT ??_C@_0HP@JHAM@You?5must?5hurry?5and?5rescue?5Albrec@
_DATA	SEGMENT
??_C@_0HP@JHAM@You?5must?5hurry?5and?5rescue?5Albrec@ DB 'You must hurry '
	DB	'and rescue Albrecht from the hands of Lazarus. The prince and'
	DB	' the people of this kingdom are counting on you! |', 00H ; `string'
_DATA	ENDS
;	COMDAT ??_C@_0CGP@BPPO@Your?5story?5is?5quite?5grim?0?5my?5fri@
_DATA	SEGMENT
??_C@_0CGP@BPPO@Your?5story?5is?5quite?5grim?0?5my?5fri@ DB 'Your story i'
	DB	's quite grim, my friend. Lazarus will surely burn in Hell for'
	DB	' his horrific deed. The boy that you describe is not our prin'
	DB	'ce, but I believe that Albrecht may yet be in danger. The sym'
	DB	'bol of power that you speak of must be a portal in the very h'
	DB	'eart of the labyrinth.', 0aH, ' ', 0aH, 'Know this, my friend'
	DB	' - The evil that you move against is the dark Lord of Terror.'
	DB	' He is known to mortal men as Diablo. It was he who was impri'
	DB	'soned within the Labyrinth many centuries ago and I fear that'
	DB	' he seeks to once again sow chaos in the realm of mankind. Yo'
	DB	'u must venture through the portal and destroy Diablo before i'
	DB	't is too late! |', 00H			; `string'
_DATA	ENDS
;	COMDAT ??_C@_0BBP@HECL@Lazarus?5was?5the?5Archbishop?5who?5l@
_DATA	SEGMENT
??_C@_0BBP@HECL@Lazarus?5was?5the?5Archbishop?5who?5l@ DB 'Lazarus was th'
	DB	'e Archbishop who led many of the townspeople into the labyrin'
	DB	'th. I lost many good friends that day, and Lazarus never retu'
	DB	'rned. I suppose he was killed along with most of the others. '
	DB	'If you would do me a favor, good master - please do not talk '
	DB	'to Farnham about that day. |', 00H		; `string'
_DATA	ENDS
;	COMDAT ??_C@_01KALE@?$HM?$AA@
_DATA	SEGMENT
??_C@_01KALE@?$HM?$AA@ DB '|', 00H			; `string'
_DATA	ENDS
;	COMDAT ??_C@_0BCK@MONF@I?5was?5shocked?5when?5I?5heard?5of?5wh@
_DATA	SEGMENT
??_C@_0BCK@MONF@I?5was?5shocked?5when?5I?5heard?5of?5wh@ DB 'I was shocke'
	DB	'd when I heard of what the townspeople were planning to do th'
	DB	'at night. I thought that of all people, Lazarus would have ha'
	DB	'd more sense than that. He was an Archbishop, and always seem'
	DB	'ed to care so much for the townsfolk of Tristram. So many wer'
	DB	'e injured, I could not save them all... |', 00H ; `string'
_DATA	ENDS
;	COMDAT ??_C@_0OB@HLFK@I?5remember?5Lazarus?5as?5being?5a?5ve@
_DATA	SEGMENT
??_C@_0OB@HLFK@I?5remember?5Lazarus?5as?5being?5a?5ve@ DB 'I remember Laz'
	DB	'arus as being a very kind and giving man. He spoke at my moth'
	DB	'er''s funeral, and was supportive of my grandmother and mysel'
	DB	'f in a very troubled time. I pray every night that somehow, h'
	DB	'e is still alive and safe. |', 00H		; `string'
_DATA	ENDS
;	COMDAT ??_C@_0BBG@OBFK@I?5was?5there?5when?5Lazarus?5led?5us?5@
_DATA	SEGMENT
??_C@_0BBG@OBFK@I?5was?5there?5when?5Lazarus?5led?5us?5@ DB 'I was there '
	DB	'when Lazarus led us into the labyrinth. He spoke of holy retr'
	DB	'ibution, but when we started fighting those hellspawn, he did'
	DB	' not so much as lift his mace against them. He just ran deepe'
	DB	'r into the dim, endless chambers that were filled with the se'
	DB	'rvants of darkness! |', 00H			; `string'
_DATA	ENDS
;	COMDAT ??_C@_0MP@JODH@They?5stab?0?5then?5bite?0?5then?5they?8@
_DATA	SEGMENT
??_C@_0MP@JODH@They?5stab?0?5then?5bite?0?5then?5they?8@ DB 'They stab, t'
	DB	'hen bite, then they''re all around you. Liar! LIAR! They''re '
	DB	'all dead! Dead! Do you hear me? They just keep falling and fa'
	DB	'lling... their blood spilling out all over the floor... all h'
	DB	'is fault... |', 00H				; `string'
_DATA	ENDS
;	COMDAT ??_C@_0NH@LMDN@I?5did?5not?5know?5this?5Lazarus?5of?5w@
_DATA	SEGMENT
??_C@_0NH@LMDN@I?5did?5not?5know?5this?5Lazarus?5of?5w@ DB 'I did not kno'
	DB	'w this Lazarus of whom you speak, but I do sense a great conf'
	DB	'lict within his being. He poses a great danger, and will stop'
	DB	' at nothing to serve the powers of darkness which have claime'
	DB	'd him as theirs. |', 00H			; `string'
_DATA	ENDS
;	COMDAT ??_C@_0MA@CGJN@Yes?0?5the?5righteous?5Lazarus?0?5who?5@
_DATA	SEGMENT
??_C@_0MA@CGJN@Yes?0?5the?5righteous?5Lazarus?0?5who?5@ DB 'Yes, the righ'
	DB	'teous Lazarus, who was sooo effective against those monsters '
	DB	'down there. Didn''t help save my leg, did it? Look, I''ll giv'
	DB	'e you a free piece of advice. Ask Farnham, he was there. |', 00H ; `string'
_DATA	ENDS
;	COMDAT ??_C@_0JA@BFOI@Abandon?5your?5foolish?5quest?4?5All?5@
_DATA	SEGMENT
??_C@_0JA@BFOI@Abandon?5your?5foolish?5quest?4?5All?5@ DB 'Abandon your f'
	DB	'oolish quest. All that awaits you is the wrath of my Master! '
	DB	'You are too late to save the child. Now you will join him in '
	DB	'Hell! |', 00H				; `string'
_DATA	ENDS
;	COMDAT ??_C@_02HFOG@?5?$HM?$AA@
_DATA	SEGMENT
??_C@_02HFOG@?5?$HM?$AA@ DB ' |', 00H			; `string'
_DATA	ENDS
;	COMDAT ??_C@_0BDM@EGPP@Hmm?0?5I?5don?8t?5know?5what?5I?5can?5rea@
_DATA	SEGMENT
??_C@_0BDM@EGPP@Hmm?0?5I?5don?8t?5know?5what?5I?5can?5rea@ DB 'Hmm, I don'
	DB	'''t know what I can really tell you about this that will be o'
	DB	'f any help. The water that fills our wells comes from an unde'
	DB	'rground spring. I have heard of a tunnel that leads to a grea'
	DB	't lake - perhaps they are one and the same. Unfortunately, I '
	DB	'do not know what would cause our water supply to be tainted. '
	DB	'|', 00H					; `string'
_DATA	ENDS
;	COMDAT ??_C@_0PF@KKBF@I?5have?5always?5tried?5to?5keep?5a?5la@
_DATA	SEGMENT
??_C@_0PF@KKBF@I?5have?5always?5tried?5to?5keep?5a?5la@ DB 'I have always'
	DB	' tried to keep a large supply of foodstuffs and drink in our '
	DB	'storage cellar, but with the entire town having no source of '
	DB	'fresh water, even our stores will soon run dry. ', 0aH, ' ', 0aH
	DB	'Please, do what you can or I don''t know what we will do. |', 00H ; `string'
_DATA	ENDS
;	COMDAT ??_C@_0BGC@IGFC@I?8m?5glad?5I?5caught?5up?5to?5you?5in?5t@
_DATA	SEGMENT
??_C@_0BGC@IGFC@I?8m?5glad?5I?5caught?5up?5to?5you?5in?5t@ DB 'I''m glad '
	DB	'I caught up to you in time! Our wells have become brackish an'
	DB	'd stagnant and some of the townspeople have become ill drinki'
	DB	'ng from them. Our reserves of fresh water are quickly running'
	DB	' dry. I believe that there is a passage that leads to the spr'
	DB	'ings that serve our town. Please find what has caused this ca'
	DB	'lamity, or we all will surely perish. |', 00H ; `string'
_DATA	ENDS
;	COMDAT ??_C@_0JA@FAIC@Please?0?5you?5must?5hurry?4?5Every?5ho@
_DATA	SEGMENT
??_C@_0JA@FAIC@Please?0?5you?5must?5hurry?4?5Every?5ho@ DB 'Please, you m'
	DB	'ust hurry. Every hour that passes brings us closer to having '
	DB	'no water to drink. ', 0aH, ' ', 0aH, 'We cannot survive for l'
	DB	'ong without your help. |', 00H		; `string'
_DATA	ENDS
;	COMDAT ??_C@_0BBL@NIPL@What?8s?5that?5you?5say?5?9?5the?5mere?5p@
_DATA	SEGMENT
??_C@_0BBL@NIPL@What?8s?5that?5you?5say?5?9?5the?5mere?5p@ DB 'What''s th'
	DB	'at you say - the mere presence of the demons had caused the w'
	DB	'ater to become tainted? Oh, truly a great evil lurks beneath '
	DB	'our town, but your perseverance and courage gives us hope. Pl'
	DB	'ease take this ring - perhaps it will aid you in the destruct'
	DB	'ion of such vile creatures. |', 00H		; `string'
_DATA	ENDS
;	COMDAT ??_C@_0IG@HEHM@My?5grandmother?5is?5very?5weak?0?5and@
_DATA	SEGMENT
??_C@_0IG@HEHM@My?5grandmother?5is?5very?5weak?0?5and@ DB 'My grandmother'
	DB	' is very weak, and Garda says that we cannot drink the water '
	DB	'from the wells. Please, can you do something to help us? |', 00H ; `string'
_DATA	ENDS
;	COMDAT ??_C@_0ME@FEIF@Pepin?5has?5told?5you?5the?5truth?4?5We@
_DATA	SEGMENT
??_C@_0ME@FEIF@Pepin?5has?5told?5you?5the?5truth?4?5We@ DB 'Pepin has tol'
	DB	'd you the truth. We will need fresh water badly, and soon. I '
	DB	'have tried to clear one of the smaller wells, but it reeks of'
	DB	' stagnant filth. It must be getting clogged at the source. |', 00H ; `string'
_DATA	ENDS
;	COMDAT ??_C@_0BD@DINJ@You?5drink?5water?$DP?5?$HM?$AA@
_DATA	SEGMENT
??_C@_0BD@DINJ@You?5drink?5water?$DP?5?$HM?$AA@ DB 'You drink water? |', 00H ; `string'
_DATA	ENDS
;	COMDAT ??_C@_0LP@CPOP@The?5people?5of?5Tristram?5will?5die?5@
_DATA	SEGMENT
??_C@_0LP@CPOP@The?5people?5of?5Tristram?5will?5die?5@ DB 'The people of '
	DB	'Tristram will die if you cannot restore fresh water to their '
	DB	'wells. ', 0aH, ' ', 0aH, 'Know this - demons are at the heart'
	DB	' of this matter, but they remain ignorant of what they have s'
	DB	'pawned. |', 00H				; `string'
_DATA	ENDS
;	COMDAT ??_C@_0IP@PIKF@For?5once?0?5I?8m?5with?5you?4?5My?5busin@
_DATA	SEGMENT
??_C@_0IP@PIKF@For?5once?0?5I?8m?5with?5you?4?5My?5busin@ DB 'For once, I'
	DB	'''m with you. My business runs dry - so to speak - if I have '
	DB	'no market to sell to. You better find out what is going on, a'
	DB	'nd soon! |', 00H				; `string'
_DATA	ENDS
;	COMDAT ??_C@_0BKA@DFMI@A?5book?5that?5speaks?5of?5a?5chamber?5@
_DATA	SEGMENT
??_C@_0BKA@DFMI@A?5book?5that?5speaks?5of?5a?5chamber?5@ DB 'A book that '
	DB	'speaks of a chamber of human bones? Well, a Chamber of Bone i'
	DB	's mentioned in certain archaic writings that I studied in the'
	DB	' libraries of the East. These tomes inferred that when the Lo'
	DB	'rds of the underworld desired to protect great treasures, the'
	DB	'y would create domains where those who died in the attempt to'
	DB	' steal that treasure would be forever bound to defend it. A t'
	DB	'wisted, but strangely fitting, end? |', 00H	; `string'
_DATA	ENDS
;	COMDAT ??_C@_0HA@OCOF@I?5am?5afraid?5that?5I?5don?8t?5know?5an@
_DATA	SEGMENT
??_C@_0HA@OCOF@I?5am?5afraid?5that?5I?5don?8t?5know?5an@ DB 'I am afraid '
	DB	'that I don''t know anything about that, good master. Cain has'
	DB	' many books that may be of some help. |', 00H ; `string'
_DATA	ENDS
;	COMDAT ??_C@_0FJ@INNK@This?5sounds?5like?5a?5very?5dangerou@
_DATA	SEGMENT
??_C@_0FJ@INNK@This?5sounds?5like?5a?5very?5dangerou@ DB 'This sounds lik'
	DB	'e a very dangerous place. If you venture there, please take g'
	DB	'reat care. |', 00H				; `string'
_DATA	ENDS
;	COMDAT ??_C@_0GM@IJJO@I?5am?5afraid?5that?5I?5haven?8t?5heard@
_DATA	SEGMENT
??_C@_0GM@IJJO@I?5am?5afraid?5that?5I?5haven?8t?5heard@ DB 'I am afraid t'
	DB	'hat I haven''t heard anything about that. Perhaps Cain the St'
	DB	'oryteller could be of some help. |', 00H	; `string'
_DATA	ENDS
;	COMDAT ??_C@_0JP@KNGP@I?5know?5nothing?5of?5this?5place?0?5bu@
_DATA	SEGMENT
??_C@_0JP@KNGP@I?5know?5nothing?5of?5this?5place?0?5bu@ DB 'I know nothin'
	DB	'g of this place, but you may try asking Cain. He talks about '
	DB	'many things, and it would not surprise me if he had some answ'
	DB	'ers to your question. |', 00H		; `string'
_DATA	ENDS
;	COMDAT ??_C@_0OF@LJAJ@Okay?0?5so?5listen?4?5There?8s?5this?5ch@
_DATA	SEGMENT
??_C@_0OF@LJAJ@Okay?0?5so?5listen?4?5There?8s?5this?5ch@ DB 'Okay, so lis'
	DB	'ten. There''s this chamber of wood, see. And his wife, you kn'
	DB	'ow - her - tells the tree... cause you gotta wait. Then I say'
	DB	's, that might work against him, but if you think I''m gonna P'
	DB	'AY for this... you... uh... yeah. |', 00H	; `string'
_DATA	ENDS
;	COMDAT ??_C@_0JE@BFIG@You?5will?5become?5an?5eternal?5serva@
_DATA	SEGMENT
??_C@_0JE@BFIG@You?5will?5become?5an?5eternal?5serva@ DB 'You will become'
	DB	' an eternal servant of the dark lords should you perish withi'
	DB	'n this cursed domain. ', 0aH, ' ', 0aH, 'Enter the Chamber of'
	DB	' Bone at your own peril. |', 00H		; `string'
_DATA	ENDS
;	COMDAT ??_C@_0MN@BLMN@A?5vast?5and?5mysterious?5treasure?0?5@
_DATA	SEGMENT
??_C@_0MN@BLMN@A?5vast?5and?5mysterious?5treasure?0?5@ DB 'A vast and mys'
	DB	'terious treasure, you say? Maybe I could be interested in pic'
	DB	'king up a few things from you... or better yet, don''t you ne'
	DB	'ed some rare and expensive supplies to get you through this o'
	DB	'rdeal? |', 00H				; `string'
_DATA	ENDS
;	COMDAT ??_C@_0BGB@OLOM@It?5seems?5that?5the?5Archbishop?5Laz@
_DATA	SEGMENT
??_C@_0BGB@OLOM@It?5seems?5that?5the?5Archbishop?5Laz@ DB 'It seems that '
	DB	'the Archbishop Lazarus goaded many of the townsmen into ventu'
	DB	'ring into the Labyrinth to find the King''s missing son. He p'
	DB	'layed upon their fears and whipped them into a frenzied mob. '
	DB	'None of them were prepared for what lay within the cold earth'
	DB	'... Lazarus abandoned them down there - left in the clutches '
	DB	'of unspeakable horrors - to die. |', 00H	; `string'
_DATA	ENDS
;	COMDAT ??_C@_0HL@INAO@Yes?0?5Farnham?5has?5mumbled?5somethi@
_DATA	SEGMENT
??_C@_0HL@INAO@Yes?0?5Farnham?5has?5mumbled?5somethi@ DB 'Yes, Farnham ha'
	DB	's mumbled something about a hulking brute who wielded a fierc'
	DB	'e weapon. I believe he called him a butcher. |', 00H ; `string'
_DATA	ENDS
;	COMDAT ??_C@_0BKA@IIOP@By?5the?5Light?0?5I?5know?5of?5this?5vil@
_DATA	SEGMENT
??_C@_0BKA@IIOP@By?5the?5Light?0?5I?5know?5of?5this?5vil@ DB 'By the Ligh'
	DB	't, I know of this vile demon. There were many that bore the s'
	DB	'cars of his wrath upon their bodies when the few survivors of'
	DB	' the charge led by Lazarus crawled from the Cathedral. I don'''
	DB	't know what he used to slice open his victims, but it could n'
	DB	'ot have been of this world. It left wounds festering with dis'
	DB	'ease and even I found them almost impossible to treat. Beware'
	DB	' if you plan to battle this fiend... |', 00H ; `string'
_DATA	ENDS
;	COMDAT ??_C@_0IK@JGGP@When?5Farnham?5said?5something?5abou@
_DATA	SEGMENT
??_C@_0IK@JGGP@When?5Farnham?5said?5something?5abou@ DB 'When Farnham sai'
	DB	'd something about a butcher killing people, I immediately dis'
	DB	'counted it. But since you brought it up, maybe it is true. |', 00H ; `string'
_DATA	ENDS
;	COMDAT ??_C@_0BII@LGOE@I?5saw?5what?5Farnham?5calls?5the?5But@
_DATA	SEGMENT
??_C@_0BII@LGOE@I?5saw?5what?5Farnham?5calls?5the?5But@ DB 'I saw what Fa'
	DB	'rnham calls the Butcher as it swathed a path through the bodi'
	DB	'es of my friends. He swung a cleaver as large as an axe, hewi'
	DB	'ng limbs and cutting down brave men where they stood. I was s'
	DB	'eparated from the fray by a host of small screeching demons a'
	DB	'nd somehow found the stairway leading out. I never saw that h'
	DB	'ideous beast again, but his blood-stained visage haunts me to'
	DB	' this day. |', 00H				; `string'
_DATA	ENDS
;	COMDAT ??_C@_0KM@DBJO@Big?$CB?5Big?5cleaver?5killing?5all?5my?5@
_DATA	SEGMENT
??_C@_0KM@DBJO@Big?$CB?5Big?5cleaver?5killing?5all?5my?5@ DB 'Big! Big cl'
	DB	'eaver killing all my friends. Couldn''t stop him, had to run '
	DB	'away, couldn''t save them. Trapped in a room with so many bod'
	DB	'ies... so many friends... NOOOOOOOOOO! |', 00H ; `string'
_DATA	ENDS
;	COMDAT ??_C@_0MO@NACH@The?5Butcher?5is?5a?5sadistic?5creatu@
_DATA	SEGMENT
??_C@_0MO@NACH@The?5Butcher?5is?5a?5sadistic?5creatu@ DB 'The Butcher is '
	DB	'a sadistic creature that delights in the torture and pain of '
	DB	'others. You have seen his handiwork in the drunkard Farnham. '
	DB	'His destruction will do much to ensure the safety of this vil'
	DB	'lage. |', 00H				; `string'
_DATA	ENDS
;	COMDAT ??_C@_0BAA@GEMB@I?5know?5more?5than?5you?8d?5think?5abo@
_DATA	SEGMENT
??_C@_0BAA@GEMB@I?5know?5more?5than?5you?8d?5think?5abo@ DB 'I know more '
	DB	'than you''d think about that grisly fiend. His little friends'
	DB	' got a hold of me and managed to get my leg before Griswold p'
	DB	'ulled me out of that hole. ', 0aH, ' ', 0aH, 'I''ll put it bl'
	DB	'untly - kill him before he kills you and adds your corpse to '
	DB	'his collection. |', 00H			; `string'
_DATA	ENDS
;	COMDAT ??_C@_0BAN@LCEP@Please?0?5listen?5to?5me?4?5The?5Archbi@
_DATA	SEGMENT
??_C@_0BAN@LCEP@Please?0?5listen?5to?5me?4?5The?5Archbi@ DB 'Please, list'
	DB	'en to me. The Archbishop Lazarus, he led us down here to find'
	DB	' the lost prince. The bastard led us into a trap! Now everyon'
	DB	'e is dead...killed by a demon he called the Butcher. Avenge u'
	DB	's! Find this Butcher and slay him so that our souls may final'
	DB	'ly rest... |', 00H				; `string'
_DATA	ENDS
;	COMDAT ??_C@_0BGN@HNHP@You?5recite?5an?5interesting?5rhyme?5@
_DATA	SEGMENT
??_C@_0BGN@HNHP@You?5recite?5an?5interesting?5rhyme?5@ DB 'You recite an '
	DB	'interesting rhyme written in a style that reminds me of other'
	DB	' works. Let me think now - what was it?', 0aH, ' ', 0aH, '...'
	DB	'Darkness shrouds the Hidden. Eyes glowing unseen with only th'
	DB	'e sounds of razor claws briefly scraping to torment those poo'
	DB	'r souls who have been made sightless for all eternity. The pr'
	DB	'ison for those so damned is named the Halls of the Blind... |'
	DB	00H						; `string'
_DATA	ENDS
;	COMDAT ??_C@_0OH@NJ@I?5never?5much?5cared?5for?5poetry?4?5O@
_DATA	SEGMENT
??_C@_0OH@NJ@I?5never?5much?5cared?5for?5poetry?4?5O@ DB 'I never much ca'
	DB	'red for poetry. Occasionally, I had cause to hire minstrels w'
	DB	'hen the inn was doing well, but that seems like such a long t'
	DB	'ime ago now. ', 0aH, ' ', 0aH, 'What? Oh, yes... uh, well, I '
	DB	'suppose you could see what someone else knows. |', 00H ; `string'
_DATA	ENDS
;	COMDAT ??_C@_0OH@IDPN@This?5does?5seem?5familiar?0?5somehow@
_DATA	SEGMENT
??_C@_0OH@IDPN@This?5does?5seem?5familiar?0?5somehow@ DB 'This does seem '
	DB	'familiar, somehow. I seem to recall reading something very mu'
	DB	'ch like that poem while researching the history of demonic af'
	DB	'flictions. It spoke of a place of great evil that... wait - y'
	DB	'ou''re not going there are you? |', 00H	; `string'
_DATA	ENDS
;	COMDAT ??_C@_0KM@GBEC@If?5you?5have?5questions?5about?5blin@
_DATA	SEGMENT
??_C@_0KM@GBEC@If?5you?5have?5questions?5about?5blin@ DB 'If you have que'
	DB	'stions about blindness, you should talk to Pepin. I know that'
	DB	' he gave my grandmother a potion that helped clear her vision'
	DB	', so maybe he can help you, too. |', 00H	; `string'
_DATA	ENDS
;	COMDAT ??_C@_0JN@PHAB@I?5am?5afraid?5that?5I?5have?5neither?5@
_DATA	SEGMENT
??_C@_0JN@PHAB@I?5am?5afraid?5that?5I?5have?5neither?5@ DB 'I am afraid t'
	DB	'hat I have neither heard nor seen a place that matches your v'
	DB	'ivid description, my friend. Perhaps Cain the Storyteller cou'
	DB	'ld be of some help. |', 00H			; `string'
_DATA	ENDS
;	COMDAT ??_C@_0EE@NKDH@Look?5here?4?4?4?5that?8s?5pretty?5funny@
_DATA	SEGMENT
??_C@_0EE@NKDH@Look?5here?4?4?4?5that?8s?5pretty?5funny@ DB 'Look here...'
	DB	' that''s pretty funny, huh? Get it? Blind - look here? |', 00H ; `string'
_DATA	ENDS
;	COMDAT ??_C@_0KG@PNIA@This?5is?5a?5place?5of?5great?5anguish@
_DATA	SEGMENT
??_C@_0KG@PNIA@This?5is?5a?5place?5of?5great?5anguish@ DB 'This is a plac'
	DB	'e of great anguish and terror, and so serves its master well.'
	DB	' ', 0aH, ' ', 0aH, 'Tread carefully or you may yourself be st'
	DB	'aying much longer than you had anticipated. |', 00H ; `string'
_DATA	ENDS
;	COMDAT ??_C@_0MA@KNFA@Lets?5see?0?5am?5I?5selling?5you?5somet@
_DATA	SEGMENT
??_C@_0MA@KNFA@Lets?5see?0?5am?5I?5selling?5you?5somet@ DB 'Lets see, am '
	DB	'I selling you something? No. Are you giving me money to tell '
	DB	'you about this? No. Are you now leaving and going to talk to '
	DB	'the storyteller who lives for this kind of thing? Yes. |', 00H ; `string'
_DATA	ENDS
;	COMDAT ??_C@_0BNM@DNCC@You?5claim?5to?5have?5spoken?5with?5La@
_DATA	SEGMENT
??_C@_0BNM@DNCC@You?5claim?5to?5have?5spoken?5with?5La@ DB 'You claim to '
	DB	'have spoken with Lachdanan? He was a great hero during his li'
	DB	'fe. Lachdanan was an honorable and just man who served his Ki'
	DB	'ng faithfully for years. But of course, you already know that'
	DB	'.', 0aH, ' ', 0aH, 'Of those who were caught within the grasp'
	DB	' of the King''s Curse, Lachdanan would be the least likely to'
	DB	' submit to the darkness without a fight, so I suppose that yo'
	DB	'ur story could be true. If I were in your place, my friend, I'
	DB	' would find a way to release him from his torture. |', 00H ; `string'
_DATA	ENDS
;	COMDAT ??_C@_0IG@IJIF@You?5speak?5of?5a?5brave?5warrior?5lon@
_DATA	SEGMENT
??_C@_0IG@IJIF@You?5speak?5of?5a?5brave?5warrior?5lon@ DB 'You speak of a'
	DB	' brave warrior long dead! I''ll have no such talk of speaking'
	DB	' with departed souls in my inn yard, thank you very much. |', 00H ; `string'
_DATA	ENDS
;	COMDAT ??_C@_0BBE@FPLK@A?5golden?5elixir?0?5you?5say?4?5I?5have@
_DATA	SEGMENT
??_C@_0BBE@FPLK@A?5golden?5elixir?0?5you?5say?4?5I?5have@ DB 'A golden el'
	DB	'ixir, you say. I have never concocted a potion of that color '
	DB	'before, so I can''t tell you how it would effect you if you w'
	DB	'ere to try to drink it. As your healer, I strongly advise tha'
	DB	't should you find such an elixir, do as Lachdanan asks and DO'
	DB	' NOT try to use it. |', 00H			; `string'
_DATA	ENDS
;	COMDAT ??_C@_0GK@DADD@I?8ve?5never?5heard?5of?5a?5Lachdanan?5@
_DATA	SEGMENT
??_C@_0GK@DADD@I?8ve?5never?5heard?5of?5a?5Lachdanan?5@ DB 'I''ve never h'
	DB	'eard of a Lachdanan before. I''m sorry, but I don''t think th'
	DB	'at I can be of much help to you. |', 00H	; `string'
_DATA	ENDS
;	COMDAT ??_C@_0BAI@PBNB@If?5it?5is?5actually?5Lachdanan?5that@
_DATA	SEGMENT
??_C@_0BAI@PBNB@If?5it?5is?5actually?5Lachdanan?5that@ DB 'If it is actua'
	DB	'lly Lachdanan that you have met, then I would advise that you'
	DB	' aid him. I dealt with him on several occasions and found him'
	DB	' to be honest and loyal in nature. The curse that fell upon t'
	DB	'he followers of King Leoric would fall especially hard upon h'
	DB	'im. |', 00H					; `string'
_DATA	ENDS
;	COMDAT ??_C@_0ID@CAPA@?5Lachdanan?5is?5dead?4?5Everybody?5kn@
_DATA	SEGMENT
??_C@_0ID@CAPA@?5Lachdanan?5is?5dead?4?5Everybody?5kn@ DB ' Lachdanan is '
	DB	'dead. Everybody knows that, and you can''t fool me into think'
	DB	'ing any other way. You can''t talk to the dead. I know! |', 00H ; `string'
_DATA	ENDS
;	COMDAT ??_C@_0JO@EHOM@You?5may?5meet?5people?5who?5are?5trap@
_DATA	SEGMENT
??_C@_0JO@EHOM@You?5may?5meet?5people?5who?5are?5trap@ DB 'You may meet p'
	DB	'eople who are trapped within the Labyrinth, such as Lachdanan'
	DB	'. ', 0aH, ' ', 0aH, 'I sense in him honor and great guilt. Ai'
	DB	'd him, and you aid all of Tristram. |', 00H	; `string'
_DATA	ENDS
;	COMDAT ??_C@_0BAO@LAIB@Wait?0?5let?5me?5guess?4?5Cain?5was?5swa@
_DATA	SEGMENT
??_C@_0BAO@LAIB@Wait?0?5let?5me?5guess?4?5Cain?5was?5swa@ DB 'Wait, let m'
	DB	'e guess. Cain was swallowed up in a gigantic fissure that ope'
	DB	'ned beneath him. He was incinerated in a ball of hellfire, an'
	DB	'd can''t answer your questions anymore. Oh, that isn''t what '
	DB	'happened? Then I guess you''ll be buying something or you''ll'
	DB	' be on your way. |', 00H			; `string'
_DATA	ENDS
;	COMDAT ??_C@_0CJA@CGLA@Please?0?5don?8t?5kill?5me?0?5just?5hear@
_DATA	SEGMENT
??_C@_0CJA@CGLA@Please?0?5don?8t?5kill?5me?0?5just?5hear@ DB 'Please, don'
	DB	'''t kill me, just hear me out. I was once Captain of King Leo'
	DB	'ric''s Knights, upholding the laws of this land with justice '
	DB	'and honor. Then his dark Curse fell upon us for the role we p'
	DB	'layed in his tragic death. As my fellow Knights succumbed to '
	DB	'their twisted fate, I fled from the King''s burial chamber, s'
	DB	'earching for some way to free myself from the Curse. I failed'
	DB	'...', 0aH, ' ', 0aH, 'I have heard of a Golden Elixir that co'
	DB	'uld lift the Curse and allow my soul to rest, but I have been'
	DB	' unable to find it. My strength now wanes, and with it the la'
	DB	'st of my humanity as well. Please aid me and find the Elixir.'
	DB	' I will repay your efforts - I swear upon my honor. |', 00H ; `string'
_DATA	ENDS
;	COMDAT ??_C@_0GF@KDAC@You?5have?5not?5found?5the?5Golden?5El@
_DATA	SEGMENT
??_C@_0GF@KDAC@You?5have?5not?5found?5the?5Golden?5El@ DB 'You have not f'
	DB	'ound the Golden Elixir. I fear that I am doomed for eternity.'
	DB	' Please, keep trying... |', 00H		; `string'
_DATA	ENDS
;	COMDAT ??_C@_0BEK@GDGJ@You?5have?5saved?5my?5soul?5from?5damn@
_DATA	SEGMENT
??_C@_0BEK@GDGJ@You?5have?5saved?5my?5soul?5from?5damn@ DB 'You have save'
	DB	'd my soul from damnation, and for that I am in your debt. If '
	DB	'there is ever a way that I can repay you from beyond the grav'
	DB	'e I will find it, but for now - take my helm. On the journey '
	DB	'I am about to take I will have little use for it. May it prot'
	DB	'ect you against the dark powers below. Go with the Light, my '
	DB	'friend... |', 00H				; `string'
_DATA	ENDS
;	COMDAT ??_C@_0CBG@BNMH@Griswold?5speaks?5of?5The?5Anvil?5of?5@
_DATA	SEGMENT
??_C@_0CBG@BNMH@Griswold?5speaks?5of?5The?5Anvil?5of?5@ DB 'Griswold spea'
	DB	'ks of The Anvil of Fury - a legendary artifact long searched '
	DB	'for, but never found. Crafted from the metallic bones of the '
	DB	'Razor Pit demons, the Anvil of Fury was smelt around the skul'
	DB	'ls of the five most powerful magi of the underworld. Carved w'
	DB	'ith runes of power and chaos, any weapon or armor forged upon'
	DB	' this Anvil will be immersed into the realm of Chaos, imbeddi'
	DB	'ng it with magical properties. It is said that the unpredicta'
	DB	'ble nature of Chaos makes it difficult to know what the outco'
	DB	'me of this smithing will be... |', 00H	; `string'
_DATA	ENDS
;	COMDAT ??_C@_0GI@PFKF@Don?8t?5you?5think?5that?5Griswold?5wo@
_DATA	SEGMENT
??_C@_0GI@PFKF@Don?8t?5you?5think?5that?5Griswold?5wo@ DB 'Don''t you thi'
	DB	'nk that Griswold would be a better person to ask about this? '
	DB	'He''s quite handy, you know. |', 00H	; `string'
_DATA	ENDS
;	COMDAT ??_C@_0OI@NGGI@If?5you?5had?5been?5looking?5for?5info@
_DATA	SEGMENT
??_C@_0OI@NGGI@If?5you?5had?5been?5looking?5for?5info@ DB 'If you had bee'
	DB	'n looking for information on the Pestle of Curing or the Silv'
	DB	'er Chalice of Purification, I could have assisted you, my fri'
	DB	'end. However, in this matter, you would be better served to s'
	DB	'peak to either Griswold or Cain. |', 00H	; `string'
_DATA	ENDS
;	COMDAT ??_C@_0BBH@BOEP@Griswold?8s?5father?5used?5to?5tell?5s@
_DATA	SEGMENT
??_C@_0BBH@BOEP@Griswold?8s?5father?5used?5to?5tell?5s@ DB 'Griswold''s f'
	DB	'ather used to tell some of us when we were growing up about a'
	DB	' giant anvil that was used to make mighty weapons. He said th'
	DB	'at when a hammer was struck upon this anvil, the ground would'
	DB	' shake with a great fury. Whenever the earth moves, I always '
	DB	'remember that story. |', 00H		; `string'
_DATA	ENDS
;	COMDAT ??_C@_0DHE@GKGO@Greetings?$CB?5It?8s?5always?5a?5pleasur@
_DATA	SEGMENT
??_C@_0DHE@GKGO@Greetings?$CB?5It?8s?5always?5a?5pleasur@ DB 'Greetings! '
	DB	'It''s always a pleasure to see one of my best customers! I kn'
	DB	'ow that you have been venturing deeper into the Labyrinth, an'
	DB	'd there is a story I was told that you may find worth the tim'
	DB	'e to listen to...', 0aH, ' ', 0aH, 'One of the men who return'
	DB	'ed from the Labyrinth told me about a mystic anvil that he ca'
	DB	'me across during his escape. His description reminded me of l'
	DB	'egends I had heard in my youth about the burning Hellforge wh'
	DB	'ere powerful weapons of magic are crafted. The legend had it '
	DB	'that deep within the Hellforge rested the Anvil of Fury! This'
	DB	' Anvil contained within it the very essence of the demonic un'
	DB	'derworld...', 0aH, ' ', 0aH, 'It is said that any weapon craf'
	DB	'ted upon the burning Anvil is imbued with great power. If thi'
	DB	's anvil is indeed the Anvil of Fury, I may be able to make yo'
	DB	'u a weapon capable of defeating even the darkest lord of Hell'
	DB	'! ', 0aH, ' ', 0aH, 'Find the Anvil for me, and I''ll get to '
	DB	'work! |', 00H				; `string'
_DATA	ENDS
;	COMDAT ??_C@_0KB@BMCB@Nothing?5yet?0?5eh?$DP?5Well?0?5keep?5sear@
_DATA	SEGMENT
??_C@_0KB@BMCB@Nothing?5yet?0?5eh?$DP?5Well?0?5keep?5sear@ DB 'Nothing ye'
	DB	't, eh? Well, keep searching. A weapon forged upon the Anvil c'
	DB	'ould be your best hope, and I am sure that I can make you one'
	DB	' of legendary proportions. |', 00H		; `string'
_DATA	ENDS
;	COMDAT ??_C@_0NG@BKNC@I?5can?5hardly?5believe?5it?$CB?5This?5is@
_DATA	SEGMENT
??_C@_0NG@BKNC@I?5can?5hardly?5believe?5it?$CB?5This?5is@ DB 'I can hardl'
	DB	'y believe it! This is the Anvil of Fury - good work, my frien'
	DB	'd. Now we''ll show those bastards that there are no weapons i'
	DB	'n Hell more deadly than those made by men! Take this and may '
	DB	'Light protect you. |', 00H			; `string'
_DATA	ENDS
;	COMDAT ??_C@_0GG@KIBD@Griswold?5can?8t?5sell?5his?5anvil?4?5W@
_DATA	SEGMENT
??_C@_0GG@KIBD@Griswold?5can?8t?5sell?5his?5anvil?4?5W@ DB 'Griswold can'''
	DB	't sell his anvil. What will he do then? And I''d be angry too'
	DB	' if someone took my anvil! |', 00H		; `string'
_DATA	ENDS
;	COMDAT ??_C@_0BBG@FNHD@There?5are?5many?5artifacts?5within?5@
_DATA	SEGMENT
??_C@_0BBG@FNHD@There?5are?5many?5artifacts?5within?5@ DB 'There are many'
	DB	' artifacts within the Labyrinth that hold powers beyond the c'
	DB	'omprehension of mortals. Some of these hold fantastic power t'
	DB	'hat can be used by either the Light or the Darkness. Securing'
	DB	' the Anvil from below could shift the course of the Sin War t'
	DB	'owards the Light. |', 00H			; `string'
_DATA	ENDS
;	COMDAT ??_C@_0IC@MEGF@If?5you?5were?5to?5find?5this?5artifac@
_DATA	SEGMENT
??_C@_0IC@MEGF@If?5you?5were?5to?5find?5this?5artifac@ DB 'If you were to'
	DB	' find this artifact for Griswold, it could put a serious damp'
	DB	'er on my business here. Awwww, you''ll never find it. |', 00H ; `string'
_DATA	ENDS
;	COMDAT ??_C@_0DGD@CLHN@The?5Gateway?5of?5Blood?5and?5the?5Hal@
_DATA	SEGMENT
??_C@_0DGD@CLHN@The?5Gateway?5of?5Blood?5and?5the?5Hal@ DB 'The Gateway o'
	DB	'f Blood and the Halls of Fire are landmarks of mystic origin.'
	DB	' Wherever this book you read from resides it is surely a plac'
	DB	'e of great power.', 0aH, ' ', 0aH, 'Legends speak of a pedest'
	DB	'al that is carved from obsidian stone and has a pool of boili'
	DB	'ng blood atop its bone encrusted surface. There are also allu'
	DB	'sions to Stones of Blood that will open a door that guards an'
	DB	' ancient treasure...', 0aH, ' ', 0aH, 'The nature of this tre'
	DB	'asure is shrouded in speculation, my friend, but it is said t'
	DB	'hat the ancient hero Arkaine placed the holy armor Valor in a'
	DB	' secret vault. Arkaine was the first mortal to turn the tide '
	DB	'of the Sin War and chase the legions of darkness back to the '
	DB	'Burning Hells.', 0aH, ' ', 0aH, 'Just before Arkaine died, hi'
	DB	's armor was hidden away in a secret vault. It is said that wh'
	DB	'en this holy armor is again needed, a hero will arise to don '
	DB	'Valor once more. Perhaps you are that hero... |', 00H ; `string'
_DATA	ENDS
;	COMDAT ??_C@_0LO@MLKC@Every?5child?5hears?5the?5story?5of?5t@
_DATA	SEGMENT
??_C@_0LO@MLKC@Every?5child?5hears?5the?5story?5of?5t@ DB 'Every child he'
	DB	'ars the story of the warrior Arkaine and his mystic armor kno'
	DB	'wn as Valor. If you could find its resting place, you would b'
	DB	'e well protected against the evil in the Labyrinth. |', 00H ; `string'
_DATA	ENDS
;	COMDAT ??_C@_0JP@BOGN@Hmm?4?4?4?5it?5sounds?5like?5something?5@
_DATA	SEGMENT
??_C@_0JP@BOGN@Hmm?4?4?4?5it?5sounds?5like?5something?5@ DB 'Hmm... it so'
	DB	'unds like something I should remember, but I''ve been so busy'
	DB	' learning new cures and creating better elixirs that I must h'
	DB	'ave forgotten. Sorry... |', 00H		; `string'
_DATA	ENDS
;	COMDAT ??_C@_0IO@FJEP@The?5story?5of?5the?5magic?5armor?5cal@
_DATA	SEGMENT
??_C@_0IO@FJEP@The?5story?5of?5the?5magic?5armor?5cal@ DB 'The story of t'
	DB	'he magic armor called Valor is something I often heard the bo'
	DB	'ys talk about. You had better ask one of the men in the villa'
	DB	'ge. |', 00H					; `string'
_DATA	ENDS
;	COMDAT ??_C@_0BBN@BIHB@The?5armor?5known?5as?5Valor?5could?5b@
_DATA	SEGMENT
??_C@_0BBN@BIHB@The?5armor?5known?5as?5Valor?5could?5b@ DB 'The armor kno'
	DB	'wn as Valor could be what tips the scales in your favor. I wi'
	DB	'll tell you that many have looked for it - including myself. '
	DB	'Arkaine hid it well, my friend, and it will take more than a '
	DB	'bit of luck to unlock the secrets that have kept it concealed'
	DB	' oh, lo these many years. |', 00H		; `string'
_DATA	ENDS
;	COMDAT ??_C@_0CG@DHDB@Zzzzzzzzzzzzzzzzzzzzzzzzzzzzzzzz@
_DATA	SEGMENT
??_C@_0CG@DHDB@Zzzzzzzzzzzzzzzzzzzzzzzzzzzzzzzz@ DB 'Zzzzzzzzzzzzzzzzzzzz'
	DB	'zzzzzzzzzzzz... |', 00H			; `string'
_DATA	ENDS
;	COMDAT ??_C@_0JA@LPJL@Should?5you?5find?5these?5Stones?5of?5@
_DATA	SEGMENT
??_C@_0JA@LPJL@Should?5you?5find?5these?5Stones?5of?5@ DB 'Should you fin'
	DB	'd these Stones of Blood, use them carefully. ', 0aH, ' ', 0aH
	DB	'The way is fraught with danger and your only hope rests withi'
	DB	'n your self trust. |', 00H			; `string'
_DATA	ENDS
;	COMDAT ??_C@_0LM@ONEI@You?5intend?5to?5find?5the?5armor?5kno@
_DATA	SEGMENT
??_C@_0LM@ONEI@You?5intend?5to?5find?5the?5armor?5kno@ DB 'You intend to '
	DB	'find the armor known as Valor? ', 0aH, ' ', 0aH, 'No one has '
	DB	'ever figured out where Arkaine stashed the stuff, and if my c'
	DB	'ontacts couldn''t find it, I seriously doubt you ever will ei'
	DB	'ther. |', 00H				; `string'
_DATA	ENDS
;	COMDAT ??_C@_0CDK@LJNG@I?5know?5of?5only?5one?5legend?5that?5s@
_DATA	SEGMENT
??_C@_0CDK@LJNG@I?5know?5of?5only?5one?5legend?5that?5s@ DB 'I know of on'
	DB	'ly one legend that speaks of such a warrior as you describe. '
	DB	'His story is found within the ancient chronicles of the Sin W'
	DB	'ar...', 0aH, ' ', 0aH, 'Stained by a thousand years of war, b'
	DB	'lood and death, the Warlord of Blood stands upon a mountain o'
	DB	'f his tattered victims. His dark blade screams a black curse '
	DB	'to the living; a tortured invitation to any who would stand b'
	DB	'efore this Executioner of Hell.', 0aH, ' ', 0aH, 'It is also '
	DB	'written that although he was once a mortal who fought beside '
	DB	'the Legion of Darkness during the Sin War, he lost his humani'
	DB	'ty to his insatiable hunger for blood. |', 00H ; `string'
_DATA	ENDS
;	COMDAT ??_C@_0KE@EBNB@I?5am?5afraid?5that?5I?5haven?8t?5heard@
_DATA	SEGMENT
??_C@_0KE@EBNB@I?5am?5afraid?5that?5I?5haven?8t?5heard@ DB 'I am afraid t'
	DB	'hat I haven''t heard anything about such a vicious warrior, g'
	DB	'ood master. I hope that you do not have to fight him, for he '
	DB	'sounds extremely dangerous. |', 00H		; `string'
_DATA	ENDS
;	COMDAT ??_C@_0GF@BICG@Cain?5would?5be?5able?5to?5tell?5you?5m@
_DATA	SEGMENT
??_C@_0GF@BICG@Cain?5would?5be?5able?5to?5tell?5you?5m@ DB 'Cain would be'
	DB	' able to tell you much more about something like this than I '
	DB	'would ever wish to know. |', 00H		; `string'
_DATA	ENDS
;	COMDAT ??_C@_0HK@JAMK@If?5you?5are?5to?5battle?5such?5a?5fier@
_DATA	SEGMENT
??_C@_0HK@JAMK@If?5you?5are?5to?5battle?5such?5a?5fier@ DB 'If you are to'
	DB	' battle such a fierce opponent, may Light be your guide and y'
	DB	'our defender. I will keep you in my thoughts. |', 00H ; `string'
_DATA	ENDS
;	COMDAT ??_C@_0HN@MICE@Dark?5and?5wicked?5legends?5surround@
_DATA	SEGMENT
??_C@_0HN@MICE@Dark?5and?5wicked?5legends?5surround@ DB 'Dark and wicked '
	DB	'legends surrounds the one Warlord of Blood. Be well prepared,'
	DB	' my friend, for he shows no mercy or quarter. |', 00H ; `string'
_DATA	ENDS
;	COMDAT ??_C@_0KL@CACD@Always?5you?5gotta?5talk?5about?5Bloo@
_DATA	SEGMENT
??_C@_0KL@CACD@Always?5you?5gotta?5talk?5about?5Bloo@ DB 'Always you gott'
	DB	'a talk about Blood? What about flowers, and sunshine, and tha'
	DB	't pretty girl that brings the drinks. Listen here, friend - y'
	DB	'ou''re obsessive, you know that? |', 00H	; `string'
_DATA	ENDS
;	COMDAT ??_C@_0JL@PNPB@His?5prowess?5with?5the?5blade?5is?5aw@
_DATA	SEGMENT
??_C@_0JL@PNPB@His?5prowess?5with?5the?5blade?5is?5aw@ DB 'His prowess wi'
	DB	'th the blade is awesome, and he has lived for thousands of ye'
	DB	'ars knowing only warfare. I am sorry... I can not see if you '
	DB	'will defeat him. |', 00H			; `string'
_DATA	ENDS
;	COMDAT ??_C@_0JE@IECE@I?5haven?8t?5ever?5dealt?5with?5this?5W@
_DATA	SEGMENT
??_C@_0JE@IECE@I?5haven?8t?5ever?5dealt?5with?5this?5W@ DB 'I haven''t ev'
	DB	'er dealt with this Warlord you speak of, but he sounds like h'
	DB	'e''s going through a lot of swords. Wouldn''t mind supplying '
	DB	'his armies... |', 00H			; `string'
_DATA	ENDS
;	COMDAT ??_C@_0FI@OPJJ@My?5blade?5sings?5for?5your?5blood?0?5m@
_DATA	SEGMENT
??_C@_0FI@OPJJ@My?5blade?5sings?5for?5your?5blood?0?5m@ DB 'My blade sing'
	DB	's for your blood, mortal, and by my dark masters it shall not'
	DB	' be denied. |', 00H				; `string'
_DATA	ENDS
;	COMDAT ??_C@_0BGA@GNIC@Griswold?5speaks?5of?5the?5Heaven?5St@
_DATA	SEGMENT
??_C@_0BGA@GNIC@Griswold?5speaks?5of?5the?5Heaven?5St@ DB 'Griswold speak'
	DB	's of the Heaven Stone that was destined for the enclave locat'
	DB	'ed in the east. It was being taken there for further study. T'
	DB	'his stone glowed with an energy that somehow granted vision b'
	DB	'eyond that which a normal man could possess. I do not know wh'
	DB	'at secrets it holds, my friend, but finding this stone would '
	DB	'certainly prove most valuable. |', 00H	; `string'
_DATA	ENDS
;	COMDAT ??_C@_0OB@DGEG@The?5caravan?5stopped?5here?5to?5take@
_DATA	SEGMENT
??_C@_0OB@DGEG@The?5caravan?5stopped?5here?5to?5take@ DB 'The caravan sto'
	DB	'pped here to take on some supplies for their journey to the e'
	DB	'ast. I sold them quite an array of fresh fruits and some exce'
	DB	'llent sweetbreads that Garda has just finished baking. Shame '
	DB	'what happened to them... |', 00H		; `string'
_DATA	ENDS
;	COMDAT ??_C@_0JO@MAOM@I?5don?8t?5know?5what?5it?5is?5that?5the@
_DATA	SEGMENT
??_C@_0JO@MAOM@I?5don?8t?5know?5what?5it?5is?5that?5the@ DB 'I don''t kno'
	DB	'w what it is that they thought they could see with that rock,'
	DB	' but I will say this. If rocks are falling from the sky, you '
	DB	'had better be careful! |', 00H		; `string'
_DATA	ENDS
;	COMDAT ??_C@_0BAB@FIMM@Well?0?5a?5caravan?5of?5some?5very?5imp@
_DATA	SEGMENT
??_C@_0BAB@FIMM@Well?0?5a?5caravan?5of?5some?5very?5imp@ DB 'Well, a cara'
	DB	'van of some very important people did stop here, but that was'
	DB	' quite a while ago. They had strange accents and were startin'
	DB	'g on a long journey, as I recall. ', 0aH, ' ', 0aH, 'I don''t'
	DB	' see how you could hope to find anything that they would have'
	DB	' been carrying. |', 00H			; `string'
_DATA	ENDS
;	COMDAT ??_C@_0BMM@FPNH@Stay?5for?5a?5moment?5?9?5I?5have?5a?5sto@
_DATA	SEGMENT
??_C@_0BMM@FPNH@Stay?5for?5a?5moment?5?9?5I?5have?5a?5sto@ DB 'Stay for a'
	DB	' moment - I have a story you might find interesting. A carava'
	DB	'n that was bound for the eastern kingdoms passed through here'
	DB	' some time ago. It was supposedly carrying a piece of the hea'
	DB	'vens that had fallen to earth! The caravan was ambushed by cl'
	DB	'oaked riders just north of here along the roadway. I searched'
	DB	' the wreckage for this sky rock, but it was nowhere to be fou'
	DB	'nd. If you should find it, I believe that I can fashion somet'
	DB	'hing useful from it. |', 00H		; `string'
_DATA	ENDS
;	COMDAT ??_C@_0HL@DMGI@I?5am?5still?5waiting?5for?5you?5to?5br@
_DATA	SEGMENT
??_C@_0HL@DMGI@I?5am?5still?5waiting?5for?5you?5to?5br@ DB 'I am still wa'
	DB	'iting for you to bring me that stone from the heavens. I know'
	DB	' that I can make something powerful out of it. |', 00H ; `string'
_DATA	ENDS
;	COMDAT ??_C@_0ME@MCLM@Let?5me?5see?5that?5?9?5aye?4?4?4?5aye?0?5it@
_DATA	SEGMENT
??_C@_0ME@MCLM@Let?5me?5see?5that?5?9?5aye?4?4?4?5aye?0?5it@ DB 'Let me s'
	DB	'ee that - aye... aye, it is as I believed. Give me a moment..'
	DB	'.', 0aH, ' ', 0aH, 'Ah, Here you are. I arranged pieces of th'
	DB	'e stone within a silver ring that my father left me. I hope i'
	DB	't serves you well. |', 00H			; `string'
_DATA	ENDS
;	COMDAT ??_C@_0KM@KIKN@I?5used?5to?5have?5a?5nice?5ring?$DL?5it?5w@
_DATA	SEGMENT
??_C@_0KM@KIKN@I?5used?5to?5have?5a?5nice?5ring?$DL?5it?5w@ DB 'I used to'
	DB	' have a nice ring; it was a really expensive one, with blue a'
	DB	'nd green and red and silver. Don''t remember what happened to'
	DB	' it, though. I really miss that ring... |', 00H ; `string'
_DATA	ENDS
;	COMDAT ??_C@_0LC@IGNK@The?5Heaven?5Stone?5is?5very?5powerfu@
_DATA	SEGMENT
??_C@_0LC@IGNK@The?5Heaven?5Stone?5is?5very?5powerfu@ DB 'The Heaven Ston'
	DB	'e is very powerful, and were it any but Griswold who bid you '
	DB	'find it, I would prevent it. He will harness its powers and i'
	DB	'ts use will be for the good of us all. |', 00H ; `string'
_DATA	ENDS
;	COMDAT ??_C@_0KK@GHKD@If?5anyone?5can?5make?5something?5out@
_DATA	SEGMENT
??_C@_0KK@GHKD@If?5anyone?5can?5make?5something?5out@ DB 'If anyone can m'
	DB	'ake something out of that rock, Griswold can. He knows what h'
	DB	'e is doing, and as much as I try to steal his customers, I re'
	DB	'spect the quality of his work. |', 00H	; `string'
_DATA	ENDS
;	COMDAT ??_C@_0OD@PBDG@The?5witch?5Adria?5seeks?5a?5black?5mu@
_DATA	SEGMENT
??_C@_0OD@PBDG@The?5witch?5Adria?5seeks?5a?5black?5mu@ DB 'The witch Adri'
	DB	'a seeks a black mushroom? I know as much about Black Mushroom'
	DB	's as I do about Red Herrings. Perhaps Pepin the Healer could '
	DB	'tell you more, but this is something that cannot be found in '
	DB	'any of my stories or books. |', 00H		; `string'
_DATA	ENDS
;	COMDAT ??_C@_0OM@DELD@Let?5me?5just?5say?5this?4?5Both?5Garda@
_DATA	SEGMENT
??_C@_0OM@DELD@Let?5me?5just?5say?5this?4?5Both?5Garda@ DB 'Let me just s'
	DB	'ay this. Both Garda and I would never, EVER serve black mushr'
	DB	'ooms to our honored guests. If Adria wants some mushrooms in '
	DB	'her stew, then that is her business, but I can''t help you fi'
	DB	'nd any. Black mushrooms... disgusting! |', 00H ; `string'
_DATA	ENDS
;	COMDAT ??_C@_0BGE@ENCM@The?5witch?5told?5me?5that?5you?5were?5@
_DATA	SEGMENT
??_C@_0BGE@ENCM@The?5witch?5told?5me?5that?5you?5were?5@ DB 'The witch to'
	DB	'ld me that you were searching for the brain of a demon to ass'
	DB	'ist me in creating my elixir. It should be of great value to '
	DB	'the many who are injured by those foul beasts, if I can just '
	DB	'unlock the secrets I suspect that its alchemy holds. If you c'
	DB	'an remove the brain of a demon when you kill it, I would be g'
	DB	'rateful if you could bring it to me. |', 00H ; `string'
_DATA	ENDS
;	COMDAT ??_C@_0ND@LBDP@Excellent?0?5this?5is?5just?5what?5I?5h@
_DATA	SEGMENT
??_C@_0ND@LBDP@Excellent?0?5this?5is?5just?5what?5I?5h@ DB 'Excellent, th'
	DB	'is is just what I had in mind. I was able to finish the elixi'
	DB	'r without this, but it can''t hurt to have this to study. Wou'
	DB	'ld you please carry this to the witch? I believe that she is '
	DB	'expecting it. |', 00H			; `string'
_DATA	ENDS
;	COMDAT ??_C@_0FI@HPCK@I?5think?5Ogden?5might?5have?5some?5mu@
_DATA	SEGMENT
??_C@_0FI@HPCK@I?5think?5Ogden?5might?5have?5some?5mu@ DB 'I think Ogden '
	DB	'might have some mushrooms in the storage cellar. Why don''t y'
	DB	'ou ask him? |', 00H				; `string'
_DATA	ENDS
;	COMDAT ??_C@_0NK@HJPE@If?5Adria?5doesn?8t?5have?5one?5of?5the@
_DATA	SEGMENT
??_C@_0NK@HJPE@If?5Adria?5doesn?8t?5have?5one?5of?5the@ DB 'If Adria does'
	DB	'n''t have one of these, you can bet that''s a rare thing inde'
	DB	'ed. I can offer you no more help than that, but it sounds lik'
	DB	'e... a huge, gargantuan, swollen, bloated mushroom! Well, goo'
	DB	'd hunting, I suppose. |', 00H		; `string'
_DATA	ENDS
;	COMDAT ??_C@_0IC@OJIM@Ogden?5mixes?5a?5MEAN?5black?5mushroo@
_DATA	SEGMENT
??_C@_0IC@OJIM@Ogden?5mixes?5a?5MEAN?5black?5mushroo@ DB 'Ogden mixes a M'
	DB	'EAN black mushroom, but I get sick if I drink that. Listen, l'
	DB	'isten... here''s the secret - moderation is the key! |', 00H ; `string'
_DATA	ENDS
;	COMDAT ??_C@_0MM@DGBL@What?5do?5we?5have?5here?$DP?5Interestin@
_DATA	SEGMENT
??_C@_0MM@DGBL@What?5do?5we?5have?5here?$DP?5Interestin@ DB 'What do we h'
	DB	'ave here? Interesting, it looks like a book of reagents. Keep'
	DB	' your eyes open for a black mushroom. It should be fairly lar'
	DB	'ge and easy to identify. If you find it, bring it to me, won'''
	DB	't you? |', 00H				; `string'
_DATA	ENDS
;	COMDAT ??_C@_0IM@HIJJ@It?8s?5a?5big?0?5black?5mushroom?5that?5@
_DATA	SEGMENT
??_C@_0IM@HIJJ@It?8s?5a?5big?0?5black?5mushroom?5that?5@ DB 'It''s a big,'
	DB	' black mushroom that I need. Now run off and get it for me so'
	DB	' that I can use it for a special concoction that I am working'
	DB	' on. |', 00H				; `string'
_DATA	ENDS
;	COMDAT ??_C@_0BFO@GEJH@Yes?0?5this?5will?5be?5perfect?5for?5a?5@
_DATA	SEGMENT
??_C@_0BFO@GEJH@Yes?0?5this?5will?5be?5perfect?5for?5a?5@ DB 'Yes, this w'
	DB	'ill be perfect for a brew that I am creating. By the way, the'
	DB	' healer is looking for the brain of some demon or another so '
	DB	'he can treat those who have been afflicted by their poisonous'
	DB	' venom. I believe that he intends to make an elixir from it. '
	DB	'If you help him find what he needs, please see if you can get'
	DB	' a sample of the elixir for me. |', 00H	; `string'
_DATA	ENDS
;	COMDAT ??_C@_0BAL@OEFK@Why?5have?5you?5brought?5that?5here?$DP?5@
_DATA	SEGMENT
??_C@_0BAL@OEFK@Why?5have?5you?5brought?5that?5here?$DP?5@ DB 'Why have y'
	DB	'ou brought that here? I have no need for a demon''s brain at '
	DB	'this time. I do need some of the elixir that the Healer is wo'
	DB	'rking on. He needs that grotesque organ that you are holding,'
	DB	' and then bring me the elixir. Simple when you think about it'
	DB	', isn''t it? |', 00H			; `string'
_DATA	ENDS
;	COMDAT ??_C@_0HN@JCMP@What?$DP?5Now?5you?5bring?5me?5that?5elix@
_DATA	SEGMENT
??_C@_0HN@JCMP@What?$DP?5Now?5you?5bring?5me?5that?5elix@ DB 'What? Now y'
	DB	'ou bring me that elixir from the healer? I was able to finish'
	DB	' my brew without it. Why don''t you just keep it... |', 00H ; `string'
_DATA	ENDS
;	COMDAT ??_C@_0GD@DCAJ@I?5don?8t?5have?5any?5mushrooms?5of?5an@
_DATA	SEGMENT
??_C@_0GD@DCAJ@I?5don?8t?5have?5any?5mushrooms?5of?5an@ DB 'I don''t have'
	DB	' any mushrooms of any size or color for sale. How about somet'
	DB	'hing a bit more useful? |', 00H		; `string'
_DATA	ENDS
;	COMDAT ??_C@_0DNC@DFGB@So?0?5the?5legend?5of?5the?5Map?5is?5rea@
_DATA	SEGMENT
??_C@_0DNC@DFGB@So?0?5the?5legend?5of?5the?5Map?5is?5rea@ DB 'So, the leg'
	DB	'end of the Map is real. Even I never truly believed any of it'
	DB	'! I suppose it is time that I told you the truth about who I '
	DB	'am, my friend. You see, I am not all that I seem...', 0aH, ' '
	DB	0aH, 'My true name is Deckard Cain the Elder, and I am the las'
	DB	't descendant of an ancient Brotherhood that was dedicated to '
	DB	'keeping and safeguarding the secrets of a timeless evil. An e'
	DB	'vil that quite obviously has now been released...', 0aH, ' ', 0aH
	DB	'The evil that you move against is the dark Lord of Terror - k'
	DB	'nown to mortal men as Diablo. It was he who was imprisoned wi'
	DB	'thin the Labyrinth many centuries ago. The Map that you hold '
	DB	'now was created ages ago to mark the time when Diablo would r'
	DB	'ise again from his imprisonment. When the two stars on that m'
	DB	'ap align, Diablo will be at the height of his power. He will '
	DB	'be all but invincible...', 0aH, ' ', 0aH, 'You are now in a r'
	DB	'ace against time, my friend! Find Diablo and destroy him befo'
	DB	're the stars align, for we may never have a chance to rid the'
	DB	' world of his evil again! |', 00H		; `string'
_DATA	ENDS
;	COMDAT ??_C@_0HG@OAIH@Our?5time?5is?5running?5short?$CB?5I?5sen@
_DATA	SEGMENT
??_C@_0HG@OAIH@Our?5time?5is?5running?5short?$CB?5I?5sen@ DB 'Our time is'
	DB	' running short! I sense his dark power building and only you '
	DB	'can stop him from attaining his full might. |', 00H ; `string'
_DATA	ENDS
;	COMDAT ??_C@_0BCN@GOM@I?5am?5sure?5that?5you?5tried?5your?5be@
_DATA	SEGMENT
??_C@_0BCN@GOM@I?5am?5sure?5that?5you?5tried?5your?5be@ DB 'I am sure tha'
	DB	't you tried your best, but I fear that even your strength and'
	DB	' will may not be enough. Diablo is now at the height of his e'
	DB	'arthly power, and you will need all your courage and strength'
	DB	' to defeat him. May the Light protect and guide you, my frien'
	DB	'd. I will help in any way that I am able. |', 00H ; `string'
_DATA	ENDS
;	COMDAT ??_C@_0NK@IKFG@If?5the?5witch?5can?8t?5help?5you?5and?5@
_DATA	SEGMENT
??_C@_0NK@IKFG@If?5the?5witch?5can?8t?5help?5you?5and?5@ DB 'If the witch'
	DB	' can''t help you and suggests you see Cain, what makes you th'
	DB	'ink that I would know anything? It sounds like this is a very'
	DB	' serious matter. You should hurry along and see the storytell'
	DB	'er as Adria suggests. |', 00H		; `string'
_DATA	ENDS
;	COMDAT ??_C@_0NL@NMNL@I?5can?8t?5make?5much?5of?5the?5writing@
_DATA	SEGMENT
??_C@_0NL@NMNL@I?5can?8t?5make?5much?5of?5the?5writing@ DB 'I can''t make'
	DB	' much of the writing on this map, but perhaps Adria or Cain c'
	DB	'ould help you decipher what this refers to. ', 0aH, ' ', 0aH, 'I'
	DB	' can see that it is a map of the stars in our sky, but any mo'
	DB	're than that is beyond my talents. |', 00H	; `string'
_DATA	ENDS
;	COMDAT ??_C@_0MO@PAFL@The?5best?5person?5to?5ask?5about?5tha@
_DATA	SEGMENT
??_C@_0MO@PAFL@The?5best?5person?5to?5ask?5about?5tha@ DB 'The best perso'
	DB	'n to ask about that sort of thing would be our storyteller. ', 0aH
	DB	' ', 0aH, 'Cain is very knowledgeable about ancient writings, '
	DB	'and that is easily the oldest looking piece of paper that I h'
	DB	'ave ever seen. |', 00H			; `string'
_DATA	ENDS
;	COMDAT ??_C@_0KN@BBPI@I?5have?5never?5seen?5a?5map?5of?5this?5@
_DATA	SEGMENT
??_C@_0KN@BBPI@I?5have?5never?5seen?5a?5map?5of?5this?5@ DB 'I have never'
	DB	' seen a map of this sort before. Where''d you get it? Althoug'
	DB	'h I have no idea how to read this, Cain or Adria may be able '
	DB	'to provide the answers that you seek. |', 00H ; `string'
_DATA	ENDS
;	COMDAT ??_C@_0HH@ONBA@Listen?5here?0?5come?5close?4?5I?5don?8t@
_DATA	SEGMENT
??_C@_0HH@ONBA@Listen?5here?0?5come?5close?4?5I?5don?8t@ DB 'Listen here,'
	DB	' come close. I don''t know if you know what I know, but you h'
	DB	'ave really got somethin'' here. That''s a map. |', 00H ; `string'
_DATA	ENDS
;	COMDAT ??_C@_0NM@CELJ@Oh?0?5I?8m?5afraid?5this?5does?5not?5bod@
_DATA	SEGMENT
??_C@_0NM@CELJ@Oh?0?5I?8m?5afraid?5this?5does?5not?5bod@ DB 'Oh, I''m afr'
	DB	'aid this does not bode well at all. This map of the stars por'
	DB	'tends great disaster, but its secrets are not mine to tell. T'
	DB	'he time has come for you to have a very serious conversation '
	DB	'with the Storyteller... |', 00H		; `string'
_DATA	ENDS
;	COMDAT ??_C@_0ME@JPKK@I?8ve?5been?5looking?5for?5a?5map?0?5but@
_DATA	SEGMENT
??_C@_0ME@JPKK@I?8ve?5been?5looking?5for?5a?5map?0?5but@ DB 'I''ve been l'
	DB	'ooking for a map, but that certainly isn''t it. You should sh'
	DB	'ow that to Adria - she can probably tell you what it is. I''l'
	DB	'l say one thing; it looks old, and old usually means valuable'
	DB	'. |', 00H					; `string'
_DATA	ENDS
;	COMDAT ??_C@_0EL@KAGA@Pleeeease?0?5no?5hurt?4?5No?5Kill?4?5Kee@
_DATA	SEGMENT
??_C@_0EL@KAGA@Pleeeease?0?5no?5hurt?4?5No?5Kill?4?5Kee@ DB 'Pleeeease, n'
	DB	'o hurt. No Kill. Keep alive and next time good bring to you. '
	DB	'|', 00H					; `string'
_DATA	ENDS
;	COMDAT ??_C@_0HH@EPFF@Something?5for?5you?5I?5am?5making?4?5A@
_DATA	SEGMENT
??_C@_0HH@EPFF@Something?5for?5you?5I?5am?5making?4?5A@ DB 'Something for'
	DB	' you I am making. Again, not kill Gharbad. Live and give good'
	DB	'. ', 0aH, ' ', 0aH, 'You take this as proof I keep word... |', 00H ; `string'
_DATA	ENDS
;	COMDAT ??_C@_0GG@KGHB@Nothing?5yet?$CB?5Almost?5done?4?5?6?5?6Ver@
_DATA	SEGMENT
??_C@_0GG@KGHB@Nothing?5yet?$CB?5Almost?5done?4?5?6?5?6Ver@ DB 'Nothing y'
	DB	'et! Almost done. ', 0aH, ' ', 0aH, 'Very powerful, very stron'
	DB	'g. Live! Live! ', 0aH, ' ', 0aH, 'No pain and promise I keep!'
	DB	' |', 00H					; `string'
_DATA	ENDS
;	COMDAT ??_C@_0DN@JOKI@This?5too?5good?5for?5you?4?5Very?5Powe@
_DATA	SEGMENT
??_C@_0DN@JOKI@This?5too?5good?5for?5you?4?5Very?5Powe@ DB 'This too good'
	DB	' for you. Very Powerful! You want - you take! |', 00H ; `string'
_DATA	ENDS
;	COMDAT ??_C@_0IP@JLCE@What?$DP?$CB?5Why?5are?5you?5here?$DP?5All?5the@
_DATA	SEGMENT
??_C@_0IP@JLCE@What?$DP?$CB?5Why?5are?5you?5here?$DP?5All?5the@ DB 'What?'
	DB	'! Why are you here? All these interruptions are enough to mak'
	DB	'e one insane. Here, take this and leave me to my work. Troubl'
	DB	'e me no more! |', 00H			; `string'
_DATA	ENDS
;	COMDAT ??_C@_0DG@BEGG@Arrrrgh?$CB?5Your?5curiosity?5will?5be?5@
_DATA	SEGMENT
??_C@_0DG@BEGG@Arrrrgh?$CB?5Your?5curiosity?5will?5be?5@ DB 'Arrrrgh! You'
	DB	'r curiosity will be the death of you!!! |', 00H ; `string'
_DATA	ENDS
;	COMDAT ??_C@_0CO@NHMI@Hello?0?5my?5friend?4?5Stay?5awhile?5an@
_DATA	SEGMENT
??_C@_0CO@NHMI@Hello?0?5my?5friend?4?5Stay?5awhile?5an@ DB 'Hello, my fri'
	DB	'end. Stay awhile and listen... |', 00H	; `string'
_DATA	ENDS
;	COMDAT ??_C@_0LA@HHNB@While?5you?5are?5venturing?5deeper?5i@
_DATA	SEGMENT
??_C@_0LA@HHNB@While?5you?5are?5venturing?5deeper?5i@ DB 'While you are v'
	DB	'enturing deeper into the Labyrinth you may find tomes of grea'
	DB	't knowledge hidden there. ', 0aH, ' ', 0aH, 'Read them carefu'
	DB	'lly for they can tell you things that even I cannot. |', 00H ; `string'
_DATA	ENDS
;	COMDAT ??_C@_0PC@JABC@I?5know?5of?5many?5myths?5and?5legends@
_DATA	SEGMENT
??_C@_0PC@JABC@I?5know?5of?5many?5myths?5and?5legends@ DB 'I know of many'
	DB	' myths and legends that may contain answers to questions that'
	DB	' may arise in your journeys into the Labyrinth. If you come a'
	DB	'cross challenges and questions to which you seek knowledge, s'
	DB	'eek me out and I will tell you what I can. |', 00H ; `string'
_DATA	ENDS
;	COMDAT ??_C@_0BFP@KJOE@Griswold?5?9?5a?5man?5of?5great?5action@
_DATA	SEGMENT
??_C@_0BFP@KJOE@Griswold?5?9?5a?5man?5of?5great?5action@ DB 'Griswold - a'
	DB	' man of great action and great courage. I bet he never told y'
	DB	'ou about the time he went into the Labyrinth to save Wirt, di'
	DB	'd he? He knows his fair share of the dangers to be found ther'
	DB	'e, but then again - so do you. He is a skilled craftsman, and'
	DB	' if he claims to be able to help you in any way, you can coun'
	DB	't on his honesty and his skill. |', 00H	; `string'
_DATA	ENDS
;	COMDAT ??_C@_0BEP@NONA@Ogden?5has?5owned?5and?5run?5the?5Risi@
_DATA	SEGMENT
??_C@_0BEP@NONA@Ogden?5has?5owned?5and?5run?5the?5Risi@ DB 'Ogden has own'
	DB	'ed and run the Rising Sun Inn and Tavern for almost four year'
	DB	's now. He purchased it just a few short months before everyth'
	DB	'ing here went to hell. He and his wife Garda do not have the '
	DB	'money to leave as they invested all they had in making a life'
	DB	' for themselves here. He is a good man with a deep sense of r'
	DB	'esponsibility. |', 00H			; `string'
_DATA	ENDS
;	COMDAT ??_C@_0BGK@HEMO@Poor?5Farnham?4?5He?5is?5a?5disquietin@
_DATA	SEGMENT
??_C@_0BGK@HEMO@Poor?5Farnham?4?5He?5is?5a?5disquietin@ DB 'Poor Farnham.'
	DB	' He is a disquieting reminder of the doomed assembly that ent'
	DB	'ered into the Cathedral with Lazarus on that dark day. He esc'
	DB	'aped with his life, but his courage and much of his sanity we'
	DB	're left in some dark pit. He finds comfort only at the bottom'
	DB	' of his tankard nowadays, but there are occasional bits of tr'
	DB	'uth buried within his constant ramblings. |', 00H ; `string'
_DATA	ENDS
;	COMDAT ??_C@_0BEK@IIIF@The?5witch?0?5Adria?0?5is?5an?5anomaly?5@
_DATA	SEGMENT
??_C@_0BEK@IIIF@The?5witch?0?5Adria?0?5is?5an?5anomaly?5@ DB 'The witch, '
	DB	'Adria, is an anomaly here in Tristram. She arrived shortly af'
	DB	'ter the Cathedral was desecrated while most everyone else was'
	DB	' fleeing. She had a small hut constructed at the edge of town'
	DB	', seemingly overnight, and has access to many strange and arc'
	DB	'ane artifacts and tomes of knowledge that even I have never s'
	DB	'een before. |', 00H				; `string'
_DATA	ENDS
;	COMDAT ??_C@_0BLA@CMEH@The?5story?5of?5Wirt?5is?5a?5frighteni@
_DATA	SEGMENT
??_C@_0BLA@CMEH@The?5story?5of?5Wirt?5is?5a?5frighteni@ DB 'The story of '
	DB	'Wirt is a frightening and tragic one. He was taken from the a'
	DB	'rms of his mother and dragged into the labyrinth by the small'
	DB	', foul demons that wield wicked spears. There were many other'
	DB	' children taken that day, including the son of King Leoric. T'
	DB	'he Knights of the palace went below, but never returned. The '
	DB	'Blacksmith found the boy, but only after the foul beasts had '
	DB	'begun to torture him for their sadistic pleasures. |', 00H ; `string'
_DATA	ENDS
;	COMDAT ??_C@_0ON@LHIM@Ah?0?5Pepin?4?5I?5count?5him?5as?5a?5true@
_DATA	SEGMENT
??_C@_0ON@LHIM@Ah?0?5Pepin?4?5I?5count?5him?5as?5a?5true@ DB 'Ah, Pepin. '
	DB	'I count him as a true friend - perhaps the closest I have her'
	DB	'e. He is a bit addled at times, but never a more caring or co'
	DB	'nsiderate soul has existed. His knowledge and skills are equa'
	DB	'led by few, and his door is always open. |', 00H ; `string'
_DATA	ENDS
;	COMDAT ??_C@_0BDP@IHNJ@Gillian?5is?5a?5fine?5woman?4?5Much?5ad@
_DATA	SEGMENT
??_C@_0BDP@IHNJ@Gillian?5is?5a?5fine?5woman?4?5Much?5ad@ DB 'Gillian is a'
	DB	' fine woman. Much adored for her high spirits and her quick l'
	DB	'augh, she holds a special place in my heart. She stays on at '
	DB	'the tavern to support her elderly grandmother who is too sick'
	DB	' to travel. I sometimes fear for her safety, but I know that '
	DB	'any man in the village would rather die than see her harmed. '
	DB	'|', 00H					; `string'
_DATA	ENDS
;	COMDAT ??_C@_0ED@IHED@Greetings?0?5good?5master?4?5Welcome?5@
_DATA	SEGMENT
??_C@_0ED@IHED@Greetings?0?5good?5master?4?5Welcome?5@ DB 'Greetings, goo'
	DB	'd master. Welcome to the Tavern of the Rising Sun! |', 00H ; `string'
_DATA	ENDS
;	COMDAT ??_C@_0BAP@KJPC@Many?5adventurers?5have?5graced?5the@
_DATA	SEGMENT
??_C@_0BAP@KJPC@Many?5adventurers?5have?5graced?5the@ DB 'Many adventurer'
	DB	's have graced the tables of my tavern, and ten times as many '
	DB	'stories have been told over as much ale. The only thing that '
	DB	'I ever heard any of them agree on was this old axiom. Perhaps'
	DB	' it will help you. You can cut the flesh, but you must crush '
	DB	'the bone. |', 00H				; `string'
_DATA	ENDS
;	COMDAT ??_C@_0JI@NDOI@Griswold?5the?5blacksmith?5is?5extre@
_DATA	SEGMENT
??_C@_0JI@NDOI@Griswold?5the?5blacksmith?5is?5extre@ DB 'Griswold the bla'
	DB	'cksmith is extremely knowledgeable about weapons and armor. I'
	DB	'f you ever need work done on your gear, he is definitely the '
	DB	'man to see. |', 00H				; `string'
_DATA	ENDS
;	COMDAT ??_C@_0JL@LFFN@Farnham?5spends?5far?5too?5much?5time@
_DATA	SEGMENT
??_C@_0JL@LFFN@Farnham?5spends?5far?5too?5much?5time@ DB 'Farnham spends '
	DB	'far too much time here, drowning his sorrows in cheap ale. I '
	DB	'would make him leave, but he did suffer so during his time in'
	DB	' the Labyrinth. |', 00H			; `string'
_DATA	ENDS
;	COMDAT ??_C@_0NK@CCDK@Adria?5is?5wise?5beyond?5her?5years?0?5@
_DATA	SEGMENT
??_C@_0NK@CCDK@Adria?5is?5wise?5beyond?5her?5years?0?5@ DB 'Adria is wise'
	DB	' beyond her years, but I must admit - she frightens me a litt'
	DB	'le. ', 0aH, ' ', 0aH, 'Well, no matter. If you ever have need'
	DB	' to trade in items of sorcery, she maintains a strangely well'
	DB	'-stocked hut just across the river. |', 00H	; `string'
_DATA	ENDS
;	COMDAT ??_C@_0HE@GCOP@If?5you?5want?5to?5know?5more?5about?5t@
_DATA	SEGMENT
??_C@_0HE@GCOP@If?5you?5want?5to?5know?5more?5about?5t@ DB 'If you want t'
	DB	'o know more about the history of our village, the storyteller'
	DB	' Cain knows quite a bit about the past. |', 00H ; `string'
_DATA	ENDS
;	COMDAT ??_C@_0BAP@GJPF@Wirt?5is?5a?5rapscallion?5and?5a?5litt@
_DATA	SEGMENT
??_C@_0BAP@GJPF@Wirt?5is?5a?5rapscallion?5and?5a?5litt@ DB 'Wirt is a rap'
	DB	'scallion and a little scoundrel. He was always getting into t'
	DB	'rouble, and it''s no surprise what happened to him. ', 0aH, ' '
	DB	0aH, 'He probably went fooling about someplace that he shouldn'
	DB	'''t have been. I feel sorry for the boy, but I don''t abide t'
	DB	'he company that he keeps. |', 00H		; `string'
_DATA	ENDS
;	COMDAT ??_C@_0MH@GOFJ@Pepin?5is?5a?5good?5man?5?9?5and?5certai@
_DATA	SEGMENT
??_C@_0MH@GOFJ@Pepin?5is?5a?5good?5man?5?9?5and?5certai@ DB 'Pepin is a g'
	DB	'ood man - and certainly the most generous in the village. He '
	DB	'is always attending to the needs of others, but trouble of so'
	DB	'me sort or another does seem to follow him wherever he goes..'
	DB	'. |', 00H					; `string'
_DATA	ENDS
;	COMDAT ??_C@_0BAE@GCN@Gillian?0?5my?5Barmaid?$DP?5If?5it?5were?5@
_DATA	SEGMENT
??_C@_0BAE@GCN@Gillian?0?5my?5Barmaid?$DP?5If?5it?5were?5@ DB 'Gillian, m'
	DB	'y Barmaid? If it were not for her sense of duty to her grand-'
	DB	'dam, she would have fled from here long ago. ', 0aH, ' ', 0aH
	DB	'Goodness knows I begged her to leave, telling her that I woul'
	DB	'd watch after the old woman, but she is too sweet and caring '
	DB	'to have done so. |', 00H			; `string'
_DATA	ENDS
;	COMDAT ??_C@_0BM@OKLI@What?5ails?5you?0?5my?5friend?$DP?5?$HM?$AA@
_DATA	SEGMENT
??_C@_0BM@OKLI@What?5ails?5you?0?5my?5friend?$DP?5?$HM?$AA@ DB 'What ails'
	DB	' you, my friend? |', 00H			; `string'
_DATA	ENDS
;	COMDAT ??_C@_0OM@CINH@I?5have?5made?5a?5very?5interesting?5d@
_DATA	SEGMENT
??_C@_0OM@CINH@I?5have?5made?5a?5very?5interesting?5d@ DB 'I have made a '
	DB	'very interesting discovery. Unlike us, the creatures in the L'
	DB	'abyrinth can heal themselves without the aid of potions or ma'
	DB	'gic. If you hurt one of the monsters, make sure it is dead or'
	DB	' it very well may regenerate itself. |', 00H ; `string'
_DATA	ENDS
;	COMDAT ??_C@_0PH@OFIE@Before?5it?5was?5taken?5over?5by?0?5wel@
_DATA	SEGMENT
??_C@_0PH@OFIE@Before?5it?5was?5taken?5over?5by?0?5wel@ DB 'Before it was'
	DB	' taken over by, well, whatever lurks below, the Cathedral was'
	DB	' a place of great learning. There are many books to be found '
	DB	'there. If you find any, you should read them all, for some ma'
	DB	'y hold secrets to the workings of the Labyrinth. |', 00H ; `string'
_DATA	ENDS
;	COMDAT ??_C@_0NA@HMAC@Griswold?5knows?5as?5much?5about?5the@
_DATA	SEGMENT
??_C@_0NA@HMAC@Griswold?5knows?5as?5much?5about?5the@ DB 'Griswold knows '
	DB	'as much about the art of war as I do about the art of healing'
	DB	'. He is a shrewd merchant, but his work is second to none. Oh'
	DB	', I suppose that may be because he is the only blacksmith lef'
	DB	't here. |', 00H				; `string'
_DATA	ENDS
;	COMDAT ??_C@_0MF@KAKG@Cain?5is?5a?5true?5friend?5and?5a?5wise@
_DATA	SEGMENT
??_C@_0MF@KAKG@Cain?5is?5a?5true?5friend?5and?5a?5wise@ DB 'Cain is a tru'
	DB	'e friend and a wise sage. He maintains a vast library and has'
	DB	' an innate ability to discern the true nature of many things.'
	DB	' If you ever have any questions, he is the person to go to. |'
	DB	00H						; `string'
_DATA	ENDS
;	COMDAT ??_C@_0JG@MLH@Even?5my?5skills?5have?5been?5unable?5@
_DATA	SEGMENT
??_C@_0JG@MLH@Even?5my?5skills?5have?5been?5unable?5@ DB 'Even my skills '
	DB	'have been unable to fully heal Farnham. Oh, I have been able '
	DB	'to mend his body, but his mind and spirit are beyond anything'
	DB	' I can do. |', 00H				; `string'
_DATA	ENDS
;	COMDAT ??_C@_0BDP@CFOJ@While?5I?5use?5some?5limited?5forms?5o@
_DATA	SEGMENT
??_C@_0BDP@CFOJ@While?5I?5use?5some?5limited?5forms?5o@ DB 'While I use s'
	DB	'ome limited forms of magic to create the potions and elixirs '
	DB	'I store here, Adria is a true sorceress. She never seems to s'
	DB	'leep, and she always has access to many mystic tomes and arti'
	DB	'facts. I believe her hut may be much more than the hovel it a'
	DB	'ppears to be, but I can never seem to get inside the place. |'
	DB	00H						; `string'
_DATA	ENDS
;	COMDAT ??_C@_0PD@HPPJ@Poor?5Wirt?4?5I?5did?5all?5that?5was?5po@
_DATA	SEGMENT
??_C@_0PD@HPPJ@Poor?5Wirt?4?5I?5did?5all?5that?5was?5po@ DB 'Poor Wirt. I'
	DB	' did all that was possible for the child, but I know he despi'
	DB	'ses that wooden peg that I was forced to attach to his leg. H'
	DB	'is wounds were hideous. No one - and especially such a young '
	DB	'child - should have to suffer the way he did. |', 00H ; `string'
_DATA	ENDS
;	COMDAT ??_C@_0BGM@GGCO@I?5really?5don?8t?5understand?5why?5Og@
_DATA	SEGMENT
??_C@_0BGM@GGCO@I?5really?5don?8t?5understand?5why?5Og@ DB 'I really don'''
	DB	't understand why Ogden stays here in Tristram. He suffers fro'
	DB	'm a slight nervous condition, but he is an intelligent and in'
	DB	'dustrious man who would do very well wherever he went. I supp'
	DB	'ose it may be the fear of the many murders that happen in the'
	DB	' surrounding countryside, or perhaps the wishes of his wife t'
	DB	'hat keep him and his family where they are. |', 00H ; `string'
_DATA	ENDS
;	COMDAT ??_C@_0LE@CPOG@Ogden?8s?5barmaid?5is?5a?5sweet?5girl?4@
_DATA	SEGMENT
??_C@_0LE@CPOG@Ogden?8s?5barmaid?5is?5a?5sweet?5girl?4@ DB 'Ogden''s barm'
	DB	'aid is a sweet girl. Her grandmother is quite ill, and suffer'
	DB	's from delusions. ', 0aH, ' ', 0aH, 'She claims that they are'
	DB	' visions, but I have no proof of that one way or the other. |'
	DB	00H						; `string'
_DATA	ENDS
;	COMDAT ??_C@_0CB@OAIK@Good?5day?$CB?5How?5may?5I?5serve?5you?$DP?5?$HM@
_DATA	SEGMENT
??_C@_0CB@OAIK@Good?5day?$CB?5How?5may?5I?5serve?5you?$DP?5?$HM@ DB 'Good'
	DB	' day! How may I serve you? |', 00H		; `string'
_DATA	ENDS
;	COMDAT ??_C@_0HI@CIIL@My?5grandmother?5had?5a?5dream?5that?5@
_DATA	SEGMENT
??_C@_0HI@CIIL@My?5grandmother?5had?5a?5dream?5that?5@ DB 'My grandmother'
	DB	' had a dream that you would come and talk to me. She has visi'
	DB	'ons, you know and can see into the future. |', 00H ; `string'
_DATA	ENDS
;	COMDAT ??_C@_0OG@PFKL@The?5woman?5at?5the?5edge?5of?5town?5is@
_DATA	SEGMENT
??_C@_0OG@PFKL@The?5woman?5at?5the?5edge?5of?5town?5is@ DB 'The woman at '
	DB	'the edge of town is a witch! She seems nice enough, and her n'
	DB	'ame, Adria, is very pleasing to the ear, but I am very afraid'
	DB	' of her. ', 0aH, ' ', 0aH, 'It would take someone quite brave'
	DB	', like you, to see what she is doing out there. |', 00H ; `string'
_DATA	ENDS
;	COMDAT ??_C@_0BAP@PJLN@Our?5Blacksmith?5is?5a?5point?5of?5pri@
_DATA	SEGMENT
??_C@_0BAP@PJLN@Our?5Blacksmith?5is?5a?5point?5of?5pri@ DB 'Our Blacksmit'
	DB	'h is a point of pride to the people of Tristram. Not only is '
	DB	'he a master craftsman who has won many contests within his gu'
	DB	'ild, but he received praises from our King Leoric himself - m'
	DB	'ay his soul rest in peace. Griswold is also a great hero; jus'
	DB	't ask Cain. |', 00H				; `string'
_DATA	ENDS
;	COMDAT ??_C@_0JL@NENK@Cain?5has?5been?5the?5storyteller?5of@
_DATA	SEGMENT
??_C@_0JL@NENK@Cain?5has?5been?5the?5storyteller?5of@ DB 'Cain has been t'
	DB	'he storyteller of Tristram for as long as I can remember. He '
	DB	'knows so much, and can tell you just about anything about alm'
	DB	'ost everything. |', 00H			; `string'
_DATA	ENDS
;	COMDAT ??_C@_0PL@GEFO@Farnham?5is?5a?5drunkard?5who?5fills?5@
_DATA	SEGMENT
??_C@_0PL@GEFO@Farnham?5is?5a?5drunkard?5who?5fills?5@ DB 'Farnham is a d'
	DB	'runkard who fills his belly with ale and everyone else''s ear'
	DB	's with nonsense. ', 0aH, ' ', 0aH, 'I know that both Pepin an'
	DB	'd Ogden feel sympathy for him, but I get so frustrated watchi'
	DB	'ng him slip farther and farther into a befuddled stupor every'
	DB	' night. |', 00H				; `string'
_DATA	ENDS
;	COMDAT ??_C@_0BAJ@GNCE@Pepin?5saved?5my?5grandmother?8s?5lif@
_DATA	SEGMENT
??_C@_0BAJ@GNCE@Pepin?5saved?5my?5grandmother?8s?5lif@ DB 'Pepin saved my'
	DB	' grandmother''s life, and I know that I can never repay him f'
	DB	'or that. His ability to heal any sickness is more powerful th'
	DB	'an the mightiest sword and more mysterious than any spell you'
	DB	' can name. If you ever are in need of healing, Pepin can help'
	DB	' you. |', 00H				; `string'
_DATA	ENDS
;	COMDAT ??_C@_0BIC@BAOL@I?5grew?5up?5with?5Wirt?8s?5mother?0?5Ca@
_DATA	SEGMENT
??_C@_0BIC@BAOL@I?5grew?5up?5with?5Wirt?8s?5mother?0?5Ca@ DB 'I grew up w'
	DB	'ith Wirt''s mother, Canace. Although she was only slightly hu'
	DB	'rt when those hideous creatures stole him, she never recovere'
	DB	'd. I think she died of a broken heart. Wirt has become a mean'
	DB	'-spirited youngster, looking only to profit from the sweat of'
	DB	' others. I know that he suffered and has seen horrors that I '
	DB	'cannot even imagine, but some of that darkness hangs over him'
	DB	' still. |', 00H				; `string'
_DATA	ENDS
;	COMDAT ??_C@_0PE@LNAL@Ogden?5and?5his?5wife?5have?5taken?5me@
_DATA	SEGMENT
??_C@_0PE@LNAL@Ogden?5and?5his?5wife?5have?5taken?5me@ DB 'Ogden and his '
	DB	'wife have taken me and my grandmother into their home and hav'
	DB	'e even let me earn a few gold pieces by working at the inn. I'
	DB	' owe so much to them, and hope one day to leave this place an'
	DB	'd help them start a grand hotel in the east. |', 00H ; `string'
_DATA	ENDS
;	COMDAT ??_C@_0BO@IOHP@Well?0?5what?5can?5I?5do?5for?5ya?$DP?5?$HM?$AA@
_DATA	SEGMENT
??_C@_0BO@IOHP@Well?0?5what?5can?5I?5do?5for?5ya?$DP?5?$HM?$AA@ DB 'Well,'
	DB	' what can I do for ya? |', 00H		; `string'
_DATA	ENDS
;	COMDAT ??_C@_0PC@IMH@If?5you?8re?5looking?5for?5a?5good?5wea@
_DATA	SEGMENT
??_C@_0PC@IMH@If?5you?8re?5looking?5for?5a?5good?5wea@ DB 'If you''re loo'
	DB	'king for a good weapon, let me show this to you. Take your ba'
	DB	'sic blunt weapon, such as a mace. Works like a charm against '
	DB	'most of those undying horrors down there, and there''s nothin'
	DB	'g better to shatter skinny little skeletons! |', 00H ; `string'
_DATA	ENDS
;	COMDAT ??_C@_0OI@IPDF@The?5axe?$DP?5Aye?0?5that?8s?5a?5good?5weap@
_DATA	SEGMENT
??_C@_0OI@IPDF@The?5axe?$DP?5Aye?0?5that?8s?5a?5good?5weap@ DB 'The axe? '
	DB	'Aye, that''s a good weapon, balanced against any foe. Look ho'
	DB	'w it cleaves the air, and then imagine a nice fat demon head '
	DB	'in its path. Keep in mind, however, that it is slow to swing '
	DB	'- but talk about dealing a heavy blow! |', 00H ; `string'
_DATA	ENDS
;	COMDAT ??_C@_0BAD@LLLB@Look?5at?5that?5edge?0?5that?5balance?4@
_DATA	SEGMENT
??_C@_0BAD@LLLB@Look?5at?5that?5edge?0?5that?5balance?4@ DB 'Look at that'
	DB	' edge, that balance. A sword in the right hands, and against '
	DB	'the right foe, is the master of all weapons. Its keen blade f'
	DB	'inds little to hack or pierce on the undead, but against a li'
	DB	'ving, breathing enemy, a sword will better slice their flesh!'
	DB	' |', 00H					; `string'
_DATA	ENDS
;	COMDAT ??_C@_0LL@JBEI@Your?5weapons?5and?5armor?5will?5show@
_DATA	SEGMENT
??_C@_0LL@JBEI@Your?5weapons?5and?5armor?5will?5show@ DB 'Your weapons an'
	DB	'd armor will show the signs of your struggles against the Dar'
	DB	'kness. If you bring them to me, with a bit of work and a hot '
	DB	'forge, I can restore them to top fighting form. |', 00H ; `string'
_DATA	ENDS
;	COMDAT ??_C@_0BCJ@EEGB@While?5I?5have?5to?5practically?5smug@
_DATA	SEGMENT
??_C@_0BCJ@EEGB@While?5I?5have?5to?5practically?5smug@ DB 'While I have t'
	DB	'o practically smuggle in the metals and tools I need from car'
	DB	'avans that skirt the edges of our damned town, that witch, Ad'
	DB	'ria, always seems to get whatever she needs. If I knew even t'
	DB	'he smallest bit about how to harness magic as she did, I coul'
	DB	'd make some truly incredible things. |', 00H ; `string'
_DATA	ENDS
;	COMDAT ??_C@_0JK@NIIE@Gillian?5is?5a?5nice?5lass?4?5Shame?5th@
_DATA	SEGMENT
??_C@_0JK@NIIE@Gillian?5is?5a?5nice?5lass?4?5Shame?5th@ DB 'Gillian is a '
	DB	'nice lass. Shame that her gammer is in such poor health or I '
	DB	'would arrange to get both of them out of here on one of the t'
	DB	'rading caravans. |', 00H			; `string'
_DATA	ENDS
;	COMDAT ??_C@_0MN@MBCF@Sometimes?5I?5think?5that?5Cain?5talk@
_DATA	SEGMENT
??_C@_0MN@MBCF@Sometimes?5I?5think?5that?5Cain?5talk@ DB 'Sometimes I thi'
	DB	'nk that Cain talks too much, but I guess that is his calling '
	DB	'in life. If I could bend steel as well as he can bend your ea'
	DB	'r, I could make a suit of court plate good enough for an Empe'
	DB	'ror! |', 00H				; `string'
_DATA	ENDS
;	COMDAT ??_C@_0BDA@BFLB@I?5was?5with?5Farnham?5that?5night?5th@
_DATA	SEGMENT
??_C@_0BDA@BFLB@I?5was?5with?5Farnham?5that?5night?5th@ DB 'I was with Fa'
	DB	'rnham that night that Lazarus led us into Labyrinth. I never '
	DB	'saw the Archbishop again, and I may not have survived if Farn'
	DB	'ham was not at my side. I fear that the attack left his soul '
	DB	'as crippled as, well, another did my leg. I cannot fight this'
	DB	' battle for him now, but I would if I could. |', 00H ; `string'
_DATA	ENDS
;	COMDAT ??_C@_0LC@HEN@A?5good?5man?5who?5puts?5the?5needs?5of@
_DATA	SEGMENT
??_C@_0LC@HEN@A?5good?5man?5who?5puts?5the?5needs?5of@ DB 'A good man who'
	DB	' puts the needs of others above his own. You won''t find anyo'
	DB	'ne left in Tristram - or anywhere else for that matter - who '
	DB	'has a bad thing to say about the healer. |', 00H ; `string'
_DATA	ENDS
;	COMDAT ??_C@_0BFC@GLJH@That?5lad?5is?5going?5to?5get?5himself@
_DATA	SEGMENT
??_C@_0BFC@GLJH@That?5lad?5is?5going?5to?5get?5himself@ DB 'That lad is g'
	DB	'oing to get himself into serious trouble... or I guess I shou'
	DB	'ld say, again. I''ve tried to interest him in working here an'
	DB	'd learning an honest trade, but he prefers the high profits o'
	DB	'f dealing in goods of dubious origin. I cannot hold that agai'
	DB	'nst him after what happened to him, but I do wish he would at'
	DB	' least be careful. |', 00H			; `string'
_DATA	ENDS
;	COMDAT ??_C@_0BMA@CFMJ@The?5Innkeeper?5has?5little?5busines@
_DATA	SEGMENT
??_C@_0BMA@CFMJ@The?5Innkeeper?5has?5little?5busines@ DB 'The Innkeeper h'
	DB	'as little business and no real way of turning a profit. He ma'
	DB	'nages to make ends meet by providing food and lodging for tho'
	DB	'se who occasionally drift through the village, but they are a'
	DB	's likely to sneak off into the night as they are to pay him. '
	DB	'If it weren''t for the stores of grains and dried meats he ke'
	DB	'pt in his cellar, why, most of us would have starved during t'
	DB	'hat first year when the entire countryside was overrun by dem'
	DB	'ons. |', 00H				; `string'
_DATA	ENDS
;	COMDAT ??_C@_0CA@JCEK@Can?8t?5a?5fella?5drink?5in?5peace?$DP?5?$HM?$AA@
_DATA	SEGMENT
??_C@_0CA@JCEK@Can?8t?5a?5fella?5drink?5in?5peace?$DP?5?$HM?$AA@ DB 'Can'''
	DB	't a fella drink in peace? |', 00H		; `string'
_DATA	ENDS
;	COMDAT ??_C@_0EN@EJNE@The?5gal?5who?5brings?5the?5drinks?$DP?5O@
_DATA	SEGMENT
??_C@_0EN@EJNE@The?5gal?5who?5brings?5the?5drinks?$DP?5O@ DB 'The gal who'
	DB	' brings the drinks? Oh, yeah, what a pretty lady. So nice, to'
	DB	'o. |', 00H					; `string'
_DATA	ENDS
;	COMDAT ??_C@_0OE@FMDI@Why?5don?8t?5that?5old?5crone?5do?5some@
_DATA	SEGMENT
??_C@_0OE@FMDI@Why?5don?8t?5that?5old?5crone?5do?5some@ DB 'Why don''t th'
	DB	'at old crone do somethin'' for a change. Sure, sure, she''s g'
	DB	'ot stuff, but you listen to me... she''s unnatural. I ain''t '
	DB	'never seen her eat or drink - and you can''t trust somebody w'
	DB	'ho doesn''t drink at least a little. |', 00H ; `string'
_DATA	ENDS
;	COMDAT ??_C@_0JP@FFDK@Cain?5isn?8t?5what?5he?5says?5he?5is?4?5S@
_DATA	SEGMENT
??_C@_0JP@FFDK@Cain?5isn?8t?5what?5he?5says?5he?5is?4?5S@ DB 'Cain isn''t'
	DB	' what he says he is. Sure, sure, he talks a good story... som'
	DB	'e of ''em are real scary or funny... but I think he knows mor'
	DB	'e than he knows he knows. |', 00H		; `string'
_DATA	ENDS
;	COMDAT ??_C@_0IN@FPMD@Griswold?$DP?5Good?5old?5Griswold?4?5I?5l@
_DATA	SEGMENT
??_C@_0IN@FPMD@Griswold?$DP?5Good?5old?5Griswold?4?5I?5l@ DB 'Griswold? G'
	DB	'ood old Griswold. I love him like a brother! We fought togeth'
	DB	'er, you know, back when... we... Lazarus...  Lazarus... Lazar'
	DB	'us!!! |', 00H				; `string'
_DATA	ENDS
;	COMDAT ??_C@_0OJ@JIFC@Hehehe?0?5I?5like?5Pepin?4?5He?5really?5@
_DATA	SEGMENT
??_C@_0OJ@JIFC@Hehehe?0?5I?5like?5Pepin?4?5He?5really?5@ DB 'Hehehe, I li'
	DB	'ke Pepin. He really tries, you know. Listen here, you should '
	DB	'make sure you get to know him. Good fella like that with peop'
	DB	'le always wantin'' help. Hey, I guess that would be kinda lik'
	DB	'e you, huh hero? I was a hero too... |', 00H ; `string'
_DATA	ENDS
;	COMDAT ??_C@_0NP@GHOO@Wirt?5is?5a?5kid?5with?5more?5problems@
_DATA	SEGMENT
??_C@_0NP@GHOO@Wirt?5is?5a?5kid?5with?5more?5problems@ DB 'Wirt is a kid '
	DB	'with more problems than even me, and I know all about problem'
	DB	's. Listen here - that kid is gotta sweet deal, but he''s been'
	DB	' there, you know? Lost a leg! Gotta walk around on a piece of'
	DB	' wood. So sad, so sad... |', 00H		; `string'
_DATA	ENDS
;	COMDAT ??_C@_0NM@ICEM@Ogden?5is?5the?5best?5man?5in?5town?4?5I@
_DATA	SEGMENT
??_C@_0NM@ICEM@Ogden?5is?5the?5best?5man?5in?5town?4?5I@ DB 'Ogden is the'
	DB	' best man in town. I don''t think his wife likes me much, but'
	DB	' as long as she keeps tappin'' kegs, I''ll like her just fine'
	DB	'. Seems like I been spendin'' more time with Ogden than most,'
	DB	' but he''s so good to me... |', 00H		; `string'
_DATA	ENDS
;	COMDAT ??_C@_0LC@DAKE@I?5wanna?5tell?5ya?5sumthin?8?0?5?8cause@
_DATA	SEGMENT
??_C@_0LC@DAKE@I?5wanna?5tell?5ya?5sumthin?8?0?5?8cause@ DB 'I wanna tell'
	DB	' ya sumthin'', ''cause I know all about this stuff. It''s my '
	DB	'specialty. This here is the best... theeeee best! That other '
	DB	'ale ain''t no good since those stupid dogs... |', 00H ; `string'
_DATA	ENDS
;	COMDAT ??_C@_0LI@HDAI@No?5one?5ever?5lis?4?4?4?5listens?5to?5me@
_DATA	SEGMENT
??_C@_0LI@HDAI@No?5one?5ever?5lis?4?4?4?5listens?5to?5me@ DB 'No one ever'
	DB	' lis... listens to me. Somewhere - I ain''t too sure - but so'
	DB	'mewhere under the church is a whole pile o'' gold. Gleamin'' '
	DB	'and shinin'' and just waitin'' for someone to get it. |', 00H ; `string'
_DATA	ENDS
;	COMDAT ??_C@_0PP@GFC@I?5know?5you?5gots?5your?5own?5ideas?0?5@
_DATA	SEGMENT
??_C@_0PP@GFC@I?5know?5you?5gots?5your?5own?5ideas?0?5@ DB 'I know you go'
	DB	'ts your own ideas, and I know you''re not gonna believe this,'
	DB	' but that weapon you got there - it just ain''t no good again'
	DB	'st those big brutes! Oh, I don''t care what Griswold says, th'
	DB	'ey can''t make anything like they used to in the old days... '
	DB	'|', 00H					; `string'
_DATA	ENDS
;	COMDAT ??_C@_0OD@HAHJ@If?5I?5was?5you?4?4?4?5and?5I?5ain?8t?4?4?4?5b@
_DATA	SEGMENT
??_C@_0OD@HAHJ@If?5I?5was?5you?4?4?4?5and?5I?5ain?8t?4?4?4?5b@ DB 'If I w'
	DB	'as you... and I ain''t... but if I was, I''d sell all that st'
	DB	'uff you got and get out of here. That boy out there... He''s '
	DB	'always got somethin good, but you gotta give him some gold or'
	DB	' he won''t even show you what he''s got. |', 00H ; `string'
_DATA	ENDS
;	COMDAT ??_C@_0CJ@MHFH@I?5sense?5a?5soul?5in?5search?5of?5answ@
_DATA	SEGMENT
??_C@_0CJ@MHFH@I?5sense?5a?5soul?5in?5search?5of?5answ@ DB 'I sense a sou'
	DB	'l in search of answers... |', 00H		; `string'
_DATA	ENDS
;	COMDAT ??_C@_0NN@NKBO@Wisdom?5is?5earned?0?5not?5given?4?5If?5@
_DATA	SEGMENT
??_C@_0NN@NKBO@Wisdom?5is?5earned?0?5not?5given?4?5If?5@ DB 'Wisdom is ea'
	DB	'rned, not given. If you discover a tome of knowledge, devour '
	DB	'its words. Should you already have knowledge of the arcane my'
	DB	'steries scribed within a book, remember - that level of maste'
	DB	'ry can always increase. |', 00H		; `string'
_DATA	ENDS
;	COMDAT ??_C@_0BJK@COGJ@The?5greatest?5power?5is?5often?5the?5@
_DATA	SEGMENT
??_C@_0BJK@COGJ@The?5greatest?5power?5is?5often?5the?5@ DB 'The greatest '
	DB	'power is often the shortest lived. You may find ancient words'
	DB	' of power written upon scrolls of parchment. The strength of '
	DB	'these scrolls lies in the ability of either apprentice or ade'
	DB	'pt to cast them with equal ability. Their weakness is that th'
	DB	'ey must first be read aloud and can never be kept at the read'
	DB	'y in your mind. Know also that these scrolls can be read but '
	DB	'once, so use them with care. |', 00H	; `string'
_DATA	ENDS
;	COMDAT ??_C@_0BFO@DMBJ@Though?5the?5heat?5of?5the?5sun?5is?5be@
_DATA	SEGMENT
??_C@_0BFO@DMBJ@Though?5the?5heat?5of?5the?5sun?5is?5be@ DB 'Though the h'
	DB	'eat of the sun is beyond measure, the mere flame of a candle '
	DB	'is of greater danger. No energies, no matter how great, can b'
	DB	'e used without the proper focus. For many spells, ensorcelled'
	DB	' Staves may be charged with magical energies many times over.'
	DB	' I have the ability to restore their power - but know that no'
	DB	'thing is done without a price. |', 00H	; `string'
_DATA	ENDS
;	COMDAT ??_C@_0MK@CCCJ@The?5sum?5of?5our?5knowledge?5is?5in?5t@
_DATA	SEGMENT
??_C@_0MK@CCCJ@The?5sum?5of?5our?5knowledge?5is?5in?5t@ DB 'The sum of ou'
	DB	'r knowledge is in the sum of its people. Should you find a bo'
	DB	'ok or scroll that you cannot decipher, do not hesitate to bri'
	DB	'ng it to me. If I can make sense of it I will share what I fi'
	DB	'nd. |', 00H					; `string'
_DATA	ENDS
;	COMDAT ??_C@_0MB@NOML@To?5a?5man?5who?5only?5knows?5Iron?0?5th@
_DATA	SEGMENT
??_C@_0MB@NOML@To?5a?5man?5who?5only?5knows?5Iron?0?5th@ DB 'To a man who'
	DB	' only knows Iron, there is no greater magic than Steel. The b'
	DB	'lacksmith Griswold is more of a sorcerer than he knows. His a'
	DB	'bility to meld fire and metal is unequaled in this land. |', 00H ; `string'
_DATA	ENDS
;	COMDAT ??_C@_0OO@INKM@Corruption?5has?5the?5strength?5of?5d@
_DATA	SEGMENT
??_C@_0OO@INKM@Corruption?5has?5the?5strength?5of?5d@ DB 'Corruption has '
	DB	'the strength of deceit, but innocence holds the power of puri'
	DB	'ty. The young woman Gillian has a pure heart, placing the nee'
	DB	'ds of her matriarch over her own. She fears me, but it is onl'
	DB	'y because she does not understand me. |', 00H ; `string'
_DATA	ENDS
;	COMDAT ??_C@_0BAK@MNNG@A?5chest?5opened?5in?5darkness?5holds@
_DATA	SEGMENT
??_C@_0BAK@MNNG@A?5chest?5opened?5in?5darkness?5holds@ DB 'A chest opened'
	DB	' in darkness holds no greater treasure than when it is opened'
	DB	' in the light. The storyteller Cain is an enigma, but only to'
	DB	' those who do not look. His knowledge of what lies beneath th'
	DB	'e cathedral is far greater than even he allows himself to rea'
	DB	'lize. |', 00H				; `string'
_DATA	ENDS
;	COMDAT ??_C@_0BBH@CNBM@The?5higher?5you?5place?5your?5faith?5@
_DATA	SEGMENT
??_C@_0BBH@CNBM@The?5higher?5you?5place?5your?5faith?5@ DB 'The higher yo'
	DB	'u place your faith in one man, the farther it has to fall. Fa'
	DB	'rnham has lost his soul, but not to any demon. It was lost wh'
	DB	'en he saw his fellow townspeople betrayed by the Archbishop L'
	DB	'azarus. He has knowledge to be gleaned, but you must separate'
	DB	' fact from fantasy. |', 00H			; `string'
_DATA	ENDS
;	COMDAT ??_C@_0BEB@BIKJ@The?5hand?0?5the?5heart?5and?5the?5mind@
_DATA	SEGMENT
??_C@_0BEB@BIKJ@The?5hand?0?5the?5heart?5and?5the?5mind@ DB 'The hand, th'
	DB	'e heart and the mind can perform miracles when they are in pe'
	DB	'rfect harmony. The healer Pepin sees into the body in a way t'
	DB	'hat even I cannot. His ability to restore the sick and injure'
	DB	'd is magnified by his understanding of the creation of elixir'
	DB	's and potions. He is as great an ally as you have in Tristram'
	DB	'. |', 00H					; `string'
_DATA	ENDS
;	COMDAT ??_C@_0BMP@FECG@There?5is?5much?5about?5the?5future?5w@
_DATA	SEGMENT
??_C@_0BMP@FECG@There?5is?5much?5about?5the?5future?5w@ DB 'There is much'
	DB	' about the future we cannot see, but when it comes it will be'
	DB	' the children who wield it. The boy Wirt has a blackness upon'
	DB	' his soul, but he poses no threat to the town or its people. '
	DB	'His secretive dealings with the urchins and unspoken guilds o'
	DB	'f nearby towns gain him access to many devices that cannot be'
	DB	' easily found in Tristram. While his methods may be reproachf'
	DB	'ul, Wirt can provide assistance for your battle against the e'
	DB	'ncroaching Darkness. |', 00H		; `string'
_DATA	ENDS
;	COMDAT ??_C@_0CAD@CBLM@Earthen?5walls?5and?5thatched?5canop@
_DATA	SEGMENT
??_C@_0CAD@CBLM@Earthen?5walls?5and?5thatched?5canop@ DB 'Earthen walls a'
	DB	'nd thatched canopy do not a home create. The innkeeper Ogden '
	DB	'serves more of a purpose in this town than many understand. H'
	DB	'e provides shelter for Gillian and her matriarch, maintains w'
	DB	'hat life Farnham has left to him, and provides an anchor for '
	DB	'all who are left in the town to what Tristram once was. His t'
	DB	'avern, and the simple pleasures that can still be found there'
	DB	', provide a glimpse of a life that the people here remember. '
	DB	'It is that memory that continues to feed their hopes for your'
	DB	' success. |', 00H				; `string'
_DATA	ENDS
;	COMDAT ??_C@_0BI@JGAM@Pssst?4?4?4?5over?5here?4?4?4?5?$HM?$AA@
_DATA	SEGMENT
??_C@_0BI@JGAM@Pssst?4?4?4?5over?5here?4?4?4?5?$HM?$AA@ DB 'Pssst... over'
	DB	' here... |', 00H				; `string'
_DATA	ENDS
;	COMDAT ??_C@_0NH@EBOI@Not?5everyone?5in?5Tristram?5has?5a?5u@
_DATA	SEGMENT
??_C@_0NH@EBOI@Not?5everyone?5in?5Tristram?5has?5a?5u@ DB 'Not everyone i'
	DB	'n Tristram has a use - or a market - for everything you will '
	DB	'find in the labyrinth. Not even me, as hard as that is to bel'
	DB	'ieve. ', 0aH, ' ', 0aH, 'Sometimes, only you will be able to '
	DB	'find a purpose for some things. |', 00H	; `string'
_DATA	ENDS
;	COMDAT ??_C@_0GC@NCKB@Don?8t?5trust?5everything?5the?5drunk@
_DATA	SEGMENT
??_C@_0GC@NCKB@Don?8t?5trust?5everything?5the?5drunk@ DB 'Don''t trust ev'
	DB	'erything the drunk says. Too many ales have fogged his vision'
	DB	' and his good sense. |', 00H		; `string'
_DATA	ENDS
;	COMDAT ??_C@_0PK@MPPC@In?5case?5you?5haven?8t?5noticed?0?5I?5d@
_DATA	SEGMENT
??_C@_0PK@MPPC@In?5case?5you?5haven?8t?5noticed?0?5I?5d@ DB 'In case you '
	DB	'haven''t noticed, I don''t buy anything from Tristram. I am a'
	DB	'n importer of quality goods. If you want to peddle junk, you'''
	DB	'll have to see Griswold, Pepin or that witch, Adria. I''m sur'
	DB	'e that they will snap up whatever you can bring them... |', 00H ; `string'
_DATA	ENDS
;	COMDAT ??_C@_0BBB@PNON@I?5guess?5I?5owe?5the?5blacksmith?5my?5@
_DATA	SEGMENT
??_C@_0BBB@PNON@I?5guess?5I?5owe?5the?5blacksmith?5my?5@ DB 'I guess I ow'
	DB	'e the blacksmith my life - what there is of it. Sure, Griswol'
	DB	'd offered me an apprenticeship at the smithy, and he is a nic'
	DB	'e enough guy, but I''ll never get enough money to... well, le'
	DB	't''s just say that I have definite plans that require a large'
	DB	' amount of gold. |', 00H			; `string'
_DATA	ENDS
;	COMDAT ??_C@_0BBM@BDD@If?5I?5were?5a?5few?5years?5older?0?5I?5w@
_DATA	SEGMENT
??_C@_0BBM@BDD@If?5I?5were?5a?5few?5years?5older?0?5I?5w@ DB 'If I were a'
	DB	' few years older, I would shower her with whatever riches I c'
	DB	'ould muster, and let me assure you I can get my hands on some'
	DB	' very nice stuff. Gillian is a beautiful girl who should get '
	DB	'out of Tristram as soon as it is safe. Hmmm... maybe I''ll ta'
	DB	'ke her with me when I go... |', 00H		; `string'
_DATA	ENDS
;	COMDAT ??_C@_0NM@EPHD@Cain?5knows?5too?5much?4?5He?5scares?5t@
_DATA	SEGMENT
??_C@_0NM@EPHD@Cain?5knows?5too?5much?4?5He?5scares?5t@ DB 'Cain knows to'
	DB	'o much. He scares the life out of me - even more than that wo'
	DB	'man across the river. He keeps telling me about how lucky I a'
	DB	'm to be alive, and how my story is foretold in legend. I thin'
	DB	'k he''s off his crock. |', 00H		; `string'
_DATA	ENDS
;	COMDAT ??_C@_0BGL@PMGC@Farnham?5?9?5now?5there?5is?5a?5man?5wit@
_DATA	SEGMENT
??_C@_0BGL@PMGC@Farnham?5?9?5now?5there?5is?5a?5man?5wit@ DB 'Farnham - n'
	DB	'ow there is a man with serious problems, and I know all about'
	DB	' how serious problems can be. He trusted too much in the inte'
	DB	'grity of one man, and Lazarus led him into the very jaws of d'
	DB	'eath. Oh, I know what it''s like down there, so don''t even s'
	DB	'tart telling me about your plans to destroy the evil that dwe'
	DB	'lls in that Labyrinth. Just watch your legs... |', 00H ; `string'
_DATA	ENDS
;	COMDAT ??_C@_0KE@KLJD@As?5long?5as?5you?5don?8t?5need?5anythi@
_DATA	SEGMENT
??_C@_0KE@KLJD@As?5long?5as?5you?5don?8t?5need?5anythi@ DB 'As long as yo'
	DB	'u don''t need anything reattached, old Pepin is as good as th'
	DB	'ey come. ', 0aH, ' ', 0aH, 'If I''d have had some of those po'
	DB	'tions he brews, I might still have my leg... |', 00H ; `string'
_DATA	ENDS
;	COMDAT ??_C@_0BDA@IAAA@Adria?5truly?5bothers?5me?4?5Sure?0?5Ca@
_DATA	SEGMENT
??_C@_0BDA@IAAA@Adria?5truly?5bothers?5me?4?5Sure?0?5Ca@ DB 'Adria truly '
	DB	'bothers me. Sure, Cain is creepy in what he can tell you abou'
	DB	't the past, but that witch can see into your past. She always'
	DB	' has some way to get whatever she needs, too. Adria gets her '
	DB	'hands on more merchandise than I''ve seen pass through the ga'
	DB	'tes of the King''s Bazaar during High Festival. |', 00H ; `string'
_DATA	ENDS
;	COMDAT ??_C@_0BBB@IGFO@Ogden?5is?5a?5fool?5for?5staying?5here@
_DATA	SEGMENT
??_C@_0BBB@IGFO@Ogden?5is?5a?5fool?5for?5staying?5here@ DB 'Ogden is a fo'
	DB	'ol for staying here. I could get him out of town for a very r'
	DB	'easonable price, but he insists on trying to make a go of it '
	DB	'with that stupid tavern. I guess at the least he gives Gillia'
	DB	'n a place to work, and his wife Garda does make a superb Shep'
	DB	'herd''s pie... |', 00H			; `string'
_DATA	ENDS
;	COMDAT ??_C@_0MD@OINA@Beyond?5the?5Hall?5of?5Heroes?5lies?5t@
_DATA	SEGMENT
??_C@_0MD@OINA@Beyond?5the?5Hall?5of?5Heroes?5lies?5t@ DB 'Beyond the Hal'
	DB	'l of Heroes lies the Chamber of Bone. Eternal death awaits an'
	DB	'y who would seek to steal the treasures secured within this r'
	DB	'oom. So speaks the Lord of Terror, and so it is written. |', 00H ; `string'
_DATA	ENDS
;	COMDAT ??_C@_0HL@PJLJ@?4?4?4and?5so?0?5locked?5beyond?5the?5Gat@
_DATA	SEGMENT
??_C@_0HL@PJLJ@?4?4?4and?5so?0?5locked?5beyond?5the?5Gat@ DB '...and so, '
	DB	'locked beyond the Gateway of Blood and past the Hall of Fire,'
	DB	' Valor awaits for the Hero of Light to awaken... |', 00H ; `string'
_DATA	ENDS
;	COMDAT ??_C@_0BAA@NLCC@I?5can?5see?5what?5you?5see?5not?4?6Visi@
_DATA	SEGMENT
??_C@_0BAA@NLCC@I?5can?5see?5what?5you?5see?5not?4?6Visi@ DB 'I can see w'
	DB	'hat you see not.', 0aH, 'Vision milky then eyes rot.', 0aH, 'W'
	DB	'hen you turn they will be gone,', 0aH, 'Whispering their hidd'
	DB	'en song.', 0aH, 'Then you see what cannot be,', 0aH, 'Shadows'
	DB	' move where light should be.', 0aH, 'Out of darkness, out of '
	DB	'mind,', 0aH, 'Cast down into the Halls of the Blind. |', 0aH, 00H ; `string'
_DATA	ENDS
;	COMDAT ??_C@_0OJ@FKCI@The?5armories?5of?5Hell?5are?5home?5to@
_DATA	SEGMENT
??_C@_0OJ@FKCI@The?5armories?5of?5Hell?5are?5home?5to@ DB 'The armories o'
	DB	'f Hell are home to the Warlord of Blood. In his wake lay the '
	DB	'mutilated bodies of thousands. Angels and man alike have been'
	DB	' cut down to fulfill his endless sacrifices to the Dark ones '
	DB	'who scream for one thing - blood. |', 00H	; `string'
_DATA	ENDS
;	COMDAT ??_C@_0BPE@JMJL@Take?5heed?5and?5bear?5witness?5to?5th@
_DATA	SEGMENT
??_C@_0BPE@JMJL@Take?5heed?5and?5bear?5witness?5to?5th@ DB 'Take heed and'
	DB	' bear witness to the truths that lie herein, for they are the'
	DB	' last legacy of the Horadrim. There is a war that rages on ev'
	DB	'en now, beyond the fields that we know - between the utopian '
	DB	'kingdoms of the High Heavens and the chaotic pits of the Burn'
	DB	'ing Hells. This war is known as the Great Conflict, and it ha'
	DB	's raged and burned longer than any of the stars in the sky. N'
	DB	'either side ever gains sway for long as the forces of Light a'
	DB	'nd Darkness constantly vie for control over all creation. |', 00H ; `string'
_DATA	ENDS
;	COMDAT ??_C@_0BNB@LDEK@Take?5heed?5and?5bear?5witness?5to?5th@
_DATA	SEGMENT
??_C@_0BNB@LDEK@Take?5heed?5and?5bear?5witness?5to?5th@ DB 'Take heed and'
	DB	' bear witness to the truths that lie herein, for they are the'
	DB	' last legacy of the Horadrim. When the Eternal Conflict betwe'
	DB	'en the High Heavens and the Burning Hells falls upon mortal s'
	DB	'oil, it is called the Sin War. Angels and Demons walk amongst'
	DB	' humanity in disguise, fighting in secret, away from the pryi'
	DB	'ng eyes of mortals. Some daring, powerful mortals have even a'
	DB	'llied themselves with either side, and helped to dictate the '
	DB	'course of the Sin War. |', 00H		; `string'
_DATA	ENDS
;	COMDAT ??_C@_0EEK@CKGF@Take?5heed?5and?5bear?5witness?5to?5th@
_DATA	SEGMENT
??_C@_0EEK@CKGF@Take?5heed?5and?5bear?5witness?5to?5th@ DB 'Take heed and'
	DB	' bear witness to the truths that lie herein, for they are the'
	DB	' last legacy of the Horadrim. Nearly three hundred years ago,'
	DB	' it came to be known that the Three Prime Evils of the Burnin'
	DB	'g Hells had mysteriously come to our world. The Three Brother'
	DB	's ravaged the lands of the east for decades, while humanity w'
	DB	'as left trembling in their wake. Our Order - the Horadrim - w'
	DB	'as founded by a group of secretive magi to hunt down and capt'
	DB	'ure the Three Evils once and for all.', 0aH, ' ', 0aH, 'The o'
	DB	'riginal Horadrim captured two of the Three within powerful ar'
	DB	'tifacts known as Soulstones and buried them deep beneath the '
	DB	'desolate eastern sands. The third Evil escaped capture and fl'
	DB	'ed to the west with many of the Horadrim in pursuit. The Thir'
	DB	'd Evil - known as Diablo, the Lord of Terror - was eventually'
	DB	' captured, his essence set in a Soulstone and buried within t'
	DB	'his Labyrinth.', 0aH, ' ', 0aH, 'Be warned that the soulstone'
	DB	' must be kept from discovery by those not of the faith. If Di'
	DB	'ablo were to be released, he would seek a body that is easily'
	DB	' controlled as he would be very weak - perhaps that of an old'
	DB	' man or a child. |', 00H			; `string'
_DATA	ENDS
;	COMDAT ??_C@_0BPE@KCBK@So?5it?5came?5to?5be?5that?5there?5was?5@
_DATA	SEGMENT
??_C@_0BPE@KCBK@So?5it?5came?5to?5be?5that?5there?5was?5@ DB 'So it came '
	DB	'to be that there was a great revolution within the Burning He'
	DB	'lls known as The Dark Exile. The Lesser Evils overthrew the T'
	DB	'hree Prime Evils and banished their spirit forms to the morta'
	DB	'l realm. The demons Belial (the Lord of Lies) and Azmodan (th'
	DB	'e Lord of Sin) fought to claim rulership of Hell during the a'
	DB	'bsence of the Three Brothers. All of Hell polarized between t'
	DB	'he factions of Belial and Azmodan while the forces of the Hig'
	DB	'h Heavens continually battered upon the very Gates of Hell. |'
	DB	00H						; `string'
_DATA	ENDS
;	COMDAT ??_C@_0BHF@PIMJ@Many?5demons?5traveled?5to?5the?5mort@
_DATA	SEGMENT
??_C@_0BHF@PIMJ@Many?5demons?5traveled?5to?5the?5mort@ DB 'Many demons tr'
	DB	'aveled to the mortal realm in search of the Three Brothers. T'
	DB	'hese demons were followed to the mortal plane by Angels who h'
	DB	'unted them throughout the vast cities of the East. The Angels'
	DB	' allied themselves with a secretive Order of mortal magi name'
	DB	'd the Horadrim, who quickly became adept at hunting demons. T'
	DB	'hey also made many dark enemies in the underworlds. |', 00H ; `string'
_DATA	ENDS
;	COMDAT ??_C@_0DDH@IDMK@So?5it?5came?5to?5be?5that?5the?5Three?5@
_DATA	SEGMENT
??_C@_0DDH@IDMK@So?5it?5came?5to?5be?5that?5the?5Three?5@ DB 'So it came '
	DB	'to be that the Three Prime Evils were banished in spirit form'
	DB	' to the mortal realm and after sewing chaos across the East f'
	DB	'or decades, they were hunted down by the cursed Order of the '
	DB	'mortal Horadrim. The Horadrim used artifacts called Soulstone'
	DB	's to contain the essence of Mephisto, the Lord of Hatred and '
	DB	'his brother Baal, the Lord of Destruction. The youngest broth'
	DB	'er - Diablo, the Lord of Terror - escaped to the west.', 0aH, ' '
	DB	0aH, 'Eventually the Horadrim captured Diablo within a Soulsto'
	DB	'ne as well, and buried him under an ancient, forgotten Cathed'
	DB	'ral. There, the Lord of Terror sleeps and awaits the time of '
	DB	'his rebirth. Know ye that he will seek a body of youth and po'
	DB	'wer to possess - one that is innocent and easily controlled. '
	DB	'He will then arise to free his Brothers and once more fan the'
	DB	' flames of the Sin War... |', 00H		; `string'
_DATA	ENDS
;	COMDAT ??_C@_0BLG@EIJK@All?5praises?5to?5Diablo?5?9?5Lord?5of?5@
_DATA	SEGMENT
??_C@_0BLG@EIJK@All?5praises?5to?5Diablo?5?9?5Lord?5of?5@ DB 'All praises'
	DB	' to Diablo - Lord of Terror and Survivor of The Dark Exile. W'
	DB	'hen he awakened from his long slumber, my Lord and Master spo'
	DB	'ke to me of secrets that few mortals know. He told me the kin'
	DB	'gdoms of the High Heavens and the pits of the Burning Hells e'
	DB	'ngage in an eternal war. He revealed the powers that have bro'
	DB	'ught this discord to the realms of man. My lord has named the'
	DB	' battle for this world and all who exist here the Sin War. |', 00H ; `string'
_DATA	ENDS
;	COMDAT ??_C@_0BKF@KIGP@Glory?5and?5Approbation?5to?5Diablo?5@
_DATA	SEGMENT
??_C@_0BKF@KIGP@Glory?5and?5Approbation?5to?5Diablo?5@ DB 'Glory and Appr'
	DB	'obation to Diablo - Lord of Terror and Leader of the Three. M'
	DB	'y Lord spoke to me of his two Brothers, Mephisto and Baal, wh'
	DB	'o were banished to this world long ago. My Lord wishes to bid'
	DB	'e his time and harness his awesome power so that he may free '
	DB	'his captive brothers from their tombs beneath the sands of th'
	DB	'e east. Once my Lord releases his Brothers, the Sin War will '
	DB	'once again know the fury of the Three. |', 00H ; `string'
_DATA	ENDS
;	COMDAT ??_C@_0CHD@HMLO@Hail?5and?5Sacrifice?5to?5Diablo?5?9?5L@
_DATA	SEGMENT
??_C@_0CHD@HMLO@Hail?5and?5Sacrifice?5to?5Diablo?5?9?5L@ DB 'Hail and Sac'
	DB	'rifice to Diablo - Lord of Terror and Destroyer of Souls. Whe'
	DB	'n I awoke my Master from his sleep, he attempted to possess a'
	DB	' mortal''s form. Diablo attempted to claim the body of King L'
	DB	'eoric, but my Master was too weak from his imprisonment. My L'
	DB	'ord required a simple and innocent anchor to this world, and '
	DB	'so found the boy Albrecht to be perfect for the task. While t'
	DB	'he good King Leoric was left maddened by Diablo''s unsuccessf'
	DB	'ul possession, I kidnapped his son Albrecht and brought him b'
	DB	'efore my Master. I now await Diablo''s call and pray that I w'
	DB	'ill be rewarded when he at last emerges as the Lord of this w'
	DB	'orld. |', 00H				; `string'
_DATA	ENDS
;	COMDAT ??_C@_0CGO@ICAH@Thank?5goodness?5you?8ve?5returned?$CB?6@
_DATA	SEGMENT
??_C@_0CGO@ICAH@Thank?5goodness?5you?8ve?5returned?$CB?6@ DB 'Thank goodn'
	DB	'ess you''ve returned!', 0aH, 'Much has changed since you live'
	DB	'd here, my friend. All was peaceful until the dark riders cam'
	DB	'e and destroyed our village. Many were cut down where they st'
	DB	'ood, and those who took up arms were slain or dragged away to'
	DB	' become slaves - or worse. The church at the edge of town has'
	DB	' been desecrated and is being used for dark rituals. The scre'
	DB	'ams that echo in the night are inhuman, but some of our towns'
	DB	'folk may yet survive. Follow the path that lies between my ta'
	DB	'vern and the blacksmith shop to find the church and save who '
	DB	'you can. ', 0aH, ' ', 0aH, 'Perhaps I can tell you more if we'
	DB	' speak again. Good luck.|', 00H		; `string'
_DATA	ENDS
CONST	SEGMENT
_alltext DD	FLAT:??_C@_0BHP@MNPM@?5Ahh?0?5the?5story?5of?5our?5King?0?5is?5@
	DD	01H
	DD	05H
	DD	0175H
	DD	FLAT:??_C@_0DOE@KIMK@The?5village?5needs?5your?5help?0?5goo@
	DD	01H
	DD	05H
	DD	01b0H
	DD	FLAT:??_C@_0JP@DHAN@As?5I?5told?5you?0?5good?5master?0?5the?5@
	DD	01H
	DD	06H
	DD	01b1H
	DD	FLAT:??_C@_0PG@FDPL@The?5curse?5of?5our?5King?5has?5passed@
	DD	01H
	DD	05H
	DD	01b2H
	DD	FLAT:??_C@_0BBN@MEID@The?5loss?5of?5his?5son?5was?5too?5much@
	DD	01H
	DD	05H
	DD	0112H
	DD	FLAT:??_C@_0KG@OPKF@I?5don?8t?5like?5to?5think?5about?5how?5@
	DD	01H
	DD	06H
	DD	08cH
	DD	FLAT:??_C@_0BCO@NBMD@I?5made?5many?5of?5the?5weapons?5and?5m@
	DD	01H
	DD	05H
	DD	0b4H
	DD	FLAT:??_C@_0HM@OOBO@I?5don?8t?5care?5about?5that?4?5Listen?0@
	DD	01H
	DD	05H
	DD	0efH
	DD	FLAT:??_C@_0PJ@HFNP@The?5dead?5who?5walk?5among?5the?5livi@
	DD	01H
	DD	05H
	DD	01c9H
	DD	FLAT:??_C@_0OH@NJDG@Look?0?5I?8m?5running?5a?5business?5her@
	DD	01H
	DD	05H
	DD	0141H
	DD	FLAT:??_C@_0GF@OLJL@The?5warmth?5of?5life?5has?5entered?5m@
	DD	00H
	DD	05H
	DD	0351H
	DD	FLAT:??_C@_0BFJ@GIND@I?5see?5that?5this?5strange?5behavior@
	DD	01H
	DD	05H
	DD	0176H
	DD	FLAT:??_C@_0CDH@BPJH@Master?0?5I?5have?5a?5strange?5experie@
	DD	01H
	DD	05H
	DD	01b3H
	DD	FLAT:??_C@_0BFI@OLP@Oh?0?5you?5didn?8t?5have?5to?5bring?5bac@
	DD	01H
	DD	05H
	DD	01b4H
	DD	FLAT:??_C@_0MM@NPKM@My?5goodness?0?5demons?5running?5abou@
	DD	01H
	DD	05H
	DD	0113H
	DD	FLAT:??_C@_0KF@OELJ@Oh?5my?$CB?5Is?5that?5where?5the?5sign?5we@
	DD	01H
	DD	06H
	DD	08dH
	DD	FLAT:??_C@_0LD@FAMD@Demons?5stole?5Ogden?8s?5sign?0?5you?5s@
	DD	01H
	DD	06H
	DD	0b5H
	DD	FLAT:??_C@_0PD@BOCE@You?5know?5what?5I?5think?$DP?5Somebody?5@
	DD	01H
	DD	05H
	DD	0f0H
	DD	FLAT:??_C@_0IH@MMMG@No?5mortal?5can?5truly?5understand?5t@
	DD	01H
	DD	06H
	DD	01caH
	DD	FLAT:??_C@_0LB@NBLI@What?5?9?5is?5he?5saying?5I?5took?5that?$DP@
	DD	01H
	DD	06H
	DD	0142H
	DD	FLAT:??_C@_0MD@GIG@Hey?5?9?5You?5that?5one?5that?5kill?5all@
	DD	01H
	DD	05H
	DD	0352H
	DD	FLAT:??_C@_0DL@CGCM@You?5kill?5uglies?0?5get?5banner?4?5You@
	DD	01H
	DD	06H
	DD	0353H
	DD	FLAT:??_C@_0EG@COJF@You?5give?$CB?5Yes?0?5good?$CB?5Go?5now?0?5we?5@
	DD	01H
	DD	06H
	DD	0354H
	DD	FLAT:??_C@_0ENC@DIKO@This?5does?5not?5bode?5well?0?5for?5it?5@
	DD	01H
	DD	03H
	DD	0198H
	DD	FLAT:??_C@_0HP@JHAM@You?5must?5hurry?5and?5rescue?5Albrec@
	DD	01H
	DD	05H
	DD	0199H
	DD	FLAT:??_C@_0CGP@BPPO@Your?5story?5is?5quite?5grim?0?5my?5fri@
	DD	01H
	DD	05H
	DD	019aH
	DD	FLAT:??_C@_0BBP@HECL@Lazarus?5was?5the?5Archbishop?5who?5l@
	DD	01H
	DD	06H
	DD	019cH
	DD	FLAT:??_C@_01KALE@?$HM?$AA@
	DD	01H
	DD	05H
	DD	019aH
	DD	FLAT:??_C@_01KALE@?$HM?$AA@
	DD	01H
	DD	05H
	DD	019aH
	DD	FLAT:??_C@_0BCK@MONF@I?5was?5shocked?5when?5I?5heard?5of?5wh@
	DD	01H
	DD	05H
	DD	0114H
	DD	FLAT:??_C@_0OB@HLFK@I?5remember?5Lazarus?5as?5being?5a?5ve@
	DD	01H
	DD	05H
	DD	08eH
	DD	FLAT:??_C@_0BBG@OBFK@I?5was?5there?5when?5Lazarus?5led?5us?5@
	DD	01H
	DD	05H
	DD	0b6H
	DD	FLAT:??_C@_0MP@JODH@They?5stab?0?5then?5bite?0?5then?5they?8@
	DD	01H
	DD	05H
	DD	0f1H
	DD	FLAT:??_C@_0NH@LMDN@I?5did?5not?5know?5this?5Lazarus?5of?5w@
	DD	01H
	DD	05H
	DD	01cbH
	DD	FLAT:??_C@_0MA@CGJN@Yes?0?5the?5righteous?5Lazarus?0?5who?5@
	DD	01H
	DD	05H
	DD	0143H
	DD	FLAT:??_C@_0JA@BFOI@Abandon?5your?5foolish?5quest?4?5All?5@
	DD	00H
	DD	05H
	DD	034fH
	DD	FLAT:??_C@_02HFOG@?5?$HM?$AA@
	DD	00H
	DD	05H
	DD	034fH
	DD	FLAT:??_C@_0BDM@EGPP@Hmm?0?5I?5don?8t?5know?5what?5I?5can?5rea@
	DD	01H
	DD	05H
	DD	0178H
	DD	FLAT:??_C@_0PF@KKBF@I?5have?5always?5tried?5to?5keep?5a?5la@
	DD	01H
	DD	06H
	DD	019dH
	DD	FLAT:??_C@_0BGC@IGFC@I?8m?5glad?5I?5caught?5up?5to?5you?5in?5t@
	DD	01H
	DD	05H
	DD	0125H
	DD	FLAT:??_C@_0JA@FAIC@Please?0?5you?5must?5hurry?4?5Every?5ho@
	DD	01H
	DD	06H
	DD	0126H
	DD	FLAT:??_C@_0BBL@NIPL@What?8s?5that?5you?5say?5?9?5the?5mere?5p@
	DD	01H
	DD	05H
	DD	0127H
	DD	FLAT:??_C@_0IG@HEHM@My?5grandmother?5is?5very?5weak?0?5and@
	DD	01H
	DD	06H
	DD	08fH
	DD	FLAT:??_C@_0ME@FEIF@Pepin?5has?5told?5you?5the?5truth?4?5We@
	DD	01H
	DD	05H
	DD	0b7H
	DD	FLAT:??_C@_0BD@DINJ@You?5drink?5water?$DP?5?$HM?$AA@
	DD	01H
	DD	08H
	DD	0f2H
	DD	FLAT:??_C@_0LP@CPOP@The?5people?5of?5Tristram?5will?5die?5@
	DD	01H
	DD	06H
	DD	01ccH
	DD	FLAT:??_C@_0IP@PIKF@For?5once?0?5I?8m?5with?5you?4?5My?5busin@
	DD	01H
	DD	06H
	DD	0144H
	DD	FLAT:??_C@_0BKA@DFMI@A?5book?5that?5speaks?5of?5a?5chamber?5@
	DD	01H
	DD	04H
	DD	017bH
	DD	FLAT:??_C@_0HA@OCOF@I?5am?5afraid?5that?5I?5don?8t?5know?5an@
	DD	01H
	DD	06H
	DD	01a0H
	DD	FLAT:??_C@_0FJ@INNK@This?5sounds?5like?5a?5very?5dangerou@
	DD	01H
	DD	06H
	DD	0116H
	DD	FLAT:??_C@_0GM@IJJO@I?5am?5afraid?5that?5I?5haven?8t?5heard@
	DD	01H
	DD	06H
	DD	091H
	DD	FLAT:??_C@_0JP@KNGP@I?5know?5nothing?5of?5this?5place?0?5bu@
	DD	01H
	DD	06H
	DD	0baH
	DD	FLAT:??_C@_0OF@LJAJ@Okay?0?5so?5listen?4?5There?8s?5this?5ch@
	DD	01H
	DD	05H
	DD	0f5H
	DD	FLAT:??_C@_0JE@BFIG@You?5will?5become?5an?5eternal?5serva@
	DD	01H
	DD	06H
	DD	01cfH
	DD	FLAT:??_C@_0MN@BLMN@A?5vast?5and?5mysterious?5treasure?0?5@
	DD	01H
	DD	05H
	DD	0147H
	DD	FLAT:??_C@_0BGB@OLOM@It?5seems?5that?5the?5Archbishop?5Laz@
	DD	01H
	DD	05H
	DD	017eH
	DD	FLAT:??_C@_0HL@INAO@Yes?0?5Farnham?5has?5mumbled?5somethi@
	DD	01H
	DD	06H
	DD	01a3H
	DD	FLAT:??_C@_0BKA@IIOP@By?5the?5Light?0?5I?5know?5of?5this?5vil@
	DD	01H
	DD	05H
	DD	0119H
	DD	FLAT:??_C@_0IK@JGGP@When?5Farnham?5said?5something?5abou@
	DD	01H
	DD	06H
	DD	093H
	DD	FLAT:??_C@_0BII@LGOE@I?5saw?5what?5Farnham?5calls?5the?5But@
	DD	01H
	DD	05H
	DD	0bdH
	DD	FLAT:??_C@_0KM@DBJO@Big?$CB?5Big?5cleaver?5killing?5all?5my?5@
	DD	01H
	DD	05H
	DD	0f8H
	DD	FLAT:??_C@_0MO@NACH@The?5Butcher?5is?5a?5sadistic?5creatu@
	DD	01H
	DD	05H
	DD	01d2H
	DD	FLAT:??_C@_0BAA@GEMB@I?5know?5more?5than?5you?8d?5think?5abo@
	DD	01H
	DD	06H
	DD	014aH
	DD	FLAT:??_C@_0BAN@LCEP@Please?0?5listen?5to?5me?4?5The?5Archbi@
	DD	01H
	DD	05H
	DD	01fbH
	DD	FLAT:??_C@_02HFOG@?5?$HM?$AA@
	DD	01H
	DD	05H
	DD	0346H
	DD	FLAT:??_C@_0BGN@HNHP@You?5recite?5an?5interesting?5rhyme?5@
	DD	01H
	DD	05H
	DD	0180H
	DD	FLAT:??_C@_0OH@NJ@I?5never?5much?5cared?5for?5poetry?4?5O@
	DD	01H
	DD	06H
	DD	01a5H
	DD	FLAT:??_C@_0OH@IDPN@This?5does?5seem?5familiar?0?5somehow@
	DD	01H
	DD	05H
	DD	011bH
	DD	FLAT:??_C@_0KM@GBEC@If?5you?5have?5questions?5about?5blin@
	DD	01H
	DD	06H
	DD	095H
	DD	FLAT:??_C@_0JN@PHAB@I?5am?5afraid?5that?5I?5have?5neither?5@
	DD	01H
	DD	06H
	DD	0bfH
	DD	FLAT:??_C@_0EE@NKDH@Look?5here?4?4?4?5that?8s?5pretty?5funny@
	DD	01H
	DD	06H
	DD	0faH
	DD	FLAT:??_C@_0KG@PNIA@This?5is?5a?5place?5of?5great?5anguish@
	DD	01H
	DD	06H
	DD	01d4H
	DD	FLAT:??_C@_0MA@KNFA@Lets?5see?0?5am?5I?5selling?5you?5somet@
	DD	01H
	DD	05H
	DD	014bH
	DD	FLAT:??_C@_0BNM@DNCC@You?5claim?5to?5have?5spoken?5with?5La@
	DD	01H
	DD	05H
	DD	0181H
	DD	FLAT:??_C@_0IG@IJIF@You?5speak?5of?5a?5brave?5warrior?5lon@
	DD	01H
	DD	06H
	DD	01a6H
	DD	FLAT:??_C@_0BBE@FPLK@A?5golden?5elixir?0?5you?5say?4?5I?5have@
	DD	01H
	DD	05H
	DD	011cH
	DD	FLAT:??_C@_0GK@DADD@I?8ve?5never?5heard?5of?5a?5Lachdanan?5@
	DD	01H
	DD	07H
	DD	096H
	DD	FLAT:??_C@_0BAI@PBNB@If?5it?5is?5actually?5Lachdanan?5that@
	DD	01H
	DD	05H
	DD	0c0H
	DD	FLAT:??_C@_0ID@CAPA@?5Lachdanan?5is?5dead?4?5Everybody?5kn@
	DD	01H
	DD	05H
	DD	0fbH
	DD	FLAT:??_C@_0JO@EHOM@You?5may?5meet?5people?5who?5are?5trap@
	DD	01H
	DD	06H
	DD	01d5H
	DD	FLAT:??_C@_0BAO@LAIB@Wait?0?5let?5me?5guess?4?5Cain?5was?5swa@
	DD	01H
	DD	05H
	DD	014cH
	DD	FLAT:??_C@_0CJA@CGLA@Please?0?5don?8t?5kill?5me?0?5just?5hear@
	DD	01H
	DD	03H
	DD	034cH
	DD	FLAT:??_C@_0GF@KDAC@You?5have?5not?5found?5the?5Golden?5El@
	DD	01H
	DD	06H
	DD	034dH
	DD	FLAT:??_C@_0BEK@GDGJ@You?5have?5saved?5my?5soul?5from?5damn@
	DD	01H
	DD	04H
	DD	034eH
	DD	FLAT:??_C@_0CBG@BNMH@Griswold?5speaks?5of?5The?5Anvil?5of?5@
	DD	01H
	DD	04H
	DD	0182H
	DD	FLAT:??_C@_0GI@PFKF@Don?8t?5you?5think?5that?5Griswold?5wo@
	DD	01H
	DD	07H
	DD	01a7H
	DD	FLAT:??_C@_0OI@NGGI@If?5you?5had?5been?5looking?5for?5info@
	DD	01H
	DD	06H
	DD	011dH
	DD	FLAT:??_C@_0BBH@BOEP@Griswold?8s?5father?5used?5to?5tell?5s@
	DD	01H
	DD	05H
	DD	097H
	DD	FLAT:??_C@_0DHE@GKGO@Greetings?$CB?5It?8s?5always?5a?5pleasur@
	DD	01H
	DD	05H
	DD	0c8H
	DD	FLAT:??_C@_0KB@BMCB@Nothing?5yet?0?5eh?$DP?5Well?0?5keep?5sear@
	DD	01H
	DD	05H
	DD	0c9H
	DD	FLAT:??_C@_0NG@BKNC@I?5can?5hardly?5believe?5it?$CB?5This?5is@
	DD	01H
	DD	05H
	DD	0caH
	DD	FLAT:??_C@_0GG@KIBD@Griswold?5can?8t?5sell?5his?5anvil?4?5W@
	DD	01H
	DD	06H
	DD	0fcH
	DD	FLAT:??_C@_0BBG@FNHD@There?5are?5many?5artifacts?5within?5@
	DD	01H
	DD	05H
	DD	01d6H
	DD	FLAT:??_C@_0IC@MEGF@If?5you?5were?5to?5find?5this?5artifac@
	DD	01H
	DD	06H
	DD	014dH
	DD	FLAT:??_C@_0DGD@CLHN@The?5Gateway?5of?5Blood?5and?5the?5Hal@
	DD	01H
	DD	03H
	DD	0183H
	DD	FLAT:??_C@_0LO@MLKC@Every?5child?5hears?5the?5story?5of?5t@
	DD	01H
	DD	06H
	DD	01a8H
	DD	FLAT:??_C@_0JP@BOGN@Hmm?4?4?4?5it?5sounds?5like?5something?5@
	DD	01H
	DD	06H
	DD	011eH
	DD	FLAT:??_C@_0IO@FJEP@The?5story?5of?5the?5magic?5armor?5cal@
	DD	01H
	DD	06H
	DD	098H
	DD	FLAT:??_C@_0BBN@BIHB@The?5armor?5known?5as?5Valor?5could?5b@
	DD	01H
	DD	05H
	DD	0c1H
	DD	FLAT:??_C@_0CG@DHDB@Zzzzzzzzzzzzzzzzzzzzzzzzzzzzzzzz@
	DD	01H
	DD	07H
	DD	0fdH
	DD	FLAT:??_C@_0JA@LPJL@Should?5you?5find?5these?5Stones?5of?5@
	DD	01H
	DD	06H
	DD	01d7H
	DD	FLAT:??_C@_0LM@ONEI@You?5intend?5to?5find?5the?5armor?5kno@
	DD	01H
	DD	06H
	DD	014eH
	DD	FLAT:??_C@_0CDK@LJNG@I?5know?5of?5only?5one?5legend?5that?5s@
	DD	01H
	DD	05H
	DD	0186H
	DD	FLAT:??_C@_0KE@EBNB@I?5am?5afraid?5that?5I?5haven?8t?5heard@
	DD	01H
	DD	06H
	DD	01abH
	DD	FLAT:??_C@_0GF@BICG@Cain?5would?5be?5able?5to?5tell?5you?5m@
	DD	01H
	DD	07H
	DD	0121H
	DD	FLAT:??_C@_0HK@JAMK@If?5you?5are?5to?5battle?5such?5a?5fier@
	DD	01H
	DD	06H
	DD	09bH
	DD	FLAT:??_C@_0HN@MICE@Dark?5and?5wicked?5legends?5surround@
	DD	01H
	DD	06H
	DD	0c4H
	DD	FLAT:??_C@_0KL@CACD@Always?5you?5gotta?5talk?5about?5Bloo@
	DD	01H
	DD	05H
	DD	0ffH
	DD	FLAT:??_C@_0JL@PNPB@His?5prowess?5with?5the?5blade?5is?5aw@
	DD	01H
	DD	05H
	DD	01daH
	DD	FLAT:??_C@_0JE@IECE@I?5haven?8t?5ever?5dealt?5with?5this?5W@
	DD	01H
	DD	06H
	DD	0151H
	DD	FLAT:??_C@_0FI@OPJJ@My?5blade?5sings?5for?5your?5blood?0?5m@
	DD	00H
	DD	06H
	DD	0355H
	DD	FLAT:??_C@_0BGA@GNIC@Griswold?5speaks?5of?5the?5Heaven?5St@
	DD	01H
	DD	05H
	DD	0188H
	DD	FLAT:??_C@_0OB@DGEG@The?5caravan?5stopped?5here?5to?5take@
	DD	01H
	DD	06H
	DD	01adH
	DD	FLAT:??_C@_0JO@MAOM@I?5don?8t?5know?5what?5it?5is?5that?5the@
	DD	01H
	DD	06H
	DD	0123H
	DD	FLAT:??_C@_0BAB@FIMM@Well?0?5a?5caravan?5of?5some?5very?5imp@
	DD	01H
	DD	06H
	DD	09dH
	DD	FLAT:??_C@_0BMM@FPNH@Stay?5for?5a?5moment?5?9?5I?5have?5a?5sto@
	DD	01H
	DD	05H
	DD	0cbH
	DD	FLAT:??_C@_0HL@DMGI@I?5am?5still?5waiting?5for?5you?5to?5br@
	DD	01H
	DD	06H
	DD	0ccH
	DD	FLAT:??_C@_0ME@MCLM@Let?5me?5see?5that?5?9?5aye?4?4?4?5aye?0?5it@
	DD	01H
	DD	05H
	DD	0cdH
	DD	FLAT:??_C@_0KM@KIKN@I?5used?5to?5have?5a?5nice?5ring?$DL?5it?5w@
	DD	01H
	DD	05H
	DD	0101H
	DD	FLAT:??_C@_0LC@IGNK@The?5Heaven?5Stone?5is?5very?5powerfu@
	DD	01H
	DD	05H
	DD	01dcH
	DD	FLAT:??_C@_0KK@GHKD@If?5anyone?5can?5make?5something?5out@
	DD	01H
	DD	06H
	DD	0152H
	DD	FLAT:??_C@_0OD@PBDG@The?5witch?5Adria?5seeks?5a?5black?5mu@
	DD	01H
	DD	05H
	DD	0189H
	DD	FLAT:??_C@_0OM@DELD@Let?5me?5just?5say?5this?4?5Both?5Garda@
	DD	01H
	DD	05H
	DD	01aeH
	DD	FLAT:??_C@_0BGE@ENCM@The?5witch?5told?5me?5that?5you?5were?5@
	DD	01H
	DD	05H
	DD	012bH
	DD	FLAT:??_C@_0ND@LBDP@Excellent?0?5this?5is?5just?5what?5I?5h@
	DD	01H
	DD	05H
	DD	012cH
	DD	FLAT:??_C@_0FI@HPCK@I?5think?5Ogden?5might?5have?5some?5mu@
	DD	01H
	DD	07H
	DD	09eH
	DD	FLAT:??_C@_0NK@HJPE@If?5Adria?5doesn?8t?5have?5one?5of?5the@
	DD	01H
	DD	05H
	DD	0c6H
	DD	FLAT:??_C@_0IC@OJIM@Ogden?5mixes?5a?5MEAN?5black?5mushroo@
	DD	01H
	DD	05H
	DD	0102H
	DD	FLAT:??_C@_0MM@DGBL@What?5do?5we?5have?5here?$DP?5Interestin@
	DD	01H
	DD	05H
	DD	01deH
	DD	FLAT:??_C@_0IM@HIJJ@It?8s?5a?5big?0?5black?5mushroom?5that?5@
	DD	01H
	DD	06H
	DD	01dfH
	DD	FLAT:??_C@_0BFO@GEJH@Yes?0?5this?5will?5be?5perfect?5for?5a?5@
	DD	01H
	DD	05H
	DD	01e0H
	DD	FLAT:??_C@_0BAL@OEFK@Why?5have?5you?5brought?5that?5here?$DP?5@
	DD	01H
	DD	05H
	DD	01e1H
	DD	FLAT:??_C@_0HN@JCMP@What?$DP?5Now?5you?5bring?5me?5that?5elix@
	DD	01H
	DD	06H
	DD	01e2H
	DD	FLAT:??_C@_0GD@DCAJ@I?5don?8t?5have?5any?5mushrooms?5of?5an@
	DD	01H
	DD	06H
	DD	0153H
	DD	FLAT:??_C@_0DNC@DFGB@So?0?5the?5legend?5of?5the?5Map?5is?5rea@
	DD	01H
	DD	02H
	DD	018aH
	DD	FLAT:??_C@_0HG@OAIH@Our?5time?5is?5running?5short?$CB?5I?5sen@
	DD	01H
	DD	06H
	DD	018bH
	DD	FLAT:??_C@_0BCN@GOM@I?5am?5sure?5that?5you?5tried?5your?5be@
	DD	01H
	DD	05H
	DD	018cH
	DD	FLAT:??_C@_0NK@IKFG@If?5the?5witch?5can?8t?5help?5you?5and?5@
	DD	01H
	DD	06H
	DD	01afH
	DD	FLAT:??_C@_0NL@NMNL@I?5can?8t?5make?5much?5of?5the?5writing@
	DD	01H
	DD	06H
	DD	0124H
	DD	FLAT:??_C@_0MO@PAFL@The?5best?5person?5to?5ask?5about?5tha@
	DD	01H
	DD	06H
	DD	09fH
	DD	FLAT:??_C@_0KN@BBPI@I?5have?5never?5seen?5a?5map?5of?5this?5@
	DD	01H
	DD	06H
	DD	0c7H
	DD	FLAT:??_C@_0HH@ONBA@Listen?5here?0?5come?5close?4?5I?5don?8t@
	DD	01H
	DD	05H
	DD	0103H
	DD	FLAT:??_C@_0NM@CELJ@Oh?0?5I?8m?5afraid?5this?5does?5not?5bod@
	DD	01H
	DD	05H
	DD	01ddH
	DD	FLAT:??_C@_0ME@JPKK@I?8ve?5been?5looking?5for?5a?5map?0?5but@
	DD	01H
	DD	05H
	DD	0154H
	DD	FLAT:??_C@_0EL@KAGA@Pleeeease?0?5no?5hurt?4?5No?5Kill?4?5Kee@
	DD	01H
	DD	06H
	DD	0347H
	DD	FLAT:??_C@_0HH@EPFF@Something?5for?5you?5I?5am?5making?4?5A@
	DD	01H
	DD	06H
	DD	0348H
	DD	FLAT:??_C@_0GG@KGHB@Nothing?5yet?$CB?5Almost?5done?4?5?6?5?6Ver@
	DD	01H
	DD	06H
	DD	0349H
	DD	FLAT:??_C@_0DN@JOKI@This?5too?5good?5for?5you?4?5Very?5Powe@
	DD	01H
	DD	06H
	DD	034aH
	DD	FLAT:??_C@_0IP@JLCE@What?$DP?$CB?5Why?5are?5you?5here?$DP?5All?5the@
	DD	01H
	DD	06H
	DD	0357H
	DD	FLAT:??_C@_0DG@BEGG@Arrrrgh?$CB?5Your?5curiosity?5will?5be?5@
	DD	01H
	DD	07H
	DD	0358H
	DD	FLAT:??_C@_0CO@NHMI@Hello?0?5my?5friend?4?5Stay?5awhile?5an@
	DD	00H
	DD	05H
	DD	018dH
	DD	FLAT:??_C@_0LA@HHNB@While?5you?5are?5venturing?5deeper?5i@
	DD	01H
	DD	06H
	DD	018eH
	DD	FLAT:??_C@_0PC@JABC@I?5know?5of?5many?5myths?5and?5legends@
	DD	01H
	DD	05H
	DD	018fH
	DD	FLAT:??_C@_0BFP@KJOE@Griswold?5?9?5a?5man?5of?5great?5action@
	DD	01H
	DD	05H
	DD	0190H
	DD	FLAT:??_C@_0BEP@NONA@Ogden?5has?5owned?5and?5run?5the?5Risi@
	DD	01H
	DD	05H
	DD	0191H
	DD	FLAT:??_C@_0BGK@HEMO@Poor?5Farnham?4?5He?5is?5a?5disquietin@
	DD	01H
	DD	05H
	DD	0192H
	DD	FLAT:??_C@_0BEK@IIIF@The?5witch?0?5Adria?0?5is?5an?5anomaly?5@
	DD	01H
	DD	05H
	DD	0193H
	DD	FLAT:??_C@_0BLA@CMEH@The?5story?5of?5Wirt?5is?5a?5frighteni@
	DD	01H
	DD	05H
	DD	0195H
	DD	FLAT:??_C@_0ON@LHIM@Ah?0?5Pepin?4?5I?5count?5him?5as?5a?5true@
	DD	01H
	DD	05H
	DD	0196H
	DD	FLAT:??_C@_0BDP@IHNJ@Gillian?5is?5a?5fine?5woman?4?5Much?5ad@
	DD	01H
	DD	05H
	DD	0197H
	DD	FLAT:??_C@_0ED@IHED@Greetings?0?5good?5master?4?5Welcome?5@
	DD	00H
	DD	05H
	DD	01bfH
	DD	FLAT:??_C@_0BAP@KJPC@Many?5adventurers?5have?5graced?5the@
	DD	01H
	DD	05H
	DD	01c0H
	DD	FLAT:??_C@_0JI@NDOI@Griswold?5the?5blacksmith?5is?5extre@
	DD	01H
	DD	06H
	DD	01c1H
	DD	FLAT:??_C@_0JL@LFFN@Farnham?5spends?5far?5too?5much?5time@
	DD	01H
	DD	06H
	DD	01c2H
	DD	FLAT:??_C@_0NK@CCDK@Adria?5is?5wise?5beyond?5her?5years?0?5@
	DD	01H
	DD	06H
	DD	01c3H
	DD	FLAT:??_C@_0HE@GCOP@If?5you?5want?5to?5know?5more?5about?5t@
	DD	01H
	DD	06H
	DD	01c4H
	DD	FLAT:??_C@_0BAP@GJPF@Wirt?5is?5a?5rapscallion?5and?5a?5litt@
	DD	01H
	DD	06H
	DD	01c6H
	DD	FLAT:??_C@_0MH@GOFJ@Pepin?5is?5a?5good?5man?5?9?5and?5certai@
	DD	01H
	DD	06H
	DD	01c7H
	DD	FLAT:??_C@_0BAE@GCN@Gillian?0?5my?5Barmaid?$DP?5If?5it?5were?5@
	DD	01H
	DD	06H
	DD	01c8H
	DD	FLAT:??_C@_0BM@OKLI@What?5ails?5you?0?5my?5friend?$DP?5?$HM?$AA@
	DD	00H
	DD	05H
	DD	0136H
	DD	FLAT:??_C@_0OM@CINH@I?5have?5made?5a?5very?5interesting?5d@
	DD	01H
	DD	05H
	DD	0137H
	DD	FLAT:??_C@_0PH@OFIE@Before?5it?5was?5taken?5over?5by?0?5wel@
	DD	01H
	DD	05H
	DD	0138H
	DD	FLAT:??_C@_0NA@HMAC@Griswold?5knows?5as?5much?5about?5the@
	DD	01H
	DD	05H
	DD	0139H
	DD	FLAT:??_C@_0MF@KAKG@Cain?5is?5a?5true?5friend?5and?5a?5wise@
	DD	01H
	DD	05H
	DD	013aH
	DD	FLAT:??_C@_0JG@MLH@Even?5my?5skills?5have?5been?5unable?5@
	DD	01H
	DD	05H
	DD	013bH
	DD	FLAT:??_C@_0BDP@CFOJ@While?5I?5use?5some?5limited?5forms?5o@
	DD	01H
	DD	05H
	DD	013cH
	DD	FLAT:??_C@_0PD@HPPJ@Poor?5Wirt?4?5I?5did?5all?5that?5was?5po@
	DD	01H
	DD	05H
	DD	013eH
	DD	FLAT:??_C@_0BGM@GGCO@I?5really?5don?8t?5understand?5why?5Og@
	DD	01H
	DD	05H
	DD	013fH
	DD	FLAT:??_C@_0LE@CPOG@Ogden?8s?5barmaid?5is?5a?5sweet?5girl?4@
	DD	01H
	DD	06H
	DD	0140H
	DD	FLAT:??_C@_0CB@OAIK@Good?5day?$CB?5How?5may?5I?5serve?5you?$DP?5?$HM@
	DD	00H
	DD	05H
	DD	0aaH
	DD	FLAT:??_C@_0HI@CIIL@My?5grandmother?5had?5a?5dream?5that?5@
	DD	01H
	DD	06H
	DD	0abH
	DD	FLAT:??_C@_0OG@PFKL@The?5woman?5at?5the?5edge?5of?5town?5is@
	DD	01H
	DD	06H
	DD	0acH
	DD	FLAT:??_C@_0BAP@PJLN@Our?5Blacksmith?5is?5a?5point?5of?5pri@
	DD	01H
	DD	05H
	DD	0adH
	DD	FLAT:??_C@_0JL@NENK@Cain?5has?5been?5the?5storyteller?5of@
	DD	01H
	DD	06H
	DD	0aeH
	DD	FLAT:??_C@_0PL@GEFO@Farnham?5is?5a?5drunkard?5who?5fills?5@
	DD	01H
	DD	06H
	DD	0afH
	DD	FLAT:??_C@_0BAJ@GNCE@Pepin?5saved?5my?5grandmother?8s?5lif@
	DD	01H
	DD	05H
	DD	0b0H
	DD	FLAT:??_C@_0BIC@BAOL@I?5grew?5up?5with?5Wirt?8s?5mother?0?5Ca@
	DD	01H
	DD	05H
	DD	0b2H
	DD	FLAT:??_C@_0PE@LNAL@Ogden?5and?5his?5wife?5have?5taken?5me@
	DD	01H
	DD	05H
	DD	0b3H
	DD	FLAT:??_C@_0BO@IOHP@Well?0?5what?5can?5I?5do?5for?5ya?$DP?5?$HM?$AA@
	DD	00H
	DD	05H
	DD	0dfH
	DD	FLAT:??_C@_0PC@IMH@If?5you?8re?5looking?5for?5a?5good?5wea@
	DD	01H
	DD	05H
	DD	0e0H
	DD	FLAT:??_C@_0OI@IPDF@The?5axe?$DP?5Aye?0?5that?8s?5a?5good?5weap@
	DD	01H
	DD	05H
	DD	0e1H
	DD	FLAT:??_C@_0BAD@LLLB@Look?5at?5that?5edge?0?5that?5balance?4@
	DD	01H
	DD	05H
	DD	0e2H
	DD	FLAT:??_C@_0LL@JBEI@Your?5weapons?5and?5armor?5will?5show@
	DD	01H
	DD	06H
	DD	0e3H
	DD	FLAT:??_C@_0BCJ@EEGB@While?5I?5have?5to?5practically?5smug@
	DD	01H
	DD	05H
	DD	0e4H
	DD	FLAT:??_C@_0JK@NIIE@Gillian?5is?5a?5nice?5lass?4?5Shame?5th@
	DD	01H
	DD	06H
	DD	0e5H
	DD	FLAT:??_C@_0MN@MBCF@Sometimes?5I?5think?5that?5Cain?5talk@
	DD	01H
	DD	05H
	DD	0e6H
	DD	FLAT:??_C@_0BDA@BFLB@I?5was?5with?5Farnham?5that?5night?5th@
	DD	01H
	DD	05H
	DD	0e7H
	DD	FLAT:??_C@_0LC@HEN@A?5good?5man?5who?5puts?5the?5needs?5of@
	DD	01H
	DD	06H
	DD	0e8H
	DD	FLAT:??_C@_0BFC@GLJH@That?5lad?5is?5going?5to?5get?5himself@
	DD	01H
	DD	05H
	DD	0eaH
	DD	FLAT:??_C@_0BMA@CFMJ@The?5Innkeeper?5has?5little?5busines@
	DD	01H
	DD	05H
	DD	0ebH
	DD	FLAT:??_C@_0CA@JCEK@Can?8t?5a?5fella?5drink?5in?5peace?$DP?5?$HM?$AA@
	DD	00H
	DD	05H
	DD	0109H
	DD	FLAT:??_C@_0EN@EJNE@The?5gal?5who?5brings?5the?5drinks?$DP?5O@
	DD	01H
	DD	06H
	DD	010aH
	DD	FLAT:??_C@_0OE@FMDI@Why?5don?8t?5that?5old?5crone?5do?5some@
	DD	01H
	DD	05H
	DD	010bH
	DD	FLAT:??_C@_0JP@FFDK@Cain?5isn?8t?5what?5he?5says?5he?5is?4?5S@
	DD	01H
	DD	05H
	DD	010cH
	DD	FLAT:??_C@_0IN@FPMD@Griswold?$DP?5Good?5old?5Griswold?4?5I?5l@
	DD	01H
	DD	05H
	DD	010dH
	DD	FLAT:??_C@_0OJ@JIFC@Hehehe?0?5I?5like?5Pepin?4?5He?5really?5@
	DD	01H
	DD	05H
	DD	010eH
	DD	FLAT:??_C@_0NP@GHOO@Wirt?5is?5a?5kid?5with?5more?5problems@
	DD	01H
	DD	05H
	DD	0110H
	DD	FLAT:??_C@_0NM@ICEM@Ogden?5is?5the?5best?5man?5in?5town?4?5I@
	DD	01H
	DD	05H
	DD	0111H
	DD	FLAT:??_C@_0LC@DAKE@I?5wanna?5tell?5ya?5sumthin?8?0?5?8cause@
	DD	01H
	DD	05H
	DD	0105H
	DD	FLAT:??_C@_0LI@HDAI@No?5one?5ever?5lis?4?4?4?5listens?5to?5me@
	DD	01H
	DD	05H
	DD	0106H
	DD	FLAT:??_C@_0PP@GFC@I?5know?5you?5gots?5your?5own?5ideas?0?5@
	DD	01H
	DD	05H
	DD	0107H
	DD	FLAT:??_C@_0OD@HAHJ@If?5I?5was?5you?4?4?4?5and?5I?5ain?8t?4?4?4?5b@
	DD	01H
	DD	05H
	DD	0108H
	DD	FLAT:??_C@_0CJ@MHFH@I?5sense?5a?5soul?5in?5search?5of?5answ@
	DD	00H
	DD	05H
	DD	01eeH
	DD	FLAT:??_C@_0NN@NKBO@Wisdom?5is?5earned?0?5not?5given?4?5If?5@
	DD	01H
	DD	05H
	DD	01efH
	DD	FLAT:??_C@_0BJK@COGJ@The?5greatest?5power?5is?5often?5the?5@
	DD	01H
	DD	05H
	DD	01f0H
	DD	FLAT:??_C@_0BFO@DMBJ@Though?5the?5heat?5of?5the?5sun?5is?5be@
	DD	01H
	DD	05H
	DD	01f1H
	DD	FLAT:??_C@_0MK@CCCJ@The?5sum?5of?5our?5knowledge?5is?5in?5t@
	DD	01H
	DD	05H
	DD	01f2H
	DD	FLAT:??_C@_0MB@NOML@To?5a?5man?5who?5only?5knows?5Iron?0?5th@
	DD	01H
	DD	05H
	DD	01f3H
	DD	FLAT:??_C@_0OO@INKM@Corruption?5has?5the?5strength?5of?5d@
	DD	01H
	DD	05H
	DD	01f4H
	DD	FLAT:??_C@_0BAK@MNNG@A?5chest?5opened?5in?5darkness?5holds@
	DD	01H
	DD	05H
	DD	01f5H
	DD	FLAT:??_C@_0BBH@CNBM@The?5higher?5you?5place?5your?5faith?5@
	DD	01H
	DD	05H
	DD	01f6H
	DD	FLAT:??_C@_0BEB@BIKJ@The?5hand?0?5the?5heart?5and?5the?5mind@
	DD	01H
	DD	05H
	DD	01f7H
	DD	FLAT:??_C@_0BMP@FECG@There?5is?5much?5about?5the?5future?5w@
	DD	01H
	DD	04H
	DD	01f9H
	DD	FLAT:??_C@_0CAD@CBLM@Earthen?5walls?5and?5thatched?5canop@
	DD	01H
	DD	04H
	DD	01faH
	DD	FLAT:??_C@_0BI@JGAM@Pssst?4?4?4?5over?5here?4?4?4?5?$HM?$AA@
	DD	00H
	DD	05H
	DD	0160H
	DD	FLAT:??_C@_0NH@EBOI@Not?5everyone?5in?5Tristram?5has?5a?5u@
	DD	01H
	DD	06H
	DD	0161H
	DD	FLAT:??_C@_0GC@NCKB@Don?8t?5trust?5everything?5the?5drunk@
	DD	01H
	DD	06H
	DD	0162H
	DD	FLAT:??_C@_0PK@MPPC@In?5case?5you?5haven?8t?5noticed?0?5I?5d@
	DD	01H
	DD	05H
	DD	0163H
	DD	FLAT:??_C@_0BBB@PNON@I?5guess?5I?5owe?5the?5blacksmith?5my?5@
	DD	01H
	DD	05H
	DD	0164H
	DD	FLAT:??_C@_0BBM@BDD@If?5I?5were?5a?5few?5years?5older?0?5I?5w@
	DD	01H
	DD	05H
	DD	0165H
	DD	FLAT:??_C@_0NM@EPHD@Cain?5knows?5too?5much?4?5He?5scares?5t@
	DD	01H
	DD	05H
	DD	0166H
	DD	FLAT:??_C@_0BGL@PMGC@Farnham?5?9?5now?5there?5is?5a?5man?5wit@
	DD	01H
	DD	05H
	DD	0167H
	DD	FLAT:??_C@_0KE@KLJD@As?5long?5as?5you?5don?8t?5need?5anythi@
	DD	01H
	DD	06H
	DD	0168H
	DD	FLAT:??_C@_0BDA@IAAA@Adria?5truly?5bothers?5me?4?5Sure?0?5Ca@
	DD	01H
	DD	05H
	DD	016aH
	DD	FLAT:??_C@_0BBB@IGFO@Ogden?5is?5a?5fool?5for?5staying?5here@
	DD	01H
	DD	05H
	DD	016bH
	DD	FLAT:??_C@_0MD@OINA@Beyond?5the?5Hall?5of?5Heroes?5lies?5t@
	DD	01H
	DD	05H
	DD	02caH
	DD	FLAT:??_C@_0HL@PJLJ@?4?4?4and?5so?0?5locked?5beyond?5the?5Gat@
	DD	01H
	DD	06H
	DD	02d3H
	DD	FLAT:??_C@_0BAA@NLCC@I?5can?5see?5what?5you?5see?5not?4?6Visi@
	DD	01H
	DD	05H
	DD	02d4H
	DD	FLAT:??_C@_0OJ@FKCI@The?5armories?5of?5Hell?5are?5home?5to@
	DD	01H
	DD	05H
	DD	02d5H
	DD	FLAT:??_C@_0MD@OINA@Beyond?5the?5Hall?5of?5Heroes?5lies?5t@
	DD	01H
	DD	05H
	DD	01fcH
	DD	FLAT:??_C@_0HL@PJLJ@?4?4?4and?5so?0?5locked?5beyond?5the?5Gat@
	DD	01H
	DD	06H
	DD	0205H
	DD	FLAT:??_C@_0BAA@NLCC@I?5can?5see?5what?5you?5see?5not?4?6Visi@
	DD	01H
	DD	04H
	DD	0206H
	DD	FLAT:??_C@_0OJ@FKCI@The?5armories?5of?5Hell?5are?5home?5to@
	DD	01H
	DD	05H
	DD	0207H
	DD	FLAT:??_C@_0MD@OINA@Beyond?5the?5Hall?5of?5Heroes?5lies?5t@
	DD	01H
	DD	05H
	DD	0263H
	DD	FLAT:??_C@_0HL@PJLJ@?4?4?4and?5so?0?5locked?5beyond?5the?5Gat@
	DD	01H
	DD	05H
	DD	026cH
	DD	FLAT:??_C@_0BAA@NLCC@I?5can?5see?5what?5you?5see?5not?4?6Visi@
	DD	01H
	DD	05H
	DD	026dH
	DD	FLAT:??_C@_0OJ@FKCI@The?5armories?5of?5Hell?5are?5home?5to@
	DD	01H
	DD	05H
	DD	026eH
	DD	FLAT:??_C@_02HFOG@?5?$HM?$AA@
	DD	00H
	DD	05H
	DD	0ecH
	DD	FLAT:??_C@_02HFOG@?5?$HM?$AA@
	DD	00H
	DD	05H
	DD	0edH
	DD	FLAT:??_C@_0BPE@JMJL@Take?5heed?5and?5bear?5witness?5to?5th@
	DD	01H
	DD	05H
	DD	033cH
	DD	FLAT:??_C@_0BNB@LDEK@Take?5heed?5and?5bear?5witness?5to?5th@
	DD	01H
	DD	04H
	DD	033dH
	DD	FLAT:??_C@_0EEK@CKGF@Take?5heed?5and?5bear?5witness?5to?5th@
	DD	01H
	DD	03H
	DD	033eH
	DD	FLAT:??_C@_0BPE@KCBK@So?5it?5came?5to?5be?5that?5there?5was?5@
	DD	01H
	DD	04H
	DD	033fH
	DD	FLAT:??_C@_0BHF@PIMJ@Many?5demons?5traveled?5to?5the?5mort@
	DD	01H
	DD	05H
	DD	0340H
	DD	FLAT:??_C@_0DDH@IDMK@So?5it?5came?5to?5be?5that?5the?5Three?5@
	DD	01H
	DD	03H
	DD	0341H
	DD	FLAT:??_C@_0BLG@EIJK@All?5praises?5to?5Diablo?5?9?5Lord?5of?5@
	DD	01H
	DD	04H
	DD	0342H
	DD	FLAT:??_C@_0BKF@KIGP@Glory?5and?5Approbation?5to?5Diablo?5@
	DD	01H
	DD	04H
	DD	0343H
	DD	FLAT:??_C@_0CHD@HMLO@Hail?5and?5Sacrifice?5to?5Diablo?5?9?5L@
	DD	01H
	DD	03H
	DD	0344H
	DD	FLAT:??_C@_0CGO@ICAH@Thank?5goodness?5you?8ve?5returned?$CB?6@
	DD	01H
	DD	05H
	DD	019bH
_gdwAllTextEntries DD 0103H
CONST	ENDS
END
